
pwm-sine.elf:     file format elf32-littlearm


Disassembly of section .text:

00008000 <_start>:
    8000:	e3a0d302 	mov	sp, #134217728	; 0x8000000
    8004:	e3a0b000 	mov	fp, #0
    8008:	eb00000c 	bl	8040 <_cstart>

0000800c <hang>:
    800c:	eafffffe 	b	800c <hang>

00008010 <main>:
    8010:	e92d4008 	push	{r3, lr}
    8014:	eb00008b 	bl	8248 <audio_init>
    8018:	eb0000d2 	bl	8368 <peripherals_init>
    801c:	e59f3018 	ldr	r3, [pc, #24]	; 803c <main+0x2c>
    8020:	e1a02003 	mov	r2, r3
    8024:	e2830004 	add	r0, r3, #4
    8028:	e4921078 	ldr	r1, [r2], #120	; 0x78
    802c:	e5933074 	ldr	r3, [r3, #116]	; 0x74
    8030:	eb000202 	bl	8840 <turntable_run>
    8034:	e8bd4008 	pop	{r3, lr}
    8038:	e12fff1e 	bx	lr
    803c:	0000a3a8 	andeq	sl, r0, r8, lsr #7

00008040 <_cstart>:
    8040:	e92d4008 	push	{r3, lr}
    8044:	e59f3024 	ldr	r3, [pc, #36]	; 8070 <_cstart+0x30>
    8048:	e59f2024 	ldr	r2, [pc, #36]	; 8074 <_cstart+0x34>
    804c:	e3a01000 	mov	r1, #0
    8050:	ea000001 	b	805c <_cstart+0x1c>
    8054:	e5831000 	str	r1, [r3]
    8058:	e2833004 	add	r3, r3, #4
    805c:	e1530002 	cmp	r3, r2
    8060:	3afffffb 	bcc	8054 <_cstart+0x14>
    8064:	ebffffe9 	bl	8010 <main>
    8068:	e8bd4008 	pop	{r3, lr}
    806c:	e12fff1e 	bx	lr
    8070:	0000c650 	andeq	ip, r0, r0, asr r6
    8074:	0000c960 	andeq	ip, r0, r0, ror #18

00008078 <audio_set_clock>:
    8078:	e92d4038 	push	{r3, r4, r5, lr}
    807c:	e1a04600 	lsl	r4, r0, #12
    8080:	e59f006c 	ldr	r0, [pc, #108]	; 80f4 <audio_set_clock+0x7c>
    8084:	e1a01004 	mov	r1, r4
    8088:	eb000598 	bl	96f0 <__aeabi_uidiv>
    808c:	e1a05000 	mov	r5, r0
    8090:	e0000495 	mul	r0, r5, r4
    8094:	e2600749 	rsb	r0, r0, #19136512	; 0x1240000
    8098:	e2800b3e 	add	r0, r0, #63488	; 0xf800
    809c:	e1a01624 	lsr	r1, r4, #12
    80a0:	eb000592 	bl	96f0 <__aeabi_uidiv>
    80a4:	e2452001 	sub	r2, r5, #1
    80a8:	e59f3048 	ldr	r3, [pc, #72]	; 80f8 <audio_set_clock+0x80>
    80ac:	e1520003 	cmp	r2, r3
    80b0:	8a00000a 	bhi	80e0 <audio_set_clock+0x68>
    80b4:	e3500a01 	cmp	r0, #4096	; 0x1000
    80b8:	2a00000a 	bcs	80e8 <audio_set_clock+0x70>
    80bc:	e59f3038 	ldr	r3, [pc, #56]	; 80fc <audio_set_clock+0x84>
    80c0:	e5933000 	ldr	r3, [r3]
    80c4:	e59f2034 	ldr	r2, [pc, #52]	; 8100 <audio_set_clock+0x88>
    80c8:	e58320a0 	str	r2, [r3, #160]	; 0xa0
    80cc:	e1800605 	orr	r0, r0, r5, lsl #12
    80d0:	e380045a 	orr	r0, r0, #1509949440	; 0x5a000000
    80d4:	e58300a4 	str	r0, [r3, #164]	; 0xa4
    80d8:	e3a00001 	mov	r0, #1
    80dc:	ea000002 	b	80ec <audio_set_clock+0x74>
    80e0:	e3a00000 	mov	r0, #0
    80e4:	ea000000 	b	80ec <audio_set_clock+0x74>
    80e8:	e3a00000 	mov	r0, #0
    80ec:	e8bd4038 	pop	{r3, r4, r5, lr}
    80f0:	e12fff1e 	bx	lr
    80f4:	0124f800 	msreq	CPSR_s, r0, lsl #16
    80f8:	00000ffe 	strdeq	r0, [r0], -lr
    80fc:	0000a530 	andeq	sl, r0, r0, lsr r5
    8100:	5a000020 	bpl	8188 <audio_send_tone+0x84>

00008104 <audio_send_tone>:
    8104:	e92d4ff0 	push	{r4, r5, r6, r7, r8, r9, sl, fp, lr}
    8108:	e24dd014 	sub	sp, sp, #20
    810c:	e58d100c 	str	r1, [sp, #12]
    8110:	eb0006de 	bl	9c90 <__aeabi_i2d>
    8114:	e3a02000 	mov	r2, #0
    8118:	e59f310c 	ldr	r3, [pc, #268]	; 822c <audio_send_tone+0x128>
    811c:	eb000712 	bl	9d6c <__aeabi_dmul>
    8120:	e3a02000 	mov	r2, #0
    8124:	e59f3104 	ldr	r3, [pc, #260]	; 8230 <audio_send_tone+0x12c>
    8128:	eb0007b3 	bl	9ffc <__aeabi_ddiv>
    812c:	e3a02000 	mov	r2, #0
    8130:	e59f30fc 	ldr	r3, [pc, #252]	; 8234 <audio_send_tone+0x130>
    8134:	eb0007b0 	bl	9ffc <__aeabi_ddiv>
    8138:	e88d0003 	stm	sp, {r0, r1}
    813c:	e3a06000 	mov	r6, #0
    8140:	e59fa0f0 	ldr	sl, [pc, #240]	; 8238 <audio_send_tone+0x134>
    8144:	e59f70f0 	ldr	r7, [pc, #240]	; 823c <audio_send_tone+0x138>
    8148:	ea000032 	b	8218 <audio_send_tone+0x114>
    814c:	e59a8004 	ldr	r8, [sl, #4]
    8150:	e5989004 	ldr	r9, [r8, #4]
    8154:	e3190001 	tst	r9, #1
    8158:	1a00002a 	bne	8208 <audio_send_tone+0x104>
    815c:	e5973000 	ldr	r3, [r7]
    8160:	e08a3103 	add	r3, sl, r3, lsl #2
    8164:	e5930008 	ldr	r0, [r3, #8]
    8168:	e59d100c 	ldr	r1, [sp, #12]
    816c:	eb00055f 	bl	96f0 <__aeabi_uidiv>
    8170:	e5880018 	str	r0, [r8, #24]
    8174:	e89d0003 	ldm	sp, {r0, r1}
    8178:	e2873008 	add	r3, r7, #8
    817c:	e893000c 	ldm	r3, {r2, r3}
    8180:	eb0005f5 	bl	995c <__adddf3>
    8184:	e1a04000 	mov	r4, r0
    8188:	e1a05001 	mov	r5, r1
    818c:	e5874008 	str	r4, [r7, #8]
    8190:	e587500c 	str	r5, [r7, #12]
    8194:	eb00086c 	bl	a34c <__aeabi_d2iz>
    8198:	e1a0b000 	mov	fp, r0
    819c:	eb0006bb 	bl	9c90 <__aeabi_i2d>
    81a0:	e3a02000 	mov	r2, #0
    81a4:	e59f3094 	ldr	r3, [pc, #148]	; 8240 <audio_send_tone+0x13c>
    81a8:	eb0005eb 	bl	995c <__adddf3>
    81ac:	e1a02000 	mov	r2, r0
    81b0:	e1a03001 	mov	r3, r1
    81b4:	e1a00004 	mov	r0, r4
    81b8:	e1a01005 	mov	r1, r5
    81bc:	eb000856 	bl	a31c <__aeabi_dcmpge>
    81c0:	e3500000 	cmp	r0, #0
    81c4:	0a000007 	beq	81e8 <audio_send_tone+0xe4>
    81c8:	e1a00004 	mov	r0, r4
    81cc:	e1a01005 	mov	r1, r5
    81d0:	e3a02000 	mov	r2, #0
    81d4:	e59f3068 	ldr	r3, [pc, #104]	; 8244 <audio_send_tone+0x140>
    81d8:	eb0005df 	bl	995c <__adddf3>
    81dc:	eb00085a 	bl	a34c <__aeabi_d2iz>
    81e0:	e5870000 	str	r0, [r7]
    81e4:	ea000000 	b	81ec <audio_send_tone+0xe8>
    81e8:	e587b000 	str	fp, [r7]
    81ec:	e5972000 	ldr	r2, [r7]
    81f0:	e1a03fc2 	asr	r3, r2, #31
    81f4:	e1a03b23 	lsr	r3, r3, #22
    81f8:	e0822003 	add	r2, r2, r3
    81fc:	e1a02b02 	lsl	r2, r2, #22
    8200:	e0633b22 	rsb	r3, r3, r2, lsr #22
    8204:	e5873000 	str	r3, [r7]
    8208:	e319003c 	tst	r9, #60	; 0x3c
    820c:	13a0303c 	movne	r3, #60	; 0x3c
    8210:	15883004 	strne	r3, [r8, #4]
    8214:	e2866001 	add	r6, r6, #1
    8218:	e3560063 	cmp	r6, #99	; 0x63
    821c:	daffffca 	ble	814c <audio_send_tone+0x48>
    8220:	e28dd014 	add	sp, sp, #20
    8224:	e8bd4ff0 	pop	{r4, r5, r6, r7, r8, r9, sl, fp, lr}
    8228:	e12fff1e 	bx	lr
    822c:	40300000 	eorsmi	r0, r0, r0
    8230:	408f4000 	addmi	r4, pc, r0
    8234:	40590000 	subsmi	r0, r9, r0
    8238:	0000a530 	andeq	sl, r0, r0, lsr r5
    823c:	0000c650 	andeq	ip, r0, r0, asr r6
    8240:	3fe00000 	svccc	0x00e00000
    8244:	3ff00000 	svccc	0x00f00000	; IMB

00008248 <audio_init>:
    8248:	e92d4010 	push	{r4, lr}
    824c:	e59f30d4 	ldr	r3, [pc, #212]	; 8328 <audio_init+0xe0>
    8250:	e5133fec 	ldr	r3, [r3, #-4076]	; 0xfec
    8254:	e5932010 	ldr	r2, [r3, #16]
    8258:	e3822004 	orr	r2, r2, #4
    825c:	e5832010 	str	r2, [r3, #16]
    8260:	e5932010 	ldr	r2, [r3, #16]
    8264:	e3822802 	orr	r2, r2, #131072	; 0x20000
    8268:	e5832010 	str	r2, [r3, #16]
    826c:	e3a00e7d 	mov	r0, #2000	; 0x7d0
    8270:	eb000437 	bl	9354 <delay_us>
    8274:	e3a03000 	mov	r3, #0
    8278:	e3a04040 	mov	r4, #64	; 0x40
    827c:	e1a0e003 	mov	lr, r3
    8280:	e59fc0a4 	ldr	ip, [pc, #164]	; 832c <audio_init+0xe4>
    8284:	e59f00a4 	ldr	r0, [pc, #164]	; 8330 <audio_init+0xe8>
    8288:	e59f10a4 	ldr	r1, [pc, #164]	; 8334 <audio_init+0xec>
    828c:	ea00000a 	b	82bc <audio_init+0x74>
    8290:	e353001f 	cmp	r3, #31
    8294:	d1a0200e 	movle	r2, lr
    8298:	c1a02004 	movgt	r2, r4
    829c:	e78c2103 	str	r2, [ip, r3, lsl #2]
    82a0:	e353001f 	cmp	r3, #31
    82a4:	d1a02083 	lslle	r2, r3, #1
    82a8:	c2632040 	rsbgt	r2, r3, #64	; 0x40
    82ac:	c1a02082 	lslgt	r2, r2, #1
    82b0:	e7802103 	str	r2, [r0, r3, lsl #2]
    82b4:	e7813103 	str	r3, [r1, r3, lsl #2]
    82b8:	e2833001 	add	r3, r3, #1
    82bc:	e353003f 	cmp	r3, #63	; 0x3f
    82c0:	dafffff2 	ble	8290 <audio_init+0x48>
    82c4:	e3a00ffa 	mov	r0, #1000	; 0x3e8
    82c8:	ebffff6a 	bl	8078 <audio_set_clock>
    82cc:	e3500000 	cmp	r0, #0
    82d0:	0a000012 	beq	8320 <audio_init+0xd8>
    82d4:	e59f405c 	ldr	r4, [pc, #92]	; 8338 <audio_init+0xf0>
    82d8:	e5943000 	ldr	r3, [r4]
    82dc:	e59f2058 	ldr	r2, [pc, #88]	; 833c <audio_init+0xf4>
    82e0:	e58320a0 	str	r2, [r3, #160]	; 0xa0
    82e4:	e3a00e7d 	mov	r0, #2000	; 0x7d0
    82e8:	eb000419 	bl	9354 <delay_us>
    82ec:	e5943004 	ldr	r3, [r4, #4]
    82f0:	e3a02000 	mov	r2, #0
    82f4:	e5832000 	str	r2, [r3]
    82f8:	e3a00e7d 	mov	r0, #2000	; 0x7d0
    82fc:	eb000414 	bl	9354 <delay_us>
    8300:	e5943004 	ldr	r3, [r4, #4]
    8304:	e3a02080 	mov	r2, #128	; 0x80
    8308:	e5832010 	str	r2, [r3, #16]
    830c:	e5832020 	str	r2, [r3, #32]
    8310:	e59f2028 	ldr	r2, [pc, #40]	; 8340 <audio_init+0xf8>
    8314:	e5832000 	str	r2, [r3]
    8318:	e3a00e7d 	mov	r0, #2000	; 0x7d0
    831c:	eb00040c 	bl	9354 <delay_us>
    8320:	e8bd4010 	pop	{r4, lr}
    8324:	e12fff1e 	bx	lr
    8328:	0000c528 	andeq	ip, r0, r8, lsr #10
    832c:	0000c660 	andeq	ip, r0, r0, ror #12
    8330:	0000c860 	andeq	ip, r0, r0, ror #16
    8334:	0000c760 	andeq	ip, r0, r0, ror #14
    8338:	0000a530 	andeq	sl, r0, r0, lsr r5
    833c:	5a000611 	bpl	9b88 <__adddf3+0x22c>
    8340:	00002161 	andeq	r2, r0, r1, ror #2

00008344 <audio_send_1kHz>:
    8344:	e12fff1e 	bx	lr

00008348 <memcpy>:
    8348:	e3a03000 	mov	r3, #0
    834c:	ea000002 	b	835c <memcpy+0x14>
    8350:	e7d1c003 	ldrb	ip, [r1, r3]
    8354:	e7c0c003 	strb	ip, [r0, r3]
    8358:	e2833001 	add	r3, r3, #1
    835c:	e1530002 	cmp	r3, r2
    8360:	3afffffa 	bcc	8350 <memcpy+0x8>
    8364:	e12fff1e 	bx	lr

00008368 <peripherals_init>:
    8368:	e92d4008 	push	{r3, lr}
    836c:	eb00004f 	bl	84b0 <mcp3008_init>
    8370:	e3a00014 	mov	r0, #20
    8374:	eb00024a 	bl	8ca4 <gpio_set_input>
    8378:	e3a00014 	mov	r0, #20
    837c:	eb00047a 	bl	956c <gpio_set_pullup>
    8380:	e3a00015 	mov	r0, #21
    8384:	eb000246 	bl	8ca4 <gpio_set_input>
    8388:	e3a00015 	mov	r0, #21
    838c:	eb000476 	bl	956c <gpio_set_pullup>
    8390:	e8bd4008 	pop	{r3, lr}
    8394:	e12fff1e 	bx	lr

00008398 <buttonPressed>:
    8398:	e92d4008 	push	{r3, lr}
    839c:	eb000264 	bl	8d34 <gpio_read>
    83a0:	e8bd4008 	pop	{r3, lr}
    83a4:	e12fff1e 	bx	lr

000083a8 <getFade>:
    83a8:	e92d4008 	push	{r3, lr}
    83ac:	e3a00003 	mov	r0, #3
    83b0:	eb000044 	bl	84c8 <mcp3008_read>
    83b4:	eb00062c 	bl	9c6c <__aeabi_ui2d>
    83b8:	e3a02000 	mov	r2, #0
    83bc:	e59f3018 	ldr	r3, [pc, #24]	; 83dc <getFade+0x34>
    83c0:	eb000669 	bl	9d6c <__aeabi_dmul>
    83c4:	e3a02000 	mov	r2, #0
    83c8:	e59f3010 	ldr	r3, [pc, #16]	; 83e0 <getFade+0x38>
    83cc:	eb000666 	bl	9d6c <__aeabi_dmul>
    83d0:	eb0007dd 	bl	a34c <__aeabi_d2iz>
    83d4:	e8bd4008 	pop	{r3, lr}
    83d8:	e12fff1e 	bx	lr
    83dc:	3f500000 	svccc	0x00500000
    83e0:	40590000 	subsmi	r0, r9, r0

000083e4 <getVolume>:
    83e4:	e92d4008 	push	{r3, lr}
    83e8:	e3a00000 	mov	r0, #0
    83ec:	eb000035 	bl	84c8 <mcp3008_read>
    83f0:	eb00061d 	bl	9c6c <__aeabi_ui2d>
    83f4:	e3a02000 	mov	r2, #0
    83f8:	e59f306c 	ldr	r3, [pc, #108]	; 846c <getVolume+0x88>
    83fc:	eb00065a 	bl	9d6c <__aeabi_dmul>
    8400:	e3a02000 	mov	r2, #0
    8404:	e59f3064 	ldr	r3, [pc, #100]	; 8470 <getVolume+0x8c>
    8408:	eb000657 	bl	9d6c <__aeabi_dmul>
    840c:	eb0007ce 	bl	a34c <__aeabi_d2iz>
    8410:	e3500000 	cmp	r0, #0
    8414:	0a000009 	beq	8440 <getVolume+0x5c>
    8418:	e3500001 	cmp	r0, #1
    841c:	0a000009 	beq	8448 <getVolume+0x64>
    8420:	e3500002 	cmp	r0, #2
    8424:	0a000009 	beq	8450 <getVolume+0x6c>
    8428:	e3500003 	cmp	r0, #3
    842c:	0a000009 	beq	8458 <getVolume+0x74>
    8430:	e3500004 	cmp	r0, #4
    8434:	1a000009 	bne	8460 <getVolume+0x7c>
    8438:	e3a00010 	mov	r0, #16
    843c:	ea000008 	b	8464 <getVolume+0x80>
    8440:	e3a00001 	mov	r0, #1
    8444:	ea000006 	b	8464 <getVolume+0x80>
    8448:	e3a00002 	mov	r0, #2
    844c:	ea000004 	b	8464 <getVolume+0x80>
    8450:	e3a00004 	mov	r0, #4
    8454:	ea000002 	b	8464 <getVolume+0x80>
    8458:	e3a00008 	mov	r0, #8
    845c:	ea000000 	b	8464 <getVolume+0x80>
    8460:	e3a00020 	mov	r0, #32
    8464:	e8bd4008 	pop	{r3, lr}
    8468:	e12fff1e 	bx	lr
    846c:	40180000 	andsmi	r0, r8, r0
    8470:	3f500000 	svccc	0x00500000

00008474 <getSpeed>:
    8474:	e92d4008 	push	{r3, lr}
    8478:	eb000012 	bl	84c8 <mcp3008_read>
    847c:	eb0005fa 	bl	9c6c <__aeabi_ui2d>
    8480:	e3a02000 	mov	r2, #0
    8484:	e59f301c 	ldr	r3, [pc, #28]	; 84a8 <getSpeed+0x34>
    8488:	eb000637 	bl	9d6c <__aeabi_dmul>
    848c:	e3a02000 	mov	r2, #0
    8490:	e59f3014 	ldr	r3, [pc, #20]	; 84ac <getSpeed+0x38>
    8494:	eb000634 	bl	9d6c <__aeabi_dmul>
    8498:	eb0007ab 	bl	a34c <__aeabi_d2iz>
    849c:	e2800001 	add	r0, r0, #1
    84a0:	e8bd4008 	pop	{r3, lr}
    84a4:	e12fff1e 	bx	lr
    84a8:	3f500000 	svccc	0x00500000
    84ac:	40240000 	eormi	r0, r4, r0

000084b0 <mcp3008_init>:
    84b0:	e92d4008 	push	{r3, lr}
    84b4:	e3a00000 	mov	r0, #0
    84b8:	e3a01b01 	mov	r1, #1024	; 0x400
    84bc:	eb000438 	bl	95a4 <spi_init>
    84c0:	e8bd4008 	pop	{r3, lr}
    84c4:	e12fff1e 	bx	lr

000084c8 <mcp3008_read>:
    84c8:	e52de004 	push	{lr}		; (str lr, [sp, #-4]!)
    84cc:	e24dd00c 	sub	sp, sp, #12
    84d0:	e3a03001 	mov	r3, #1
    84d4:	e5cd3004 	strb	r3, [sp, #4]
    84d8:	e2000007 	and	r0, r0, #7
    84dc:	e3e0307f 	mvn	r3, #127	; 0x7f
    84e0:	e1830200 	orr	r0, r3, r0, lsl #4
    84e4:	e5cd0005 	strb	r0, [sp, #5]
    84e8:	e3a03000 	mov	r3, #0
    84ec:	e5cd3006 	strb	r3, [sp, #6]
    84f0:	e28d0004 	add	r0, sp, #4
    84f4:	e1a0100d 	mov	r1, sp
    84f8:	e3a02003 	mov	r2, #3
    84fc:	eb000457 	bl	9660 <spi_transfer>
    8500:	e5dd0001 	ldrb	r0, [sp, #1]
    8504:	e2000003 	and	r0, r0, #3
    8508:	e5dd3002 	ldrb	r3, [sp, #2]
    850c:	e0830400 	add	r0, r3, r0, lsl #8
    8510:	e28dd00c 	add	sp, sp, #12
    8514:	e49de004 	pop	{lr}		; (ldr lr, [sp], #4)
    8518:	e12fff1e 	bx	lr
    851c:	00000000 	andeq	r0, r0, r0

00008520 <power>:
    8520:	e92d47f0 	push	{r4, r5, r6, r7, r8, r9, sl, lr}
    8524:	e1a08000 	mov	r8, r0
    8528:	e1a09001 	mov	r9, r1
    852c:	e1a06002 	mov	r6, r2
    8530:	e1a07003 	mov	r7, r3
    8534:	e3a0a000 	mov	sl, #0
    8538:	e3a04000 	mov	r4, #0
    853c:	e59f504c 	ldr	r5, [pc, #76]	; 8590 <power+0x70>
    8540:	ea000007 	b	8564 <power+0x44>
    8544:	e1a00004 	mov	r0, r4
    8548:	e1a01005 	mov	r1, r5
    854c:	e1a02008 	mov	r2, r8
    8550:	e1a03009 	mov	r3, r9
    8554:	eb000604 	bl	9d6c <__aeabi_dmul>
    8558:	e1a04000 	mov	r4, r0
    855c:	e1a05001 	mov	r5, r1
    8560:	e28aa001 	add	sl, sl, #1
    8564:	e1a0000a 	mov	r0, sl
    8568:	eb0005c8 	bl	9c90 <__aeabi_i2d>
    856c:	e1a02006 	mov	r2, r6
    8570:	e1a03007 	mov	r3, r7
    8574:	eb00075c 	bl	a2ec <__aeabi_dcmplt>
    8578:	e3500000 	cmp	r0, #0
    857c:	1afffff0 	bne	8544 <power+0x24>
    8580:	e1a00004 	mov	r0, r4
    8584:	e1a01005 	mov	r1, r5
    8588:	e8bd47f0 	pop	{r4, r5, r6, r7, r8, r9, sl, lr}
    858c:	e12fff1e 	bx	lr
    8590:	3ff00000 	svccc	0x00f00000	; IMB

00008594 <float_mod>:
    8594:	e92d40f8 	push	{r3, r4, r5, r6, r7, lr}
    8598:	e1a04000 	mov	r4, r0
    859c:	e1a05001 	mov	r5, r1
    85a0:	e1a06002 	mov	r6, r2
    85a4:	e1a07003 	mov	r7, r3
    85a8:	eb000693 	bl	9ffc <__aeabi_ddiv>
    85ac:	eb000766 	bl	a34c <__aeabi_d2iz>
    85b0:	e3100001 	tst	r0, #1
    85b4:	1a00000b 	bne	85e8 <float_mod+0x54>
    85b8:	eb0005b4 	bl	9c90 <__aeabi_i2d>
    85bc:	e1a02006 	mov	r2, r6
    85c0:	e1a03007 	mov	r3, r7
    85c4:	eb0005e8 	bl	9d6c <__aeabi_dmul>
    85c8:	e1a02000 	mov	r2, r0
    85cc:	e1a03001 	mov	r3, r1
    85d0:	e1a00004 	mov	r0, r4
    85d4:	e1a01005 	mov	r1, r5
    85d8:	eb0004de 	bl	9958 <__aeabi_dsub>
    85dc:	e1a02000 	mov	r2, r0
    85e0:	e1a03001 	mov	r3, r1
    85e4:	ea00000a 	b	8614 <float_mod+0x80>
    85e8:	eb0005a8 	bl	9c90 <__aeabi_i2d>
    85ec:	e1a02006 	mov	r2, r6
    85f0:	e1a03007 	mov	r3, r7
    85f4:	eb0005dc 	bl	9d6c <__aeabi_dmul>
    85f8:	e1a02000 	mov	r2, r0
    85fc:	e1a03001 	mov	r3, r1
    8600:	e1a00004 	mov	r0, r4
    8604:	e1a01005 	mov	r1, r5
    8608:	eb0004d2 	bl	9958 <__aeabi_dsub>
    860c:	e1a02000 	mov	r2, r0
    8610:	e2813102 	add	r3, r1, #-2147483648	; 0x80000000
    8614:	e1a00002 	mov	r0, r2
    8618:	e1a01003 	mov	r1, r3
    861c:	e8bd40f8 	pop	{r3, r4, r5, r6, r7, lr}
    8620:	e12fff1e 	bx	lr

00008624 <sine>:
    8624:	e92d40f8 	push	{r3, r4, r5, r6, r7, lr}
    8628:	e28f3f56 	add	r3, pc, #344	; 0x158
    862c:	e893000c 	ldm	r3, {r2, r3}
    8630:	ebffffd7 	bl	8594 <float_mod>
    8634:	e1a04000 	mov	r4, r0
    8638:	e1a05001 	mov	r5, r1
    863c:	e3a02000 	mov	r2, #0
    8640:	e59f3148 	ldr	r3, [pc, #328]	; 8790 <sine+0x16c>
    8644:	ebffffb5 	bl	8520 <power>
    8648:	e3a02000 	mov	r2, #0
    864c:	e59f3140 	ldr	r3, [pc, #320]	; 8794 <sine+0x170>
    8650:	eb000669 	bl	9ffc <__aeabi_ddiv>
    8654:	e1a02000 	mov	r2, r0
    8658:	e1a03001 	mov	r3, r1
    865c:	e1a00004 	mov	r0, r4
    8660:	e1a01005 	mov	r1, r5
    8664:	eb0004bb 	bl	9958 <__aeabi_dsub>
    8668:	e1a06000 	mov	r6, r0
    866c:	e1a07001 	mov	r7, r1
    8670:	e1a00004 	mov	r0, r4
    8674:	e1a01005 	mov	r1, r5
    8678:	e3a02000 	mov	r2, #0
    867c:	e59f3114 	ldr	r3, [pc, #276]	; 8798 <sine+0x174>
    8680:	ebffffa6 	bl	8520 <power>
    8684:	e3a02000 	mov	r2, #0
    8688:	e59f310c 	ldr	r3, [pc, #268]	; 879c <sine+0x178>
    868c:	eb00065a 	bl	9ffc <__aeabi_ddiv>
    8690:	e1a02006 	mov	r2, r6
    8694:	e1a03007 	mov	r3, r7
    8698:	eb0004af 	bl	995c <__adddf3>
    869c:	e1a06000 	mov	r6, r0
    86a0:	e1a07001 	mov	r7, r1
    86a4:	e1a00004 	mov	r0, r4
    86a8:	e1a01005 	mov	r1, r5
    86ac:	e3a02000 	mov	r2, #0
    86b0:	e59f30e8 	ldr	r3, [pc, #232]	; 87a0 <sine+0x17c>
    86b4:	ebffff99 	bl	8520 <power>
    86b8:	e3a02000 	mov	r2, #0
    86bc:	e59f30e0 	ldr	r3, [pc, #224]	; 87a4 <sine+0x180>
    86c0:	eb00064d 	bl	9ffc <__aeabi_ddiv>
    86c4:	e1a02000 	mov	r2, r0
    86c8:	e1a03001 	mov	r3, r1
    86cc:	e1a00006 	mov	r0, r6
    86d0:	e1a01007 	mov	r1, r7
    86d4:	eb00049f 	bl	9958 <__aeabi_dsub>
    86d8:	e1a06000 	mov	r6, r0
    86dc:	e1a07001 	mov	r7, r1
    86e0:	e1a00004 	mov	r0, r4
    86e4:	e1a01005 	mov	r1, r5
    86e8:	e3a02000 	mov	r2, #0
    86ec:	e59f30b4 	ldr	r3, [pc, #180]	; 87a8 <sine+0x184>
    86f0:	ebffff8a 	bl	8520 <power>
    86f4:	e3a02000 	mov	r2, #0
    86f8:	e59f30ac 	ldr	r3, [pc, #172]	; 87ac <sine+0x188>
    86fc:	eb00063e 	bl	9ffc <__aeabi_ddiv>
    8700:	e1a02006 	mov	r2, r6
    8704:	e1a03007 	mov	r3, r7
    8708:	eb000493 	bl	995c <__adddf3>
    870c:	e1a06000 	mov	r6, r0
    8710:	e1a07001 	mov	r7, r1
    8714:	e1a00004 	mov	r0, r4
    8718:	e1a01005 	mov	r1, r5
    871c:	e3a02000 	mov	r2, #0
    8720:	e59f3088 	ldr	r3, [pc, #136]	; 87b0 <sine+0x18c>
    8724:	ebffff7d 	bl	8520 <power>
    8728:	e3a02000 	mov	r2, #0
    872c:	e59f3080 	ldr	r3, [pc, #128]	; 87b4 <sine+0x190>
    8730:	eb000631 	bl	9ffc <__aeabi_ddiv>
    8734:	e1a02000 	mov	r2, r0
    8738:	e1a03001 	mov	r3, r1
    873c:	e1a00006 	mov	r0, r6
    8740:	e1a01007 	mov	r1, r7
    8744:	eb000483 	bl	9958 <__aeabi_dsub>
    8748:	e1a06000 	mov	r6, r0
    874c:	e1a07001 	mov	r7, r1
    8750:	e1a00004 	mov	r0, r4
    8754:	e1a01005 	mov	r1, r5
    8758:	e3a02000 	mov	r2, #0
    875c:	e59f3054 	ldr	r3, [pc, #84]	; 87b8 <sine+0x194>
    8760:	ebffff6e 	bl	8520 <power>
    8764:	e3a02103 	mov	r2, #-1073741824	; 0xc0000000
    8768:	e59f304c 	ldr	r3, [pc, #76]	; 87bc <sine+0x198>
    876c:	eb000622 	bl	9ffc <__aeabi_ddiv>
    8770:	e1a02006 	mov	r2, r6
    8774:	e1a03007 	mov	r3, r7
    8778:	eb000477 	bl	995c <__adddf3>
    877c:	e8bd40f8 	pop	{r3, r4, r5, r6, r7, lr}
    8780:	e12fff1e 	bx	lr
    8784:	e1a00000 	nop			; (mov r0, r0)
    8788:	4d12d84a 	ldcmi	8, cr13, [r2, #-296]	; 0xfffffed8
    878c:	400921fb 	strdmi	r2, [r9], -fp
    8790:	40080000 	andmi	r0, r8, r0
    8794:	40180000 	andsmi	r0, r8, r0
    8798:	40140000 	andsmi	r0, r4, r0
    879c:	405e0000 	subsmi	r0, lr, r0
    87a0:	401c0000 	andsmi	r0, ip, r0
    87a4:	40b3b000 	adcsmi	fp, r3, r0
    87a8:	40220000 	eormi	r0, r2, r0
    87ac:	41162600 	tstmi	r6, r0, lsl #12
    87b0:	40260000 	eormi	r0, r6, r0
    87b4:	418308a8 	orrmi	r0, r3, r8, lsr #17
    87b8:	402a0000 	eormi	r0, sl, r0
    87bc:	41f7328c 	mvnsmi	r3, ip, lsl #5

000087c0 <play_song>:
    87c0:	e3a03000 	mov	r3, #0
    87c4:	ea000000 	b	87cc <play_song+0xc>
    87c8:	e2833001 	add	r3, r3, #1
    87cc:	e1530001 	cmp	r3, r1
    87d0:	bafffffc 	blt	87c8 <play_song+0x8>
    87d4:	e12fff1e 	bx	lr

000087d8 <round_int>:
    87d8:	e92d4070 	push	{r4, r5, r6, lr}
    87dc:	e1a04000 	mov	r4, r0
    87e0:	e1a05001 	mov	r5, r1
    87e4:	eb0006d8 	bl	a34c <__aeabi_d2iz>
    87e8:	e1a06000 	mov	r6, r0
    87ec:	eb000527 	bl	9c90 <__aeabi_i2d>
    87f0:	e3a02000 	mov	r2, #0
    87f4:	e59f303c 	ldr	r3, [pc, #60]	; 8838 <round_int+0x60>
    87f8:	eb000457 	bl	995c <__adddf3>
    87fc:	e1a02004 	mov	r2, r4
    8800:	e1a03005 	mov	r3, r5
    8804:	eb0006be 	bl	a304 <__aeabi_dcmple>
    8808:	e3500000 	cmp	r0, #0
    880c:	0a000006 	beq	882c <round_int+0x54>
    8810:	e1a00004 	mov	r0, r4
    8814:	e1a01005 	mov	r1, r5
    8818:	e3a02000 	mov	r2, #0
    881c:	e59f3018 	ldr	r3, [pc, #24]	; 883c <round_int+0x64>
    8820:	eb00044d 	bl	995c <__adddf3>
    8824:	eb0006c8 	bl	a34c <__aeabi_d2iz>
    8828:	e1a06000 	mov	r6, r0
    882c:	e1a00006 	mov	r0, r6
    8830:	e8bd4070 	pop	{r4, r5, r6, lr}
    8834:	e12fff1e 	bx	lr
    8838:	3fe00000 	svccc	0x00e00000
    883c:	3ff00000 	svccc	0x00f00000	; IMB

00008840 <turntable_run>:
    8840:	e92d4ff0 	push	{r4, r5, r6, r7, r8, r9, sl, fp, lr}
    8844:	e24dd01c 	sub	sp, sp, #28
    8848:	e1a0b000 	mov	fp, r0
    884c:	e58d1010 	str	r1, [sp, #16]
    8850:	e1a0a002 	mov	sl, r2
    8854:	e58d3014 	str	r3, [sp, #20]
    8858:	e3a00000 	mov	r0, #0
    885c:	e58d0004 	str	r0, [sp, #4]
    8860:	e58d0008 	str	r0, [sp, #8]
    8864:	e58d0000 	str	r0, [sp]
    8868:	e58d000c 	str	r0, [sp, #12]
    886c:	e1a04000 	mov	r4, r0
    8870:	e1a07000 	mov	r7, r0
    8874:	e1a06000 	mov	r6, r0
    8878:	e1a09000 	mov	r9, r0
    887c:	e1a08000 	mov	r8, r0
    8880:	e3540064 	cmp	r4, #100	; 0x64
    8884:	1a000024 	bne	891c <turntable_run+0xdc>
    8888:	e3a00000 	mov	r0, #0
    888c:	ebffff0d 	bl	84c8 <mcp3008_read>
    8890:	e35000aa 	cmp	r0, #170	; 0xaa
    8894:	da00000d 	ble	88d0 <turntable_run+0x90>
    8898:	e3500f55 	cmp	r0, #340	; 0x154
    889c:	da00000f 	ble	88e0 <turntable_run+0xa0>
    88a0:	e59f22e8 	ldr	r2, [pc, #744]	; 8b90 <turntable_run+0x350>
    88a4:	e1500002 	cmp	r0, r2
    88a8:	da000010 	ble	88f0 <turntable_run+0xb0>
    88ac:	e59f32e0 	ldr	r3, [pc, #736]	; 8b94 <turntable_run+0x354>
    88b0:	e1500003 	cmp	r0, r3
    88b4:	da000011 	ble	8900 <turntable_run+0xc0>
    88b8:	e3500fd5 	cmp	r0, #852	; 0x354
    88bc:	ca000013 	bgt	8910 <turntable_run+0xd0>
    88c0:	e3a00010 	mov	r0, #16
    88c4:	e58d000c 	str	r0, [sp, #12]
    88c8:	e3a04000 	mov	r4, #0
    88cc:	ea000012 	b	891c <turntable_run+0xdc>
    88d0:	e3a02001 	mov	r2, #1
    88d4:	e58d200c 	str	r2, [sp, #12]
    88d8:	e3a04000 	mov	r4, #0
    88dc:	ea00000e 	b	891c <turntable_run+0xdc>
    88e0:	e3a03002 	mov	r3, #2
    88e4:	e58d300c 	str	r3, [sp, #12]
    88e8:	e3a04000 	mov	r4, #0
    88ec:	ea00000a 	b	891c <turntable_run+0xdc>
    88f0:	e3a00004 	mov	r0, #4
    88f4:	e58d000c 	str	r0, [sp, #12]
    88f8:	e3a04000 	mov	r4, #0
    88fc:	ea000006 	b	891c <turntable_run+0xdc>
    8900:	e3a02008 	mov	r2, #8
    8904:	e58d200c 	str	r2, [sp, #12]
    8908:	e3a04000 	mov	r4, #0
    890c:	ea000002 	b	891c <turntable_run+0xdc>
    8910:	e3a03020 	mov	r3, #32
    8914:	e58d300c 	str	r3, [sp, #12]
    8918:	e3a04000 	mov	r4, #0
    891c:	e3540019 	cmp	r4, #25
    8920:	1a000002 	bne	8930 <turntable_run+0xf0>
    8924:	e3a00003 	mov	r0, #3
    8928:	ebfffee6 	bl	84c8 <mcp3008_read>
    892c:	e58d0000 	str	r0, [sp]
    8930:	e3540032 	cmp	r4, #50	; 0x32
    8934:	1a000036 	bne	8a14 <turntable_run+0x1d4>
    8938:	e3a00001 	mov	r0, #1
    893c:	ebfffee1 	bl	84c8 <mcp3008_read>
    8940:	e3500066 	cmp	r0, #102	; 0x66
    8944:	da000018 	ble	89ac <turntable_run+0x16c>
    8948:	e35000cc 	cmp	r0, #204	; 0xcc
    894c:	da000019 	ble	89b8 <turntable_run+0x178>
    8950:	e59f2240 	ldr	r2, [pc, #576]	; 8b98 <turntable_run+0x358>
    8954:	e1500002 	cmp	r0, r2
    8958:	da000019 	ble	89c4 <turntable_run+0x184>
    895c:	e59f3238 	ldr	r3, [pc, #568]	; 8b9c <turntable_run+0x35c>
    8960:	e1500003 	cmp	r0, r3
    8964:	da000019 	ble	89d0 <turntable_run+0x190>
    8968:	e28220cc 	add	r2, r2, #204	; 0xcc
    896c:	e1500002 	cmp	r0, r2
    8970:	da000019 	ble	89dc <turntable_run+0x19c>
    8974:	e28330cd 	add	r3, r3, #205	; 0xcd
    8978:	e1500003 	cmp	r0, r3
    897c:	da000019 	ble	89e8 <turntable_run+0x1a8>
    8980:	e3500fb3 	cmp	r0, #716	; 0x2cc
    8984:	da00001a 	ble	89f4 <turntable_run+0x1b4>
    8988:	e59f2210 	ldr	r2, [pc, #528]	; 8ba0 <turntable_run+0x360>
    898c:	e1500002 	cmp	r0, r2
    8990:	da00001a 	ble	8a00 <turntable_run+0x1c0>
    8994:	e59f3208 	ldr	r3, [pc, #520]	; 8ba4 <turntable_run+0x364>
    8998:	e1500003 	cmp	r0, r3
    899c:	ca00001a 	bgt	8a0c <turntable_run+0x1cc>
    89a0:	e3a03009 	mov	r3, #9
    89a4:	e58d3008 	str	r3, [sp, #8]
    89a8:	ea000019 	b	8a14 <turntable_run+0x1d4>
    89ac:	e3a00001 	mov	r0, #1
    89b0:	e58d0008 	str	r0, [sp, #8]
    89b4:	ea000016 	b	8a14 <turntable_run+0x1d4>
    89b8:	e3a02002 	mov	r2, #2
    89bc:	e58d2008 	str	r2, [sp, #8]
    89c0:	ea000013 	b	8a14 <turntable_run+0x1d4>
    89c4:	e3a03003 	mov	r3, #3
    89c8:	e58d3008 	str	r3, [sp, #8]
    89cc:	ea000010 	b	8a14 <turntable_run+0x1d4>
    89d0:	e3a00004 	mov	r0, #4
    89d4:	e58d0008 	str	r0, [sp, #8]
    89d8:	ea00000d 	b	8a14 <turntable_run+0x1d4>
    89dc:	e3a02005 	mov	r2, #5
    89e0:	e58d2008 	str	r2, [sp, #8]
    89e4:	ea00000a 	b	8a14 <turntable_run+0x1d4>
    89e8:	e3a03006 	mov	r3, #6
    89ec:	e58d3008 	str	r3, [sp, #8]
    89f0:	ea000007 	b	8a14 <turntable_run+0x1d4>
    89f4:	e3a00007 	mov	r0, #7
    89f8:	e58d0008 	str	r0, [sp, #8]
    89fc:	ea000004 	b	8a14 <turntable_run+0x1d4>
    8a00:	e3a02008 	mov	r2, #8
    8a04:	e58d2008 	str	r2, [sp, #8]
    8a08:	ea000001 	b	8a14 <turntable_run+0x1d4>
    8a0c:	e3a0300a 	mov	r3, #10
    8a10:	e58d3008 	str	r3, [sp, #8]
    8a14:	e354004b 	cmp	r4, #75	; 0x4b
    8a18:	1a000036 	bne	8af8 <turntable_run+0x2b8>
    8a1c:	e3a00002 	mov	r0, #2
    8a20:	ebfffea8 	bl	84c8 <mcp3008_read>
    8a24:	e3500066 	cmp	r0, #102	; 0x66
    8a28:	da000018 	ble	8a90 <turntable_run+0x250>
    8a2c:	e35000cc 	cmp	r0, #204	; 0xcc
    8a30:	da000019 	ble	8a9c <turntable_run+0x25c>
    8a34:	e59f215c 	ldr	r2, [pc, #348]	; 8b98 <turntable_run+0x358>
    8a38:	e1500002 	cmp	r0, r2
    8a3c:	da000019 	ble	8aa8 <turntable_run+0x268>
    8a40:	e59f3154 	ldr	r3, [pc, #340]	; 8b9c <turntable_run+0x35c>
    8a44:	e1500003 	cmp	r0, r3
    8a48:	da000019 	ble	8ab4 <turntable_run+0x274>
    8a4c:	e28220cc 	add	r2, r2, #204	; 0xcc
    8a50:	e1500002 	cmp	r0, r2
    8a54:	da000019 	ble	8ac0 <turntable_run+0x280>
    8a58:	e28330cd 	add	r3, r3, #205	; 0xcd
    8a5c:	e1500003 	cmp	r0, r3
    8a60:	da000019 	ble	8acc <turntable_run+0x28c>
    8a64:	e3500fb3 	cmp	r0, #716	; 0x2cc
    8a68:	da00001a 	ble	8ad8 <turntable_run+0x298>
    8a6c:	e59f212c 	ldr	r2, [pc, #300]	; 8ba0 <turntable_run+0x360>
    8a70:	e1500002 	cmp	r0, r2
    8a74:	da00001a 	ble	8ae4 <turntable_run+0x2a4>
    8a78:	e59f3124 	ldr	r3, [pc, #292]	; 8ba4 <turntable_run+0x364>
    8a7c:	e1500003 	cmp	r0, r3
    8a80:	ca00001a 	bgt	8af0 <turntable_run+0x2b0>
    8a84:	e3a03009 	mov	r3, #9
    8a88:	e58d3004 	str	r3, [sp, #4]
    8a8c:	ea000019 	b	8af8 <turntable_run+0x2b8>
    8a90:	e3a00001 	mov	r0, #1
    8a94:	e58d0004 	str	r0, [sp, #4]
    8a98:	ea000016 	b	8af8 <turntable_run+0x2b8>
    8a9c:	e3a02002 	mov	r2, #2
    8aa0:	e58d2004 	str	r2, [sp, #4]
    8aa4:	ea000013 	b	8af8 <turntable_run+0x2b8>
    8aa8:	e3a03003 	mov	r3, #3
    8aac:	e58d3004 	str	r3, [sp, #4]
    8ab0:	ea000010 	b	8af8 <turntable_run+0x2b8>
    8ab4:	e3a00004 	mov	r0, #4
    8ab8:	e58d0004 	str	r0, [sp, #4]
    8abc:	ea00000d 	b	8af8 <turntable_run+0x2b8>
    8ac0:	e3a02005 	mov	r2, #5
    8ac4:	e58d2004 	str	r2, [sp, #4]
    8ac8:	ea00000a 	b	8af8 <turntable_run+0x2b8>
    8acc:	e3a03006 	mov	r3, #6
    8ad0:	e58d3004 	str	r3, [sp, #4]
    8ad4:	ea000007 	b	8af8 <turntable_run+0x2b8>
    8ad8:	e3a00007 	mov	r0, #7
    8adc:	e58d0004 	str	r0, [sp, #4]
    8ae0:	ea000004 	b	8af8 <turntable_run+0x2b8>
    8ae4:	e3a02008 	mov	r2, #8
    8ae8:	e58d2004 	str	r2, [sp, #4]
    8aec:	ea000001 	b	8af8 <turntable_run+0x2b8>
    8af0:	e3a0300a 	mov	r3, #10
    8af4:	e58d3004 	str	r3, [sp, #4]
    8af8:	e2844001 	add	r4, r4, #1
    8afc:	e08b3188 	add	r3, fp, r8, lsl #3
    8b00:	e79b5188 	ldr	r5, [fp, r8, lsl #3]
    8b04:	e59d0000 	ldr	r0, [sp]
    8b08:	e0050590 	mul	r5, r0, r5
    8b0c:	e59d2008 	ldr	r2, [sp, #8]
    8b10:	e0866002 	add	r6, r6, r2
    8b14:	e1d330b4 	ldrh	r3, [r3, #4]
    8b18:	e1530006 	cmp	r3, r6
    8b1c:	aa000004 	bge	8b34 <turntable_run+0x2f4>
    8b20:	e2880001 	add	r0, r8, #1
    8b24:	e59d1010 	ldr	r1, [sp, #16]
    8b28:	eb00037f 	bl	992c <__aeabi_idivmod>
    8b2c:	e1a08001 	mov	r8, r1
    8b30:	e3a06000 	mov	r6, #0
    8b34:	e08a3189 	add	r3, sl, r9, lsl #3
    8b38:	e79a2189 	ldr	r2, [sl, r9, lsl #3]
    8b3c:	e59d0000 	ldr	r0, [sp]
    8b40:	e2601b01 	rsb	r1, r0, #1024	; 0x400
    8b44:	e0255291 	mla	r5, r1, r2, r5
    8b48:	e59d2004 	ldr	r2, [sp, #4]
    8b4c:	e0877002 	add	r7, r7, r2
    8b50:	e1d330b4 	ldrh	r3, [r3, #4]
    8b54:	e1530007 	cmp	r3, r7
    8b58:	aa000004 	bge	8b70 <turntable_run+0x330>
    8b5c:	e2890001 	add	r0, r9, #1
    8b60:	e59d1014 	ldr	r1, [sp, #20]
    8b64:	eb000370 	bl	992c <__aeabi_idivmod>
    8b68:	e1a09001 	mov	r9, r1
    8b6c:	e3a07000 	mov	r7, #0
    8b70:	e2850fff 	add	r0, r5, #1020	; 0x3fc
    8b74:	e3550000 	cmp	r5, #0
    8b78:	a1a00005 	movge	r0, r5
    8b7c:	b2800003 	addlt	r0, r0, #3
    8b80:	e1a00540 	asr	r0, r0, #10
    8b84:	e59d100c 	ldr	r1, [sp, #12]
    8b88:	ebfffd5d 	bl	8104 <audio_send_tone>
    8b8c:	eaffff3b 	b	8880 <turntable_run+0x40>
    8b90:	000001ff 	strdeq	r0, [r0], -pc	; <UNPREDICTABLE>
    8b94:	000002aa 	andeq	r0, r0, sl, lsr #5
    8b98:	00000133 	andeq	r0, r0, r3, lsr r1
    8b9c:	00000199 	muleq	r0, r9, r1
    8ba0:	00000332 	andeq	r0, r0, r2, lsr r3
    8ba4:	00000399 	muleq	r0, r9, r3

00008ba8 <PUT32>:
    8ba8:	e5801000 	str	r1, [r0]
    8bac:	e12fff1e 	bx	lr

00008bb0 <PUT16>:
    8bb0:	e1c010b0 	strh	r1, [r0]
    8bb4:	e12fff1e 	bx	lr

00008bb8 <PUT8>:
    8bb8:	e5c01000 	strb	r1, [r0]
    8bbc:	e12fff1e 	bx	lr

00008bc0 <GET32>:
    8bc0:	e5900000 	ldr	r0, [r0]
    8bc4:	e12fff1e 	bx	lr

00008bc8 <GET16>:
    8bc8:	e1d000b0 	ldrh	r0, [r0]
    8bcc:	e12fff1e 	bx	lr

00008bd0 <GET8>:
    8bd0:	e5d00000 	ldrb	r0, [r0]
    8bd4:	e12fff1e 	bx	lr

00008bd8 <gpio_init>:
    8bd8:	e1a0c00d 	mov	ip, sp
    8bdc:	e92dd800 	push	{fp, ip, lr, pc}
    8be0:	e24cb004 	sub	fp, ip, #4
    8be4:	e89da800 	ldm	sp, {fp, sp, pc}

00008be8 <gpio_set_function>:
    8be8:	e1a0c00d 	mov	ip, sp
    8bec:	e92dd810 	push	{r4, fp, ip, lr, pc}
    8bf0:	e24cb004 	sub	fp, ip, #4
    8bf4:	e3500035 	cmp	r0, #53	; 0x35
    8bf8:	889da810 	ldmhi	sp, {r4, fp, sp, pc}
    8bfc:	e3510007 	cmp	r1, #7
    8c00:	889da810 	ldmhi	sp, {r4, fp, sp, pc}
    8c04:	e59f303c 	ldr	r3, [pc, #60]	; 8c48 <gpio_set_function+0x60>
    8c08:	e0832093 	umull	r2, r3, r3, r0
    8c0c:	e1a031a3 	lsr	r3, r3, #3
    8c10:	e283c302 	add	ip, r3, #134217728	; 0x8000000
    8c14:	e28cc702 	add	ip, ip, #524288	; 0x80000
    8c18:	e1a0c10c 	lsl	ip, ip, #2
    8c1c:	e59c4000 	ldr	r4, [ip]
    8c20:	e0833103 	add	r3, r3, r3, lsl #2
    8c24:	e1a03083 	lsl	r3, r3, #1
    8c28:	e0632000 	rsb	r2, r3, r0
    8c2c:	e0822082 	add	r2, r2, r2, lsl #1
    8c30:	e3a03007 	mov	r3, #7
    8c34:	e1c43213 	bic	r3, r4, r3, lsl r2
    8c38:	e2011007 	and	r1, r1, #7
    8c3c:	e1832211 	orr	r2, r3, r1, lsl r2
    8c40:	e58c2000 	str	r2, [ip]
    8c44:	e89da810 	ldm	sp, {r4, fp, sp, pc}
    8c48:	cccccccd 	stclgt	12, cr12, [ip], {205}	; 0xcd

00008c4c <gpio_get_function>:
    8c4c:	e1a0c00d 	mov	ip, sp
    8c50:	e92dd800 	push	{fp, ip, lr, pc}
    8c54:	e24cb004 	sub	fp, ip, #4
    8c58:	e3500035 	cmp	r0, #53	; 0x35
    8c5c:	8a00000d 	bhi	8c98 <gpio_get_function+0x4c>
    8c60:	e59f3038 	ldr	r3, [pc, #56]	; 8ca0 <gpio_get_function+0x54>
    8c64:	e0832093 	umull	r2, r3, r3, r0
    8c68:	e1a031a3 	lsr	r3, r3, #3
    8c6c:	e2832302 	add	r2, r3, #134217728	; 0x8000000
    8c70:	e2822702 	add	r2, r2, #524288	; 0x80000
    8c74:	e1a02102 	lsl	r2, r2, #2
    8c78:	e5921000 	ldr	r1, [r2]
    8c7c:	e0833103 	add	r3, r3, r3, lsl #2
    8c80:	e1a03083 	lsl	r3, r3, #1
    8c84:	e0632000 	rsb	r2, r3, r0
    8c88:	e0822082 	add	r2, r2, r2, lsl #1
    8c8c:	e1a00231 	lsr	r0, r1, r2
    8c90:	e2000007 	and	r0, r0, #7
    8c94:	e89da800 	ldm	sp, {fp, sp, pc}
    8c98:	e3a00000 	mov	r0, #0
    8c9c:	e89da800 	ldm	sp, {fp, sp, pc}
    8ca0:	cccccccd 	stclgt	12, cr12, [ip], {205}	; 0xcd

00008ca4 <gpio_set_input>:
    8ca4:	e1a0c00d 	mov	ip, sp
    8ca8:	e92dd800 	push	{fp, ip, lr, pc}
    8cac:	e24cb004 	sub	fp, ip, #4
    8cb0:	e3a01000 	mov	r1, #0
    8cb4:	ebffffcb 	bl	8be8 <gpio_set_function>
    8cb8:	e89da800 	ldm	sp, {fp, sp, pc}

00008cbc <gpio_set_output>:
    8cbc:	e1a0c00d 	mov	ip, sp
    8cc0:	e92dd800 	push	{fp, ip, lr, pc}
    8cc4:	e24cb004 	sub	fp, ip, #4
    8cc8:	e3a01001 	mov	r1, #1
    8ccc:	ebffffc5 	bl	8be8 <gpio_set_function>
    8cd0:	e89da800 	ldm	sp, {fp, sp, pc}

00008cd4 <gpio_write>:
    8cd4:	e1a0c00d 	mov	ip, sp
    8cd8:	e92dd800 	push	{fp, ip, lr, pc}
    8cdc:	e24cb004 	sub	fp, ip, #4
    8ce0:	e3500035 	cmp	r0, #53	; 0x35
    8ce4:	889da800 	ldmhi	sp, {fp, sp, pc}
    8ce8:	e200301f 	and	r3, r0, #31
    8cec:	e3510000 	cmp	r1, #0
    8cf0:	0a000006 	beq	8d10 <gpio_write+0x3c>
    8cf4:	e59f2030 	ldr	r2, [pc, #48]	; 8d2c <gpio_write+0x58>
    8cf8:	e08202a0 	add	r0, r2, r0, lsr #5
    8cfc:	e1a00100 	lsl	r0, r0, #2
    8d00:	e3a02001 	mov	r2, #1
    8d04:	e1a03312 	lsl	r3, r2, r3
    8d08:	e5803000 	str	r3, [r0]
    8d0c:	e89da800 	ldm	sp, {fp, sp, pc}
    8d10:	e59f2018 	ldr	r2, [pc, #24]	; 8d30 <gpio_write+0x5c>
    8d14:	e08202a0 	add	r0, r2, r0, lsr #5
    8d18:	e1a00100 	lsl	r0, r0, #2
    8d1c:	e3a02001 	mov	r2, #1
    8d20:	e1a03312 	lsl	r3, r2, r3
    8d24:	e5803000 	str	r3, [r0]
    8d28:	e89da800 	ldm	sp, {fp, sp, pc}
    8d2c:	08080007 	stmdaeq	r8, {r0, r1, r2}
    8d30:	0808000a 	stmdaeq	r8, {r1, r3}

00008d34 <gpio_read>:
    8d34:	e1a0c00d 	mov	ip, sp
    8d38:	e92dd800 	push	{fp, ip, lr, pc}
    8d3c:	e24cb004 	sub	fp, ip, #4
    8d40:	e3500035 	cmp	r0, #53	; 0x35
    8d44:	8a000009 	bhi	8d70 <gpio_read+0x3c>
    8d48:	e59f3028 	ldr	r3, [pc, #40]	; 8d78 <gpio_read+0x44>
    8d4c:	e08332a0 	add	r3, r3, r0, lsr #5
    8d50:	e1a03103 	lsl	r3, r3, #2
    8d54:	e5933000 	ldr	r3, [r3]
    8d58:	e200001f 	and	r0, r0, #31
    8d5c:	e3a02001 	mov	r2, #1
    8d60:	e0132012 	ands	r2, r3, r2, lsl r0
    8d64:	03a00000 	moveq	r0, #0
    8d68:	13a00001 	movne	r0, #1
    8d6c:	e89da800 	ldm	sp, {fp, sp, pc}
    8d70:	e3a00000 	mov	r0, #0
    8d74:	e89da800 	ldm	sp, {fp, sp, pc}
    8d78:	0808000d 	stmdaeq	r8, {r0, r2, r3}

00008d7c <printf_init>:
    8d7c:	e1a0c00d 	mov	ip, sp
    8d80:	e92dd800 	push	{fp, ip, lr, pc}
    8d84:	e24cb004 	sub	fp, ip, #4
    8d88:	eb00019e 	bl	9408 <uart_init>
    8d8c:	e89da800 	ldm	sp, {fp, sp, pc}

00008d90 <reduceByTenPower>:
    8d90:	e1a0c00d 	mov	ip, sp
    8d94:	e92dd810 	push	{r4, fp, ip, lr, pc}
    8d98:	e24cb004 	sub	fp, ip, #4
    8d9c:	e3a03000 	mov	r3, #0
    8da0:	e59fc01c 	ldr	ip, [pc, #28]	; 8dc4 <reduceByTenPower+0x34>
    8da4:	ea000003 	b	8db8 <reduceByTenPower+0x28>
    8da8:	e0c2409c 	smull	r4, r2, ip, r0
    8dac:	e1a00fc0 	asr	r0, r0, #31
    8db0:	e0600142 	rsb	r0, r0, r2, asr #2
    8db4:	e2833001 	add	r3, r3, #1
    8db8:	e1530001 	cmp	r3, r1
    8dbc:	bafffff9 	blt	8da8 <reduceByTenPower+0x18>
    8dc0:	e89da810 	ldm	sp, {r4, fp, sp, pc}
    8dc4:	66666667 	strbtvs	r6, [r6], -r7, ror #12

00008dc8 <inttobin>:
    8dc8:	e1a0c00d 	mov	ip, sp
    8dcc:	e92dd8f0 	push	{r4, r5, r6, r7, fp, ip, lr, pc}
    8dd0:	e24cb004 	sub	fp, ip, #4
    8dd4:	e1a05000 	mov	r5, r0
    8dd8:	e1a04002 	mov	r4, r2
    8ddc:	e3a0c000 	mov	ip, #0
    8de0:	ea000001 	b	8dec <inttobin+0x24>
    8de4:	e28cc001 	add	ip, ip, #1
    8de8:	e1a040a4 	lsr	r4, r4, #1
    8dec:	e3540000 	cmp	r4, #0
    8df0:	1afffffb 	bne	8de4 <inttobin+0x1c>
    8df4:	e35c0000 	cmp	ip, #0
    8df8:	03a0c001 	moveq	ip, #1
    8dfc:	e053300c 	subs	r3, r3, ip
    8e00:	43a03000 	movmi	r3, #0
    8e04:	e3a04000 	mov	r4, #0
    8e08:	e1a00004 	mov	r0, r4
    8e0c:	e2416001 	sub	r6, r1, #1
    8e10:	e3a07030 	mov	r7, #48	; 0x30
    8e14:	ea000003 	b	8e28 <inttobin+0x60>
    8e18:	e1560000 	cmp	r6, r0
    8e1c:	c7c57000 	strbgt	r7, [r5, r0]
    8e20:	e2844001 	add	r4, r4, #1
    8e24:	e2800001 	add	r0, r0, #1
    8e28:	e1540003 	cmp	r4, r3
    8e2c:	bafffff9 	blt	8e18 <inttobin+0x50>
    8e30:	e3a03000 	mov	r3, #0
    8e34:	e2414001 	sub	r4, r1, #1
    8e38:	e24c7001 	sub	r7, ip, #1
    8e3c:	ea000008 	b	8e64 <inttobin+0x9c>
    8e40:	e1540000 	cmp	r4, r0
    8e44:	da000004 	ble	8e5c <inttobin+0x94>
    8e48:	e0636007 	rsb	r6, r3, r7
    8e4c:	e1a06632 	lsr	r6, r2, r6
    8e50:	e2066001 	and	r6, r6, #1
    8e54:	e2866030 	add	r6, r6, #48	; 0x30
    8e58:	e7c56000 	strb	r6, [r5, r0]
    8e5c:	e2833001 	add	r3, r3, #1
    8e60:	e2800001 	add	r0, r0, #1
    8e64:	e153000c 	cmp	r3, ip
    8e68:	bafffff4 	blt	8e40 <inttobin+0x78>
    8e6c:	e1500001 	cmp	r0, r1
    8e70:	aa000002 	bge	8e80 <inttobin+0xb8>
    8e74:	e3a03000 	mov	r3, #0
    8e78:	e7c53000 	strb	r3, [r5, r0]
    8e7c:	e89da8f0 	ldm	sp, {r4, r5, r6, r7, fp, sp, pc}
    8e80:	e2411001 	sub	r1, r1, #1
    8e84:	e3a03000 	mov	r3, #0
    8e88:	e7c53001 	strb	r3, [r5, r1]
    8e8c:	e89da8f0 	ldm	sp, {r4, r5, r6, r7, fp, sp, pc}

00008e90 <inttohex>:
    8e90:	e1a0c00d 	mov	ip, sp
    8e94:	e92dd8f0 	push	{r4, r5, r6, r7, fp, ip, lr, pc}
    8e98:	e24cb004 	sub	fp, ip, #4
    8e9c:	e1a05000 	mov	r5, r0
    8ea0:	e1a04002 	mov	r4, r2
    8ea4:	e3a0c000 	mov	ip, #0
    8ea8:	ea000001 	b	8eb4 <inttohex+0x24>
    8eac:	e28cc001 	add	ip, ip, #1
    8eb0:	e1a04224 	lsr	r4, r4, #4
    8eb4:	e3540000 	cmp	r4, #0
    8eb8:	1afffffb 	bne	8eac <inttohex+0x1c>
    8ebc:	e35c0000 	cmp	ip, #0
    8ec0:	03a0c001 	moveq	ip, #1
    8ec4:	e053300c 	subs	r3, r3, ip
    8ec8:	43a03000 	movmi	r3, #0
    8ecc:	e3a04000 	mov	r4, #0
    8ed0:	e1a00004 	mov	r0, r4
    8ed4:	e2416001 	sub	r6, r1, #1
    8ed8:	e3a07030 	mov	r7, #48	; 0x30
    8edc:	ea000003 	b	8ef0 <inttohex+0x60>
    8ee0:	e1560000 	cmp	r6, r0
    8ee4:	c7c57000 	strbgt	r7, [r5, r0]
    8ee8:	e2844001 	add	r4, r4, #1
    8eec:	e2800001 	add	r0, r0, #1
    8ef0:	e1540003 	cmp	r4, r3
    8ef4:	bafffff9 	blt	8ee0 <inttohex+0x50>
    8ef8:	e3a03000 	mov	r3, #0
    8efc:	e2416001 	sub	r6, r1, #1
    8f00:	e24c7001 	sub	r7, ip, #1
    8f04:	ea00000c 	b	8f3c <inttohex+0xac>
    8f08:	e1560000 	cmp	r6, r0
    8f0c:	da000008 	ble	8f34 <inttohex+0xa4>
    8f10:	e0634007 	rsb	r4, r3, r7
    8f14:	e1a04104 	lsl	r4, r4, #2
    8f18:	e1a04432 	lsr	r4, r2, r4
    8f1c:	e204400f 	and	r4, r4, #15
    8f20:	e3540009 	cmp	r4, #9
    8f24:	d2844030 	addle	r4, r4, #48	; 0x30
    8f28:	d7c54000 	strble	r4, [r5, r0]
    8f2c:	c2844057 	addgt	r4, r4, #87	; 0x57
    8f30:	c7c54000 	strbgt	r4, [r5, r0]
    8f34:	e2833001 	add	r3, r3, #1
    8f38:	e2800001 	add	r0, r0, #1
    8f3c:	e153000c 	cmp	r3, ip
    8f40:	bafffff0 	blt	8f08 <inttohex+0x78>
    8f44:	e1500001 	cmp	r0, r1
    8f48:	aa000002 	bge	8f58 <inttohex+0xc8>
    8f4c:	e3a03000 	mov	r3, #0
    8f50:	e7c53000 	strb	r3, [r5, r0]
    8f54:	e89da8f0 	ldm	sp, {r4, r5, r6, r7, fp, sp, pc}
    8f58:	e2411001 	sub	r1, r1, #1
    8f5c:	e3a03000 	mov	r3, #0
    8f60:	e7c53001 	strb	r3, [r5, r1]
    8f64:	e89da8f0 	ldm	sp, {r4, r5, r6, r7, fp, sp, pc}

00008f68 <inttodec>:
    8f68:	e1a0c00d 	mov	ip, sp
    8f6c:	e92ddff0 	push	{r4, r5, r6, r7, r8, r9, sl, fp, ip, lr, pc}
    8f70:	e24cb004 	sub	fp, ip, #4
    8f74:	e24dd00c 	sub	sp, sp, #12
    8f78:	e1a07000 	mov	r7, r0
    8f7c:	e50b1030 	str	r1, [fp, #-48]	; 0x30
    8f80:	e1a09002 	mov	r9, r2
    8f84:	e1b06fa2 	lsrs	r6, r2, #31
    8f88:	12629000 	rsbne	r9, r2, #0
    8f8c:	e1a02009 	mov	r2, r9
    8f90:	e1a01006 	mov	r1, r6
    8f94:	e59fc114 	ldr	ip, [pc, #276]	; 90b0 <inttodec+0x148>
    8f98:	ea000003 	b	8fac <inttodec+0x44>
    8f9c:	e2811001 	add	r1, r1, #1
    8fa0:	e0c0429c 	smull	r4, r0, ip, r2
    8fa4:	e1a02fc2 	asr	r2, r2, #31
    8fa8:	e0622140 	rsb	r2, r2, r0, asr #2
    8fac:	e3520000 	cmp	r2, #0
    8fb0:	1afffff9 	bne	8f9c <inttodec+0x34>
    8fb4:	e3510000 	cmp	r1, #0
    8fb8:	03a01001 	moveq	r1, #1
    8fbc:	e0533001 	subs	r3, r3, r1
    8fc0:	43a03000 	movmi	r3, #0
    8fc4:	e3560000 	cmp	r6, #0
    8fc8:	0a000007 	beq	8fec <inttodec+0x84>
    8fcc:	e51b4030 	ldr	r4, [fp, #-48]	; 0x30
    8fd0:	e2442001 	sub	r2, r4, #1
    8fd4:	e3520000 	cmp	r2, #0
    8fd8:	da000005 	ble	8ff4 <inttodec+0x8c>
    8fdc:	e3a0202d 	mov	r2, #45	; 0x2d
    8fe0:	e5c72000 	strb	r2, [r7]
    8fe4:	e3a04001 	mov	r4, #1
    8fe8:	ea000002 	b	8ff8 <inttodec+0x90>
    8fec:	e3a04000 	mov	r4, #0
    8ff0:	ea000000 	b	8ff8 <inttodec+0x90>
    8ff4:	e3a04001 	mov	r4, #1
    8ff8:	e3a02000 	mov	r2, #0
    8ffc:	e51bc030 	ldr	ip, [fp, #-48]	; 0x30
    9000:	e24c0001 	sub	r0, ip, #1
    9004:	e3a0c030 	mov	ip, #48	; 0x30
    9008:	ea000003 	b	901c <inttodec+0xb4>
    900c:	e1500004 	cmp	r0, r4
    9010:	c7c7c004 	strbgt	ip, [r7, r4]
    9014:	e2822001 	add	r2, r2, #1
    9018:	e2844001 	add	r4, r4, #1
    901c:	e1520003 	cmp	r2, r3
    9020:	bafffff9 	blt	900c <inttodec+0xa4>
    9024:	e0666001 	rsb	r6, r6, r1
    9028:	e3a05000 	mov	r5, #0
    902c:	e51b0030 	ldr	r0, [fp, #-48]	; 0x30
    9030:	e2408001 	sub	r8, r0, #1
    9034:	e246a001 	sub	sl, r6, #1
    9038:	ea00000f 	b	907c <inttodec+0x114>
    903c:	e1580004 	cmp	r8, r4
    9040:	da00000b 	ble	9074 <inttodec+0x10c>
    9044:	e1a00009 	mov	r0, r9
    9048:	e065100a 	rsb	r1, r5, sl
    904c:	ebffff4f 	bl	8d90 <reduceByTenPower>
    9050:	e59f3058 	ldr	r3, [pc, #88]	; 90b0 <inttodec+0x148>
    9054:	e0c23093 	smull	r3, r2, r3, r0
    9058:	e1a03fc0 	asr	r3, r0, #31
    905c:	e0633142 	rsb	r3, r3, r2, asr #2
    9060:	e0833103 	add	r3, r3, r3, lsl #2
    9064:	e1a03083 	lsl	r3, r3, #1
    9068:	e0633000 	rsb	r3, r3, r0
    906c:	e2833030 	add	r3, r3, #48	; 0x30
    9070:	e7c73004 	strb	r3, [r7, r4]
    9074:	e2855001 	add	r5, r5, #1
    9078:	e2844001 	add	r4, r4, #1
    907c:	e1550006 	cmp	r5, r6
    9080:	baffffed 	blt	903c <inttodec+0xd4>
    9084:	e51bc030 	ldr	ip, [fp, #-48]	; 0x30
    9088:	e154000c 	cmp	r4, ip
    908c:	b3a03000 	movlt	r3, #0
    9090:	b7c73004 	strblt	r3, [r7, r4]
    9094:	a51b0030 	ldrge	r0, [fp, #-48]	; 0x30
    9098:	a2403001 	subge	r3, r0, #1
    909c:	a3a02000 	movge	r2, #0
    90a0:	a7c72003 	strbge	r2, [r7, r3]
    90a4:	e1a00004 	mov	r0, r4
    90a8:	e24bd028 	sub	sp, fp, #40	; 0x28
    90ac:	e89daff0 	ldm	sp, {r4, r5, r6, r7, r8, r9, sl, fp, sp, pc}
    90b0:	66666667 	strbtvs	r6, [r6], -r7, ror #12

000090b4 <vsnprintf>:
    90b4:	e1a0c00d 	mov	ip, sp
    90b8:	e92ddff8 	push	{r3, r4, r5, r6, r7, r8, r9, sl, fp, ip, lr, pc}
    90bc:	e24cb004 	sub	fp, ip, #4
    90c0:	e1a07000 	mov	r7, r0
    90c4:	e1a08001 	mov	r8, r1
    90c8:	e1a0a003 	mov	sl, r3
    90cc:	e3520000 	cmp	r2, #0
    90d0:	1a000004 	bne	90e8 <vsnprintf+0x34>
    90d4:	e3510000 	cmp	r1, #0
    90d8:	da00006b 	ble	928c <vsnprintf+0x1d8>
    90dc:	e3a00000 	mov	r0, #0
    90e0:	e5c70000 	strb	r0, [r7]
    90e4:	e89daff8 	ldm	sp, {r3, r4, r5, r6, r7, r8, r9, sl, fp, sp, pc}
    90e8:	e3510000 	cmp	r1, #0
    90ec:	c3a03000 	movgt	r3, #0
    90f0:	c5c03000 	strbgt	r3, [r0]
    90f4:	e3a04000 	mov	r4, #0
    90f8:	e2486001 	sub	r6, r8, #1
    90fc:	e1a09004 	mov	r9, r4
    9100:	ea00005b 	b	9274 <vsnprintf+0x1c0>
    9104:	e3530025 	cmp	r3, #37	; 0x25
    9108:	0a000006 	beq	9128 <vsnprintf+0x74>
    910c:	e1560004 	cmp	r6, r4
    9110:	c7c73004 	strbgt	r3, [r7, r4]
    9114:	e2844001 	add	r4, r4, #1
    9118:	e1540008 	cmp	r4, r8
    911c:	b7c79004 	strblt	r9, [r7, r4]
    9120:	e1a02001 	mov	r2, r1
    9124:	ea000052 	b	9274 <vsnprintf+0x1c0>
    9128:	e2825002 	add	r5, r2, #2
    912c:	e5d21001 	ldrb	r1, [r2, #1]
    9130:	e3510025 	cmp	r1, #37	; 0x25
    9134:	1a000006 	bne	9154 <vsnprintf+0xa0>
    9138:	e1560004 	cmp	r6, r4
    913c:	c7c71004 	strbgt	r1, [r7, r4]
    9140:	e2844001 	add	r4, r4, #1
    9144:	e1540008 	cmp	r4, r8
    9148:	b7c79004 	strblt	r9, [r7, r4]
    914c:	e1a02005 	mov	r2, r5
    9150:	ea000047 	b	9274 <vsnprintf+0x1c0>
    9154:	e3510030 	cmp	r1, #48	; 0x30
    9158:	1a00000c 	bne	9190 <vsnprintf+0xdc>
    915c:	e1a03009 	mov	r3, r9
    9160:	e2852001 	add	r2, r5, #1
    9164:	e5d51000 	ldrb	r1, [r5]
    9168:	e2410030 	sub	r0, r1, #48	; 0x30
    916c:	e6ef0070 	uxtb	r0, r0
    9170:	e3500009 	cmp	r0, #9
    9174:	8a000007 	bhi	9198 <vsnprintf+0xe4>
    9178:	e2411030 	sub	r1, r1, #48	; 0x30
    917c:	e0833103 	add	r3, r3, r3, lsl #2
    9180:	e1a03083 	lsl	r3, r3, #1
    9184:	e0833001 	add	r3, r3, r1
    9188:	e1a05002 	mov	r5, r2
    918c:	eafffff3 	b	9160 <vsnprintf+0xac>
    9190:	e1a03009 	mov	r3, r9
    9194:	ea000000 	b	919c <vsnprintf+0xe8>
    9198:	e1a05002 	mov	r5, r2
    919c:	e3510073 	cmp	r1, #115	; 0x73
    91a0:	1a00000f 	bne	91e4 <vsnprintf+0x130>
    91a4:	e59a3000 	ldr	r3, [sl]
    91a8:	e28aa004 	add	sl, sl, #4
    91ac:	ea000003 	b	91c0 <vsnprintf+0x10c>
    91b0:	e1560004 	cmp	r6, r4
    91b4:	c7c72004 	strbgt	r2, [r7, r4]
    91b8:	e2844001 	add	r4, r4, #1
    91bc:	e2833001 	add	r3, r3, #1
    91c0:	e3530000 	cmp	r3, #0
    91c4:	0a000002 	beq	91d4 <vsnprintf+0x120>
    91c8:	e5d32000 	ldrb	r2, [r3]
    91cc:	e3520000 	cmp	r2, #0
    91d0:	1afffff6 	bne	91b0 <vsnprintf+0xfc>
    91d4:	e1540008 	cmp	r4, r8
    91d8:	b7c79004 	strblt	r9, [r7, r4]
    91dc:	e1a02005 	mov	r2, r5
    91e0:	ea000023 	b	9274 <vsnprintf+0x1c0>
    91e4:	e59a2000 	ldr	r2, [sl]
    91e8:	e28aa004 	add	sl, sl, #4
    91ec:	e3510063 	cmp	r1, #99	; 0x63
    91f0:	1a000006 	bne	9210 <vsnprintf+0x15c>
    91f4:	e1560004 	cmp	r6, r4
    91f8:	c7c72004 	strbgt	r2, [r7, r4]
    91fc:	e2844001 	add	r4, r4, #1
    9200:	e1540008 	cmp	r4, r8
    9204:	b7c79004 	strblt	r9, [r7, r4]
    9208:	e1a02005 	mov	r2, r5
    920c:	ea000018 	b	9274 <vsnprintf+0x1c0>
    9210:	e3510064 	cmp	r1, #100	; 0x64
    9214:	1a000005 	bne	9230 <vsnprintf+0x17c>
    9218:	e0870004 	add	r0, r7, r4
    921c:	e0641008 	rsb	r1, r4, r8
    9220:	ebffff50 	bl	8f68 <inttodec>
    9224:	e0844000 	add	r4, r4, r0
    9228:	e1a02005 	mov	r2, r5
    922c:	ea000010 	b	9274 <vsnprintf+0x1c0>
    9230:	e3510078 	cmp	r1, #120	; 0x78
    9234:	1a000005 	bne	9250 <vsnprintf+0x19c>
    9238:	e0870004 	add	r0, r7, r4
    923c:	e0641008 	rsb	r1, r4, r8
    9240:	ebffff12 	bl	8e90 <inttohex>
    9244:	e0844000 	add	r4, r4, r0
    9248:	e1a02005 	mov	r2, r5
    924c:	ea000008 	b	9274 <vsnprintf+0x1c0>
    9250:	e3510062 	cmp	r1, #98	; 0x62
    9254:	1a000005 	bne	9270 <vsnprintf+0x1bc>
    9258:	e0870004 	add	r0, r7, r4
    925c:	e0641008 	rsb	r1, r4, r8
    9260:	ebfffed8 	bl	8dc8 <inttobin>
    9264:	e0844000 	add	r4, r4, r0
    9268:	e1a02005 	mov	r2, r5
    926c:	ea000000 	b	9274 <vsnprintf+0x1c0>
    9270:	e1a02005 	mov	r2, r5
    9274:	e2821001 	add	r1, r2, #1
    9278:	e5d23000 	ldrb	r3, [r2]
    927c:	e3530000 	cmp	r3, #0
    9280:	1affff9f 	bne	9104 <vsnprintf+0x50>
    9284:	e1a00004 	mov	r0, r4
    9288:	e89daff8 	ldm	sp, {r3, r4, r5, r6, r7, r8, r9, sl, fp, sp, pc}
    928c:	e3a00000 	mov	r0, #0
    9290:	e89daff8 	ldm	sp, {r3, r4, r5, r6, r7, r8, r9, sl, fp, sp, pc}

00009294 <snprintf>:
    9294:	e1a0c00d 	mov	ip, sp
    9298:	e92d000c 	push	{r2, r3}
    929c:	e92dd800 	push	{fp, ip, lr, pc}
    92a0:	e24cb00c 	sub	fp, ip, #12
    92a4:	e24dd008 	sub	sp, sp, #8
    92a8:	e28b3008 	add	r3, fp, #8
    92ac:	e50b3010 	str	r3, [fp, #-16]
    92b0:	e59b2004 	ldr	r2, [fp, #4]
    92b4:	ebffff7e 	bl	90b4 <vsnprintf>
    92b8:	e24bd00c 	sub	sp, fp, #12
    92bc:	e89da800 	ldm	sp, {fp, sp, pc}

000092c0 <printf>:
    92c0:	e1a0c00d 	mov	ip, sp
    92c4:	e92d000f 	push	{r0, r1, r2, r3}
    92c8:	e92dd830 	push	{r4, r5, fp, ip, lr, pc}
    92cc:	e24cb014 	sub	fp, ip, #20
    92d0:	e24ddb01 	sub	sp, sp, #1024	; 0x400
    92d4:	e24dd008 	sub	sp, sp, #8
    92d8:	e28b3008 	add	r3, fp, #8
    92dc:	e50b3418 	str	r3, [fp, #-1048]	; 0x418
    92e0:	e24b0e41 	sub	r0, fp, #1040	; 0x410
    92e4:	e2400004 	sub	r0, r0, #4
    92e8:	e3a01b01 	mov	r1, #1024	; 0x400
    92ec:	e59b2004 	ldr	r2, [fp, #4]
    92f0:	ebffff6f 	bl	90b4 <vsnprintf>
    92f4:	e1a05000 	mov	r5, r0
    92f8:	e24b3e41 	sub	r3, fp, #1040	; 0x410
    92fc:	e2433004 	sub	r3, r3, #4
    9300:	ea000001 	b	930c <printf+0x4c>
    9304:	eb000065 	bl	94a0 <uart_putc>
    9308:	e1a03004 	mov	r3, r4
    930c:	e2834001 	add	r4, r3, #1
    9310:	e5d30000 	ldrb	r0, [r3]
    9314:	e3500000 	cmp	r0, #0
    9318:	1afffff9 	bne	9304 <printf+0x44>
    931c:	e1a00005 	mov	r0, r5
    9320:	e24bd014 	sub	sp, fp, #20
    9324:	e89da830 	ldm	sp, {r4, r5, fp, sp, pc}

00009328 <timer_init>:
    9328:	e1a0c00d 	mov	ip, sp
    932c:	e92dd800 	push	{fp, ip, lr, pc}
    9330:	e24cb004 	sub	fp, ip, #4
    9334:	e89da800 	ldm	sp, {fp, sp, pc}

00009338 <timer_get_time>:
    9338:	e1a0c00d 	mov	ip, sp
    933c:	e92dd800 	push	{fp, ip, lr, pc}
    9340:	e24cb004 	sub	fp, ip, #4
    9344:	e59f3004 	ldr	r3, [pc, #4]	; 9350 <timer_get_time+0x18>
    9348:	e5930004 	ldr	r0, [r3, #4]
    934c:	e89da800 	ldm	sp, {fp, sp, pc}
    9350:	20003000 	andcs	r3, r0, r0

00009354 <delay_us>:
    9354:	e1a0c00d 	mov	ip, sp
    9358:	e92dd830 	push	{r4, r5, fp, ip, lr, pc}
    935c:	e24cb004 	sub	fp, ip, #4
    9360:	e1a05000 	mov	r5, r0
    9364:	ebfffff3 	bl	9338 <timer_get_time>
    9368:	e1a04000 	mov	r4, r0
    936c:	ebfffff1 	bl	9338 <timer_get_time>
    9370:	e0640000 	rsb	r0, r4, r0
    9374:	e1500005 	cmp	r0, r5
    9378:	3afffffb 	bcc	936c <delay_us+0x18>
    937c:	e89da830 	ldm	sp, {r4, r5, fp, sp, pc}

00009380 <delay_ms>:
    9380:	e1a0c00d 	mov	ip, sp
    9384:	e92dd878 	push	{r3, r4, r5, r6, fp, ip, lr, pc}
    9388:	e24cb004 	sub	fp, ip, #4
    938c:	e1a05000 	mov	r5, r0
    9390:	e3a04000 	mov	r4, #0
    9394:	e3a06ffa 	mov	r6, #1000	; 0x3e8
    9398:	ea000002 	b	93a8 <delay_ms+0x28>
    939c:	e1a00006 	mov	r0, r6
    93a0:	ebffffeb 	bl	9354 <delay_us>
    93a4:	e2844001 	add	r4, r4, #1
    93a8:	e1540005 	cmp	r4, r5
    93ac:	3afffffa 	bcc	939c <delay_ms+0x1c>
    93b0:	e89da878 	ldm	sp, {r3, r4, r5, r6, fp, sp, pc}

000093b4 <delay>:
    93b4:	e1a0c00d 	mov	ip, sp
    93b8:	e92dd878 	push	{r3, r4, r5, r6, fp, ip, lr, pc}
    93bc:	e24cb004 	sub	fp, ip, #4
    93c0:	e1a05000 	mov	r5, r0
    93c4:	e3a04000 	mov	r4, #0
    93c8:	e3a06ffa 	mov	r6, #1000	; 0x3e8
    93cc:	ea000002 	b	93dc <delay+0x28>
    93d0:	e1a00006 	mov	r0, r6
    93d4:	ebffffe9 	bl	9380 <delay_ms>
    93d8:	e2844001 	add	r4, r4, #1
    93dc:	e1540005 	cmp	r4, r5
    93e0:	3afffffa 	bcc	93d0 <delay+0x1c>
    93e4:	e89da878 	ldm	sp, {r3, r4, r5, r6, fp, sp, pc}

000093e8 <until_us>:
    93e8:	e1a0c00d 	mov	ip, sp
    93ec:	e92dd818 	push	{r3, r4, fp, ip, lr, pc}
    93f0:	e24cb004 	sub	fp, ip, #4
    93f4:	e1a04000 	mov	r4, r0
    93f8:	ebffffce 	bl	9338 <timer_get_time>
    93fc:	e1500004 	cmp	r0, r4
    9400:	1afffffc 	bne	93f8 <until_us+0x10>
    9404:	e89da818 	ldm	sp, {r3, r4, fp, sp, pc}

00009408 <uart_init>:
    9408:	e1a0c00d 	mov	ip, sp
    940c:	e92dd830 	push	{r4, r5, fp, ip, lr, pc}
    9410:	e24cb004 	sub	fp, ip, #4
    9414:	e59f404c 	ldr	r4, [pc, #76]	; 9468 <uart_init+0x60>
    9418:	e3a03001 	mov	r3, #1
    941c:	e5843004 	str	r3, [r4, #4]
    9420:	e3a03000 	mov	r3, #0
    9424:	e5843044 	str	r3, [r4, #68]	; 0x44
    9428:	e5843060 	str	r3, [r4, #96]	; 0x60
    942c:	e3a05003 	mov	r5, #3
    9430:	e584504c 	str	r5, [r4, #76]	; 0x4c
    9434:	e5843050 	str	r3, [r4, #80]	; 0x50
    9438:	e5843044 	str	r3, [r4, #68]	; 0x44
    943c:	e3a0000e 	mov	r0, #14
    9440:	e5840048 	str	r0, [r4, #72]	; 0x48
    9444:	e59f3020 	ldr	r3, [pc, #32]	; 946c <uart_init+0x64>
    9448:	e5843068 	str	r3, [r4, #104]	; 0x68
    944c:	e3a01002 	mov	r1, #2
    9450:	ebfffde4 	bl	8be8 <gpio_set_function>
    9454:	e3a0000f 	mov	r0, #15
    9458:	e3a01002 	mov	r1, #2
    945c:	ebfffde1 	bl	8be8 <gpio_set_function>
    9460:	e5845060 	str	r5, [r4, #96]	; 0x60
    9464:	e89da830 	ldm	sp, {r4, r5, fp, sp, pc}
    9468:	20215000 	eorcs	r5, r1, r0
    946c:	0000010e 	andeq	r0, r0, lr, lsl #2

00009470 <uart_getc>:
    9470:	e1a0c00d 	mov	ip, sp
    9474:	e92dd800 	push	{fp, ip, lr, pc}
    9478:	e24cb004 	sub	fp, ip, #4
    947c:	e59f2018 	ldr	r2, [pc, #24]	; 949c <uart_getc+0x2c>
    9480:	e5923054 	ldr	r3, [r2, #84]	; 0x54
    9484:	e3130001 	tst	r3, #1
    9488:	0afffffc 	beq	9480 <uart_getc+0x10>
    948c:	e59f3008 	ldr	r3, [pc, #8]	; 949c <uart_getc+0x2c>
    9490:	e5930040 	ldr	r0, [r3, #64]	; 0x40
    9494:	e6ef0070 	uxtb	r0, r0
    9498:	e89da800 	ldm	sp, {fp, sp, pc}
    949c:	20215000 	eorcs	r5, r1, r0

000094a0 <uart_putc>:
    94a0:	e1a0c00d 	mov	ip, sp
    94a4:	e92dd818 	push	{r3, r4, fp, ip, lr, pc}
    94a8:	e24cb004 	sub	fp, ip, #4
    94ac:	e1a04000 	mov	r4, r0
    94b0:	e350000a 	cmp	r0, #10
    94b4:	1a000001 	bne	94c0 <uart_putc+0x20>
    94b8:	e3a0000d 	mov	r0, #13
    94bc:	ebfffff7 	bl	94a0 <uart_putc>
    94c0:	e59f2014 	ldr	r2, [pc, #20]	; 94dc <uart_putc+0x3c>
    94c4:	e5923054 	ldr	r3, [r2, #84]	; 0x54
    94c8:	e3130020 	tst	r3, #32
    94cc:	0afffffc 	beq	94c4 <uart_putc+0x24>
    94d0:	e59f3004 	ldr	r3, [pc, #4]	; 94dc <uart_putc+0x3c>
    94d4:	e5834040 	str	r4, [r3, #64]	; 0x40
    94d8:	e89da818 	ldm	sp, {r3, r4, fp, sp, pc}
    94dc:	20215000 	eorcs	r5, r1, r0

000094e0 <uart_flush>:
    94e0:	e1a0c00d 	mov	ip, sp
    94e4:	e92dd800 	push	{fp, ip, lr, pc}
    94e8:	e24cb004 	sub	fp, ip, #4
    94ec:	e59f200c 	ldr	r2, [pc, #12]	; 9500 <uart_flush+0x20>
    94f0:	e5923054 	ldr	r3, [r2, #84]	; 0x54
    94f4:	e3130020 	tst	r3, #32
    94f8:	0afffffc 	beq	94f0 <uart_flush+0x10>
    94fc:	e89da800 	ldm	sp, {fp, sp, pc}
    9500:	20215000 	eorcs	r5, r1, r0

00009504 <gpio_set_pud>:
    9504:	e1a0c00d 	mov	ip, sp
    9508:	e92dd830 	push	{r4, r5, fp, ip, lr, pc}
    950c:	e24cb004 	sub	fp, ip, #4
    9510:	e1a04000 	mov	r4, r0
    9514:	e3500034 	cmp	r0, #52	; 0x34
    9518:	889da830 	ldmhi	sp, {r4, r5, fp, sp, pc}
    951c:	e2011003 	and	r1, r1, #3
    9520:	e59f5040 	ldr	r5, [pc, #64]	; 9568 <gpio_set_pud+0x64>
    9524:	e5851094 	str	r1, [r5, #148]	; 0x94
    9528:	e3a00005 	mov	r0, #5
    952c:	ebffff88 	bl	9354 <delay_us>
    9530:	e204401f 	and	r4, r4, #31
    9534:	e3a03001 	mov	r3, #1
    9538:	e1a04413 	lsl	r4, r3, r4
    953c:	e5854098 	str	r4, [r5, #152]	; 0x98
    9540:	e3a00005 	mov	r0, #5
    9544:	ebffff82 	bl	9354 <delay_us>
    9548:	e3a04000 	mov	r4, #0
    954c:	e5854094 	str	r4, [r5, #148]	; 0x94
    9550:	e3a00005 	mov	r0, #5
    9554:	ebffff7e 	bl	9354 <delay_us>
    9558:	e5854098 	str	r4, [r5, #152]	; 0x98
    955c:	e3a00005 	mov	r0, #5
    9560:	ebffff7b 	bl	9354 <delay_us>
    9564:	e89da830 	ldm	sp, {r4, r5, fp, sp, pc}
    9568:	20200000 	eorcs	r0, r0, r0

0000956c <gpio_set_pullup>:
    956c:	e1a0c00d 	mov	ip, sp
    9570:	e92dd800 	push	{fp, ip, lr, pc}
    9574:	e24cb004 	sub	fp, ip, #4
    9578:	e3500034 	cmp	r0, #52	; 0x34
    957c:	889da800 	ldmhi	sp, {fp, sp, pc}
    9580:	e3a01002 	mov	r1, #2
    9584:	ebffffde 	bl	9504 <gpio_set_pud>
    9588:	e89da800 	ldm	sp, {fp, sp, pc}

0000958c <gpio_set_pulldown>:
    958c:	e1a0c00d 	mov	ip, sp
    9590:	e92dd800 	push	{fp, ip, lr, pc}
    9594:	e24cb004 	sub	fp, ip, #4
    9598:	e3a01001 	mov	r1, #1
    959c:	ebffffd8 	bl	9504 <gpio_set_pud>
    95a0:	e89da800 	ldm	sp, {fp, sp, pc}

000095a4 <spi_init>:
    95a4:	e1a0c00d 	mov	ip, sp
    95a8:	e92dd830 	push	{r4, r5, fp, ip, lr, pc}
    95ac:	e24cb004 	sub	fp, ip, #4
    95b0:	e1a04000 	mov	r4, r0
    95b4:	e1a05001 	mov	r5, r1
    95b8:	e3a00007 	mov	r0, #7
    95bc:	e3a01004 	mov	r1, #4
    95c0:	ebfffd88 	bl	8be8 <gpio_set_function>
    95c4:	e3a00008 	mov	r0, #8
    95c8:	e3a01004 	mov	r1, #4
    95cc:	ebfffd85 	bl	8be8 <gpio_set_function>
    95d0:	e3a00009 	mov	r0, #9
    95d4:	e3a01004 	mov	r1, #4
    95d8:	ebfffd82 	bl	8be8 <gpio_set_function>
    95dc:	e3a0000a 	mov	r0, #10
    95e0:	e3a01004 	mov	r1, #4
    95e4:	ebfffd7f 	bl	8be8 <gpio_set_function>
    95e8:	e3a0000b 	mov	r0, #11
    95ec:	e3a01004 	mov	r1, #4
    95f0:	ebfffd7c 	bl	8be8 <gpio_set_function>
    95f4:	e59f3060 	ldr	r3, [pc, #96]	; 965c <spi_init+0xb8>
    95f8:	e5932000 	ldr	r2, [r3]
    95fc:	e3a01000 	mov	r1, #0
    9600:	e5821000 	str	r1, [r2]
    9604:	e5933000 	ldr	r3, [r3]
    9608:	e5932000 	ldr	r2, [r3]
    960c:	e3822030 	orr	r2, r2, #48	; 0x30
    9610:	e5832000 	str	r2, [r3]
    9614:	e1540001 	cmp	r4, r1
    9618:	1a000004 	bne	9630 <spi_init+0x8c>
    961c:	e59f3038 	ldr	r3, [pc, #56]	; 965c <spi_init+0xb8>
    9620:	e5933000 	ldr	r3, [r3]
    9624:	e5932000 	ldr	r2, [r3]
    9628:	e5832000 	str	r2, [r3]
    962c:	ea000006 	b	964c <spi_init+0xa8>
    9630:	e3540001 	cmp	r4, #1
    9634:	1a000004 	bne	964c <spi_init+0xa8>
    9638:	e59f301c 	ldr	r3, [pc, #28]	; 965c <spi_init+0xb8>
    963c:	e5933000 	ldr	r3, [r3]
    9640:	e5932000 	ldr	r2, [r3]
    9644:	e3822001 	orr	r2, r2, #1
    9648:	e5832000 	str	r2, [r3]
    964c:	e59f3008 	ldr	r3, [pc, #8]	; 965c <spi_init+0xb8>
    9650:	e5933000 	ldr	r3, [r3]
    9654:	e5835008 	str	r5, [r3, #8]
    9658:	e89da830 	ldm	sp, {r4, r5, fp, sp, pc}
    965c:	0000c648 	andeq	ip, r0, r8, asr #12

00009660 <spi_transfer>:
    9660:	e1a0c00d 	mov	ip, sp
    9664:	e92dd870 	push	{r4, r5, r6, fp, ip, lr, pc}
    9668:	e24cb004 	sub	fp, ip, #4
    966c:	e59f3078 	ldr	r3, [pc, #120]	; 96ec <spi_transfer+0x8c>
    9670:	e5933000 	ldr	r3, [r3]
    9674:	e593c000 	ldr	ip, [r3]
    9678:	e38cc0b0 	orr	ip, ip, #176	; 0xb0
    967c:	e583c000 	str	ip, [r3]
    9680:	e3a05000 	mov	r5, #0
    9684:	e59f4060 	ldr	r4, [pc, #96]	; 96ec <spi_transfer+0x8c>
    9688:	ea00000e 	b	96c8 <spi_transfer+0x68>
    968c:	e5943000 	ldr	r3, [r4]
    9690:	e593c000 	ldr	ip, [r3]
    9694:	e31c0701 	tst	ip, #262144	; 0x40000
    9698:	0afffffb 	beq	968c <spi_transfer+0x2c>
    969c:	e7d0c006 	ldrb	ip, [r0, r6]
    96a0:	e583c004 	str	ip, [r3, #4]
    96a4:	e593c000 	ldr	ip, [r3]
    96a8:	e31c0801 	tst	ip, #65536	; 0x10000
    96ac:	0afffffc 	beq	96a4 <spi_transfer+0x44>
    96b0:	e593c000 	ldr	ip, [r3]
    96b4:	e31c0802 	tst	ip, #131072	; 0x20000
    96b8:	0afffffc 	beq	96b0 <spi_transfer+0x50>
    96bc:	e5933004 	ldr	r3, [r3, #4]
    96c0:	e7c13006 	strb	r3, [r1, r6]
    96c4:	e2855001 	add	r5, r5, #1
    96c8:	e1a06005 	mov	r6, r5
    96cc:	e1550002 	cmp	r5, r2
    96d0:	3affffed 	bcc	968c <spi_transfer+0x2c>
    96d4:	e59f3010 	ldr	r3, [pc, #16]	; 96ec <spi_transfer+0x8c>
    96d8:	e5933000 	ldr	r3, [r3]
    96dc:	e5932000 	ldr	r2, [r3]
    96e0:	e3c22080 	bic	r2, r2, #128	; 0x80
    96e4:	e5832000 	str	r2, [r3]
    96e8:	e89da870 	ldm	sp, {r4, r5, r6, fp, sp, pc}
    96ec:	0000c648 	andeq	ip, r0, r8, asr #12

000096f0 <__aeabi_uidiv>:
    96f0:	e2512001 	subs	r2, r1, #1
    96f4:	012fff1e 	bxeq	lr
    96f8:	3a000036 	bcc	97d8 <__aeabi_uidiv+0xe8>
    96fc:	e1500001 	cmp	r0, r1
    9700:	9a000022 	bls	9790 <__aeabi_uidiv+0xa0>
    9704:	e1110002 	tst	r1, r2
    9708:	0a000023 	beq	979c <__aeabi_uidiv+0xac>
    970c:	e311020e 	tst	r1, #-536870912	; 0xe0000000
    9710:	01a01181 	lsleq	r1, r1, #3
    9714:	03a03008 	moveq	r3, #8
    9718:	13a03001 	movne	r3, #1
    971c:	e3510201 	cmp	r1, #268435456	; 0x10000000
    9720:	31510000 	cmpcc	r1, r0
    9724:	31a01201 	lslcc	r1, r1, #4
    9728:	31a03203 	lslcc	r3, r3, #4
    972c:	3afffffa 	bcc	971c <__aeabi_uidiv+0x2c>
    9730:	e3510102 	cmp	r1, #-2147483648	; 0x80000000
    9734:	31510000 	cmpcc	r1, r0
    9738:	31a01081 	lslcc	r1, r1, #1
    973c:	31a03083 	lslcc	r3, r3, #1
    9740:	3afffffa 	bcc	9730 <__aeabi_uidiv+0x40>
    9744:	e3a02000 	mov	r2, #0
    9748:	e1500001 	cmp	r0, r1
    974c:	20400001 	subcs	r0, r0, r1
    9750:	21822003 	orrcs	r2, r2, r3
    9754:	e15000a1 	cmp	r0, r1, lsr #1
    9758:	204000a1 	subcs	r0, r0, r1, lsr #1
    975c:	218220a3 	orrcs	r2, r2, r3, lsr #1
    9760:	e1500121 	cmp	r0, r1, lsr #2
    9764:	20400121 	subcs	r0, r0, r1, lsr #2
    9768:	21822123 	orrcs	r2, r2, r3, lsr #2
    976c:	e15001a1 	cmp	r0, r1, lsr #3
    9770:	204001a1 	subcs	r0, r0, r1, lsr #3
    9774:	218221a3 	orrcs	r2, r2, r3, lsr #3
    9778:	e3500000 	cmp	r0, #0
    977c:	11b03223 	lsrsne	r3, r3, #4
    9780:	11a01221 	lsrne	r1, r1, #4
    9784:	1affffef 	bne	9748 <__aeabi_uidiv+0x58>
    9788:	e1a00002 	mov	r0, r2
    978c:	e12fff1e 	bx	lr
    9790:	03a00001 	moveq	r0, #1
    9794:	13a00000 	movne	r0, #0
    9798:	e12fff1e 	bx	lr
    979c:	e3510801 	cmp	r1, #65536	; 0x10000
    97a0:	21a01821 	lsrcs	r1, r1, #16
    97a4:	23a02010 	movcs	r2, #16
    97a8:	33a02000 	movcc	r2, #0
    97ac:	e3510c01 	cmp	r1, #256	; 0x100
    97b0:	21a01421 	lsrcs	r1, r1, #8
    97b4:	22822008 	addcs	r2, r2, #8
    97b8:	e3510010 	cmp	r1, #16
    97bc:	21a01221 	lsrcs	r1, r1, #4
    97c0:	22822004 	addcs	r2, r2, #4
    97c4:	e3510004 	cmp	r1, #4
    97c8:	82822003 	addhi	r2, r2, #3
    97cc:	908220a1 	addls	r2, r2, r1, lsr #1
    97d0:	e1a00230 	lsr	r0, r0, r2
    97d4:	e12fff1e 	bx	lr
    97d8:	e3500000 	cmp	r0, #0
    97dc:	13e00000 	mvnne	r0, #0
    97e0:	ea000059 	b	994c <__aeabi_idiv0>

000097e4 <__aeabi_uidivmod>:
    97e4:	e3510000 	cmp	r1, #0
    97e8:	0afffffa 	beq	97d8 <__aeabi_uidiv+0xe8>
    97ec:	e92d4003 	push	{r0, r1, lr}
    97f0:	ebffffbe 	bl	96f0 <__aeabi_uidiv>
    97f4:	e8bd4006 	pop	{r1, r2, lr}
    97f8:	e0030092 	mul	r3, r2, r0
    97fc:	e0411003 	sub	r1, r1, r3
    9800:	e12fff1e 	bx	lr

00009804 <__aeabi_idiv>:
    9804:	e3510000 	cmp	r1, #0
    9808:	0a000043 	beq	991c <.divsi3_skip_div0_test+0x110>

0000980c <.divsi3_skip_div0_test>:
    980c:	e020c001 	eor	ip, r0, r1
    9810:	42611000 	rsbmi	r1, r1, #0
    9814:	e2512001 	subs	r2, r1, #1
    9818:	0a000027 	beq	98bc <.divsi3_skip_div0_test+0xb0>
    981c:	e1b03000 	movs	r3, r0
    9820:	42603000 	rsbmi	r3, r0, #0
    9824:	e1530001 	cmp	r3, r1
    9828:	9a000026 	bls	98c8 <.divsi3_skip_div0_test+0xbc>
    982c:	e1110002 	tst	r1, r2
    9830:	0a000028 	beq	98d8 <.divsi3_skip_div0_test+0xcc>
    9834:	e311020e 	tst	r1, #-536870912	; 0xe0000000
    9838:	01a01181 	lsleq	r1, r1, #3
    983c:	03a02008 	moveq	r2, #8
    9840:	13a02001 	movne	r2, #1
    9844:	e3510201 	cmp	r1, #268435456	; 0x10000000
    9848:	31510003 	cmpcc	r1, r3
    984c:	31a01201 	lslcc	r1, r1, #4
    9850:	31a02202 	lslcc	r2, r2, #4
    9854:	3afffffa 	bcc	9844 <.divsi3_skip_div0_test+0x38>
    9858:	e3510102 	cmp	r1, #-2147483648	; 0x80000000
    985c:	31510003 	cmpcc	r1, r3
    9860:	31a01081 	lslcc	r1, r1, #1
    9864:	31a02082 	lslcc	r2, r2, #1
    9868:	3afffffa 	bcc	9858 <.divsi3_skip_div0_test+0x4c>
    986c:	e3a00000 	mov	r0, #0
    9870:	e1530001 	cmp	r3, r1
    9874:	20433001 	subcs	r3, r3, r1
    9878:	21800002 	orrcs	r0, r0, r2
    987c:	e15300a1 	cmp	r3, r1, lsr #1
    9880:	204330a1 	subcs	r3, r3, r1, lsr #1
    9884:	218000a2 	orrcs	r0, r0, r2, lsr #1
    9888:	e1530121 	cmp	r3, r1, lsr #2
    988c:	20433121 	subcs	r3, r3, r1, lsr #2
    9890:	21800122 	orrcs	r0, r0, r2, lsr #2
    9894:	e15301a1 	cmp	r3, r1, lsr #3
    9898:	204331a1 	subcs	r3, r3, r1, lsr #3
    989c:	218001a2 	orrcs	r0, r0, r2, lsr #3
    98a0:	e3530000 	cmp	r3, #0
    98a4:	11b02222 	lsrsne	r2, r2, #4
    98a8:	11a01221 	lsrne	r1, r1, #4
    98ac:	1affffef 	bne	9870 <.divsi3_skip_div0_test+0x64>
    98b0:	e35c0000 	cmp	ip, #0
    98b4:	42600000 	rsbmi	r0, r0, #0
    98b8:	e12fff1e 	bx	lr
    98bc:	e13c0000 	teq	ip, r0
    98c0:	42600000 	rsbmi	r0, r0, #0
    98c4:	e12fff1e 	bx	lr
    98c8:	33a00000 	movcc	r0, #0
    98cc:	01a00fcc 	asreq	r0, ip, #31
    98d0:	03800001 	orreq	r0, r0, #1
    98d4:	e12fff1e 	bx	lr
    98d8:	e3510801 	cmp	r1, #65536	; 0x10000
    98dc:	21a01821 	lsrcs	r1, r1, #16
    98e0:	23a02010 	movcs	r2, #16
    98e4:	33a02000 	movcc	r2, #0
    98e8:	e3510c01 	cmp	r1, #256	; 0x100
    98ec:	21a01421 	lsrcs	r1, r1, #8
    98f0:	22822008 	addcs	r2, r2, #8
    98f4:	e3510010 	cmp	r1, #16
    98f8:	21a01221 	lsrcs	r1, r1, #4
    98fc:	22822004 	addcs	r2, r2, #4
    9900:	e3510004 	cmp	r1, #4
    9904:	82822003 	addhi	r2, r2, #3
    9908:	908220a1 	addls	r2, r2, r1, lsr #1
    990c:	e35c0000 	cmp	ip, #0
    9910:	e1a00233 	lsr	r0, r3, r2
    9914:	42600000 	rsbmi	r0, r0, #0
    9918:	e12fff1e 	bx	lr
    991c:	e3500000 	cmp	r0, #0
    9920:	c3e00102 	mvngt	r0, #-2147483648	; 0x80000000
    9924:	b3a00102 	movlt	r0, #-2147483648	; 0x80000000
    9928:	ea000007 	b	994c <__aeabi_idiv0>

0000992c <__aeabi_idivmod>:
    992c:	e3510000 	cmp	r1, #0
    9930:	0afffff9 	beq	991c <.divsi3_skip_div0_test+0x110>
    9934:	e92d4003 	push	{r0, r1, lr}
    9938:	ebffffb3 	bl	980c <.divsi3_skip_div0_test>
    993c:	e8bd4006 	pop	{r1, r2, lr}
    9940:	e0030092 	mul	r3, r2, r0
    9944:	e0411003 	sub	r1, r1, r3
    9948:	e12fff1e 	bx	lr

0000994c <__aeabi_idiv0>:
    994c:	e12fff1e 	bx	lr

00009950 <__aeabi_drsub>:
    9950:	e2211102 	eor	r1, r1, #-2147483648	; 0x80000000
    9954:	ea000000 	b	995c <__adddf3>

00009958 <__aeabi_dsub>:
    9958:	e2233102 	eor	r3, r3, #-2147483648	; 0x80000000

0000995c <__adddf3>:
    995c:	e92d4030 	push	{r4, r5, lr}
    9960:	e1a04081 	lsl	r4, r1, #1
    9964:	e1a05083 	lsl	r5, r3, #1
    9968:	e1340005 	teq	r4, r5
    996c:	01300002 	teqeq	r0, r2
    9970:	1194c000 	orrsne	ip, r4, r0
    9974:	1195c002 	orrsne	ip, r5, r2
    9978:	11f0cac4 	mvnsne	ip, r4, asr #21
    997c:	11f0cac5 	mvnsne	ip, r5, asr #21
    9980:	0a00008c 	beq	9bb8 <__adddf3+0x25c>
    9984:	e1a04aa4 	lsr	r4, r4, #21
    9988:	e0745aa5 	rsbs	r5, r4, r5, lsr #21
    998c:	b2655000 	rsblt	r5, r5, #0
    9990:	da000006 	ble	99b0 <__adddf3+0x54>
    9994:	e0844005 	add	r4, r4, r5
    9998:	e0202002 	eor	r2, r0, r2
    999c:	e0213003 	eor	r3, r1, r3
    99a0:	e0220000 	eor	r0, r2, r0
    99a4:	e0231001 	eor	r1, r3, r1
    99a8:	e0202002 	eor	r2, r0, r2
    99ac:	e0213003 	eor	r3, r1, r3
    99b0:	e3550036 	cmp	r5, #54	; 0x36
    99b4:	88bd4030 	pophi	{r4, r5, lr}
    99b8:	812fff1e 	bxhi	lr
    99bc:	e3110102 	tst	r1, #-2147483648	; 0x80000000
    99c0:	e1a01601 	lsl	r1, r1, #12
    99c4:	e3a0c601 	mov	ip, #1048576	; 0x100000
    99c8:	e18c1621 	orr	r1, ip, r1, lsr #12
    99cc:	0a000001 	beq	99d8 <__adddf3+0x7c>
    99d0:	e2700000 	rsbs	r0, r0, #0
    99d4:	e2e11000 	rsc	r1, r1, #0
    99d8:	e3130102 	tst	r3, #-2147483648	; 0x80000000
    99dc:	e1a03603 	lsl	r3, r3, #12
    99e0:	e18c3623 	orr	r3, ip, r3, lsr #12
    99e4:	0a000001 	beq	99f0 <__adddf3+0x94>
    99e8:	e2722000 	rsbs	r2, r2, #0
    99ec:	e2e33000 	rsc	r3, r3, #0
    99f0:	e1340005 	teq	r4, r5
    99f4:	0a000069 	beq	9ba0 <__adddf3+0x244>
    99f8:	e2444001 	sub	r4, r4, #1
    99fc:	e275e020 	rsbs	lr, r5, #32
    9a00:	ba000005 	blt	9a1c <__adddf3+0xc0>
    9a04:	e1a0ce12 	lsl	ip, r2, lr
    9a08:	e0900532 	adds	r0, r0, r2, lsr r5
    9a0c:	e2a11000 	adc	r1, r1, #0
    9a10:	e0900e13 	adds	r0, r0, r3, lsl lr
    9a14:	e0b11553 	adcs	r1, r1, r3, asr r5
    9a18:	ea000006 	b	9a38 <__adddf3+0xdc>
    9a1c:	e2455020 	sub	r5, r5, #32
    9a20:	e28ee020 	add	lr, lr, #32
    9a24:	e3520001 	cmp	r2, #1
    9a28:	e1a0ce13 	lsl	ip, r3, lr
    9a2c:	238cc002 	orrcs	ip, ip, #2
    9a30:	e0900553 	adds	r0, r0, r3, asr r5
    9a34:	e0b11fc3 	adcs	r1, r1, r3, asr #31
    9a38:	e2015102 	and	r5, r1, #-2147483648	; 0x80000000
    9a3c:	5a000002 	bpl	9a4c <__adddf3+0xf0>
    9a40:	e27cc000 	rsbs	ip, ip, #0
    9a44:	e2f00000 	rscs	r0, r0, #0
    9a48:	e2e11000 	rsc	r1, r1, #0
    9a4c:	e3510601 	cmp	r1, #1048576	; 0x100000
    9a50:	3a00000f 	bcc	9a94 <__adddf3+0x138>
    9a54:	e3510602 	cmp	r1, #2097152	; 0x200000
    9a58:	3a000006 	bcc	9a78 <__adddf3+0x11c>
    9a5c:	e1b010a1 	lsrs	r1, r1, #1
    9a60:	e1b00060 	rrxs	r0, r0
    9a64:	e1a0c06c 	rrx	ip, ip
    9a68:	e2844001 	add	r4, r4, #1
    9a6c:	e1a02a84 	lsl	r2, r4, #21
    9a70:	e3720501 	cmn	r2, #4194304	; 0x400000
    9a74:	2a00006b 	bcs	9c28 <__adddf3+0x2cc>
    9a78:	e35c0102 	cmp	ip, #-2147483648	; 0x80000000
    9a7c:	01b0c0a0 	lsrseq	ip, r0, #1
    9a80:	e2b00000 	adcs	r0, r0, #0
    9a84:	e0a11a04 	adc	r1, r1, r4, lsl #20
    9a88:	e1811005 	orr	r1, r1, r5
    9a8c:	e8bd4030 	pop	{r4, r5, lr}
    9a90:	e12fff1e 	bx	lr
    9a94:	e1b0c08c 	lsls	ip, ip, #1
    9a98:	e0b00000 	adcs	r0, r0, r0
    9a9c:	e0a11001 	adc	r1, r1, r1
    9aa0:	e3110601 	tst	r1, #1048576	; 0x100000
    9aa4:	e2444001 	sub	r4, r4, #1
    9aa8:	1afffff2 	bne	9a78 <__adddf3+0x11c>
    9aac:	e3310000 	teq	r1, #0
    9ab0:	13a03014 	movne	r3, #20
    9ab4:	03a03034 	moveq	r3, #52	; 0x34
    9ab8:	01a01000 	moveq	r1, r0
    9abc:	03a00000 	moveq	r0, #0
    9ac0:	e1a02001 	mov	r2, r1
    9ac4:	e3520801 	cmp	r2, #65536	; 0x10000
    9ac8:	21a02822 	lsrcs	r2, r2, #16
    9acc:	22433010 	subcs	r3, r3, #16
    9ad0:	e3520c01 	cmp	r2, #256	; 0x100
    9ad4:	21a02422 	lsrcs	r2, r2, #8
    9ad8:	22433008 	subcs	r3, r3, #8
    9adc:	e3520010 	cmp	r2, #16
    9ae0:	21a02222 	lsrcs	r2, r2, #4
    9ae4:	22433004 	subcs	r3, r3, #4
    9ae8:	e3520004 	cmp	r2, #4
    9aec:	22433002 	subcs	r3, r3, #2
    9af0:	304330a2 	subcc	r3, r3, r2, lsr #1
    9af4:	e04331a2 	sub	r3, r3, r2, lsr #3
    9af8:	e2532020 	subs	r2, r3, #32
    9afc:	aa000007 	bge	9b20 <__adddf3+0x1c4>
    9b00:	e292200c 	adds	r2, r2, #12
    9b04:	da000004 	ble	9b1c <__adddf3+0x1c0>
    9b08:	e282c014 	add	ip, r2, #20
    9b0c:	e262200c 	rsb	r2, r2, #12
    9b10:	e1a00c11 	lsl	r0, r1, ip
    9b14:	e1a01231 	lsr	r1, r1, r2
    9b18:	ea000004 	b	9b30 <__adddf3+0x1d4>
    9b1c:	e2822014 	add	r2, r2, #20
    9b20:	d262c020 	rsble	ip, r2, #32
    9b24:	e1a01211 	lsl	r1, r1, r2
    9b28:	d1811c30 	orrle	r1, r1, r0, lsr ip
    9b2c:	d1a00210 	lslle	r0, r0, r2
    9b30:	e0544003 	subs	r4, r4, r3
    9b34:	a0811a04 	addge	r1, r1, r4, lsl #20
    9b38:	a1811005 	orrge	r1, r1, r5
    9b3c:	a8bd4030 	popge	{r4, r5, lr}
    9b40:	a12fff1e 	bxge	lr
    9b44:	e1e04004 	mvn	r4, r4
    9b48:	e254401f 	subs	r4, r4, #31
    9b4c:	aa00000f 	bge	9b90 <__adddf3+0x234>
    9b50:	e294400c 	adds	r4, r4, #12
    9b54:	ca000006 	bgt	9b74 <__adddf3+0x218>
    9b58:	e2844014 	add	r4, r4, #20
    9b5c:	e2642020 	rsb	r2, r4, #32
    9b60:	e1a00430 	lsr	r0, r0, r4
    9b64:	e1800211 	orr	r0, r0, r1, lsl r2
    9b68:	e1851431 	orr	r1, r5, r1, lsr r4
    9b6c:	e8bd4030 	pop	{r4, r5, lr}
    9b70:	e12fff1e 	bx	lr
    9b74:	e264400c 	rsb	r4, r4, #12
    9b78:	e2642020 	rsb	r2, r4, #32
    9b7c:	e1a00230 	lsr	r0, r0, r2
    9b80:	e1800411 	orr	r0, r0, r1, lsl r4
    9b84:	e1a01005 	mov	r1, r5
    9b88:	e8bd4030 	pop	{r4, r5, lr}
    9b8c:	e12fff1e 	bx	lr
    9b90:	e1a00431 	lsr	r0, r1, r4
    9b94:	e1a01005 	mov	r1, r5
    9b98:	e8bd4030 	pop	{r4, r5, lr}
    9b9c:	e12fff1e 	bx	lr
    9ba0:	e3340000 	teq	r4, #0
    9ba4:	e2233601 	eor	r3, r3, #1048576	; 0x100000
    9ba8:	02211601 	eoreq	r1, r1, #1048576	; 0x100000
    9bac:	02844001 	addeq	r4, r4, #1
    9bb0:	12455001 	subne	r5, r5, #1
    9bb4:	eaffff8f 	b	99f8 <__adddf3+0x9c>
    9bb8:	e1f0cac4 	mvns	ip, r4, asr #21
    9bbc:	11f0cac5 	mvnsne	ip, r5, asr #21
    9bc0:	0a00001d 	beq	9c3c <__adddf3+0x2e0>
    9bc4:	e1340005 	teq	r4, r5
    9bc8:	01300002 	teqeq	r0, r2
    9bcc:	0a000004 	beq	9be4 <__adddf3+0x288>
    9bd0:	e194c000 	orrs	ip, r4, r0
    9bd4:	01a01003 	moveq	r1, r3
    9bd8:	01a00002 	moveq	r0, r2
    9bdc:	e8bd4030 	pop	{r4, r5, lr}
    9be0:	e12fff1e 	bx	lr
    9be4:	e1310003 	teq	r1, r3
    9be8:	13a01000 	movne	r1, #0
    9bec:	13a00000 	movne	r0, #0
    9bf0:	18bd4030 	popne	{r4, r5, lr}
    9bf4:	112fff1e 	bxne	lr
    9bf8:	e1b0caa4 	lsrs	ip, r4, #21
    9bfc:	1a000004 	bne	9c14 <__adddf3+0x2b8>
    9c00:	e1b00080 	lsls	r0, r0, #1
    9c04:	e0b11001 	adcs	r1, r1, r1
    9c08:	23811102 	orrcs	r1, r1, #-2147483648	; 0x80000000
    9c0c:	e8bd4030 	pop	{r4, r5, lr}
    9c10:	e12fff1e 	bx	lr
    9c14:	e2944501 	adds	r4, r4, #4194304	; 0x400000
    9c18:	32811601 	addcc	r1, r1, #1048576	; 0x100000
    9c1c:	38bd4030 	popcc	{r4, r5, lr}
    9c20:	312fff1e 	bxcc	lr
    9c24:	e2015102 	and	r5, r1, #-2147483648	; 0x80000000
    9c28:	e385147f 	orr	r1, r5, #2130706432	; 0x7f000000
    9c2c:	e381160f 	orr	r1, r1, #15728640	; 0xf00000
    9c30:	e3a00000 	mov	r0, #0
    9c34:	e8bd4030 	pop	{r4, r5, lr}
    9c38:	e12fff1e 	bx	lr
    9c3c:	e1f0cac4 	mvns	ip, r4, asr #21
    9c40:	11a01003 	movne	r1, r3
    9c44:	11a00002 	movne	r0, r2
    9c48:	01f0cac5 	mvnseq	ip, r5, asr #21
    9c4c:	11a03001 	movne	r3, r1
    9c50:	11a02000 	movne	r2, r0
    9c54:	e1904601 	orrs	r4, r0, r1, lsl #12
    9c58:	01925603 	orrseq	r5, r2, r3, lsl #12
    9c5c:	01310003 	teqeq	r1, r3
    9c60:	13811702 	orrne	r1, r1, #524288	; 0x80000
    9c64:	e8bd4030 	pop	{r4, r5, lr}
    9c68:	e12fff1e 	bx	lr

00009c6c <__aeabi_ui2d>:
    9c6c:	e3300000 	teq	r0, #0
    9c70:	03a01000 	moveq	r1, #0
    9c74:	012fff1e 	bxeq	lr
    9c78:	e92d4030 	push	{r4, r5, lr}
    9c7c:	e3a04b01 	mov	r4, #1024	; 0x400
    9c80:	e2844032 	add	r4, r4, #50	; 0x32
    9c84:	e3a05000 	mov	r5, #0
    9c88:	e3a01000 	mov	r1, #0
    9c8c:	eaffff86 	b	9aac <__adddf3+0x150>

00009c90 <__aeabi_i2d>:
    9c90:	e3300000 	teq	r0, #0
    9c94:	03a01000 	moveq	r1, #0
    9c98:	012fff1e 	bxeq	lr
    9c9c:	e92d4030 	push	{r4, r5, lr}
    9ca0:	e3a04b01 	mov	r4, #1024	; 0x400
    9ca4:	e2844032 	add	r4, r4, #50	; 0x32
    9ca8:	e2105102 	ands	r5, r0, #-2147483648	; 0x80000000
    9cac:	42600000 	rsbmi	r0, r0, #0
    9cb0:	e3a01000 	mov	r1, #0
    9cb4:	eaffff7c 	b	9aac <__adddf3+0x150>

00009cb8 <__aeabi_f2d>:
    9cb8:	e1b02080 	lsls	r2, r0, #1
    9cbc:	e1a011c2 	asr	r1, r2, #3
    9cc0:	e1a01061 	rrx	r1, r1
    9cc4:	e1a00e02 	lsl	r0, r2, #28
    9cc8:	121234ff 	andsne	r3, r2, #-16777216	; 0xff000000
    9ccc:	133304ff 	teqne	r3, #-16777216	; 0xff000000
    9cd0:	1221130e 	eorne	r1, r1, #939524096	; 0x38000000
    9cd4:	112fff1e 	bxne	lr
    9cd8:	e3320000 	teq	r2, #0
    9cdc:	133304ff 	teqne	r3, #-16777216	; 0xff000000
    9ce0:	012fff1e 	bxeq	lr
    9ce4:	e92d4030 	push	{r4, r5, lr}
    9ce8:	e3a04d0e 	mov	r4, #896	; 0x380
    9cec:	e2015102 	and	r5, r1, #-2147483648	; 0x80000000
    9cf0:	e3c11102 	bic	r1, r1, #-2147483648	; 0x80000000
    9cf4:	eaffff6c 	b	9aac <__adddf3+0x150>

00009cf8 <__aeabi_ul2d>:
    9cf8:	e1902001 	orrs	r2, r0, r1
    9cfc:	012fff1e 	bxeq	lr
    9d00:	e92d4030 	push	{r4, r5, lr}
    9d04:	e3a05000 	mov	r5, #0
    9d08:	ea000006 	b	9d28 <__aeabi_l2d+0x1c>

00009d0c <__aeabi_l2d>:
    9d0c:	e1902001 	orrs	r2, r0, r1
    9d10:	012fff1e 	bxeq	lr
    9d14:	e92d4030 	push	{r4, r5, lr}
    9d18:	e2115102 	ands	r5, r1, #-2147483648	; 0x80000000
    9d1c:	5a000001 	bpl	9d28 <__aeabi_l2d+0x1c>
    9d20:	e2700000 	rsbs	r0, r0, #0
    9d24:	e2e11000 	rsc	r1, r1, #0
    9d28:	e3a04b01 	mov	r4, #1024	; 0x400
    9d2c:	e2844032 	add	r4, r4, #50	; 0x32
    9d30:	e1b0cb21 	lsrs	ip, r1, #22
    9d34:	0affff44 	beq	9a4c <__adddf3+0xf0>
    9d38:	e3a02003 	mov	r2, #3
    9d3c:	e1b0c1ac 	lsrs	ip, ip, #3
    9d40:	12822003 	addne	r2, r2, #3
    9d44:	e1b0c1ac 	lsrs	ip, ip, #3
    9d48:	12822003 	addne	r2, r2, #3
    9d4c:	e08221ac 	add	r2, r2, ip, lsr #3
    9d50:	e2623020 	rsb	r3, r2, #32
    9d54:	e1a0c310 	lsl	ip, r0, r3
    9d58:	e1a00230 	lsr	r0, r0, r2
    9d5c:	e1800311 	orr	r0, r0, r1, lsl r3
    9d60:	e1a01231 	lsr	r1, r1, r2
    9d64:	e0844002 	add	r4, r4, r2
    9d68:	eaffff37 	b	9a4c <__adddf3+0xf0>

00009d6c <__aeabi_dmul>:
    9d6c:	e92d4070 	push	{r4, r5, r6, lr}
    9d70:	e3a0c0ff 	mov	ip, #255	; 0xff
    9d74:	e38ccc07 	orr	ip, ip, #1792	; 0x700
    9d78:	e01c4a21 	ands	r4, ip, r1, lsr #20
    9d7c:	101c5a23 	andsne	r5, ip, r3, lsr #20
    9d80:	1134000c 	teqne	r4, ip
    9d84:	1135000c 	teqne	r5, ip
    9d88:	0b000075 	bleq	9f64 <__aeabi_dmul+0x1f8>
    9d8c:	e0844005 	add	r4, r4, r5
    9d90:	e0216003 	eor	r6, r1, r3
    9d94:	e1c11a8c 	bic	r1, r1, ip, lsl #21
    9d98:	e1c33a8c 	bic	r3, r3, ip, lsl #21
    9d9c:	e1905601 	orrs	r5, r0, r1, lsl #12
    9da0:	11925603 	orrsne	r5, r2, r3, lsl #12
    9da4:	e3811601 	orr	r1, r1, #1048576	; 0x100000
    9da8:	e3833601 	orr	r3, r3, #1048576	; 0x100000
    9dac:	0a00001d 	beq	9e28 <__aeabi_dmul+0xbc>
    9db0:	e08ec290 	umull	ip, lr, r0, r2
    9db4:	e3a05000 	mov	r5, #0
    9db8:	e0a5e291 	umlal	lr, r5, r1, r2
    9dbc:	e2062102 	and	r2, r6, #-2147483648	; 0x80000000
    9dc0:	e0a5e390 	umlal	lr, r5, r0, r3
    9dc4:	e3a06000 	mov	r6, #0
    9dc8:	e0a65391 	umlal	r5, r6, r1, r3
    9dcc:	e33c0000 	teq	ip, #0
    9dd0:	138ee001 	orrne	lr, lr, #1
    9dd4:	e24440ff 	sub	r4, r4, #255	; 0xff
    9dd8:	e3560c02 	cmp	r6, #512	; 0x200
    9ddc:	e2c44c03 	sbc	r4, r4, #768	; 0x300
    9de0:	2a000002 	bcs	9df0 <__aeabi_dmul+0x84>
    9de4:	e1b0e08e 	lsls	lr, lr, #1
    9de8:	e0b55005 	adcs	r5, r5, r5
    9dec:	e0a66006 	adc	r6, r6, r6
    9df0:	e1821586 	orr	r1, r2, r6, lsl #11
    9df4:	e1811aa5 	orr	r1, r1, r5, lsr #21
    9df8:	e1a00585 	lsl	r0, r5, #11
    9dfc:	e1800aae 	orr	r0, r0, lr, lsr #21
    9e00:	e1a0e58e 	lsl	lr, lr, #11
    9e04:	e254c0fd 	subs	ip, r4, #253	; 0xfd
    9e08:	835c0c07 	cmphi	ip, #1792	; 0x700
    9e0c:	8a000011 	bhi	9e58 <__aeabi_dmul+0xec>
    9e10:	e35e0102 	cmp	lr, #-2147483648	; 0x80000000
    9e14:	01b0e0a0 	lsrseq	lr, r0, #1
    9e18:	e2b00000 	adcs	r0, r0, #0
    9e1c:	e0a11a04 	adc	r1, r1, r4, lsl #20
    9e20:	e8bd4070 	pop	{r4, r5, r6, lr}
    9e24:	e12fff1e 	bx	lr
    9e28:	e2066102 	and	r6, r6, #-2147483648	; 0x80000000
    9e2c:	e1861001 	orr	r1, r6, r1
    9e30:	e1800002 	orr	r0, r0, r2
    9e34:	e0211003 	eor	r1, r1, r3
    9e38:	e05440ac 	subs	r4, r4, ip, lsr #1
    9e3c:	c074500c 	rsbsgt	r5, r4, ip
    9e40:	c1811a04 	orrgt	r1, r1, r4, lsl #20
    9e44:	c8bd4070 	popgt	{r4, r5, r6, lr}
    9e48:	c12fff1e 	bxgt	lr
    9e4c:	e3811601 	orr	r1, r1, #1048576	; 0x100000
    9e50:	e3a0e000 	mov	lr, #0
    9e54:	e2544001 	subs	r4, r4, #1
    9e58:	ca00005d 	bgt	9fd4 <__aeabi_dmul+0x268>
    9e5c:	e3740036 	cmn	r4, #54	; 0x36
    9e60:	d3a00000 	movle	r0, #0
    9e64:	d2011102 	andle	r1, r1, #-2147483648	; 0x80000000
    9e68:	d8bd4070 	pople	{r4, r5, r6, lr}
    9e6c:	d12fff1e 	bxle	lr
    9e70:	e2644000 	rsb	r4, r4, #0
    9e74:	e2544020 	subs	r4, r4, #32
    9e78:	aa00001a 	bge	9ee8 <__aeabi_dmul+0x17c>
    9e7c:	e294400c 	adds	r4, r4, #12
    9e80:	ca00000c 	bgt	9eb8 <__aeabi_dmul+0x14c>
    9e84:	e2844014 	add	r4, r4, #20
    9e88:	e2645020 	rsb	r5, r4, #32
    9e8c:	e1a03510 	lsl	r3, r0, r5
    9e90:	e1a00430 	lsr	r0, r0, r4
    9e94:	e1800511 	orr	r0, r0, r1, lsl r5
    9e98:	e2012102 	and	r2, r1, #-2147483648	; 0x80000000
    9e9c:	e3c11102 	bic	r1, r1, #-2147483648	; 0x80000000
    9ea0:	e0900fa3 	adds	r0, r0, r3, lsr #31
    9ea4:	e0a21431 	adc	r1, r2, r1, lsr r4
    9ea8:	e19ee083 	orrs	lr, lr, r3, lsl #1
    9eac:	01c00fa3 	biceq	r0, r0, r3, lsr #31
    9eb0:	e8bd4070 	pop	{r4, r5, r6, lr}
    9eb4:	e12fff1e 	bx	lr
    9eb8:	e264400c 	rsb	r4, r4, #12
    9ebc:	e2645020 	rsb	r5, r4, #32
    9ec0:	e1a03410 	lsl	r3, r0, r4
    9ec4:	e1a00530 	lsr	r0, r0, r5
    9ec8:	e1800411 	orr	r0, r0, r1, lsl r4
    9ecc:	e2011102 	and	r1, r1, #-2147483648	; 0x80000000
    9ed0:	e0900fa3 	adds	r0, r0, r3, lsr #31
    9ed4:	e2a11000 	adc	r1, r1, #0
    9ed8:	e19ee083 	orrs	lr, lr, r3, lsl #1
    9edc:	01c00fa3 	biceq	r0, r0, r3, lsr #31
    9ee0:	e8bd4070 	pop	{r4, r5, r6, lr}
    9ee4:	e12fff1e 	bx	lr
    9ee8:	e2645020 	rsb	r5, r4, #32
    9eec:	e18ee510 	orr	lr, lr, r0, lsl r5
    9ef0:	e1a03430 	lsr	r3, r0, r4
    9ef4:	e1833511 	orr	r3, r3, r1, lsl r5
    9ef8:	e1a00431 	lsr	r0, r1, r4
    9efc:	e2011102 	and	r1, r1, #-2147483648	; 0x80000000
    9f00:	e1c00431 	bic	r0, r0, r1, lsr r4
    9f04:	e0800fa3 	add	r0, r0, r3, lsr #31
    9f08:	e19ee083 	orrs	lr, lr, r3, lsl #1
    9f0c:	01c00fa3 	biceq	r0, r0, r3, lsr #31
    9f10:	e8bd4070 	pop	{r4, r5, r6, lr}
    9f14:	e12fff1e 	bx	lr
    9f18:	e3340000 	teq	r4, #0
    9f1c:	1a000008 	bne	9f44 <__aeabi_dmul+0x1d8>
    9f20:	e2016102 	and	r6, r1, #-2147483648	; 0x80000000
    9f24:	e1b00080 	lsls	r0, r0, #1
    9f28:	e0a11001 	adc	r1, r1, r1
    9f2c:	e3110601 	tst	r1, #1048576	; 0x100000
    9f30:	02444001 	subeq	r4, r4, #1
    9f34:	0afffffa 	beq	9f24 <__aeabi_dmul+0x1b8>
    9f38:	e1811006 	orr	r1, r1, r6
    9f3c:	e3350000 	teq	r5, #0
    9f40:	112fff1e 	bxne	lr
    9f44:	e2036102 	and	r6, r3, #-2147483648	; 0x80000000
    9f48:	e1b02082 	lsls	r2, r2, #1
    9f4c:	e0a33003 	adc	r3, r3, r3
    9f50:	e3130601 	tst	r3, #1048576	; 0x100000
    9f54:	02455001 	subeq	r5, r5, #1
    9f58:	0afffffa 	beq	9f48 <__aeabi_dmul+0x1dc>
    9f5c:	e1833006 	orr	r3, r3, r6
    9f60:	e12fff1e 	bx	lr
    9f64:	e134000c 	teq	r4, ip
    9f68:	e00c5a23 	and	r5, ip, r3, lsr #20
    9f6c:	1135000c 	teqne	r5, ip
    9f70:	0a000007 	beq	9f94 <__aeabi_dmul+0x228>
    9f74:	e1906081 	orrs	r6, r0, r1, lsl #1
    9f78:	11926083 	orrsne	r6, r2, r3, lsl #1
    9f7c:	1affffe5 	bne	9f18 <__aeabi_dmul+0x1ac>
    9f80:	e0211003 	eor	r1, r1, r3
    9f84:	e2011102 	and	r1, r1, #-2147483648	; 0x80000000
    9f88:	e3a00000 	mov	r0, #0
    9f8c:	e8bd4070 	pop	{r4, r5, r6, lr}
    9f90:	e12fff1e 	bx	lr
    9f94:	e1906081 	orrs	r6, r0, r1, lsl #1
    9f98:	01a00002 	moveq	r0, r2
    9f9c:	01a01003 	moveq	r1, r3
    9fa0:	11926083 	orrsne	r6, r2, r3, lsl #1
    9fa4:	0a000010 	beq	9fec <__aeabi_dmul+0x280>
    9fa8:	e134000c 	teq	r4, ip
    9fac:	1a000001 	bne	9fb8 <__aeabi_dmul+0x24c>
    9fb0:	e1906601 	orrs	r6, r0, r1, lsl #12
    9fb4:	1a00000c 	bne	9fec <__aeabi_dmul+0x280>
    9fb8:	e135000c 	teq	r5, ip
    9fbc:	1a000003 	bne	9fd0 <__aeabi_dmul+0x264>
    9fc0:	e1926603 	orrs	r6, r2, r3, lsl #12
    9fc4:	11a00002 	movne	r0, r2
    9fc8:	11a01003 	movne	r1, r3
    9fcc:	1a000006 	bne	9fec <__aeabi_dmul+0x280>
    9fd0:	e0211003 	eor	r1, r1, r3
    9fd4:	e2011102 	and	r1, r1, #-2147483648	; 0x80000000
    9fd8:	e381147f 	orr	r1, r1, #2130706432	; 0x7f000000
    9fdc:	e381160f 	orr	r1, r1, #15728640	; 0xf00000
    9fe0:	e3a00000 	mov	r0, #0
    9fe4:	e8bd4070 	pop	{r4, r5, r6, lr}
    9fe8:	e12fff1e 	bx	lr
    9fec:	e381147f 	orr	r1, r1, #2130706432	; 0x7f000000
    9ff0:	e381173e 	orr	r1, r1, #16252928	; 0xf80000
    9ff4:	e8bd4070 	pop	{r4, r5, r6, lr}
    9ff8:	e12fff1e 	bx	lr

00009ffc <__aeabi_ddiv>:
    9ffc:	e92d4070 	push	{r4, r5, r6, lr}
    a000:	e3a0c0ff 	mov	ip, #255	; 0xff
    a004:	e38ccc07 	orr	ip, ip, #1792	; 0x700
    a008:	e01c4a21 	ands	r4, ip, r1, lsr #20
    a00c:	101c5a23 	andsne	r5, ip, r3, lsr #20
    a010:	1134000c 	teqne	r4, ip
    a014:	1135000c 	teqne	r5, ip
    a018:	0b00005e 	bleq	a198 <__aeabi_ddiv+0x19c>
    a01c:	e0444005 	sub	r4, r4, r5
    a020:	e021e003 	eor	lr, r1, r3
    a024:	e1925603 	orrs	r5, r2, r3, lsl #12
    a028:	e1a01601 	lsl	r1, r1, #12
    a02c:	0a00004c 	beq	a164 <__aeabi_ddiv+0x168>
    a030:	e1a03603 	lsl	r3, r3, #12
    a034:	e3a05201 	mov	r5, #268435456	; 0x10000000
    a038:	e1853223 	orr	r3, r5, r3, lsr #4
    a03c:	e1833c22 	orr	r3, r3, r2, lsr #24
    a040:	e1a02402 	lsl	r2, r2, #8
    a044:	e1855221 	orr	r5, r5, r1, lsr #4
    a048:	e1855c20 	orr	r5, r5, r0, lsr #24
    a04c:	e1a06400 	lsl	r6, r0, #8
    a050:	e20e1102 	and	r1, lr, #-2147483648	; 0x80000000
    a054:	e1550003 	cmp	r5, r3
    a058:	01560002 	cmpeq	r6, r2
    a05c:	e2a440fd 	adc	r4, r4, #253	; 0xfd
    a060:	e2844c03 	add	r4, r4, #768	; 0x300
    a064:	2a000001 	bcs	a070 <__aeabi_ddiv+0x74>
    a068:	e1b030a3 	lsrs	r3, r3, #1
    a06c:	e1a02062 	rrx	r2, r2
    a070:	e0566002 	subs	r6, r6, r2
    a074:	e0c55003 	sbc	r5, r5, r3
    a078:	e1b030a3 	lsrs	r3, r3, #1
    a07c:	e1a02062 	rrx	r2, r2
    a080:	e3a00601 	mov	r0, #1048576	; 0x100000
    a084:	e3a0c702 	mov	ip, #524288	; 0x80000
    a088:	e056e002 	subs	lr, r6, r2
    a08c:	e0d5e003 	sbcs	lr, r5, r3
    a090:	20466002 	subcs	r6, r6, r2
    a094:	21a0500e 	movcs	r5, lr
    a098:	2180000c 	orrcs	r0, r0, ip
    a09c:	e1b030a3 	lsrs	r3, r3, #1
    a0a0:	e1a02062 	rrx	r2, r2
    a0a4:	e056e002 	subs	lr, r6, r2
    a0a8:	e0d5e003 	sbcs	lr, r5, r3
    a0ac:	20466002 	subcs	r6, r6, r2
    a0b0:	21a0500e 	movcs	r5, lr
    a0b4:	218000ac 	orrcs	r0, r0, ip, lsr #1
    a0b8:	e1b030a3 	lsrs	r3, r3, #1
    a0bc:	e1a02062 	rrx	r2, r2
    a0c0:	e056e002 	subs	lr, r6, r2
    a0c4:	e0d5e003 	sbcs	lr, r5, r3
    a0c8:	20466002 	subcs	r6, r6, r2
    a0cc:	21a0500e 	movcs	r5, lr
    a0d0:	2180012c 	orrcs	r0, r0, ip, lsr #2
    a0d4:	e1b030a3 	lsrs	r3, r3, #1
    a0d8:	e1a02062 	rrx	r2, r2
    a0dc:	e056e002 	subs	lr, r6, r2
    a0e0:	e0d5e003 	sbcs	lr, r5, r3
    a0e4:	20466002 	subcs	r6, r6, r2
    a0e8:	21a0500e 	movcs	r5, lr
    a0ec:	218001ac 	orrcs	r0, r0, ip, lsr #3
    a0f0:	e195e006 	orrs	lr, r5, r6
    a0f4:	0a00000d 	beq	a130 <__aeabi_ddiv+0x134>
    a0f8:	e1a05205 	lsl	r5, r5, #4
    a0fc:	e1855e26 	orr	r5, r5, r6, lsr #28
    a100:	e1a06206 	lsl	r6, r6, #4
    a104:	e1a03183 	lsl	r3, r3, #3
    a108:	e1833ea2 	orr	r3, r3, r2, lsr #29
    a10c:	e1a02182 	lsl	r2, r2, #3
    a110:	e1b0c22c 	lsrs	ip, ip, #4
    a114:	1affffdb 	bne	a088 <__aeabi_ddiv+0x8c>
    a118:	e3110601 	tst	r1, #1048576	; 0x100000
    a11c:	1a000006 	bne	a13c <__aeabi_ddiv+0x140>
    a120:	e1811000 	orr	r1, r1, r0
    a124:	e3a00000 	mov	r0, #0
    a128:	e3a0c102 	mov	ip, #-2147483648	; 0x80000000
    a12c:	eaffffd5 	b	a088 <__aeabi_ddiv+0x8c>
    a130:	e3110601 	tst	r1, #1048576	; 0x100000
    a134:	01811000 	orreq	r1, r1, r0
    a138:	03a00000 	moveq	r0, #0
    a13c:	e254c0fd 	subs	ip, r4, #253	; 0xfd
    a140:	835c0c07 	cmphi	ip, #1792	; 0x700
    a144:	8affff43 	bhi	9e58 <__aeabi_dmul+0xec>
    a148:	e055c003 	subs	ip, r5, r3
    a14c:	0056c002 	subseq	ip, r6, r2
    a150:	01b0c0a0 	lsrseq	ip, r0, #1
    a154:	e2b00000 	adcs	r0, r0, #0
    a158:	e0a11a04 	adc	r1, r1, r4, lsl #20
    a15c:	e8bd4070 	pop	{r4, r5, r6, lr}
    a160:	e12fff1e 	bx	lr
    a164:	e20ee102 	and	lr, lr, #-2147483648	; 0x80000000
    a168:	e18e1621 	orr	r1, lr, r1, lsr #12
    a16c:	e09440ac 	adds	r4, r4, ip, lsr #1
    a170:	c074500c 	rsbsgt	r5, r4, ip
    a174:	c1811a04 	orrgt	r1, r1, r4, lsl #20
    a178:	c8bd4070 	popgt	{r4, r5, r6, lr}
    a17c:	c12fff1e 	bxgt	lr
    a180:	e3811601 	orr	r1, r1, #1048576	; 0x100000
    a184:	e3a0e000 	mov	lr, #0
    a188:	e2544001 	subs	r4, r4, #1
    a18c:	eaffff31 	b	9e58 <__aeabi_dmul+0xec>
    a190:	e185e006 	orr	lr, r5, r6
    a194:	eaffff2f 	b	9e58 <__aeabi_dmul+0xec>
    a198:	e00c5a23 	and	r5, ip, r3, lsr #20
    a19c:	e134000c 	teq	r4, ip
    a1a0:	0135000c 	teqeq	r5, ip
    a1a4:	0affff90 	beq	9fec <__aeabi_dmul+0x280>
    a1a8:	e134000c 	teq	r4, ip
    a1ac:	1a000006 	bne	a1cc <__aeabi_ddiv+0x1d0>
    a1b0:	e1904601 	orrs	r4, r0, r1, lsl #12
    a1b4:	1affff8c 	bne	9fec <__aeabi_dmul+0x280>
    a1b8:	e135000c 	teq	r5, ip
    a1bc:	1affff83 	bne	9fd0 <__aeabi_dmul+0x264>
    a1c0:	e1a00002 	mov	r0, r2
    a1c4:	e1a01003 	mov	r1, r3
    a1c8:	eaffff87 	b	9fec <__aeabi_dmul+0x280>
    a1cc:	e135000c 	teq	r5, ip
    a1d0:	1a000004 	bne	a1e8 <__aeabi_ddiv+0x1ec>
    a1d4:	e1925603 	orrs	r5, r2, r3, lsl #12
    a1d8:	0affff68 	beq	9f80 <__aeabi_dmul+0x214>
    a1dc:	e1a00002 	mov	r0, r2
    a1e0:	e1a01003 	mov	r1, r3
    a1e4:	eaffff80 	b	9fec <__aeabi_dmul+0x280>
    a1e8:	e1906081 	orrs	r6, r0, r1, lsl #1
    a1ec:	11926083 	orrsne	r6, r2, r3, lsl #1
    a1f0:	1affff48 	bne	9f18 <__aeabi_dmul+0x1ac>
    a1f4:	e1904081 	orrs	r4, r0, r1, lsl #1
    a1f8:	1affff74 	bne	9fd0 <__aeabi_dmul+0x264>
    a1fc:	e1925083 	orrs	r5, r2, r3, lsl #1
    a200:	1affff5e 	bne	9f80 <__aeabi_dmul+0x214>
    a204:	eaffff78 	b	9fec <__aeabi_dmul+0x280>

0000a208 <__gedf2>:
    a208:	e3e0c000 	mvn	ip, #0
    a20c:	ea000002 	b	a21c <__cmpdf2+0x4>

0000a210 <__ledf2>:
    a210:	e3a0c001 	mov	ip, #1
    a214:	ea000000 	b	a21c <__cmpdf2+0x4>

0000a218 <__cmpdf2>:
    a218:	e3a0c001 	mov	ip, #1
    a21c:	e52dc004 	push	{ip}		; (str ip, [sp, #-4]!)
    a220:	e1a0c081 	lsl	ip, r1, #1
    a224:	e1f0cacc 	mvns	ip, ip, asr #21
    a228:	e1a0c083 	lsl	ip, r3, #1
    a22c:	11f0cacc 	mvnsne	ip, ip, asr #21
    a230:	0a00000e 	beq	a270 <__cmpdf2+0x58>
    a234:	e28dd004 	add	sp, sp, #4
    a238:	e190c081 	orrs	ip, r0, r1, lsl #1
    a23c:	0192c083 	orrseq	ip, r2, r3, lsl #1
    a240:	11310003 	teqne	r1, r3
    a244:	01300002 	teqeq	r0, r2
    a248:	03a00000 	moveq	r0, #0
    a24c:	012fff1e 	bxeq	lr
    a250:	e3700000 	cmn	r0, #0
    a254:	e1310003 	teq	r1, r3
    a258:	51510003 	cmppl	r1, r3
    a25c:	01500002 	cmpeq	r0, r2
    a260:	21a00fc3 	asrcs	r0, r3, #31
    a264:	31e00fc3 	mvncc	r0, r3, asr #31
    a268:	e3800001 	orr	r0, r0, #1
    a26c:	e12fff1e 	bx	lr
    a270:	e1a0c081 	lsl	ip, r1, #1
    a274:	e1f0cacc 	mvns	ip, ip, asr #21
    a278:	1a000001 	bne	a284 <__cmpdf2+0x6c>
    a27c:	e190c601 	orrs	ip, r0, r1, lsl #12
    a280:	1a000004 	bne	a298 <__cmpdf2+0x80>
    a284:	e1a0c083 	lsl	ip, r3, #1
    a288:	e1f0cacc 	mvns	ip, ip, asr #21
    a28c:	1affffe8 	bne	a234 <__cmpdf2+0x1c>
    a290:	e192c603 	orrs	ip, r2, r3, lsl #12
    a294:	0affffe6 	beq	a234 <__cmpdf2+0x1c>
    a298:	e49d0004 	pop	{r0}		; (ldr r0, [sp], #4)
    a29c:	e12fff1e 	bx	lr

0000a2a0 <__aeabi_cdrcmple>:
    a2a0:	e1a0c000 	mov	ip, r0
    a2a4:	e1a00002 	mov	r0, r2
    a2a8:	e1a0200c 	mov	r2, ip
    a2ac:	e1a0c001 	mov	ip, r1
    a2b0:	e1a01003 	mov	r1, r3
    a2b4:	e1a0300c 	mov	r3, ip
    a2b8:	eaffffff 	b	a2bc <__aeabi_cdcmpeq>

0000a2bc <__aeabi_cdcmpeq>:
    a2bc:	e92d4001 	push	{r0, lr}
    a2c0:	ebffffd4 	bl	a218 <__cmpdf2>
    a2c4:	e3500000 	cmp	r0, #0
    a2c8:	43700000 	cmnmi	r0, #0
    a2cc:	e8bd4001 	pop	{r0, lr}
    a2d0:	e12fff1e 	bx	lr

0000a2d4 <__aeabi_dcmpeq>:
    a2d4:	e52de008 	str	lr, [sp, #-8]!
    a2d8:	ebfffff7 	bl	a2bc <__aeabi_cdcmpeq>
    a2dc:	03a00001 	moveq	r0, #1
    a2e0:	13a00000 	movne	r0, #0
    a2e4:	e49de008 	ldr	lr, [sp], #8
    a2e8:	e12fff1e 	bx	lr

0000a2ec <__aeabi_dcmplt>:
    a2ec:	e52de008 	str	lr, [sp, #-8]!
    a2f0:	ebfffff1 	bl	a2bc <__aeabi_cdcmpeq>
    a2f4:	33a00001 	movcc	r0, #1
    a2f8:	23a00000 	movcs	r0, #0
    a2fc:	e49de008 	ldr	lr, [sp], #8
    a300:	e12fff1e 	bx	lr

0000a304 <__aeabi_dcmple>:
    a304:	e52de008 	str	lr, [sp, #-8]!
    a308:	ebffffeb 	bl	a2bc <__aeabi_cdcmpeq>
    a30c:	93a00001 	movls	r0, #1
    a310:	83a00000 	movhi	r0, #0
    a314:	e49de008 	ldr	lr, [sp], #8
    a318:	e12fff1e 	bx	lr

0000a31c <__aeabi_dcmpge>:
    a31c:	e52de008 	str	lr, [sp, #-8]!
    a320:	ebffffde 	bl	a2a0 <__aeabi_cdrcmple>
    a324:	93a00001 	movls	r0, #1
    a328:	83a00000 	movhi	r0, #0
    a32c:	e49de008 	ldr	lr, [sp], #8
    a330:	e12fff1e 	bx	lr

0000a334 <__aeabi_dcmpgt>:
    a334:	e52de008 	str	lr, [sp, #-8]!
    a338:	ebffffd8 	bl	a2a0 <__aeabi_cdrcmple>
    a33c:	33a00001 	movcc	r0, #1
    a340:	23a00000 	movcs	r0, #0
    a344:	e49de008 	ldr	lr, [sp], #8
    a348:	e12fff1e 	bx	lr

0000a34c <__aeabi_d2iz>:
    a34c:	e1a02081 	lsl	r2, r1, #1
    a350:	e2922602 	adds	r2, r2, #2097152	; 0x200000
    a354:	2a00000c 	bcs	a38c <__aeabi_d2iz+0x40>
    a358:	5a000009 	bpl	a384 <__aeabi_d2iz+0x38>
    a35c:	e3e03e3e 	mvn	r3, #992	; 0x3e0
    a360:	e0532ac2 	subs	r2, r3, r2, asr #21
    a364:	9a00000a 	bls	a394 <__aeabi_d2iz+0x48>
    a368:	e1a03581 	lsl	r3, r1, #11
    a36c:	e3833102 	orr	r3, r3, #-2147483648	; 0x80000000
    a370:	e1833aa0 	orr	r3, r3, r0, lsr #21
    a374:	e3110102 	tst	r1, #-2147483648	; 0x80000000
    a378:	e1a00233 	lsr	r0, r3, r2
    a37c:	12600000 	rsbne	r0, r0, #0
    a380:	e12fff1e 	bx	lr
    a384:	e3a00000 	mov	r0, #0
    a388:	e12fff1e 	bx	lr
    a38c:	e1900601 	orrs	r0, r0, r1, lsl #12
    a390:	1a000002 	bne	a3a0 <__aeabi_d2iz+0x54>
    a394:	e2110102 	ands	r0, r1, #-2147483648	; 0x80000000
    a398:	03e00102 	mvneq	r0, #-2147483648	; 0x80000000
    a39c:	e12fff1e 	bx	lr
    a3a0:	e3a00000 	mov	r0, #0
    a3a4:	e12fff1e 	bx	lr

Disassembly of section .data:

0000a3a8 <SCALE>:
    a3a8:	0000000e 	andeq	r0, r0, lr
    a3ac:	00006633 	andeq	r6, r0, r3, lsr r6
    a3b0:	000041a0 	andeq	r4, r0, r0, lsr #3
    a3b4:	000072b6 			; <UNDEFINED> instruction: 0x000072b6
    a3b8:	000020d0 	ldrdeq	r2, [r0], -r0
    a3bc:	000080c3 	andeq	r8, r0, r3, asr #1
    a3c0:	000020d0 	ldrdeq	r2, [r0], -r0
    a3c4:	0000886b 	andeq	r8, r0, fp, ror #16
    a3c8:	000020d0 	ldrdeq	r2, [r0], -r0
    a3cc:	00009920 	andeq	r9, r0, r0, lsr #18
    a3d0:	000020d0 	ldrdeq	r2, [r0], -r0
    a3d4:	0000abe0 	andeq	sl, r0, r0, ror #23
    a3d8:	000020d0 	ldrdeq	r2, [r0], -r0
    a3dc:	0000c0ec 	andeq	ip, r0, ip, ror #1
    a3e0:	000020d0 	ldrdeq	r2, [r0], -r0
    a3e4:	0000cc65 	andeq	ip, r0, r5, ror #24
    a3e8:	000041a0 	andeq	r4, r0, r0, lsr #3
    a3ec:	0000c0ec 	andeq	ip, r0, ip, ror #1
    a3f0:	000020d0 	ldrdeq	r2, [r0], -r0
    a3f4:	0000abe0 	andeq	sl, r0, r0, ror #23
    a3f8:	000020d0 	ldrdeq	r2, [r0], -r0
    a3fc:	00009920 	andeq	r9, r0, r0, lsr #18
    a400:	000020d0 	ldrdeq	r2, [r0], -r0
    a404:	0000886b 	andeq	r8, r0, fp, ror #16
    a408:	000020d0 	ldrdeq	r2, [r0], -r0
    a40c:	000080c3 	andeq	r8, r0, r3, asr #1
    a410:	000020d0 	ldrdeq	r2, [r0], -r0
    a414:	000072b6 			; <UNDEFINED> instruction: 0x000072b6
    a418:	000020d0 	ldrdeq	r2, [r0], -r0

0000a41c <HOT_CROSS_BUNS>:
    a41c:	00000022 	andeq	r0, r0, r2, lsr #32
    a420:	0000c0ec 	andeq	ip, r0, ip, ror #1
    a424:	000020a8 	andeq	r2, r0, r8, lsr #1
    a428:	00000000 	andeq	r0, r0, r0
    a42c:	00000028 	andeq	r0, r0, r8, lsr #32
    a430:	0000abe0 	andeq	sl, r0, r0, ror #23
    a434:	000020a8 	andeq	r2, r0, r8, lsr #1
    a438:	00000000 	andeq	r0, r0, r0
    a43c:	00000028 	andeq	r0, r0, r8, lsr #32
    a440:	00009920 	andeq	r9, r0, r0, lsr #18
    a444:	00004178 	andeq	r4, r0, r8, ror r1
    a448:	00000000 	andeq	r0, r0, r0
    a44c:	00000028 	andeq	r0, r0, r8, lsr #32
    a450:	0000c0ec 	andeq	ip, r0, ip, ror #1
    a454:	000020a8 	andeq	r2, r0, r8, lsr #1
    a458:	00000000 	andeq	r0, r0, r0
    a45c:	00000028 	andeq	r0, r0, r8, lsr #32
    a460:	0000abe0 	andeq	sl, r0, r0, ror #23
    a464:	000020a8 	andeq	r2, r0, r8, lsr #1
    a468:	00000000 	andeq	r0, r0, r0
    a46c:	00000028 	andeq	r0, r0, r8, lsr #32
    a470:	00009920 	andeq	r9, r0, r0, lsr #18
    a474:	00004178 	andeq	r4, r0, r8, ror r1
    a478:	00000000 	andeq	r0, r0, r0
    a47c:	00000028 	andeq	r0, r0, r8, lsr #32
    a480:	00009920 	andeq	r9, r0, r0, lsr #18
    a484:	00001040 	andeq	r1, r0, r0, asr #32
    a488:	00000000 	andeq	r0, r0, r0
    a48c:	00000028 	andeq	r0, r0, r8, lsr #32
    a490:	00009920 	andeq	r9, r0, r0, lsr #18
    a494:	00001040 	andeq	r1, r0, r0, asr #32
    a498:	00000000 	andeq	r0, r0, r0
    a49c:	00000028 	andeq	r0, r0, r8, lsr #32
    a4a0:	00009920 	andeq	r9, r0, r0, lsr #18
    a4a4:	00001040 	andeq	r1, r0, r0, asr #32
    a4a8:	00000000 	andeq	r0, r0, r0
    a4ac:	00000028 	andeq	r0, r0, r8, lsr #32
    a4b0:	00009920 	andeq	r9, r0, r0, lsr #18
    a4b4:	00001040 	andeq	r1, r0, r0, asr #32
    a4b8:	00000000 	andeq	r0, r0, r0
    a4bc:	00000028 	andeq	r0, r0, r8, lsr #32
    a4c0:	0000abe0 	andeq	sl, r0, r0, ror #23
    a4c4:	00001040 	andeq	r1, r0, r0, asr #32
    a4c8:	00000000 	andeq	r0, r0, r0
    a4cc:	00000028 	andeq	r0, r0, r8, lsr #32
    a4d0:	0000abe0 	andeq	sl, r0, r0, ror #23
    a4d4:	00001040 	andeq	r1, r0, r0, asr #32
    a4d8:	00000000 	andeq	r0, r0, r0
    a4dc:	00000028 	andeq	r0, r0, r8, lsr #32
    a4e0:	0000abe0 	andeq	sl, r0, r0, ror #23
    a4e4:	00001040 	andeq	r1, r0, r0, asr #32
    a4e8:	00000000 	andeq	r0, r0, r0
    a4ec:	00000028 	andeq	r0, r0, r8, lsr #32
    a4f0:	0000abe0 	andeq	sl, r0, r0, ror #23
    a4f4:	00001040 	andeq	r1, r0, r0, asr #32
    a4f8:	00000000 	andeq	r0, r0, r0
    a4fc:	00000028 	andeq	r0, r0, r8, lsr #32
    a500:	0000c0ec 	andeq	ip, r0, ip, ror #1
    a504:	000020a8 	andeq	r2, r0, r8, lsr #1
    a508:	00000000 	andeq	r0, r0, r0
    a50c:	00000028 	andeq	r0, r0, r8, lsr #32
    a510:	0000abe0 	andeq	sl, r0, r0, ror #23
    a514:	000020a8 	andeq	r2, r0, r8, lsr #1
    a518:	00000000 	andeq	r0, r0, r0
    a51c:	00000028 	andeq	r0, r0, r8, lsr #32
    a520:	00009920 	andeq	r9, r0, r0, lsr #18
    a524:	00004178 	andeq	r4, r0, r8, ror r1
    a528:	00000000 	andeq	r0, r0, r0
    a52c:	00000028 	andeq	r0, r0, r8, lsr #32

0000a530 <clk>:
    a530:	20101000 	andscs	r1, r0, r0

0000a534 <pwm>:
    a534:	2020c000 	eorcs	ip, r0, r0

0000a538 <waveform_sine_custom_64>:
    a538:	00000040 	andeq	r0, r0, r0, asr #32
    a53c:	00000040 	andeq	r0, r0, r0, asr #32
    a540:	00000040 	andeq	r0, r0, r0, asr #32
    a544:	00000041 	andeq	r0, r0, r1, asr #32
    a548:	00000041 	andeq	r0, r0, r1, asr #32
    a54c:	00000041 	andeq	r0, r0, r1, asr #32
    a550:	00000042 	andeq	r0, r0, r2, asr #32
    a554:	00000042 	andeq	r0, r0, r2, asr #32
    a558:	00000043 	andeq	r0, r0, r3, asr #32
    a55c:	00000043 	andeq	r0, r0, r3, asr #32
    a560:	00000043 	andeq	r0, r0, r3, asr #32
    a564:	00000044 	andeq	r0, r0, r4, asr #32
    a568:	00000044 	andeq	r0, r0, r4, asr #32
    a56c:	00000045 	andeq	r0, r0, r5, asr #32
    a570:	00000045 	andeq	r0, r0, r5, asr #32
    a574:	00000045 	andeq	r0, r0, r5, asr #32
    a578:	00000046 	andeq	r0, r0, r6, asr #32
    a57c:	00000046 	andeq	r0, r0, r6, asr #32
    a580:	00000047 	andeq	r0, r0, r7, asr #32
    a584:	00000047 	andeq	r0, r0, r7, asr #32
    a588:	00000047 	andeq	r0, r0, r7, asr #32
    a58c:	00000048 	andeq	r0, r0, r8, asr #32
    a590:	00000048 	andeq	r0, r0, r8, asr #32
    a594:	00000049 	andeq	r0, r0, r9, asr #32
    a598:	00000049 	andeq	r0, r0, r9, asr #32
    a59c:	00000049 	andeq	r0, r0, r9, asr #32
    a5a0:	0000004a 	andeq	r0, r0, sl, asr #32
    a5a4:	0000004a 	andeq	r0, r0, sl, asr #32
    a5a8:	0000004a 	andeq	r0, r0, sl, asr #32
    a5ac:	0000004b 	andeq	r0, r0, fp, asr #32
    a5b0:	0000004b 	andeq	r0, r0, fp, asr #32
    a5b4:	0000004c 	andeq	r0, r0, ip, asr #32
    a5b8:	0000004c 	andeq	r0, r0, ip, asr #32
    a5bc:	0000004c 	andeq	r0, r0, ip, asr #32
    a5c0:	0000004d 	andeq	r0, r0, sp, asr #32
    a5c4:	0000004d 	andeq	r0, r0, sp, asr #32
    a5c8:	0000004e 	andeq	r0, r0, lr, asr #32
    a5cc:	0000004e 	andeq	r0, r0, lr, asr #32
    a5d0:	0000004e 	andeq	r0, r0, lr, asr #32
    a5d4:	0000004f 	andeq	r0, r0, pc, asr #32
    a5d8:	0000004f 	andeq	r0, r0, pc, asr #32
    a5dc:	0000004f 	andeq	r0, r0, pc, asr #32
    a5e0:	00000050 	andeq	r0, r0, r0, asr r0
    a5e4:	00000050 	andeq	r0, r0, r0, asr r0
    a5e8:	00000051 	andeq	r0, r0, r1, asr r0
    a5ec:	00000051 	andeq	r0, r0, r1, asr r0
    a5f0:	00000051 	andeq	r0, r0, r1, asr r0
    a5f4:	00000052 	andeq	r0, r0, r2, asr r0
    a5f8:	00000052 	andeq	r0, r0, r2, asr r0
    a5fc:	00000052 	andeq	r0, r0, r2, asr r0
    a600:	00000053 	andeq	r0, r0, r3, asr r0
    a604:	00000053 	andeq	r0, r0, r3, asr r0
    a608:	00000054 	andeq	r0, r0, r4, asr r0
    a60c:	00000054 	andeq	r0, r0, r4, asr r0
    a610:	00000054 	andeq	r0, r0, r4, asr r0
    a614:	00000055 	andeq	r0, r0, r5, asr r0
    a618:	00000055 	andeq	r0, r0, r5, asr r0
    a61c:	00000055 	andeq	r0, r0, r5, asr r0
    a620:	00000056 	andeq	r0, r0, r6, asr r0
    a624:	00000056 	andeq	r0, r0, r6, asr r0
    a628:	00000057 	andeq	r0, r0, r7, asr r0
    a62c:	00000057 	andeq	r0, r0, r7, asr r0
    a630:	00000057 	andeq	r0, r0, r7, asr r0
    a634:	00000058 	andeq	r0, r0, r8, asr r0
    a638:	00000058 	andeq	r0, r0, r8, asr r0
    a63c:	00000058 	andeq	r0, r0, r8, asr r0
    a640:	00000059 	andeq	r0, r0, r9, asr r0
    a644:	00000059 	andeq	r0, r0, r9, asr r0
    a648:	00000059 	andeq	r0, r0, r9, asr r0
    a64c:	0000005a 	andeq	r0, r0, sl, asr r0
    a650:	0000005a 	andeq	r0, r0, sl, asr r0
    a654:	0000005b 	andeq	r0, r0, fp, asr r0
    a658:	0000005b 	andeq	r0, r0, fp, asr r0
    a65c:	0000005b 	andeq	r0, r0, fp, asr r0
    a660:	0000005c 	andeq	r0, r0, ip, asr r0
    a664:	0000005c 	andeq	r0, r0, ip, asr r0
    a668:	0000005c 	andeq	r0, r0, ip, asr r0
    a66c:	0000005d 	andeq	r0, r0, sp, asr r0
    a670:	0000005d 	andeq	r0, r0, sp, asr r0
    a674:	0000005d 	andeq	r0, r0, sp, asr r0
    a678:	0000005e 	andeq	r0, r0, lr, asr r0
    a67c:	0000005e 	andeq	r0, r0, lr, asr r0
    a680:	0000005e 	andeq	r0, r0, lr, asr r0
    a684:	0000005f 	andeq	r0, r0, pc, asr r0
    a688:	0000005f 	andeq	r0, r0, pc, asr r0
    a68c:	0000005f 	andeq	r0, r0, pc, asr r0
    a690:	00000060 	andeq	r0, r0, r0, rrx
    a694:	00000060 	andeq	r0, r0, r0, rrx
    a698:	00000060 	andeq	r0, r0, r0, rrx
    a69c:	00000061 	andeq	r0, r0, r1, rrx
    a6a0:	00000061 	andeq	r0, r0, r1, rrx
    a6a4:	00000061 	andeq	r0, r0, r1, rrx
    a6a8:	00000062 	andeq	r0, r0, r2, rrx
    a6ac:	00000062 	andeq	r0, r0, r2, rrx
    a6b0:	00000062 	andeq	r0, r0, r2, rrx
    a6b4:	00000063 	andeq	r0, r0, r3, rrx
    a6b8:	00000063 	andeq	r0, r0, r3, rrx
    a6bc:	00000063 	andeq	r0, r0, r3, rrx
    a6c0:	00000064 	andeq	r0, r0, r4, rrx
    a6c4:	00000064 	andeq	r0, r0, r4, rrx
    a6c8:	00000064 	andeq	r0, r0, r4, rrx
    a6cc:	00000065 	andeq	r0, r0, r5, rrx
    a6d0:	00000065 	andeq	r0, r0, r5, rrx
    a6d4:	00000065 	andeq	r0, r0, r5, rrx
    a6d8:	00000066 	andeq	r0, r0, r6, rrx
    a6dc:	00000066 	andeq	r0, r0, r6, rrx
    a6e0:	00000066 	andeq	r0, r0, r6, rrx
    a6e4:	00000067 	andeq	r0, r0, r7, rrx
    a6e8:	00000067 	andeq	r0, r0, r7, rrx
    a6ec:	00000067 	andeq	r0, r0, r7, rrx
    a6f0:	00000067 	andeq	r0, r0, r7, rrx
    a6f4:	00000068 	andeq	r0, r0, r8, rrx
    a6f8:	00000068 	andeq	r0, r0, r8, rrx
    a6fc:	00000068 	andeq	r0, r0, r8, rrx
    a700:	00000069 	andeq	r0, r0, r9, rrx
    a704:	00000069 	andeq	r0, r0, r9, rrx
    a708:	00000069 	andeq	r0, r0, r9, rrx
    a70c:	0000006a 	andeq	r0, r0, sl, rrx
    a710:	0000006a 	andeq	r0, r0, sl, rrx
    a714:	0000006a 	andeq	r0, r0, sl, rrx
    a718:	0000006a 	andeq	r0, r0, sl, rrx
    a71c:	0000006b 	andeq	r0, r0, fp, rrx
    a720:	0000006b 	andeq	r0, r0, fp, rrx
    a724:	0000006b 	andeq	r0, r0, fp, rrx
    a728:	0000006c 	andeq	r0, r0, ip, rrx
    a72c:	0000006c 	andeq	r0, r0, ip, rrx
    a730:	0000006c 	andeq	r0, r0, ip, rrx
    a734:	0000006c 	andeq	r0, r0, ip, rrx
    a738:	0000006d 	andeq	r0, r0, sp, rrx
    a73c:	0000006d 	andeq	r0, r0, sp, rrx
    a740:	0000006d 	andeq	r0, r0, sp, rrx
    a744:	0000006e 	andeq	r0, r0, lr, rrx
    a748:	0000006e 	andeq	r0, r0, lr, rrx
    a74c:	0000006e 	andeq	r0, r0, lr, rrx
    a750:	0000006e 	andeq	r0, r0, lr, rrx
    a754:	0000006f 	andeq	r0, r0, pc, rrx
    a758:	0000006f 	andeq	r0, r0, pc, rrx
    a75c:	0000006f 	andeq	r0, r0, pc, rrx
    a760:	0000006f 	andeq	r0, r0, pc, rrx
    a764:	00000070 	andeq	r0, r0, r0, ror r0
    a768:	00000070 	andeq	r0, r0, r0, ror r0
    a76c:	00000070 	andeq	r0, r0, r0, ror r0
    a770:	00000070 	andeq	r0, r0, r0, ror r0
    a774:	00000071 	andeq	r0, r0, r1, ror r0
    a778:	00000071 	andeq	r0, r0, r1, ror r0
    a77c:	00000071 	andeq	r0, r0, r1, ror r0
    a780:	00000071 	andeq	r0, r0, r1, ror r0
    a784:	00000072 	andeq	r0, r0, r2, ror r0
    a788:	00000072 	andeq	r0, r0, r2, ror r0
    a78c:	00000072 	andeq	r0, r0, r2, ror r0
    a790:	00000072 	andeq	r0, r0, r2, ror r0
    a794:	00000073 	andeq	r0, r0, r3, ror r0
    a798:	00000073 	andeq	r0, r0, r3, ror r0
    a79c:	00000073 	andeq	r0, r0, r3, ror r0
    a7a0:	00000073 	andeq	r0, r0, r3, ror r0
    a7a4:	00000074 	andeq	r0, r0, r4, ror r0
    a7a8:	00000074 	andeq	r0, r0, r4, ror r0
    a7ac:	00000074 	andeq	r0, r0, r4, ror r0
    a7b0:	00000074 	andeq	r0, r0, r4, ror r0
    a7b4:	00000074 	andeq	r0, r0, r4, ror r0
    a7b8:	00000075 	andeq	r0, r0, r5, ror r0
    a7bc:	00000075 	andeq	r0, r0, r5, ror r0
    a7c0:	00000075 	andeq	r0, r0, r5, ror r0
    a7c4:	00000075 	andeq	r0, r0, r5, ror r0
    a7c8:	00000076 	andeq	r0, r0, r6, ror r0
    a7cc:	00000076 	andeq	r0, r0, r6, ror r0
    a7d0:	00000076 	andeq	r0, r0, r6, ror r0
    a7d4:	00000076 	andeq	r0, r0, r6, ror r0
    a7d8:	00000076 	andeq	r0, r0, r6, ror r0
    a7dc:	00000077 	andeq	r0, r0, r7, ror r0
    a7e0:	00000077 	andeq	r0, r0, r7, ror r0
    a7e4:	00000077 	andeq	r0, r0, r7, ror r0
    a7e8:	00000077 	andeq	r0, r0, r7, ror r0
    a7ec:	00000077 	andeq	r0, r0, r7, ror r0
    a7f0:	00000078 	andeq	r0, r0, r8, ror r0
    a7f4:	00000078 	andeq	r0, r0, r8, ror r0
    a7f8:	00000078 	andeq	r0, r0, r8, ror r0
    a7fc:	00000078 	andeq	r0, r0, r8, ror r0
    a800:	00000078 	andeq	r0, r0, r8, ror r0
    a804:	00000078 	andeq	r0, r0, r8, ror r0
    a808:	00000079 	andeq	r0, r0, r9, ror r0
    a80c:	00000079 	andeq	r0, r0, r9, ror r0
    a810:	00000079 	andeq	r0, r0, r9, ror r0
    a814:	00000079 	andeq	r0, r0, r9, ror r0
    a818:	00000079 	andeq	r0, r0, r9, ror r0
    a81c:	0000007a 	andeq	r0, r0, sl, ror r0
    a820:	0000007a 	andeq	r0, r0, sl, ror r0
    a824:	0000007a 	andeq	r0, r0, sl, ror r0
    a828:	0000007a 	andeq	r0, r0, sl, ror r0
    a82c:	0000007a 	andeq	r0, r0, sl, ror r0
    a830:	0000007a 	andeq	r0, r0, sl, ror r0
    a834:	0000007a 	andeq	r0, r0, sl, ror r0
    a838:	0000007b 	andeq	r0, r0, fp, ror r0
    a83c:	0000007b 	andeq	r0, r0, fp, ror r0
    a840:	0000007b 	andeq	r0, r0, fp, ror r0
    a844:	0000007b 	andeq	r0, r0, fp, ror r0
    a848:	0000007b 	andeq	r0, r0, fp, ror r0
    a84c:	0000007b 	andeq	r0, r0, fp, ror r0
    a850:	0000007b 	andeq	r0, r0, fp, ror r0
    a854:	0000007c 	andeq	r0, r0, ip, ror r0
    a858:	0000007c 	andeq	r0, r0, ip, ror r0
    a85c:	0000007c 	andeq	r0, r0, ip, ror r0
    a860:	0000007c 	andeq	r0, r0, ip, ror r0
    a864:	0000007c 	andeq	r0, r0, ip, ror r0
    a868:	0000007c 	andeq	r0, r0, ip, ror r0
    a86c:	0000007c 	andeq	r0, r0, ip, ror r0
    a870:	0000007d 	andeq	r0, r0, sp, ror r0
    a874:	0000007d 	andeq	r0, r0, sp, ror r0
    a878:	0000007d 	andeq	r0, r0, sp, ror r0
    a87c:	0000007d 	andeq	r0, r0, sp, ror r0
    a880:	0000007d 	andeq	r0, r0, sp, ror r0
    a884:	0000007d 	andeq	r0, r0, sp, ror r0
    a888:	0000007d 	andeq	r0, r0, sp, ror r0
    a88c:	0000007d 	andeq	r0, r0, sp, ror r0
    a890:	0000007d 	andeq	r0, r0, sp, ror r0
    a894:	0000007d 	andeq	r0, r0, sp, ror r0
    a898:	0000007e 	andeq	r0, r0, lr, ror r0
    a89c:	0000007e 	andeq	r0, r0, lr, ror r0
    a8a0:	0000007e 	andeq	r0, r0, lr, ror r0
    a8a4:	0000007e 	andeq	r0, r0, lr, ror r0
    a8a8:	0000007e 	andeq	r0, r0, lr, ror r0
    a8ac:	0000007e 	andeq	r0, r0, lr, ror r0
    a8b0:	0000007e 	andeq	r0, r0, lr, ror r0
    a8b4:	0000007e 	andeq	r0, r0, lr, ror r0
    a8b8:	0000007e 	andeq	r0, r0, lr, ror r0
    a8bc:	0000007e 	andeq	r0, r0, lr, ror r0
    a8c0:	0000007e 	andeq	r0, r0, lr, ror r0
    a8c4:	0000007e 	andeq	r0, r0, lr, ror r0
    a8c8:	0000007f 	andeq	r0, r0, pc, ror r0
    a8cc:	0000007f 	andeq	r0, r0, pc, ror r0
    a8d0:	0000007f 	andeq	r0, r0, pc, ror r0
    a8d4:	0000007f 	andeq	r0, r0, pc, ror r0
    a8d8:	0000007f 	andeq	r0, r0, pc, ror r0
    a8dc:	0000007f 	andeq	r0, r0, pc, ror r0
    a8e0:	0000007f 	andeq	r0, r0, pc, ror r0
    a8e4:	0000007f 	andeq	r0, r0, pc, ror r0
    a8e8:	0000007f 	andeq	r0, r0, pc, ror r0
    a8ec:	0000007f 	andeq	r0, r0, pc, ror r0
    a8f0:	0000007f 	andeq	r0, r0, pc, ror r0
    a8f4:	0000007f 	andeq	r0, r0, pc, ror r0
    a8f8:	0000007f 	andeq	r0, r0, pc, ror r0
    a8fc:	0000007f 	andeq	r0, r0, pc, ror r0
    a900:	0000007f 	andeq	r0, r0, pc, ror r0
    a904:	0000007f 	andeq	r0, r0, pc, ror r0
    a908:	0000007f 	andeq	r0, r0, pc, ror r0
    a90c:	0000007f 	andeq	r0, r0, pc, ror r0
    a910:	0000007f 	andeq	r0, r0, pc, ror r0
    a914:	0000007f 	andeq	r0, r0, pc, ror r0
    a918:	0000007f 	andeq	r0, r0, pc, ror r0
    a91c:	0000007f 	andeq	r0, r0, pc, ror r0
    a920:	0000007f 	andeq	r0, r0, pc, ror r0
    a924:	0000007f 	andeq	r0, r0, pc, ror r0
    a928:	0000007f 	andeq	r0, r0, pc, ror r0
    a92c:	0000007f 	andeq	r0, r0, pc, ror r0
    a930:	0000007f 	andeq	r0, r0, pc, ror r0
    a934:	0000007f 	andeq	r0, r0, pc, ror r0
    a938:	00000080 	andeq	r0, r0, r0, lsl #1
    a93c:	0000007f 	andeq	r0, r0, pc, ror r0
    a940:	0000007f 	andeq	r0, r0, pc, ror r0
    a944:	0000007f 	andeq	r0, r0, pc, ror r0
    a948:	0000007f 	andeq	r0, r0, pc, ror r0
    a94c:	0000007f 	andeq	r0, r0, pc, ror r0
    a950:	0000007f 	andeq	r0, r0, pc, ror r0
    a954:	0000007f 	andeq	r0, r0, pc, ror r0
    a958:	0000007f 	andeq	r0, r0, pc, ror r0
    a95c:	0000007f 	andeq	r0, r0, pc, ror r0
    a960:	0000007f 	andeq	r0, r0, pc, ror r0
    a964:	0000007f 	andeq	r0, r0, pc, ror r0
    a968:	0000007f 	andeq	r0, r0, pc, ror r0
    a96c:	0000007f 	andeq	r0, r0, pc, ror r0
    a970:	0000007f 	andeq	r0, r0, pc, ror r0
    a974:	0000007f 	andeq	r0, r0, pc, ror r0
    a978:	0000007f 	andeq	r0, r0, pc, ror r0
    a97c:	0000007f 	andeq	r0, r0, pc, ror r0
    a980:	0000007f 	andeq	r0, r0, pc, ror r0
    a984:	0000007f 	andeq	r0, r0, pc, ror r0
    a988:	0000007f 	andeq	r0, r0, pc, ror r0
    a98c:	0000007f 	andeq	r0, r0, pc, ror r0
    a990:	0000007f 	andeq	r0, r0, pc, ror r0
    a994:	0000007f 	andeq	r0, r0, pc, ror r0
    a998:	0000007f 	andeq	r0, r0, pc, ror r0
    a99c:	0000007f 	andeq	r0, r0, pc, ror r0
    a9a0:	0000007f 	andeq	r0, r0, pc, ror r0
    a9a4:	0000007f 	andeq	r0, r0, pc, ror r0
    a9a8:	0000007f 	andeq	r0, r0, pc, ror r0
    a9ac:	0000007e 	andeq	r0, r0, lr, ror r0
    a9b0:	0000007e 	andeq	r0, r0, lr, ror r0
    a9b4:	0000007e 	andeq	r0, r0, lr, ror r0
    a9b8:	0000007e 	andeq	r0, r0, lr, ror r0
    a9bc:	0000007e 	andeq	r0, r0, lr, ror r0
    a9c0:	0000007e 	andeq	r0, r0, lr, ror r0
    a9c4:	0000007e 	andeq	r0, r0, lr, ror r0
    a9c8:	0000007e 	andeq	r0, r0, lr, ror r0
    a9cc:	0000007e 	andeq	r0, r0, lr, ror r0
    a9d0:	0000007e 	andeq	r0, r0, lr, ror r0
    a9d4:	0000007e 	andeq	r0, r0, lr, ror r0
    a9d8:	0000007e 	andeq	r0, r0, lr, ror r0
    a9dc:	0000007d 	andeq	r0, r0, sp, ror r0
    a9e0:	0000007d 	andeq	r0, r0, sp, ror r0
    a9e4:	0000007d 	andeq	r0, r0, sp, ror r0
    a9e8:	0000007d 	andeq	r0, r0, sp, ror r0
    a9ec:	0000007d 	andeq	r0, r0, sp, ror r0
    a9f0:	0000007d 	andeq	r0, r0, sp, ror r0
    a9f4:	0000007d 	andeq	r0, r0, sp, ror r0
    a9f8:	0000007d 	andeq	r0, r0, sp, ror r0
    a9fc:	0000007d 	andeq	r0, r0, sp, ror r0
    aa00:	0000007d 	andeq	r0, r0, sp, ror r0
    aa04:	0000007c 	andeq	r0, r0, ip, ror r0
    aa08:	0000007c 	andeq	r0, r0, ip, ror r0
    aa0c:	0000007c 	andeq	r0, r0, ip, ror r0
    aa10:	0000007c 	andeq	r0, r0, ip, ror r0
    aa14:	0000007c 	andeq	r0, r0, ip, ror r0
    aa18:	0000007c 	andeq	r0, r0, ip, ror r0
    aa1c:	0000007c 	andeq	r0, r0, ip, ror r0
    aa20:	0000007b 	andeq	r0, r0, fp, ror r0
    aa24:	0000007b 	andeq	r0, r0, fp, ror r0
    aa28:	0000007b 	andeq	r0, r0, fp, ror r0
    aa2c:	0000007b 	andeq	r0, r0, fp, ror r0
    aa30:	0000007b 	andeq	r0, r0, fp, ror r0
    aa34:	0000007b 	andeq	r0, r0, fp, ror r0
    aa38:	0000007b 	andeq	r0, r0, fp, ror r0
    aa3c:	0000007a 	andeq	r0, r0, sl, ror r0
    aa40:	0000007a 	andeq	r0, r0, sl, ror r0
    aa44:	0000007a 	andeq	r0, r0, sl, ror r0
    aa48:	0000007a 	andeq	r0, r0, sl, ror r0
    aa4c:	0000007a 	andeq	r0, r0, sl, ror r0
    aa50:	0000007a 	andeq	r0, r0, sl, ror r0
    aa54:	0000007a 	andeq	r0, r0, sl, ror r0
    aa58:	00000079 	andeq	r0, r0, r9, ror r0
    aa5c:	00000079 	andeq	r0, r0, r9, ror r0
    aa60:	00000079 	andeq	r0, r0, r9, ror r0
    aa64:	00000079 	andeq	r0, r0, r9, ror r0
    aa68:	00000079 	andeq	r0, r0, r9, ror r0
    aa6c:	00000078 	andeq	r0, r0, r8, ror r0
    aa70:	00000078 	andeq	r0, r0, r8, ror r0
    aa74:	00000078 	andeq	r0, r0, r8, ror r0
    aa78:	00000078 	andeq	r0, r0, r8, ror r0
    aa7c:	00000078 	andeq	r0, r0, r8, ror r0
    aa80:	00000078 	andeq	r0, r0, r8, ror r0
    aa84:	00000077 	andeq	r0, r0, r7, ror r0
    aa88:	00000077 	andeq	r0, r0, r7, ror r0
    aa8c:	00000077 	andeq	r0, r0, r7, ror r0
    aa90:	00000077 	andeq	r0, r0, r7, ror r0
    aa94:	00000077 	andeq	r0, r0, r7, ror r0
    aa98:	00000076 	andeq	r0, r0, r6, ror r0
    aa9c:	00000076 	andeq	r0, r0, r6, ror r0
    aaa0:	00000076 	andeq	r0, r0, r6, ror r0
    aaa4:	00000076 	andeq	r0, r0, r6, ror r0
    aaa8:	00000076 	andeq	r0, r0, r6, ror r0
    aaac:	00000075 	andeq	r0, r0, r5, ror r0
    aab0:	00000075 	andeq	r0, r0, r5, ror r0
    aab4:	00000075 	andeq	r0, r0, r5, ror r0
    aab8:	00000075 	andeq	r0, r0, r5, ror r0
    aabc:	00000074 	andeq	r0, r0, r4, ror r0
    aac0:	00000074 	andeq	r0, r0, r4, ror r0
    aac4:	00000074 	andeq	r0, r0, r4, ror r0
    aac8:	00000074 	andeq	r0, r0, r4, ror r0
    aacc:	00000074 	andeq	r0, r0, r4, ror r0
    aad0:	00000073 	andeq	r0, r0, r3, ror r0
    aad4:	00000073 	andeq	r0, r0, r3, ror r0
    aad8:	00000073 	andeq	r0, r0, r3, ror r0
    aadc:	00000073 	andeq	r0, r0, r3, ror r0
    aae0:	00000072 	andeq	r0, r0, r2, ror r0
    aae4:	00000072 	andeq	r0, r0, r2, ror r0
    aae8:	00000072 	andeq	r0, r0, r2, ror r0
    aaec:	00000072 	andeq	r0, r0, r2, ror r0
    aaf0:	00000071 	andeq	r0, r0, r1, ror r0
    aaf4:	00000071 	andeq	r0, r0, r1, ror r0
    aaf8:	00000071 	andeq	r0, r0, r1, ror r0
    aafc:	00000071 	andeq	r0, r0, r1, ror r0
    ab00:	00000070 	andeq	r0, r0, r0, ror r0
    ab04:	00000070 	andeq	r0, r0, r0, ror r0
    ab08:	00000070 	andeq	r0, r0, r0, ror r0
    ab0c:	00000070 	andeq	r0, r0, r0, ror r0
    ab10:	0000006f 	andeq	r0, r0, pc, rrx
    ab14:	0000006f 	andeq	r0, r0, pc, rrx
    ab18:	0000006f 	andeq	r0, r0, pc, rrx
    ab1c:	0000006f 	andeq	r0, r0, pc, rrx
    ab20:	0000006e 	andeq	r0, r0, lr, rrx
    ab24:	0000006e 	andeq	r0, r0, lr, rrx
    ab28:	0000006e 	andeq	r0, r0, lr, rrx
    ab2c:	0000006e 	andeq	r0, r0, lr, rrx
    ab30:	0000006d 	andeq	r0, r0, sp, rrx
    ab34:	0000006d 	andeq	r0, r0, sp, rrx
    ab38:	0000006d 	andeq	r0, r0, sp, rrx
    ab3c:	0000006c 	andeq	r0, r0, ip, rrx
    ab40:	0000006c 	andeq	r0, r0, ip, rrx
    ab44:	0000006c 	andeq	r0, r0, ip, rrx
    ab48:	0000006c 	andeq	r0, r0, ip, rrx
    ab4c:	0000006b 	andeq	r0, r0, fp, rrx
    ab50:	0000006b 	andeq	r0, r0, fp, rrx
    ab54:	0000006b 	andeq	r0, r0, fp, rrx
    ab58:	0000006a 	andeq	r0, r0, sl, rrx
    ab5c:	0000006a 	andeq	r0, r0, sl, rrx
    ab60:	0000006a 	andeq	r0, r0, sl, rrx
    ab64:	0000006a 	andeq	r0, r0, sl, rrx
    ab68:	00000069 	andeq	r0, r0, r9, rrx
    ab6c:	00000069 	andeq	r0, r0, r9, rrx
    ab70:	00000069 	andeq	r0, r0, r9, rrx
    ab74:	00000068 	andeq	r0, r0, r8, rrx
    ab78:	00000068 	andeq	r0, r0, r8, rrx
    ab7c:	00000068 	andeq	r0, r0, r8, rrx
    ab80:	00000067 	andeq	r0, r0, r7, rrx
    ab84:	00000067 	andeq	r0, r0, r7, rrx
    ab88:	00000067 	andeq	r0, r0, r7, rrx
    ab8c:	00000067 	andeq	r0, r0, r7, rrx
    ab90:	00000066 	andeq	r0, r0, r6, rrx
    ab94:	00000066 	andeq	r0, r0, r6, rrx
    ab98:	00000066 	andeq	r0, r0, r6, rrx
    ab9c:	00000065 	andeq	r0, r0, r5, rrx
    aba0:	00000065 	andeq	r0, r0, r5, rrx
    aba4:	00000065 	andeq	r0, r0, r5, rrx
    aba8:	00000064 	andeq	r0, r0, r4, rrx
    abac:	00000064 	andeq	r0, r0, r4, rrx
    abb0:	00000064 	andeq	r0, r0, r4, rrx
    abb4:	00000063 	andeq	r0, r0, r3, rrx
    abb8:	00000063 	andeq	r0, r0, r3, rrx
    abbc:	00000063 	andeq	r0, r0, r3, rrx
    abc0:	00000062 	andeq	r0, r0, r2, rrx
    abc4:	00000062 	andeq	r0, r0, r2, rrx
    abc8:	00000062 	andeq	r0, r0, r2, rrx
    abcc:	00000061 	andeq	r0, r0, r1, rrx
    abd0:	00000061 	andeq	r0, r0, r1, rrx
    abd4:	00000061 	andeq	r0, r0, r1, rrx
    abd8:	00000060 	andeq	r0, r0, r0, rrx
    abdc:	00000060 	andeq	r0, r0, r0, rrx
    abe0:	00000060 	andeq	r0, r0, r0, rrx
    abe4:	0000005f 	andeq	r0, r0, pc, asr r0
    abe8:	0000005f 	andeq	r0, r0, pc, asr r0
    abec:	0000005f 	andeq	r0, r0, pc, asr r0
    abf0:	0000005e 	andeq	r0, r0, lr, asr r0
    abf4:	0000005e 	andeq	r0, r0, lr, asr r0
    abf8:	0000005e 	andeq	r0, r0, lr, asr r0
    abfc:	0000005d 	andeq	r0, r0, sp, asr r0
    ac00:	0000005d 	andeq	r0, r0, sp, asr r0
    ac04:	0000005d 	andeq	r0, r0, sp, asr r0
    ac08:	0000005c 	andeq	r0, r0, ip, asr r0
    ac0c:	0000005c 	andeq	r0, r0, ip, asr r0
    ac10:	0000005c 	andeq	r0, r0, ip, asr r0
    ac14:	0000005b 	andeq	r0, r0, fp, asr r0
    ac18:	0000005b 	andeq	r0, r0, fp, asr r0
    ac1c:	0000005b 	andeq	r0, r0, fp, asr r0
    ac20:	0000005a 	andeq	r0, r0, sl, asr r0
    ac24:	0000005a 	andeq	r0, r0, sl, asr r0
    ac28:	00000059 	andeq	r0, r0, r9, asr r0
    ac2c:	00000059 	andeq	r0, r0, r9, asr r0
    ac30:	00000059 	andeq	r0, r0, r9, asr r0
    ac34:	00000058 	andeq	r0, r0, r8, asr r0
    ac38:	00000058 	andeq	r0, r0, r8, asr r0
    ac3c:	00000058 	andeq	r0, r0, r8, asr r0
    ac40:	00000057 	andeq	r0, r0, r7, asr r0
    ac44:	00000057 	andeq	r0, r0, r7, asr r0
    ac48:	00000057 	andeq	r0, r0, r7, asr r0
    ac4c:	00000056 	andeq	r0, r0, r6, asr r0
    ac50:	00000056 	andeq	r0, r0, r6, asr r0
    ac54:	00000055 	andeq	r0, r0, r5, asr r0
    ac58:	00000055 	andeq	r0, r0, r5, asr r0
    ac5c:	00000055 	andeq	r0, r0, r5, asr r0
    ac60:	00000054 	andeq	r0, r0, r4, asr r0
    ac64:	00000054 	andeq	r0, r0, r4, asr r0
    ac68:	00000054 	andeq	r0, r0, r4, asr r0
    ac6c:	00000053 	andeq	r0, r0, r3, asr r0
    ac70:	00000053 	andeq	r0, r0, r3, asr r0
    ac74:	00000052 	andeq	r0, r0, r2, asr r0
    ac78:	00000052 	andeq	r0, r0, r2, asr r0
    ac7c:	00000052 	andeq	r0, r0, r2, asr r0
    ac80:	00000051 	andeq	r0, r0, r1, asr r0
    ac84:	00000051 	andeq	r0, r0, r1, asr r0
    ac88:	00000051 	andeq	r0, r0, r1, asr r0
    ac8c:	00000050 	andeq	r0, r0, r0, asr r0
    ac90:	00000050 	andeq	r0, r0, r0, asr r0
    ac94:	0000004f 	andeq	r0, r0, pc, asr #32
    ac98:	0000004f 	andeq	r0, r0, pc, asr #32
    ac9c:	0000004f 	andeq	r0, r0, pc, asr #32
    aca0:	0000004e 	andeq	r0, r0, lr, asr #32
    aca4:	0000004e 	andeq	r0, r0, lr, asr #32
    aca8:	0000004e 	andeq	r0, r0, lr, asr #32
    acac:	0000004d 	andeq	r0, r0, sp, asr #32
    acb0:	0000004d 	andeq	r0, r0, sp, asr #32
    acb4:	0000004c 	andeq	r0, r0, ip, asr #32
    acb8:	0000004c 	andeq	r0, r0, ip, asr #32
    acbc:	0000004c 	andeq	r0, r0, ip, asr #32
    acc0:	0000004b 	andeq	r0, r0, fp, asr #32
    acc4:	0000004b 	andeq	r0, r0, fp, asr #32
    acc8:	0000004a 	andeq	r0, r0, sl, asr #32
    accc:	0000004a 	andeq	r0, r0, sl, asr #32
    acd0:	0000004a 	andeq	r0, r0, sl, asr #32
    acd4:	00000049 	andeq	r0, r0, r9, asr #32
    acd8:	00000049 	andeq	r0, r0, r9, asr #32
    acdc:	00000049 	andeq	r0, r0, r9, asr #32
    ace0:	00000048 	andeq	r0, r0, r8, asr #32
    ace4:	00000048 	andeq	r0, r0, r8, asr #32
    ace8:	00000047 	andeq	r0, r0, r7, asr #32
    acec:	00000047 	andeq	r0, r0, r7, asr #32
    acf0:	00000047 	andeq	r0, r0, r7, asr #32
    acf4:	00000046 	andeq	r0, r0, r6, asr #32
    acf8:	00000046 	andeq	r0, r0, r6, asr #32
    acfc:	00000045 	andeq	r0, r0, r5, asr #32
    ad00:	00000045 	andeq	r0, r0, r5, asr #32
    ad04:	00000045 	andeq	r0, r0, r5, asr #32
    ad08:	00000044 	andeq	r0, r0, r4, asr #32
    ad0c:	00000044 	andeq	r0, r0, r4, asr #32
    ad10:	00000043 	andeq	r0, r0, r3, asr #32
    ad14:	00000043 	andeq	r0, r0, r3, asr #32
    ad18:	00000043 	andeq	r0, r0, r3, asr #32
    ad1c:	00000042 	andeq	r0, r0, r2, asr #32
    ad20:	00000042 	andeq	r0, r0, r2, asr #32
    ad24:	00000041 	andeq	r0, r0, r1, asr #32
    ad28:	00000041 	andeq	r0, r0, r1, asr #32
    ad2c:	00000041 	andeq	r0, r0, r1, asr #32
    ad30:	00000040 	andeq	r0, r0, r0, asr #32
    ad34:	00000040 	andeq	r0, r0, r0, asr #32
    ad38:	0000003f 	andeq	r0, r0, pc, lsr r0
    ad3c:	0000003f 	andeq	r0, r0, pc, lsr r0
    ad40:	0000003f 	andeq	r0, r0, pc, lsr r0
    ad44:	0000003e 	andeq	r0, r0, lr, lsr r0
    ad48:	0000003e 	andeq	r0, r0, lr, lsr r0
    ad4c:	0000003e 	andeq	r0, r0, lr, lsr r0
    ad50:	0000003d 	andeq	r0, r0, sp, lsr r0
    ad54:	0000003d 	andeq	r0, r0, sp, lsr r0
    ad58:	0000003c 	andeq	r0, r0, ip, lsr r0
    ad5c:	0000003c 	andeq	r0, r0, ip, lsr r0
    ad60:	0000003c 	andeq	r0, r0, ip, lsr r0
    ad64:	0000003b 	andeq	r0, r0, fp, lsr r0
    ad68:	0000003b 	andeq	r0, r0, fp, lsr r0
    ad6c:	0000003a 	andeq	r0, r0, sl, lsr r0
    ad70:	0000003a 	andeq	r0, r0, sl, lsr r0
    ad74:	0000003a 	andeq	r0, r0, sl, lsr r0
    ad78:	00000039 	andeq	r0, r0, r9, lsr r0
    ad7c:	00000039 	andeq	r0, r0, r9, lsr r0
    ad80:	00000038 	andeq	r0, r0, r8, lsr r0
    ad84:	00000038 	andeq	r0, r0, r8, lsr r0
    ad88:	00000038 	andeq	r0, r0, r8, lsr r0
    ad8c:	00000037 	andeq	r0, r0, r7, lsr r0
    ad90:	00000037 	andeq	r0, r0, r7, lsr r0
    ad94:	00000036 	andeq	r0, r0, r6, lsr r0
    ad98:	00000036 	andeq	r0, r0, r6, lsr r0
    ad9c:	00000036 	andeq	r0, r0, r6, lsr r0
    ada0:	00000035 	andeq	r0, r0, r5, lsr r0
    ada4:	00000035 	andeq	r0, r0, r5, lsr r0
    ada8:	00000035 	andeq	r0, r0, r5, lsr r0
    adac:	00000034 	andeq	r0, r0, r4, lsr r0
    adb0:	00000034 	andeq	r0, r0, r4, lsr r0
    adb4:	00000033 	andeq	r0, r0, r3, lsr r0
    adb8:	00000033 	andeq	r0, r0, r3, lsr r0
    adbc:	00000033 	andeq	r0, r0, r3, lsr r0
    adc0:	00000032 	andeq	r0, r0, r2, lsr r0
    adc4:	00000032 	andeq	r0, r0, r2, lsr r0
    adc8:	00000031 	andeq	r0, r0, r1, lsr r0
    adcc:	00000031 	andeq	r0, r0, r1, lsr r0
    add0:	00000031 	andeq	r0, r0, r1, lsr r0
    add4:	00000030 	andeq	r0, r0, r0, lsr r0
    add8:	00000030 	andeq	r0, r0, r0, lsr r0
    addc:	00000030 	andeq	r0, r0, r0, lsr r0
    ade0:	0000002f 	andeq	r0, r0, pc, lsr #32
    ade4:	0000002f 	andeq	r0, r0, pc, lsr #32
    ade8:	0000002e 	andeq	r0, r0, lr, lsr #32
    adec:	0000002e 	andeq	r0, r0, lr, lsr #32
    adf0:	0000002e 	andeq	r0, r0, lr, lsr #32
    adf4:	0000002d 	andeq	r0, r0, sp, lsr #32
    adf8:	0000002d 	andeq	r0, r0, sp, lsr #32
    adfc:	0000002d 	andeq	r0, r0, sp, lsr #32
    ae00:	0000002c 	andeq	r0, r0, ip, lsr #32
    ae04:	0000002c 	andeq	r0, r0, ip, lsr #32
    ae08:	0000002b 	andeq	r0, r0, fp, lsr #32
    ae0c:	0000002b 	andeq	r0, r0, fp, lsr #32
    ae10:	0000002b 	andeq	r0, r0, fp, lsr #32
    ae14:	0000002a 	andeq	r0, r0, sl, lsr #32
    ae18:	0000002a 	andeq	r0, r0, sl, lsr #32
    ae1c:	0000002a 	andeq	r0, r0, sl, lsr #32
    ae20:	00000029 	andeq	r0, r0, r9, lsr #32
    ae24:	00000029 	andeq	r0, r0, r9, lsr #32
    ae28:	00000028 	andeq	r0, r0, r8, lsr #32
    ae2c:	00000028 	andeq	r0, r0, r8, lsr #32
    ae30:	00000028 	andeq	r0, r0, r8, lsr #32
    ae34:	00000027 	andeq	r0, r0, r7, lsr #32
    ae38:	00000027 	andeq	r0, r0, r7, lsr #32
    ae3c:	00000027 	andeq	r0, r0, r7, lsr #32
    ae40:	00000026 	andeq	r0, r0, r6, lsr #32
    ae44:	00000026 	andeq	r0, r0, r6, lsr #32
    ae48:	00000026 	andeq	r0, r0, r6, lsr #32
    ae4c:	00000025 	andeq	r0, r0, r5, lsr #32
    ae50:	00000025 	andeq	r0, r0, r5, lsr #32
    ae54:	00000024 	andeq	r0, r0, r4, lsr #32
    ae58:	00000024 	andeq	r0, r0, r4, lsr #32
    ae5c:	00000024 	andeq	r0, r0, r4, lsr #32
    ae60:	00000023 	andeq	r0, r0, r3, lsr #32
    ae64:	00000023 	andeq	r0, r0, r3, lsr #32
    ae68:	00000023 	andeq	r0, r0, r3, lsr #32
    ae6c:	00000022 	andeq	r0, r0, r2, lsr #32
    ae70:	00000022 	andeq	r0, r0, r2, lsr #32
    ae74:	00000022 	andeq	r0, r0, r2, lsr #32
    ae78:	00000021 	andeq	r0, r0, r1, lsr #32
    ae7c:	00000021 	andeq	r0, r0, r1, lsr #32
    ae80:	00000021 	andeq	r0, r0, r1, lsr #32
    ae84:	00000020 	andeq	r0, r0, r0, lsr #32
    ae88:	00000020 	andeq	r0, r0, r0, lsr #32
    ae8c:	00000020 	andeq	r0, r0, r0, lsr #32
    ae90:	0000001f 	andeq	r0, r0, pc, lsl r0
    ae94:	0000001f 	andeq	r0, r0, pc, lsl r0
    ae98:	0000001f 	andeq	r0, r0, pc, lsl r0
    ae9c:	0000001e 	andeq	r0, r0, lr, lsl r0
    aea0:	0000001e 	andeq	r0, r0, lr, lsl r0
    aea4:	0000001e 	andeq	r0, r0, lr, lsl r0
    aea8:	0000001d 	andeq	r0, r0, sp, lsl r0
    aeac:	0000001d 	andeq	r0, r0, sp, lsl r0
    aeb0:	0000001d 	andeq	r0, r0, sp, lsl r0
    aeb4:	0000001c 	andeq	r0, r0, ip, lsl r0
    aeb8:	0000001c 	andeq	r0, r0, ip, lsl r0
    aebc:	0000001c 	andeq	r0, r0, ip, lsl r0
    aec0:	0000001b 	andeq	r0, r0, fp, lsl r0
    aec4:	0000001b 	andeq	r0, r0, fp, lsl r0
    aec8:	0000001b 	andeq	r0, r0, fp, lsl r0
    aecc:	0000001a 	andeq	r0, r0, sl, lsl r0
    aed0:	0000001a 	andeq	r0, r0, sl, lsl r0
    aed4:	0000001a 	andeq	r0, r0, sl, lsl r0
    aed8:	00000019 	andeq	r0, r0, r9, lsl r0
    aedc:	00000019 	andeq	r0, r0, r9, lsl r0
    aee0:	00000019 	andeq	r0, r0, r9, lsl r0
    aee4:	00000018 	andeq	r0, r0, r8, lsl r0
    aee8:	00000018 	andeq	r0, r0, r8, lsl r0
    aeec:	00000018 	andeq	r0, r0, r8, lsl r0
    aef0:	00000018 	andeq	r0, r0, r8, lsl r0
    aef4:	00000017 	andeq	r0, r0, r7, lsl r0
    aef8:	00000017 	andeq	r0, r0, r7, lsl r0
    aefc:	00000017 	andeq	r0, r0, r7, lsl r0
    af00:	00000016 	andeq	r0, r0, r6, lsl r0
    af04:	00000016 	andeq	r0, r0, r6, lsl r0
    af08:	00000016 	andeq	r0, r0, r6, lsl r0
    af0c:	00000015 	andeq	r0, r0, r5, lsl r0
    af10:	00000015 	andeq	r0, r0, r5, lsl r0
    af14:	00000015 	andeq	r0, r0, r5, lsl r0
    af18:	00000015 	andeq	r0, r0, r5, lsl r0
    af1c:	00000014 	andeq	r0, r0, r4, lsl r0
    af20:	00000014 	andeq	r0, r0, r4, lsl r0
    af24:	00000014 	andeq	r0, r0, r4, lsl r0
    af28:	00000013 	andeq	r0, r0, r3, lsl r0
    af2c:	00000013 	andeq	r0, r0, r3, lsl r0
    af30:	00000013 	andeq	r0, r0, r3, lsl r0
    af34:	00000013 	andeq	r0, r0, r3, lsl r0
    af38:	00000012 	andeq	r0, r0, r2, lsl r0
    af3c:	00000012 	andeq	r0, r0, r2, lsl r0
    af40:	00000012 	andeq	r0, r0, r2, lsl r0
    af44:	00000011 	andeq	r0, r0, r1, lsl r0
    af48:	00000011 	andeq	r0, r0, r1, lsl r0
    af4c:	00000011 	andeq	r0, r0, r1, lsl r0
    af50:	00000011 	andeq	r0, r0, r1, lsl r0
    af54:	00000010 	andeq	r0, r0, r0, lsl r0
    af58:	00000010 	andeq	r0, r0, r0, lsl r0
    af5c:	00000010 	andeq	r0, r0, r0, lsl r0
    af60:	00000010 	andeq	r0, r0, r0, lsl r0
    af64:	0000000f 	andeq	r0, r0, pc
    af68:	0000000f 	andeq	r0, r0, pc
    af6c:	0000000f 	andeq	r0, r0, pc
    af70:	0000000f 	andeq	r0, r0, pc
    af74:	0000000e 	andeq	r0, r0, lr
    af78:	0000000e 	andeq	r0, r0, lr
    af7c:	0000000e 	andeq	r0, r0, lr
    af80:	0000000e 	andeq	r0, r0, lr
    af84:	0000000d 	andeq	r0, r0, sp
    af88:	0000000d 	andeq	r0, r0, sp
    af8c:	0000000d 	andeq	r0, r0, sp
    af90:	0000000d 	andeq	r0, r0, sp
    af94:	0000000c 	andeq	r0, r0, ip
    af98:	0000000c 	andeq	r0, r0, ip
    af9c:	0000000c 	andeq	r0, r0, ip
    afa0:	0000000c 	andeq	r0, r0, ip
    afa4:	0000000b 	andeq	r0, r0, fp
    afa8:	0000000b 	andeq	r0, r0, fp
    afac:	0000000b 	andeq	r0, r0, fp
    afb0:	0000000b 	andeq	r0, r0, fp
    afb4:	0000000b 	andeq	r0, r0, fp
    afb8:	0000000a 	andeq	r0, r0, sl
    afbc:	0000000a 	andeq	r0, r0, sl
    afc0:	0000000a 	andeq	r0, r0, sl
    afc4:	0000000a 	andeq	r0, r0, sl
    afc8:	00000009 	andeq	r0, r0, r9
    afcc:	00000009 	andeq	r0, r0, r9
    afd0:	00000009 	andeq	r0, r0, r9
    afd4:	00000009 	andeq	r0, r0, r9
    afd8:	00000009 	andeq	r0, r0, r9
    afdc:	00000008 	andeq	r0, r0, r8
    afe0:	00000008 	andeq	r0, r0, r8
    afe4:	00000008 	andeq	r0, r0, r8
    afe8:	00000008 	andeq	r0, r0, r8
    afec:	00000008 	andeq	r0, r0, r8
    aff0:	00000007 	andeq	r0, r0, r7
    aff4:	00000007 	andeq	r0, r0, r7
    aff8:	00000007 	andeq	r0, r0, r7
    affc:	00000007 	andeq	r0, r0, r7
    b000:	00000007 	andeq	r0, r0, r7
    b004:	00000007 	andeq	r0, r0, r7
    b008:	00000006 	andeq	r0, r0, r6
    b00c:	00000006 	andeq	r0, r0, r6
    b010:	00000006 	andeq	r0, r0, r6
    b014:	00000006 	andeq	r0, r0, r6
    b018:	00000006 	andeq	r0, r0, r6
    b01c:	00000005 	andeq	r0, r0, r5
    b020:	00000005 	andeq	r0, r0, r5
    b024:	00000005 	andeq	r0, r0, r5
    b028:	00000005 	andeq	r0, r0, r5
    b02c:	00000005 	andeq	r0, r0, r5
    b030:	00000005 	andeq	r0, r0, r5
    b034:	00000005 	andeq	r0, r0, r5
    b038:	00000004 	andeq	r0, r0, r4
    b03c:	00000004 	andeq	r0, r0, r4
    b040:	00000004 	andeq	r0, r0, r4
    b044:	00000004 	andeq	r0, r0, r4
    b048:	00000004 	andeq	r0, r0, r4
    b04c:	00000004 	andeq	r0, r0, r4
    b050:	00000004 	andeq	r0, r0, r4
    b054:	00000003 	andeq	r0, r0, r3
    b058:	00000003 	andeq	r0, r0, r3
    b05c:	00000003 	andeq	r0, r0, r3
    b060:	00000003 	andeq	r0, r0, r3
    b064:	00000003 	andeq	r0, r0, r3
    b068:	00000003 	andeq	r0, r0, r3
    b06c:	00000003 	andeq	r0, r0, r3
    b070:	00000002 	andeq	r0, r0, r2
    b074:	00000002 	andeq	r0, r0, r2
    b078:	00000002 	andeq	r0, r0, r2
    b07c:	00000002 	andeq	r0, r0, r2
    b080:	00000002 	andeq	r0, r0, r2
    b084:	00000002 	andeq	r0, r0, r2
    b088:	00000002 	andeq	r0, r0, r2
    b08c:	00000002 	andeq	r0, r0, r2
    b090:	00000002 	andeq	r0, r0, r2
    b094:	00000002 	andeq	r0, r0, r2
    b098:	00000001 	andeq	r0, r0, r1
    b09c:	00000001 	andeq	r0, r0, r1
    b0a0:	00000001 	andeq	r0, r0, r1
    b0a4:	00000001 	andeq	r0, r0, r1
    b0a8:	00000001 	andeq	r0, r0, r1
    b0ac:	00000001 	andeq	r0, r0, r1
    b0b0:	00000001 	andeq	r0, r0, r1
    b0b4:	00000001 	andeq	r0, r0, r1
    b0b8:	00000001 	andeq	r0, r0, r1
    b0bc:	00000001 	andeq	r0, r0, r1
    b0c0:	00000001 	andeq	r0, r0, r1
    b0c4:	00000001 	andeq	r0, r0, r1
	...
    b1ac:	00000001 	andeq	r0, r0, r1
    b1b0:	00000001 	andeq	r0, r0, r1
    b1b4:	00000001 	andeq	r0, r0, r1
    b1b8:	00000001 	andeq	r0, r0, r1
    b1bc:	00000001 	andeq	r0, r0, r1
    b1c0:	00000001 	andeq	r0, r0, r1
    b1c4:	00000001 	andeq	r0, r0, r1
    b1c8:	00000001 	andeq	r0, r0, r1
    b1cc:	00000001 	andeq	r0, r0, r1
    b1d0:	00000001 	andeq	r0, r0, r1
    b1d4:	00000001 	andeq	r0, r0, r1
    b1d8:	00000001 	andeq	r0, r0, r1
    b1dc:	00000002 	andeq	r0, r0, r2
    b1e0:	00000002 	andeq	r0, r0, r2
    b1e4:	00000002 	andeq	r0, r0, r2
    b1e8:	00000002 	andeq	r0, r0, r2
    b1ec:	00000002 	andeq	r0, r0, r2
    b1f0:	00000002 	andeq	r0, r0, r2
    b1f4:	00000002 	andeq	r0, r0, r2
    b1f8:	00000002 	andeq	r0, r0, r2
    b1fc:	00000002 	andeq	r0, r0, r2
    b200:	00000002 	andeq	r0, r0, r2
    b204:	00000003 	andeq	r0, r0, r3
    b208:	00000003 	andeq	r0, r0, r3
    b20c:	00000003 	andeq	r0, r0, r3
    b210:	00000003 	andeq	r0, r0, r3
    b214:	00000003 	andeq	r0, r0, r3
    b218:	00000003 	andeq	r0, r0, r3
    b21c:	00000003 	andeq	r0, r0, r3
    b220:	00000004 	andeq	r0, r0, r4
    b224:	00000004 	andeq	r0, r0, r4
    b228:	00000004 	andeq	r0, r0, r4
    b22c:	00000004 	andeq	r0, r0, r4
    b230:	00000004 	andeq	r0, r0, r4
    b234:	00000004 	andeq	r0, r0, r4
    b238:	00000004 	andeq	r0, r0, r4
    b23c:	00000005 	andeq	r0, r0, r5
    b240:	00000005 	andeq	r0, r0, r5
    b244:	00000005 	andeq	r0, r0, r5
    b248:	00000005 	andeq	r0, r0, r5
    b24c:	00000005 	andeq	r0, r0, r5
    b250:	00000005 	andeq	r0, r0, r5
    b254:	00000005 	andeq	r0, r0, r5
    b258:	00000006 	andeq	r0, r0, r6
    b25c:	00000006 	andeq	r0, r0, r6
    b260:	00000006 	andeq	r0, r0, r6
    b264:	00000006 	andeq	r0, r0, r6
    b268:	00000006 	andeq	r0, r0, r6
    b26c:	00000007 	andeq	r0, r0, r7
    b270:	00000007 	andeq	r0, r0, r7
    b274:	00000007 	andeq	r0, r0, r7
    b278:	00000007 	andeq	r0, r0, r7
    b27c:	00000007 	andeq	r0, r0, r7
    b280:	00000007 	andeq	r0, r0, r7
    b284:	00000008 	andeq	r0, r0, r8
    b288:	00000008 	andeq	r0, r0, r8
    b28c:	00000008 	andeq	r0, r0, r8
    b290:	00000008 	andeq	r0, r0, r8
    b294:	00000008 	andeq	r0, r0, r8
    b298:	00000009 	andeq	r0, r0, r9
    b29c:	00000009 	andeq	r0, r0, r9
    b2a0:	00000009 	andeq	r0, r0, r9
    b2a4:	00000009 	andeq	r0, r0, r9
    b2a8:	00000009 	andeq	r0, r0, r9
    b2ac:	0000000a 	andeq	r0, r0, sl
    b2b0:	0000000a 	andeq	r0, r0, sl
    b2b4:	0000000a 	andeq	r0, r0, sl
    b2b8:	0000000a 	andeq	r0, r0, sl
    b2bc:	0000000b 	andeq	r0, r0, fp
    b2c0:	0000000b 	andeq	r0, r0, fp
    b2c4:	0000000b 	andeq	r0, r0, fp
    b2c8:	0000000b 	andeq	r0, r0, fp
    b2cc:	0000000b 	andeq	r0, r0, fp
    b2d0:	0000000c 	andeq	r0, r0, ip
    b2d4:	0000000c 	andeq	r0, r0, ip
    b2d8:	0000000c 	andeq	r0, r0, ip
    b2dc:	0000000c 	andeq	r0, r0, ip
    b2e0:	0000000d 	andeq	r0, r0, sp
    b2e4:	0000000d 	andeq	r0, r0, sp
    b2e8:	0000000d 	andeq	r0, r0, sp
    b2ec:	0000000d 	andeq	r0, r0, sp
    b2f0:	0000000e 	andeq	r0, r0, lr
    b2f4:	0000000e 	andeq	r0, r0, lr
    b2f8:	0000000e 	andeq	r0, r0, lr
    b2fc:	0000000e 	andeq	r0, r0, lr
    b300:	0000000f 	andeq	r0, r0, pc
    b304:	0000000f 	andeq	r0, r0, pc
    b308:	0000000f 	andeq	r0, r0, pc
    b30c:	0000000f 	andeq	r0, r0, pc
    b310:	00000010 	andeq	r0, r0, r0, lsl r0
    b314:	00000010 	andeq	r0, r0, r0, lsl r0
    b318:	00000010 	andeq	r0, r0, r0, lsl r0
    b31c:	00000010 	andeq	r0, r0, r0, lsl r0
    b320:	00000011 	andeq	r0, r0, r1, lsl r0
    b324:	00000011 	andeq	r0, r0, r1, lsl r0
    b328:	00000011 	andeq	r0, r0, r1, lsl r0
    b32c:	00000011 	andeq	r0, r0, r1, lsl r0
    b330:	00000012 	andeq	r0, r0, r2, lsl r0
    b334:	00000012 	andeq	r0, r0, r2, lsl r0
    b338:	00000012 	andeq	r0, r0, r2, lsl r0
    b33c:	00000013 	andeq	r0, r0, r3, lsl r0
    b340:	00000013 	andeq	r0, r0, r3, lsl r0
    b344:	00000013 	andeq	r0, r0, r3, lsl r0
    b348:	00000013 	andeq	r0, r0, r3, lsl r0
    b34c:	00000014 	andeq	r0, r0, r4, lsl r0
    b350:	00000014 	andeq	r0, r0, r4, lsl r0
    b354:	00000014 	andeq	r0, r0, r4, lsl r0
    b358:	00000015 	andeq	r0, r0, r5, lsl r0
    b35c:	00000015 	andeq	r0, r0, r5, lsl r0
    b360:	00000015 	andeq	r0, r0, r5, lsl r0
    b364:	00000015 	andeq	r0, r0, r5, lsl r0
    b368:	00000016 	andeq	r0, r0, r6, lsl r0
    b36c:	00000016 	andeq	r0, r0, r6, lsl r0
    b370:	00000016 	andeq	r0, r0, r6, lsl r0
    b374:	00000017 	andeq	r0, r0, r7, lsl r0
    b378:	00000017 	andeq	r0, r0, r7, lsl r0
    b37c:	00000017 	andeq	r0, r0, r7, lsl r0
    b380:	00000018 	andeq	r0, r0, r8, lsl r0
    b384:	00000018 	andeq	r0, r0, r8, lsl r0
    b388:	00000018 	andeq	r0, r0, r8, lsl r0
    b38c:	00000018 	andeq	r0, r0, r8, lsl r0
    b390:	00000019 	andeq	r0, r0, r9, lsl r0
    b394:	00000019 	andeq	r0, r0, r9, lsl r0
    b398:	00000019 	andeq	r0, r0, r9, lsl r0
    b39c:	0000001a 	andeq	r0, r0, sl, lsl r0
    b3a0:	0000001a 	andeq	r0, r0, sl, lsl r0
    b3a4:	0000001a 	andeq	r0, r0, sl, lsl r0
    b3a8:	0000001b 	andeq	r0, r0, fp, lsl r0
    b3ac:	0000001b 	andeq	r0, r0, fp, lsl r0
    b3b0:	0000001b 	andeq	r0, r0, fp, lsl r0
    b3b4:	0000001c 	andeq	r0, r0, ip, lsl r0
    b3b8:	0000001c 	andeq	r0, r0, ip, lsl r0
    b3bc:	0000001c 	andeq	r0, r0, ip, lsl r0
    b3c0:	0000001d 	andeq	r0, r0, sp, lsl r0
    b3c4:	0000001d 	andeq	r0, r0, sp, lsl r0
    b3c8:	0000001d 	andeq	r0, r0, sp, lsl r0
    b3cc:	0000001e 	andeq	r0, r0, lr, lsl r0
    b3d0:	0000001e 	andeq	r0, r0, lr, lsl r0
    b3d4:	0000001e 	andeq	r0, r0, lr, lsl r0
    b3d8:	0000001f 	andeq	r0, r0, pc, lsl r0
    b3dc:	0000001f 	andeq	r0, r0, pc, lsl r0
    b3e0:	0000001f 	andeq	r0, r0, pc, lsl r0
    b3e4:	00000020 	andeq	r0, r0, r0, lsr #32
    b3e8:	00000020 	andeq	r0, r0, r0, lsr #32
    b3ec:	00000020 	andeq	r0, r0, r0, lsr #32
    b3f0:	00000021 	andeq	r0, r0, r1, lsr #32
    b3f4:	00000021 	andeq	r0, r0, r1, lsr #32
    b3f8:	00000021 	andeq	r0, r0, r1, lsr #32
    b3fc:	00000022 	andeq	r0, r0, r2, lsr #32
    b400:	00000022 	andeq	r0, r0, r2, lsr #32
    b404:	00000022 	andeq	r0, r0, r2, lsr #32
    b408:	00000023 	andeq	r0, r0, r3, lsr #32
    b40c:	00000023 	andeq	r0, r0, r3, lsr #32
    b410:	00000023 	andeq	r0, r0, r3, lsr #32
    b414:	00000024 	andeq	r0, r0, r4, lsr #32
    b418:	00000024 	andeq	r0, r0, r4, lsr #32
    b41c:	00000024 	andeq	r0, r0, r4, lsr #32
    b420:	00000025 	andeq	r0, r0, r5, lsr #32
    b424:	00000025 	andeq	r0, r0, r5, lsr #32
    b428:	00000026 	andeq	r0, r0, r6, lsr #32
    b42c:	00000026 	andeq	r0, r0, r6, lsr #32
    b430:	00000026 	andeq	r0, r0, r6, lsr #32
    b434:	00000027 	andeq	r0, r0, r7, lsr #32
    b438:	00000027 	andeq	r0, r0, r7, lsr #32
    b43c:	00000027 	andeq	r0, r0, r7, lsr #32
    b440:	00000028 	andeq	r0, r0, r8, lsr #32
    b444:	00000028 	andeq	r0, r0, r8, lsr #32
    b448:	00000028 	andeq	r0, r0, r8, lsr #32
    b44c:	00000029 	andeq	r0, r0, r9, lsr #32
    b450:	00000029 	andeq	r0, r0, r9, lsr #32
    b454:	0000002a 	andeq	r0, r0, sl, lsr #32
    b458:	0000002a 	andeq	r0, r0, sl, lsr #32
    b45c:	0000002a 	andeq	r0, r0, sl, lsr #32
    b460:	0000002b 	andeq	r0, r0, fp, lsr #32
    b464:	0000002b 	andeq	r0, r0, fp, lsr #32
    b468:	0000002b 	andeq	r0, r0, fp, lsr #32
    b46c:	0000002c 	andeq	r0, r0, ip, lsr #32
    b470:	0000002c 	andeq	r0, r0, ip, lsr #32
    b474:	0000002d 	andeq	r0, r0, sp, lsr #32
    b478:	0000002d 	andeq	r0, r0, sp, lsr #32
    b47c:	0000002d 	andeq	r0, r0, sp, lsr #32
    b480:	0000002e 	andeq	r0, r0, lr, lsr #32
    b484:	0000002e 	andeq	r0, r0, lr, lsr #32
    b488:	0000002e 	andeq	r0, r0, lr, lsr #32
    b48c:	0000002f 	andeq	r0, r0, pc, lsr #32
    b490:	0000002f 	andeq	r0, r0, pc, lsr #32
    b494:	00000030 	andeq	r0, r0, r0, lsr r0
    b498:	00000030 	andeq	r0, r0, r0, lsr r0
    b49c:	00000030 	andeq	r0, r0, r0, lsr r0
    b4a0:	00000031 	andeq	r0, r0, r1, lsr r0
    b4a4:	00000031 	andeq	r0, r0, r1, lsr r0
    b4a8:	00000031 	andeq	r0, r0, r1, lsr r0
    b4ac:	00000032 	andeq	r0, r0, r2, lsr r0
    b4b0:	00000032 	andeq	r0, r0, r2, lsr r0
    b4b4:	00000033 	andeq	r0, r0, r3, lsr r0
    b4b8:	00000033 	andeq	r0, r0, r3, lsr r0
    b4bc:	00000033 	andeq	r0, r0, r3, lsr r0
    b4c0:	00000034 	andeq	r0, r0, r4, lsr r0
    b4c4:	00000034 	andeq	r0, r0, r4, lsr r0
    b4c8:	00000035 	andeq	r0, r0, r5, lsr r0
    b4cc:	00000035 	andeq	r0, r0, r5, lsr r0
    b4d0:	00000035 	andeq	r0, r0, r5, lsr r0
    b4d4:	00000036 	andeq	r0, r0, r6, lsr r0
    b4d8:	00000036 	andeq	r0, r0, r6, lsr r0
    b4dc:	00000036 	andeq	r0, r0, r6, lsr r0
    b4e0:	00000037 	andeq	r0, r0, r7, lsr r0
    b4e4:	00000037 	andeq	r0, r0, r7, lsr r0
    b4e8:	00000038 	andeq	r0, r0, r8, lsr r0
    b4ec:	00000038 	andeq	r0, r0, r8, lsr r0
    b4f0:	00000038 	andeq	r0, r0, r8, lsr r0
    b4f4:	00000039 	andeq	r0, r0, r9, lsr r0
    b4f8:	00000039 	andeq	r0, r0, r9, lsr r0
    b4fc:	0000003a 	andeq	r0, r0, sl, lsr r0
    b500:	0000003a 	andeq	r0, r0, sl, lsr r0
    b504:	0000003a 	andeq	r0, r0, sl, lsr r0
    b508:	0000003b 	andeq	r0, r0, fp, lsr r0
    b50c:	0000003b 	andeq	r0, r0, fp, lsr r0
    b510:	0000003c 	andeq	r0, r0, ip, lsr r0
    b514:	0000003c 	andeq	r0, r0, ip, lsr r0
    b518:	0000003c 	andeq	r0, r0, ip, lsr r0
    b51c:	0000003d 	andeq	r0, r0, sp, lsr r0
    b520:	0000003d 	andeq	r0, r0, sp, lsr r0
    b524:	0000003e 	andeq	r0, r0, lr, lsr r0
    b528:	0000003e 	andeq	r0, r0, lr, lsr r0
    b52c:	0000003e 	andeq	r0, r0, lr, lsr r0
    b530:	0000003f 	andeq	r0, r0, pc, lsr r0
    b534:	0000003f 	andeq	r0, r0, pc, lsr r0
    b538:	00000040 	andeq	r0, r0, r0, asr #32

0000b53c <gpio>:
    b53c:	20200000 	eorcs	r0, r0, r0

0000b540 <waveform_sine_custom>:
    b540:	00000020 	andeq	r0, r0, r0, lsr #32
    b544:	00000020 	andeq	r0, r0, r0, lsr #32
    b548:	00000020 	andeq	r0, r0, r0, lsr #32
    b54c:	00000020 	andeq	r0, r0, r0, lsr #32
    b550:	00000020 	andeq	r0, r0, r0, lsr #32
    b554:	00000020 	andeq	r0, r0, r0, lsr #32
    b558:	00000021 	andeq	r0, r0, r1, lsr #32
    b55c:	00000021 	andeq	r0, r0, r1, lsr #32
    b560:	00000021 	andeq	r0, r0, r1, lsr #32
    b564:	00000021 	andeq	r0, r0, r1, lsr #32
    b568:	00000021 	andeq	r0, r0, r1, lsr #32
    b56c:	00000022 	andeq	r0, r0, r2, lsr #32
    b570:	00000022 	andeq	r0, r0, r2, lsr #32
    b574:	00000022 	andeq	r0, r0, r2, lsr #32
    b578:	00000022 	andeq	r0, r0, r2, lsr #32
    b57c:	00000022 	andeq	r0, r0, r2, lsr #32
    b580:	00000023 	andeq	r0, r0, r3, lsr #32
    b584:	00000023 	andeq	r0, r0, r3, lsr #32
    b588:	00000023 	andeq	r0, r0, r3, lsr #32
    b58c:	00000023 	andeq	r0, r0, r3, lsr #32
    b590:	00000023 	andeq	r0, r0, r3, lsr #32
    b594:	00000024 	andeq	r0, r0, r4, lsr #32
    b598:	00000024 	andeq	r0, r0, r4, lsr #32
    b59c:	00000024 	andeq	r0, r0, r4, lsr #32
    b5a0:	00000024 	andeq	r0, r0, r4, lsr #32
    b5a4:	00000024 	andeq	r0, r0, r4, lsr #32
    b5a8:	00000025 	andeq	r0, r0, r5, lsr #32
    b5ac:	00000025 	andeq	r0, r0, r5, lsr #32
    b5b0:	00000025 	andeq	r0, r0, r5, lsr #32
    b5b4:	00000025 	andeq	r0, r0, r5, lsr #32
    b5b8:	00000025 	andeq	r0, r0, r5, lsr #32
    b5bc:	00000026 	andeq	r0, r0, r6, lsr #32
    b5c0:	00000026 	andeq	r0, r0, r6, lsr #32
    b5c4:	00000026 	andeq	r0, r0, r6, lsr #32
    b5c8:	00000026 	andeq	r0, r0, r6, lsr #32
    b5cc:	00000026 	andeq	r0, r0, r6, lsr #32
    b5d0:	00000027 	andeq	r0, r0, r7, lsr #32
    b5d4:	00000027 	andeq	r0, r0, r7, lsr #32
    b5d8:	00000027 	andeq	r0, r0, r7, lsr #32
    b5dc:	00000027 	andeq	r0, r0, r7, lsr #32
    b5e0:	00000027 	andeq	r0, r0, r7, lsr #32
    b5e4:	00000027 	andeq	r0, r0, r7, lsr #32
    b5e8:	00000028 	andeq	r0, r0, r8, lsr #32
    b5ec:	00000028 	andeq	r0, r0, r8, lsr #32
    b5f0:	00000028 	andeq	r0, r0, r8, lsr #32
    b5f4:	00000028 	andeq	r0, r0, r8, lsr #32
    b5f8:	00000028 	andeq	r0, r0, r8, lsr #32
    b5fc:	00000029 	andeq	r0, r0, r9, lsr #32
    b600:	00000029 	andeq	r0, r0, r9, lsr #32
    b604:	00000029 	andeq	r0, r0, r9, lsr #32
    b608:	00000029 	andeq	r0, r0, r9, lsr #32
    b60c:	00000029 	andeq	r0, r0, r9, lsr #32
    b610:	0000002a 	andeq	r0, r0, sl, lsr #32
    b614:	0000002a 	andeq	r0, r0, sl, lsr #32
    b618:	0000002a 	andeq	r0, r0, sl, lsr #32
    b61c:	0000002a 	andeq	r0, r0, sl, lsr #32
    b620:	0000002a 	andeq	r0, r0, sl, lsr #32
    b624:	0000002a 	andeq	r0, r0, sl, lsr #32
    b628:	0000002b 	andeq	r0, r0, fp, lsr #32
    b62c:	0000002b 	andeq	r0, r0, fp, lsr #32
    b630:	0000002b 	andeq	r0, r0, fp, lsr #32
    b634:	0000002b 	andeq	r0, r0, fp, lsr #32
    b638:	0000002b 	andeq	r0, r0, fp, lsr #32
    b63c:	0000002c 	andeq	r0, r0, ip, lsr #32
    b640:	0000002c 	andeq	r0, r0, ip, lsr #32
    b644:	0000002c 	andeq	r0, r0, ip, lsr #32
    b648:	0000002c 	andeq	r0, r0, ip, lsr #32
    b64c:	0000002c 	andeq	r0, r0, ip, lsr #32
    b650:	0000002c 	andeq	r0, r0, ip, lsr #32
    b654:	0000002d 	andeq	r0, r0, sp, lsr #32
    b658:	0000002d 	andeq	r0, r0, sp, lsr #32
    b65c:	0000002d 	andeq	r0, r0, sp, lsr #32
    b660:	0000002d 	andeq	r0, r0, sp, lsr #32
    b664:	0000002d 	andeq	r0, r0, sp, lsr #32
    b668:	0000002e 	andeq	r0, r0, lr, lsr #32
    b66c:	0000002e 	andeq	r0, r0, lr, lsr #32
    b670:	0000002e 	andeq	r0, r0, lr, lsr #32
    b674:	0000002e 	andeq	r0, r0, lr, lsr #32
    b678:	0000002e 	andeq	r0, r0, lr, lsr #32
    b67c:	0000002e 	andeq	r0, r0, lr, lsr #32
    b680:	0000002f 	andeq	r0, r0, pc, lsr #32
    b684:	0000002f 	andeq	r0, r0, pc, lsr #32
    b688:	0000002f 	andeq	r0, r0, pc, lsr #32
    b68c:	0000002f 	andeq	r0, r0, pc, lsr #32
    b690:	0000002f 	andeq	r0, r0, pc, lsr #32
    b694:	0000002f 	andeq	r0, r0, pc, lsr #32
    b698:	00000030 	andeq	r0, r0, r0, lsr r0
    b69c:	00000030 	andeq	r0, r0, r0, lsr r0
    b6a0:	00000030 	andeq	r0, r0, r0, lsr r0
    b6a4:	00000030 	andeq	r0, r0, r0, lsr r0
    b6a8:	00000030 	andeq	r0, r0, r0, lsr r0
    b6ac:	00000030 	andeq	r0, r0, r0, lsr r0
    b6b0:	00000031 	andeq	r0, r0, r1, lsr r0
    b6b4:	00000031 	andeq	r0, r0, r1, lsr r0
    b6b8:	00000031 	andeq	r0, r0, r1, lsr r0
    b6bc:	00000031 	andeq	r0, r0, r1, lsr r0
    b6c0:	00000031 	andeq	r0, r0, r1, lsr r0
    b6c4:	00000031 	andeq	r0, r0, r1, lsr r0
    b6c8:	00000032 	andeq	r0, r0, r2, lsr r0
    b6cc:	00000032 	andeq	r0, r0, r2, lsr r0
    b6d0:	00000032 	andeq	r0, r0, r2, lsr r0
    b6d4:	00000032 	andeq	r0, r0, r2, lsr r0
    b6d8:	00000032 	andeq	r0, r0, r2, lsr r0
    b6dc:	00000032 	andeq	r0, r0, r2, lsr r0
    b6e0:	00000033 	andeq	r0, r0, r3, lsr r0
    b6e4:	00000033 	andeq	r0, r0, r3, lsr r0
    b6e8:	00000033 	andeq	r0, r0, r3, lsr r0
    b6ec:	00000033 	andeq	r0, r0, r3, lsr r0
    b6f0:	00000033 	andeq	r0, r0, r3, lsr r0
    b6f4:	00000033 	andeq	r0, r0, r3, lsr r0
    b6f8:	00000033 	andeq	r0, r0, r3, lsr r0
    b6fc:	00000034 	andeq	r0, r0, r4, lsr r0
    b700:	00000034 	andeq	r0, r0, r4, lsr r0
    b704:	00000034 	andeq	r0, r0, r4, lsr r0
    b708:	00000034 	andeq	r0, r0, r4, lsr r0
    b70c:	00000034 	andeq	r0, r0, r4, lsr r0
    b710:	00000034 	andeq	r0, r0, r4, lsr r0
    b714:	00000035 	andeq	r0, r0, r5, lsr r0
    b718:	00000035 	andeq	r0, r0, r5, lsr r0
    b71c:	00000035 	andeq	r0, r0, r5, lsr r0
    b720:	00000035 	andeq	r0, r0, r5, lsr r0
    b724:	00000035 	andeq	r0, r0, r5, lsr r0
    b728:	00000035 	andeq	r0, r0, r5, lsr r0
    b72c:	00000035 	andeq	r0, r0, r5, lsr r0
    b730:	00000036 	andeq	r0, r0, r6, lsr r0
    b734:	00000036 	andeq	r0, r0, r6, lsr r0
    b738:	00000036 	andeq	r0, r0, r6, lsr r0
    b73c:	00000036 	andeq	r0, r0, r6, lsr r0
    b740:	00000036 	andeq	r0, r0, r6, lsr r0
    b744:	00000036 	andeq	r0, r0, r6, lsr r0
    b748:	00000036 	andeq	r0, r0, r6, lsr r0
    b74c:	00000037 	andeq	r0, r0, r7, lsr r0
    b750:	00000037 	andeq	r0, r0, r7, lsr r0
    b754:	00000037 	andeq	r0, r0, r7, lsr r0
    b758:	00000037 	andeq	r0, r0, r7, lsr r0
    b75c:	00000037 	andeq	r0, r0, r7, lsr r0
    b760:	00000037 	andeq	r0, r0, r7, lsr r0
    b764:	00000037 	andeq	r0, r0, r7, lsr r0
    b768:	00000037 	andeq	r0, r0, r7, lsr r0
    b76c:	00000038 	andeq	r0, r0, r8, lsr r0
    b770:	00000038 	andeq	r0, r0, r8, lsr r0
    b774:	00000038 	andeq	r0, r0, r8, lsr r0
    b778:	00000038 	andeq	r0, r0, r8, lsr r0
    b77c:	00000038 	andeq	r0, r0, r8, lsr r0
    b780:	00000038 	andeq	r0, r0, r8, lsr r0
    b784:	00000038 	andeq	r0, r0, r8, lsr r0
    b788:	00000038 	andeq	r0, r0, r8, lsr r0
    b78c:	00000039 	andeq	r0, r0, r9, lsr r0
    b790:	00000039 	andeq	r0, r0, r9, lsr r0
    b794:	00000039 	andeq	r0, r0, r9, lsr r0
    b798:	00000039 	andeq	r0, r0, r9, lsr r0
    b79c:	00000039 	andeq	r0, r0, r9, lsr r0
    b7a0:	00000039 	andeq	r0, r0, r9, lsr r0
    b7a4:	00000039 	andeq	r0, r0, r9, lsr r0
    b7a8:	00000039 	andeq	r0, r0, r9, lsr r0
    b7ac:	0000003a 	andeq	r0, r0, sl, lsr r0
    b7b0:	0000003a 	andeq	r0, r0, sl, lsr r0
    b7b4:	0000003a 	andeq	r0, r0, sl, lsr r0
    b7b8:	0000003a 	andeq	r0, r0, sl, lsr r0
    b7bc:	0000003a 	andeq	r0, r0, sl, lsr r0
    b7c0:	0000003a 	andeq	r0, r0, sl, lsr r0
    b7c4:	0000003a 	andeq	r0, r0, sl, lsr r0
    b7c8:	0000003a 	andeq	r0, r0, sl, lsr r0
    b7cc:	0000003a 	andeq	r0, r0, sl, lsr r0
    b7d0:	0000003b 	andeq	r0, r0, fp, lsr r0
    b7d4:	0000003b 	andeq	r0, r0, fp, lsr r0
    b7d8:	0000003b 	andeq	r0, r0, fp, lsr r0
    b7dc:	0000003b 	andeq	r0, r0, fp, lsr r0
    b7e0:	0000003b 	andeq	r0, r0, fp, lsr r0
    b7e4:	0000003b 	andeq	r0, r0, fp, lsr r0
    b7e8:	0000003b 	andeq	r0, r0, fp, lsr r0
    b7ec:	0000003b 	andeq	r0, r0, fp, lsr r0
    b7f0:	0000003b 	andeq	r0, r0, fp, lsr r0
    b7f4:	0000003b 	andeq	r0, r0, fp, lsr r0
    b7f8:	0000003c 	andeq	r0, r0, ip, lsr r0
    b7fc:	0000003c 	andeq	r0, r0, ip, lsr r0
    b800:	0000003c 	andeq	r0, r0, ip, lsr r0
    b804:	0000003c 	andeq	r0, r0, ip, lsr r0
    b808:	0000003c 	andeq	r0, r0, ip, lsr r0
    b80c:	0000003c 	andeq	r0, r0, ip, lsr r0
    b810:	0000003c 	andeq	r0, r0, ip, lsr r0
    b814:	0000003c 	andeq	r0, r0, ip, lsr r0
    b818:	0000003c 	andeq	r0, r0, ip, lsr r0
    b81c:	0000003c 	andeq	r0, r0, ip, lsr r0
    b820:	0000003c 	andeq	r0, r0, ip, lsr r0
    b824:	0000003d 	andeq	r0, r0, sp, lsr r0
    b828:	0000003d 	andeq	r0, r0, sp, lsr r0
    b82c:	0000003d 	andeq	r0, r0, sp, lsr r0
    b830:	0000003d 	andeq	r0, r0, sp, lsr r0
    b834:	0000003d 	andeq	r0, r0, sp, lsr r0
    b838:	0000003d 	andeq	r0, r0, sp, lsr r0
    b83c:	0000003d 	andeq	r0, r0, sp, lsr r0
    b840:	0000003d 	andeq	r0, r0, sp, lsr r0
    b844:	0000003d 	andeq	r0, r0, sp, lsr r0
    b848:	0000003d 	andeq	r0, r0, sp, lsr r0
    b84c:	0000003d 	andeq	r0, r0, sp, lsr r0
    b850:	0000003d 	andeq	r0, r0, sp, lsr r0
    b854:	0000003d 	andeq	r0, r0, sp, lsr r0
    b858:	0000003d 	andeq	r0, r0, sp, lsr r0
    b85c:	0000003e 	andeq	r0, r0, lr, lsr r0
    b860:	0000003e 	andeq	r0, r0, lr, lsr r0
    b864:	0000003e 	andeq	r0, r0, lr, lsr r0
    b868:	0000003e 	andeq	r0, r0, lr, lsr r0
    b86c:	0000003e 	andeq	r0, r0, lr, lsr r0
    b870:	0000003e 	andeq	r0, r0, lr, lsr r0
    b874:	0000003e 	andeq	r0, r0, lr, lsr r0
    b878:	0000003e 	andeq	r0, r0, lr, lsr r0
    b87c:	0000003e 	andeq	r0, r0, lr, lsr r0
    b880:	0000003e 	andeq	r0, r0, lr, lsr r0
    b884:	0000003e 	andeq	r0, r0, lr, lsr r0
    b888:	0000003e 	andeq	r0, r0, lr, lsr r0
    b88c:	0000003e 	andeq	r0, r0, lr, lsr r0
    b890:	0000003e 	andeq	r0, r0, lr, lsr r0
    b894:	0000003e 	andeq	r0, r0, lr, lsr r0
    b898:	0000003e 	andeq	r0, r0, lr, lsr r0
    b89c:	0000003e 	andeq	r0, r0, lr, lsr r0
    b8a0:	0000003f 	andeq	r0, r0, pc, lsr r0
    b8a4:	0000003f 	andeq	r0, r0, pc, lsr r0
    b8a8:	0000003f 	andeq	r0, r0, pc, lsr r0
    b8ac:	0000003f 	andeq	r0, r0, pc, lsr r0
    b8b0:	0000003f 	andeq	r0, r0, pc, lsr r0
    b8b4:	0000003f 	andeq	r0, r0, pc, lsr r0
    b8b8:	0000003f 	andeq	r0, r0, pc, lsr r0
    b8bc:	0000003f 	andeq	r0, r0, pc, lsr r0
    b8c0:	0000003f 	andeq	r0, r0, pc, lsr r0
    b8c4:	0000003f 	andeq	r0, r0, pc, lsr r0
    b8c8:	0000003f 	andeq	r0, r0, pc, lsr r0
    b8cc:	0000003f 	andeq	r0, r0, pc, lsr r0
    b8d0:	0000003f 	andeq	r0, r0, pc, lsr r0
    b8d4:	0000003f 	andeq	r0, r0, pc, lsr r0
    b8d8:	0000003f 	andeq	r0, r0, pc, lsr r0
    b8dc:	0000003f 	andeq	r0, r0, pc, lsr r0
    b8e0:	0000003f 	andeq	r0, r0, pc, lsr r0
    b8e4:	0000003f 	andeq	r0, r0, pc, lsr r0
    b8e8:	0000003f 	andeq	r0, r0, pc, lsr r0
    b8ec:	0000003f 	andeq	r0, r0, pc, lsr r0
    b8f0:	0000003f 	andeq	r0, r0, pc, lsr r0
    b8f4:	0000003f 	andeq	r0, r0, pc, lsr r0
    b8f8:	0000003f 	andeq	r0, r0, pc, lsr r0
    b8fc:	0000003f 	andeq	r0, r0, pc, lsr r0
    b900:	0000003f 	andeq	r0, r0, pc, lsr r0
    b904:	0000003f 	andeq	r0, r0, pc, lsr r0
    b908:	0000003f 	andeq	r0, r0, pc, lsr r0
    b90c:	0000003f 	andeq	r0, r0, pc, lsr r0
    b910:	0000003f 	andeq	r0, r0, pc, lsr r0
    b914:	0000003f 	andeq	r0, r0, pc, lsr r0
    b918:	0000003f 	andeq	r0, r0, pc, lsr r0
    b91c:	0000003f 	andeq	r0, r0, pc, lsr r0
    b920:	0000003f 	andeq	r0, r0, pc, lsr r0
    b924:	0000003f 	andeq	r0, r0, pc, lsr r0
    b928:	0000003f 	andeq	r0, r0, pc, lsr r0
    b92c:	0000003f 	andeq	r0, r0, pc, lsr r0
    b930:	0000003f 	andeq	r0, r0, pc, lsr r0
    b934:	0000003f 	andeq	r0, r0, pc, lsr r0
    b938:	0000003f 	andeq	r0, r0, pc, lsr r0
    b93c:	0000003f 	andeq	r0, r0, pc, lsr r0
    b940:	00000040 	andeq	r0, r0, r0, asr #32
    b944:	0000003f 	andeq	r0, r0, pc, lsr r0
    b948:	0000003f 	andeq	r0, r0, pc, lsr r0
    b94c:	0000003f 	andeq	r0, r0, pc, lsr r0
    b950:	0000003f 	andeq	r0, r0, pc, lsr r0
    b954:	0000003f 	andeq	r0, r0, pc, lsr r0
    b958:	0000003f 	andeq	r0, r0, pc, lsr r0
    b95c:	0000003f 	andeq	r0, r0, pc, lsr r0
    b960:	0000003f 	andeq	r0, r0, pc, lsr r0
    b964:	0000003f 	andeq	r0, r0, pc, lsr r0
    b968:	0000003f 	andeq	r0, r0, pc, lsr r0
    b96c:	0000003f 	andeq	r0, r0, pc, lsr r0
    b970:	0000003f 	andeq	r0, r0, pc, lsr r0
    b974:	0000003f 	andeq	r0, r0, pc, lsr r0
    b978:	0000003f 	andeq	r0, r0, pc, lsr r0
    b97c:	0000003f 	andeq	r0, r0, pc, lsr r0
    b980:	0000003f 	andeq	r0, r0, pc, lsr r0
    b984:	0000003f 	andeq	r0, r0, pc, lsr r0
    b988:	0000003f 	andeq	r0, r0, pc, lsr r0
    b98c:	0000003f 	andeq	r0, r0, pc, lsr r0
    b990:	0000003f 	andeq	r0, r0, pc, lsr r0
    b994:	0000003f 	andeq	r0, r0, pc, lsr r0
    b998:	0000003f 	andeq	r0, r0, pc, lsr r0
    b99c:	0000003f 	andeq	r0, r0, pc, lsr r0
    b9a0:	0000003f 	andeq	r0, r0, pc, lsr r0
    b9a4:	0000003f 	andeq	r0, r0, pc, lsr r0
    b9a8:	0000003f 	andeq	r0, r0, pc, lsr r0
    b9ac:	0000003f 	andeq	r0, r0, pc, lsr r0
    b9b0:	0000003f 	andeq	r0, r0, pc, lsr r0
    b9b4:	0000003f 	andeq	r0, r0, pc, lsr r0
    b9b8:	0000003f 	andeq	r0, r0, pc, lsr r0
    b9bc:	0000003f 	andeq	r0, r0, pc, lsr r0
    b9c0:	0000003f 	andeq	r0, r0, pc, lsr r0
    b9c4:	0000003f 	andeq	r0, r0, pc, lsr r0
    b9c8:	0000003f 	andeq	r0, r0, pc, lsr r0
    b9cc:	0000003f 	andeq	r0, r0, pc, lsr r0
    b9d0:	0000003f 	andeq	r0, r0, pc, lsr r0
    b9d4:	0000003f 	andeq	r0, r0, pc, lsr r0
    b9d8:	0000003f 	andeq	r0, r0, pc, lsr r0
    b9dc:	0000003f 	andeq	r0, r0, pc, lsr r0
    b9e0:	0000003f 	andeq	r0, r0, pc, lsr r0
    b9e4:	0000003e 	andeq	r0, r0, lr, lsr r0
    b9e8:	0000003e 	andeq	r0, r0, lr, lsr r0
    b9ec:	0000003e 	andeq	r0, r0, lr, lsr r0
    b9f0:	0000003e 	andeq	r0, r0, lr, lsr r0
    b9f4:	0000003e 	andeq	r0, r0, lr, lsr r0
    b9f8:	0000003e 	andeq	r0, r0, lr, lsr r0
    b9fc:	0000003e 	andeq	r0, r0, lr, lsr r0
    ba00:	0000003e 	andeq	r0, r0, lr, lsr r0
    ba04:	0000003e 	andeq	r0, r0, lr, lsr r0
    ba08:	0000003e 	andeq	r0, r0, lr, lsr r0
    ba0c:	0000003e 	andeq	r0, r0, lr, lsr r0
    ba10:	0000003e 	andeq	r0, r0, lr, lsr r0
    ba14:	0000003e 	andeq	r0, r0, lr, lsr r0
    ba18:	0000003e 	andeq	r0, r0, lr, lsr r0
    ba1c:	0000003e 	andeq	r0, r0, lr, lsr r0
    ba20:	0000003e 	andeq	r0, r0, lr, lsr r0
    ba24:	0000003e 	andeq	r0, r0, lr, lsr r0
    ba28:	0000003d 	andeq	r0, r0, sp, lsr r0
    ba2c:	0000003d 	andeq	r0, r0, sp, lsr r0
    ba30:	0000003d 	andeq	r0, r0, sp, lsr r0
    ba34:	0000003d 	andeq	r0, r0, sp, lsr r0
    ba38:	0000003d 	andeq	r0, r0, sp, lsr r0
    ba3c:	0000003d 	andeq	r0, r0, sp, lsr r0
    ba40:	0000003d 	andeq	r0, r0, sp, lsr r0
    ba44:	0000003d 	andeq	r0, r0, sp, lsr r0
    ba48:	0000003d 	andeq	r0, r0, sp, lsr r0
    ba4c:	0000003d 	andeq	r0, r0, sp, lsr r0
    ba50:	0000003d 	andeq	r0, r0, sp, lsr r0
    ba54:	0000003d 	andeq	r0, r0, sp, lsr r0
    ba58:	0000003d 	andeq	r0, r0, sp, lsr r0
    ba5c:	0000003d 	andeq	r0, r0, sp, lsr r0
    ba60:	0000003c 	andeq	r0, r0, ip, lsr r0
    ba64:	0000003c 	andeq	r0, r0, ip, lsr r0
    ba68:	0000003c 	andeq	r0, r0, ip, lsr r0
    ba6c:	0000003c 	andeq	r0, r0, ip, lsr r0
    ba70:	0000003c 	andeq	r0, r0, ip, lsr r0
    ba74:	0000003c 	andeq	r0, r0, ip, lsr r0
    ba78:	0000003c 	andeq	r0, r0, ip, lsr r0
    ba7c:	0000003c 	andeq	r0, r0, ip, lsr r0
    ba80:	0000003c 	andeq	r0, r0, ip, lsr r0
    ba84:	0000003c 	andeq	r0, r0, ip, lsr r0
    ba88:	0000003c 	andeq	r0, r0, ip, lsr r0
    ba8c:	0000003b 	andeq	r0, r0, fp, lsr r0
    ba90:	0000003b 	andeq	r0, r0, fp, lsr r0
    ba94:	0000003b 	andeq	r0, r0, fp, lsr r0
    ba98:	0000003b 	andeq	r0, r0, fp, lsr r0
    ba9c:	0000003b 	andeq	r0, r0, fp, lsr r0
    baa0:	0000003b 	andeq	r0, r0, fp, lsr r0
    baa4:	0000003b 	andeq	r0, r0, fp, lsr r0
    baa8:	0000003b 	andeq	r0, r0, fp, lsr r0
    baac:	0000003b 	andeq	r0, r0, fp, lsr r0
    bab0:	0000003b 	andeq	r0, r0, fp, lsr r0
    bab4:	0000003a 	andeq	r0, r0, sl, lsr r0
    bab8:	0000003a 	andeq	r0, r0, sl, lsr r0
    babc:	0000003a 	andeq	r0, r0, sl, lsr r0
    bac0:	0000003a 	andeq	r0, r0, sl, lsr r0
    bac4:	0000003a 	andeq	r0, r0, sl, lsr r0
    bac8:	0000003a 	andeq	r0, r0, sl, lsr r0
    bacc:	0000003a 	andeq	r0, r0, sl, lsr r0
    bad0:	0000003a 	andeq	r0, r0, sl, lsr r0
    bad4:	0000003a 	andeq	r0, r0, sl, lsr r0
    bad8:	00000039 	andeq	r0, r0, r9, lsr r0
    badc:	00000039 	andeq	r0, r0, r9, lsr r0
    bae0:	00000039 	andeq	r0, r0, r9, lsr r0
    bae4:	00000039 	andeq	r0, r0, r9, lsr r0
    bae8:	00000039 	andeq	r0, r0, r9, lsr r0
    baec:	00000039 	andeq	r0, r0, r9, lsr r0
    baf0:	00000039 	andeq	r0, r0, r9, lsr r0
    baf4:	00000039 	andeq	r0, r0, r9, lsr r0
    baf8:	00000038 	andeq	r0, r0, r8, lsr r0
    bafc:	00000038 	andeq	r0, r0, r8, lsr r0
    bb00:	00000038 	andeq	r0, r0, r8, lsr r0
    bb04:	00000038 	andeq	r0, r0, r8, lsr r0
    bb08:	00000038 	andeq	r0, r0, r8, lsr r0
    bb0c:	00000038 	andeq	r0, r0, r8, lsr r0
    bb10:	00000038 	andeq	r0, r0, r8, lsr r0
    bb14:	00000038 	andeq	r0, r0, r8, lsr r0
    bb18:	00000037 	andeq	r0, r0, r7, lsr r0
    bb1c:	00000037 	andeq	r0, r0, r7, lsr r0
    bb20:	00000037 	andeq	r0, r0, r7, lsr r0
    bb24:	00000037 	andeq	r0, r0, r7, lsr r0
    bb28:	00000037 	andeq	r0, r0, r7, lsr r0
    bb2c:	00000037 	andeq	r0, r0, r7, lsr r0
    bb30:	00000037 	andeq	r0, r0, r7, lsr r0
    bb34:	00000037 	andeq	r0, r0, r7, lsr r0
    bb38:	00000036 	andeq	r0, r0, r6, lsr r0
    bb3c:	00000036 	andeq	r0, r0, r6, lsr r0
    bb40:	00000036 	andeq	r0, r0, r6, lsr r0
    bb44:	00000036 	andeq	r0, r0, r6, lsr r0
    bb48:	00000036 	andeq	r0, r0, r6, lsr r0
    bb4c:	00000036 	andeq	r0, r0, r6, lsr r0
    bb50:	00000036 	andeq	r0, r0, r6, lsr r0
    bb54:	00000035 	andeq	r0, r0, r5, lsr r0
    bb58:	00000035 	andeq	r0, r0, r5, lsr r0
    bb5c:	00000035 	andeq	r0, r0, r5, lsr r0
    bb60:	00000035 	andeq	r0, r0, r5, lsr r0
    bb64:	00000035 	andeq	r0, r0, r5, lsr r0
    bb68:	00000035 	andeq	r0, r0, r5, lsr r0
    bb6c:	00000035 	andeq	r0, r0, r5, lsr r0
    bb70:	00000034 	andeq	r0, r0, r4, lsr r0
    bb74:	00000034 	andeq	r0, r0, r4, lsr r0
    bb78:	00000034 	andeq	r0, r0, r4, lsr r0
    bb7c:	00000034 	andeq	r0, r0, r4, lsr r0
    bb80:	00000034 	andeq	r0, r0, r4, lsr r0
    bb84:	00000034 	andeq	r0, r0, r4, lsr r0
    bb88:	00000033 	andeq	r0, r0, r3, lsr r0
    bb8c:	00000033 	andeq	r0, r0, r3, lsr r0
    bb90:	00000033 	andeq	r0, r0, r3, lsr r0
    bb94:	00000033 	andeq	r0, r0, r3, lsr r0
    bb98:	00000033 	andeq	r0, r0, r3, lsr r0
    bb9c:	00000033 	andeq	r0, r0, r3, lsr r0
    bba0:	00000033 	andeq	r0, r0, r3, lsr r0
    bba4:	00000032 	andeq	r0, r0, r2, lsr r0
    bba8:	00000032 	andeq	r0, r0, r2, lsr r0
    bbac:	00000032 	andeq	r0, r0, r2, lsr r0
    bbb0:	00000032 	andeq	r0, r0, r2, lsr r0
    bbb4:	00000032 	andeq	r0, r0, r2, lsr r0
    bbb8:	00000032 	andeq	r0, r0, r2, lsr r0
    bbbc:	00000031 	andeq	r0, r0, r1, lsr r0
    bbc0:	00000031 	andeq	r0, r0, r1, lsr r0
    bbc4:	00000031 	andeq	r0, r0, r1, lsr r0
    bbc8:	00000031 	andeq	r0, r0, r1, lsr r0
    bbcc:	00000031 	andeq	r0, r0, r1, lsr r0
    bbd0:	00000031 	andeq	r0, r0, r1, lsr r0
    bbd4:	00000030 	andeq	r0, r0, r0, lsr r0
    bbd8:	00000030 	andeq	r0, r0, r0, lsr r0
    bbdc:	00000030 	andeq	r0, r0, r0, lsr r0
    bbe0:	00000030 	andeq	r0, r0, r0, lsr r0
    bbe4:	00000030 	andeq	r0, r0, r0, lsr r0
    bbe8:	00000030 	andeq	r0, r0, r0, lsr r0
    bbec:	0000002f 	andeq	r0, r0, pc, lsr #32
    bbf0:	0000002f 	andeq	r0, r0, pc, lsr #32
    bbf4:	0000002f 	andeq	r0, r0, pc, lsr #32
    bbf8:	0000002f 	andeq	r0, r0, pc, lsr #32
    bbfc:	0000002f 	andeq	r0, r0, pc, lsr #32
    bc00:	0000002f 	andeq	r0, r0, pc, lsr #32
    bc04:	0000002e 	andeq	r0, r0, lr, lsr #32
    bc08:	0000002e 	andeq	r0, r0, lr, lsr #32
    bc0c:	0000002e 	andeq	r0, r0, lr, lsr #32
    bc10:	0000002e 	andeq	r0, r0, lr, lsr #32
    bc14:	0000002e 	andeq	r0, r0, lr, lsr #32
    bc18:	0000002e 	andeq	r0, r0, lr, lsr #32
    bc1c:	0000002d 	andeq	r0, r0, sp, lsr #32
    bc20:	0000002d 	andeq	r0, r0, sp, lsr #32
    bc24:	0000002d 	andeq	r0, r0, sp, lsr #32
    bc28:	0000002d 	andeq	r0, r0, sp, lsr #32
    bc2c:	0000002d 	andeq	r0, r0, sp, lsr #32
    bc30:	0000002c 	andeq	r0, r0, ip, lsr #32
    bc34:	0000002c 	andeq	r0, r0, ip, lsr #32
    bc38:	0000002c 	andeq	r0, r0, ip, lsr #32
    bc3c:	0000002c 	andeq	r0, r0, ip, lsr #32
    bc40:	0000002c 	andeq	r0, r0, ip, lsr #32
    bc44:	0000002c 	andeq	r0, r0, ip, lsr #32
    bc48:	0000002b 	andeq	r0, r0, fp, lsr #32
    bc4c:	0000002b 	andeq	r0, r0, fp, lsr #32
    bc50:	0000002b 	andeq	r0, r0, fp, lsr #32
    bc54:	0000002b 	andeq	r0, r0, fp, lsr #32
    bc58:	0000002b 	andeq	r0, r0, fp, lsr #32
    bc5c:	0000002a 	andeq	r0, r0, sl, lsr #32
    bc60:	0000002a 	andeq	r0, r0, sl, lsr #32
    bc64:	0000002a 	andeq	r0, r0, sl, lsr #32
    bc68:	0000002a 	andeq	r0, r0, sl, lsr #32
    bc6c:	0000002a 	andeq	r0, r0, sl, lsr #32
    bc70:	0000002a 	andeq	r0, r0, sl, lsr #32
    bc74:	00000029 	andeq	r0, r0, r9, lsr #32
    bc78:	00000029 	andeq	r0, r0, r9, lsr #32
    bc7c:	00000029 	andeq	r0, r0, r9, lsr #32
    bc80:	00000029 	andeq	r0, r0, r9, lsr #32
    bc84:	00000029 	andeq	r0, r0, r9, lsr #32
    bc88:	00000028 	andeq	r0, r0, r8, lsr #32
    bc8c:	00000028 	andeq	r0, r0, r8, lsr #32
    bc90:	00000028 	andeq	r0, r0, r8, lsr #32
    bc94:	00000028 	andeq	r0, r0, r8, lsr #32
    bc98:	00000028 	andeq	r0, r0, r8, lsr #32
    bc9c:	00000027 	andeq	r0, r0, r7, lsr #32
    bca0:	00000027 	andeq	r0, r0, r7, lsr #32
    bca4:	00000027 	andeq	r0, r0, r7, lsr #32
    bca8:	00000027 	andeq	r0, r0, r7, lsr #32
    bcac:	00000027 	andeq	r0, r0, r7, lsr #32
    bcb0:	00000027 	andeq	r0, r0, r7, lsr #32
    bcb4:	00000026 	andeq	r0, r0, r6, lsr #32
    bcb8:	00000026 	andeq	r0, r0, r6, lsr #32
    bcbc:	00000026 	andeq	r0, r0, r6, lsr #32
    bcc0:	00000026 	andeq	r0, r0, r6, lsr #32
    bcc4:	00000026 	andeq	r0, r0, r6, lsr #32
    bcc8:	00000025 	andeq	r0, r0, r5, lsr #32
    bccc:	00000025 	andeq	r0, r0, r5, lsr #32
    bcd0:	00000025 	andeq	r0, r0, r5, lsr #32
    bcd4:	00000025 	andeq	r0, r0, r5, lsr #32
    bcd8:	00000025 	andeq	r0, r0, r5, lsr #32
    bcdc:	00000024 	andeq	r0, r0, r4, lsr #32
    bce0:	00000024 	andeq	r0, r0, r4, lsr #32
    bce4:	00000024 	andeq	r0, r0, r4, lsr #32
    bce8:	00000024 	andeq	r0, r0, r4, lsr #32
    bcec:	00000024 	andeq	r0, r0, r4, lsr #32
    bcf0:	00000023 	andeq	r0, r0, r3, lsr #32
    bcf4:	00000023 	andeq	r0, r0, r3, lsr #32
    bcf8:	00000023 	andeq	r0, r0, r3, lsr #32
    bcfc:	00000023 	andeq	r0, r0, r3, lsr #32
    bd00:	00000023 	andeq	r0, r0, r3, lsr #32
    bd04:	00000022 	andeq	r0, r0, r2, lsr #32
    bd08:	00000022 	andeq	r0, r0, r2, lsr #32
    bd0c:	00000022 	andeq	r0, r0, r2, lsr #32
    bd10:	00000022 	andeq	r0, r0, r2, lsr #32
    bd14:	00000022 	andeq	r0, r0, r2, lsr #32
    bd18:	00000021 	andeq	r0, r0, r1, lsr #32
    bd1c:	00000021 	andeq	r0, r0, r1, lsr #32
    bd20:	00000021 	andeq	r0, r0, r1, lsr #32
    bd24:	00000021 	andeq	r0, r0, r1, lsr #32
    bd28:	00000021 	andeq	r0, r0, r1, lsr #32
    bd2c:	00000020 	andeq	r0, r0, r0, lsr #32
    bd30:	00000020 	andeq	r0, r0, r0, lsr #32
    bd34:	00000020 	andeq	r0, r0, r0, lsr #32
    bd38:	00000020 	andeq	r0, r0, r0, lsr #32
    bd3c:	00000020 	andeq	r0, r0, r0, lsr #32
    bd40:	0000001f 	andeq	r0, r0, pc, lsl r0
    bd44:	0000001f 	andeq	r0, r0, pc, lsl r0
    bd48:	0000001f 	andeq	r0, r0, pc, lsl r0
    bd4c:	0000001f 	andeq	r0, r0, pc, lsl r0
    bd50:	0000001f 	andeq	r0, r0, pc, lsl r0
    bd54:	0000001f 	andeq	r0, r0, pc, lsl r0
    bd58:	0000001e 	andeq	r0, r0, lr, lsl r0
    bd5c:	0000001e 	andeq	r0, r0, lr, lsl r0
    bd60:	0000001e 	andeq	r0, r0, lr, lsl r0
    bd64:	0000001e 	andeq	r0, r0, lr, lsl r0
    bd68:	0000001e 	andeq	r0, r0, lr, lsl r0
    bd6c:	0000001d 	andeq	r0, r0, sp, lsl r0
    bd70:	0000001d 	andeq	r0, r0, sp, lsl r0
    bd74:	0000001d 	andeq	r0, r0, sp, lsl r0
    bd78:	0000001d 	andeq	r0, r0, sp, lsl r0
    bd7c:	0000001d 	andeq	r0, r0, sp, lsl r0
    bd80:	0000001c 	andeq	r0, r0, ip, lsl r0
    bd84:	0000001c 	andeq	r0, r0, ip, lsl r0
    bd88:	0000001c 	andeq	r0, r0, ip, lsl r0
    bd8c:	0000001c 	andeq	r0, r0, ip, lsl r0
    bd90:	0000001c 	andeq	r0, r0, ip, lsl r0
    bd94:	0000001b 	andeq	r0, r0, fp, lsl r0
    bd98:	0000001b 	andeq	r0, r0, fp, lsl r0
    bd9c:	0000001b 	andeq	r0, r0, fp, lsl r0
    bda0:	0000001b 	andeq	r0, r0, fp, lsl r0
    bda4:	0000001b 	andeq	r0, r0, fp, lsl r0
    bda8:	0000001a 	andeq	r0, r0, sl, lsl r0
    bdac:	0000001a 	andeq	r0, r0, sl, lsl r0
    bdb0:	0000001a 	andeq	r0, r0, sl, lsl r0
    bdb4:	0000001a 	andeq	r0, r0, sl, lsl r0
    bdb8:	0000001a 	andeq	r0, r0, sl, lsl r0
    bdbc:	00000019 	andeq	r0, r0, r9, lsl r0
    bdc0:	00000019 	andeq	r0, r0, r9, lsl r0
    bdc4:	00000019 	andeq	r0, r0, r9, lsl r0
    bdc8:	00000019 	andeq	r0, r0, r9, lsl r0
    bdcc:	00000019 	andeq	r0, r0, r9, lsl r0
    bdd0:	00000018 	andeq	r0, r0, r8, lsl r0
    bdd4:	00000018 	andeq	r0, r0, r8, lsl r0
    bdd8:	00000018 	andeq	r0, r0, r8, lsl r0
    bddc:	00000018 	andeq	r0, r0, r8, lsl r0
    bde0:	00000018 	andeq	r0, r0, r8, lsl r0
    bde4:	00000018 	andeq	r0, r0, r8, lsl r0
    bde8:	00000017 	andeq	r0, r0, r7, lsl r0
    bdec:	00000017 	andeq	r0, r0, r7, lsl r0
    bdf0:	00000017 	andeq	r0, r0, r7, lsl r0
    bdf4:	00000017 	andeq	r0, r0, r7, lsl r0
    bdf8:	00000017 	andeq	r0, r0, r7, lsl r0
    bdfc:	00000016 	andeq	r0, r0, r6, lsl r0
    be00:	00000016 	andeq	r0, r0, r6, lsl r0
    be04:	00000016 	andeq	r0, r0, r6, lsl r0
    be08:	00000016 	andeq	r0, r0, r6, lsl r0
    be0c:	00000016 	andeq	r0, r0, r6, lsl r0
    be10:	00000015 	andeq	r0, r0, r5, lsl r0
    be14:	00000015 	andeq	r0, r0, r5, lsl r0
    be18:	00000015 	andeq	r0, r0, r5, lsl r0
    be1c:	00000015 	andeq	r0, r0, r5, lsl r0
    be20:	00000015 	andeq	r0, r0, r5, lsl r0
    be24:	00000015 	andeq	r0, r0, r5, lsl r0
    be28:	00000014 	andeq	r0, r0, r4, lsl r0
    be2c:	00000014 	andeq	r0, r0, r4, lsl r0
    be30:	00000014 	andeq	r0, r0, r4, lsl r0
    be34:	00000014 	andeq	r0, r0, r4, lsl r0
    be38:	00000014 	andeq	r0, r0, r4, lsl r0
    be3c:	00000013 	andeq	r0, r0, r3, lsl r0
    be40:	00000013 	andeq	r0, r0, r3, lsl r0
    be44:	00000013 	andeq	r0, r0, r3, lsl r0
    be48:	00000013 	andeq	r0, r0, r3, lsl r0
    be4c:	00000013 	andeq	r0, r0, r3, lsl r0
    be50:	00000013 	andeq	r0, r0, r3, lsl r0
    be54:	00000012 	andeq	r0, r0, r2, lsl r0
    be58:	00000012 	andeq	r0, r0, r2, lsl r0
    be5c:	00000012 	andeq	r0, r0, r2, lsl r0
    be60:	00000012 	andeq	r0, r0, r2, lsl r0
    be64:	00000012 	andeq	r0, r0, r2, lsl r0
    be68:	00000011 	andeq	r0, r0, r1, lsl r0
    be6c:	00000011 	andeq	r0, r0, r1, lsl r0
    be70:	00000011 	andeq	r0, r0, r1, lsl r0
    be74:	00000011 	andeq	r0, r0, r1, lsl r0
    be78:	00000011 	andeq	r0, r0, r1, lsl r0
    be7c:	00000011 	andeq	r0, r0, r1, lsl r0
    be80:	00000010 	andeq	r0, r0, r0, lsl r0
    be84:	00000010 	andeq	r0, r0, r0, lsl r0
    be88:	00000010 	andeq	r0, r0, r0, lsl r0
    be8c:	00000010 	andeq	r0, r0, r0, lsl r0
    be90:	00000010 	andeq	r0, r0, r0, lsl r0
    be94:	00000010 	andeq	r0, r0, r0, lsl r0
    be98:	0000000f 	andeq	r0, r0, pc
    be9c:	0000000f 	andeq	r0, r0, pc
    bea0:	0000000f 	andeq	r0, r0, pc
    bea4:	0000000f 	andeq	r0, r0, pc
    bea8:	0000000f 	andeq	r0, r0, pc
    beac:	0000000f 	andeq	r0, r0, pc
    beb0:	0000000e 	andeq	r0, r0, lr
    beb4:	0000000e 	andeq	r0, r0, lr
    beb8:	0000000e 	andeq	r0, r0, lr
    bebc:	0000000e 	andeq	r0, r0, lr
    bec0:	0000000e 	andeq	r0, r0, lr
    bec4:	0000000e 	andeq	r0, r0, lr
    bec8:	0000000d 	andeq	r0, r0, sp
    becc:	0000000d 	andeq	r0, r0, sp
    bed0:	0000000d 	andeq	r0, r0, sp
    bed4:	0000000d 	andeq	r0, r0, sp
    bed8:	0000000d 	andeq	r0, r0, sp
    bedc:	0000000d 	andeq	r0, r0, sp
    bee0:	0000000c 	andeq	r0, r0, ip
    bee4:	0000000c 	andeq	r0, r0, ip
    bee8:	0000000c 	andeq	r0, r0, ip
    beec:	0000000c 	andeq	r0, r0, ip
    bef0:	0000000c 	andeq	r0, r0, ip
    bef4:	0000000c 	andeq	r0, r0, ip
    bef8:	0000000c 	andeq	r0, r0, ip
    befc:	0000000b 	andeq	r0, r0, fp
    bf00:	0000000b 	andeq	r0, r0, fp
    bf04:	0000000b 	andeq	r0, r0, fp
    bf08:	0000000b 	andeq	r0, r0, fp
    bf0c:	0000000b 	andeq	r0, r0, fp
    bf10:	0000000b 	andeq	r0, r0, fp
    bf14:	0000000a 	andeq	r0, r0, sl
    bf18:	0000000a 	andeq	r0, r0, sl
    bf1c:	0000000a 	andeq	r0, r0, sl
    bf20:	0000000a 	andeq	r0, r0, sl
    bf24:	0000000a 	andeq	r0, r0, sl
    bf28:	0000000a 	andeq	r0, r0, sl
    bf2c:	0000000a 	andeq	r0, r0, sl
    bf30:	00000009 	andeq	r0, r0, r9
    bf34:	00000009 	andeq	r0, r0, r9
    bf38:	00000009 	andeq	r0, r0, r9
    bf3c:	00000009 	andeq	r0, r0, r9
    bf40:	00000009 	andeq	r0, r0, r9
    bf44:	00000009 	andeq	r0, r0, r9
    bf48:	00000009 	andeq	r0, r0, r9
    bf4c:	00000008 	andeq	r0, r0, r8
    bf50:	00000008 	andeq	r0, r0, r8
    bf54:	00000008 	andeq	r0, r0, r8
    bf58:	00000008 	andeq	r0, r0, r8
    bf5c:	00000008 	andeq	r0, r0, r8
    bf60:	00000008 	andeq	r0, r0, r8
    bf64:	00000008 	andeq	r0, r0, r8
    bf68:	00000008 	andeq	r0, r0, r8
    bf6c:	00000007 	andeq	r0, r0, r7
    bf70:	00000007 	andeq	r0, r0, r7
    bf74:	00000007 	andeq	r0, r0, r7
    bf78:	00000007 	andeq	r0, r0, r7
    bf7c:	00000007 	andeq	r0, r0, r7
    bf80:	00000007 	andeq	r0, r0, r7
    bf84:	00000007 	andeq	r0, r0, r7
    bf88:	00000007 	andeq	r0, r0, r7
    bf8c:	00000006 	andeq	r0, r0, r6
    bf90:	00000006 	andeq	r0, r0, r6
    bf94:	00000006 	andeq	r0, r0, r6
    bf98:	00000006 	andeq	r0, r0, r6
    bf9c:	00000006 	andeq	r0, r0, r6
    bfa0:	00000006 	andeq	r0, r0, r6
    bfa4:	00000006 	andeq	r0, r0, r6
    bfa8:	00000006 	andeq	r0, r0, r6
    bfac:	00000005 	andeq	r0, r0, r5
    bfb0:	00000005 	andeq	r0, r0, r5
    bfb4:	00000005 	andeq	r0, r0, r5
    bfb8:	00000005 	andeq	r0, r0, r5
    bfbc:	00000005 	andeq	r0, r0, r5
    bfc0:	00000005 	andeq	r0, r0, r5
    bfc4:	00000005 	andeq	r0, r0, r5
    bfc8:	00000005 	andeq	r0, r0, r5
    bfcc:	00000005 	andeq	r0, r0, r5
    bfd0:	00000004 	andeq	r0, r0, r4
    bfd4:	00000004 	andeq	r0, r0, r4
    bfd8:	00000004 	andeq	r0, r0, r4
    bfdc:	00000004 	andeq	r0, r0, r4
    bfe0:	00000004 	andeq	r0, r0, r4
    bfe4:	00000004 	andeq	r0, r0, r4
    bfe8:	00000004 	andeq	r0, r0, r4
    bfec:	00000004 	andeq	r0, r0, r4
    bff0:	00000004 	andeq	r0, r0, r4
    bff4:	00000004 	andeq	r0, r0, r4
    bff8:	00000003 	andeq	r0, r0, r3
    bffc:	00000003 	andeq	r0, r0, r3
    c000:	00000003 	andeq	r0, r0, r3
    c004:	00000003 	andeq	r0, r0, r3
    c008:	00000003 	andeq	r0, r0, r3
    c00c:	00000003 	andeq	r0, r0, r3
    c010:	00000003 	andeq	r0, r0, r3
    c014:	00000003 	andeq	r0, r0, r3
    c018:	00000003 	andeq	r0, r0, r3
    c01c:	00000003 	andeq	r0, r0, r3
    c020:	00000003 	andeq	r0, r0, r3
    c024:	00000002 	andeq	r0, r0, r2
    c028:	00000002 	andeq	r0, r0, r2
    c02c:	00000002 	andeq	r0, r0, r2
    c030:	00000002 	andeq	r0, r0, r2
    c034:	00000002 	andeq	r0, r0, r2
    c038:	00000002 	andeq	r0, r0, r2
    c03c:	00000002 	andeq	r0, r0, r2
    c040:	00000002 	andeq	r0, r0, r2
    c044:	00000002 	andeq	r0, r0, r2
    c048:	00000002 	andeq	r0, r0, r2
    c04c:	00000002 	andeq	r0, r0, r2
    c050:	00000002 	andeq	r0, r0, r2
    c054:	00000002 	andeq	r0, r0, r2
    c058:	00000002 	andeq	r0, r0, r2
    c05c:	00000001 	andeq	r0, r0, r1
    c060:	00000001 	andeq	r0, r0, r1
    c064:	00000001 	andeq	r0, r0, r1
    c068:	00000001 	andeq	r0, r0, r1
    c06c:	00000001 	andeq	r0, r0, r1
    c070:	00000001 	andeq	r0, r0, r1
    c074:	00000001 	andeq	r0, r0, r1
    c078:	00000001 	andeq	r0, r0, r1
    c07c:	00000001 	andeq	r0, r0, r1
    c080:	00000001 	andeq	r0, r0, r1
    c084:	00000001 	andeq	r0, r0, r1
    c088:	00000001 	andeq	r0, r0, r1
    c08c:	00000001 	andeq	r0, r0, r1
    c090:	00000001 	andeq	r0, r0, r1
    c094:	00000001 	andeq	r0, r0, r1
    c098:	00000001 	andeq	r0, r0, r1
    c09c:	00000001 	andeq	r0, r0, r1
	...
    c1e4:	00000001 	andeq	r0, r0, r1
    c1e8:	00000001 	andeq	r0, r0, r1
    c1ec:	00000001 	andeq	r0, r0, r1
    c1f0:	00000001 	andeq	r0, r0, r1
    c1f4:	00000001 	andeq	r0, r0, r1
    c1f8:	00000001 	andeq	r0, r0, r1
    c1fc:	00000001 	andeq	r0, r0, r1
    c200:	00000001 	andeq	r0, r0, r1
    c204:	00000001 	andeq	r0, r0, r1
    c208:	00000001 	andeq	r0, r0, r1
    c20c:	00000001 	andeq	r0, r0, r1
    c210:	00000001 	andeq	r0, r0, r1
    c214:	00000001 	andeq	r0, r0, r1
    c218:	00000001 	andeq	r0, r0, r1
    c21c:	00000001 	andeq	r0, r0, r1
    c220:	00000001 	andeq	r0, r0, r1
    c224:	00000001 	andeq	r0, r0, r1
    c228:	00000002 	andeq	r0, r0, r2
    c22c:	00000002 	andeq	r0, r0, r2
    c230:	00000002 	andeq	r0, r0, r2
    c234:	00000002 	andeq	r0, r0, r2
    c238:	00000002 	andeq	r0, r0, r2
    c23c:	00000002 	andeq	r0, r0, r2
    c240:	00000002 	andeq	r0, r0, r2
    c244:	00000002 	andeq	r0, r0, r2
    c248:	00000002 	andeq	r0, r0, r2
    c24c:	00000002 	andeq	r0, r0, r2
    c250:	00000002 	andeq	r0, r0, r2
    c254:	00000002 	andeq	r0, r0, r2
    c258:	00000002 	andeq	r0, r0, r2
    c25c:	00000002 	andeq	r0, r0, r2
    c260:	00000003 	andeq	r0, r0, r3
    c264:	00000003 	andeq	r0, r0, r3
    c268:	00000003 	andeq	r0, r0, r3
    c26c:	00000003 	andeq	r0, r0, r3
    c270:	00000003 	andeq	r0, r0, r3
    c274:	00000003 	andeq	r0, r0, r3
    c278:	00000003 	andeq	r0, r0, r3
    c27c:	00000003 	andeq	r0, r0, r3
    c280:	00000003 	andeq	r0, r0, r3
    c284:	00000003 	andeq	r0, r0, r3
    c288:	00000003 	andeq	r0, r0, r3
    c28c:	00000004 	andeq	r0, r0, r4
    c290:	00000004 	andeq	r0, r0, r4
    c294:	00000004 	andeq	r0, r0, r4
    c298:	00000004 	andeq	r0, r0, r4
    c29c:	00000004 	andeq	r0, r0, r4
    c2a0:	00000004 	andeq	r0, r0, r4
    c2a4:	00000004 	andeq	r0, r0, r4
    c2a8:	00000004 	andeq	r0, r0, r4
    c2ac:	00000004 	andeq	r0, r0, r4
    c2b0:	00000004 	andeq	r0, r0, r4
    c2b4:	00000005 	andeq	r0, r0, r5
    c2b8:	00000005 	andeq	r0, r0, r5
    c2bc:	00000005 	andeq	r0, r0, r5
    c2c0:	00000005 	andeq	r0, r0, r5
    c2c4:	00000005 	andeq	r0, r0, r5
    c2c8:	00000005 	andeq	r0, r0, r5
    c2cc:	00000005 	andeq	r0, r0, r5
    c2d0:	00000005 	andeq	r0, r0, r5
    c2d4:	00000005 	andeq	r0, r0, r5
    c2d8:	00000006 	andeq	r0, r0, r6
    c2dc:	00000006 	andeq	r0, r0, r6
    c2e0:	00000006 	andeq	r0, r0, r6
    c2e4:	00000006 	andeq	r0, r0, r6
    c2e8:	00000006 	andeq	r0, r0, r6
    c2ec:	00000006 	andeq	r0, r0, r6
    c2f0:	00000006 	andeq	r0, r0, r6
    c2f4:	00000006 	andeq	r0, r0, r6
    c2f8:	00000007 	andeq	r0, r0, r7
    c2fc:	00000007 	andeq	r0, r0, r7
    c300:	00000007 	andeq	r0, r0, r7
    c304:	00000007 	andeq	r0, r0, r7
    c308:	00000007 	andeq	r0, r0, r7
    c30c:	00000007 	andeq	r0, r0, r7
    c310:	00000007 	andeq	r0, r0, r7
    c314:	00000007 	andeq	r0, r0, r7
    c318:	00000008 	andeq	r0, r0, r8
    c31c:	00000008 	andeq	r0, r0, r8
    c320:	00000008 	andeq	r0, r0, r8
    c324:	00000008 	andeq	r0, r0, r8
    c328:	00000008 	andeq	r0, r0, r8
    c32c:	00000008 	andeq	r0, r0, r8
    c330:	00000008 	andeq	r0, r0, r8
    c334:	00000008 	andeq	r0, r0, r8
    c338:	00000009 	andeq	r0, r0, r9
    c33c:	00000009 	andeq	r0, r0, r9
    c340:	00000009 	andeq	r0, r0, r9
    c344:	00000009 	andeq	r0, r0, r9
    c348:	00000009 	andeq	r0, r0, r9
    c34c:	00000009 	andeq	r0, r0, r9
    c350:	00000009 	andeq	r0, r0, r9
    c354:	0000000a 	andeq	r0, r0, sl
    c358:	0000000a 	andeq	r0, r0, sl
    c35c:	0000000a 	andeq	r0, r0, sl
    c360:	0000000a 	andeq	r0, r0, sl
    c364:	0000000a 	andeq	r0, r0, sl
    c368:	0000000a 	andeq	r0, r0, sl
    c36c:	0000000a 	andeq	r0, r0, sl
    c370:	0000000b 	andeq	r0, r0, fp
    c374:	0000000b 	andeq	r0, r0, fp
    c378:	0000000b 	andeq	r0, r0, fp
    c37c:	0000000b 	andeq	r0, r0, fp
    c380:	0000000b 	andeq	r0, r0, fp
    c384:	0000000b 	andeq	r0, r0, fp
    c388:	0000000c 	andeq	r0, r0, ip
    c38c:	0000000c 	andeq	r0, r0, ip
    c390:	0000000c 	andeq	r0, r0, ip
    c394:	0000000c 	andeq	r0, r0, ip
    c398:	0000000c 	andeq	r0, r0, ip
    c39c:	0000000c 	andeq	r0, r0, ip
    c3a0:	0000000c 	andeq	r0, r0, ip
    c3a4:	0000000d 	andeq	r0, r0, sp
    c3a8:	0000000d 	andeq	r0, r0, sp
    c3ac:	0000000d 	andeq	r0, r0, sp
    c3b0:	0000000d 	andeq	r0, r0, sp
    c3b4:	0000000d 	andeq	r0, r0, sp
    c3b8:	0000000d 	andeq	r0, r0, sp
    c3bc:	0000000e 	andeq	r0, r0, lr
    c3c0:	0000000e 	andeq	r0, r0, lr
    c3c4:	0000000e 	andeq	r0, r0, lr
    c3c8:	0000000e 	andeq	r0, r0, lr
    c3cc:	0000000e 	andeq	r0, r0, lr
    c3d0:	0000000e 	andeq	r0, r0, lr
    c3d4:	0000000f 	andeq	r0, r0, pc
    c3d8:	0000000f 	andeq	r0, r0, pc
    c3dc:	0000000f 	andeq	r0, r0, pc
    c3e0:	0000000f 	andeq	r0, r0, pc
    c3e4:	0000000f 	andeq	r0, r0, pc
    c3e8:	0000000f 	andeq	r0, r0, pc
    c3ec:	00000010 	andeq	r0, r0, r0, lsl r0
    c3f0:	00000010 	andeq	r0, r0, r0, lsl r0
    c3f4:	00000010 	andeq	r0, r0, r0, lsl r0
    c3f8:	00000010 	andeq	r0, r0, r0, lsl r0
    c3fc:	00000010 	andeq	r0, r0, r0, lsl r0
    c400:	00000010 	andeq	r0, r0, r0, lsl r0
    c404:	00000011 	andeq	r0, r0, r1, lsl r0
    c408:	00000011 	andeq	r0, r0, r1, lsl r0
    c40c:	00000011 	andeq	r0, r0, r1, lsl r0
    c410:	00000011 	andeq	r0, r0, r1, lsl r0
    c414:	00000011 	andeq	r0, r0, r1, lsl r0
    c418:	00000011 	andeq	r0, r0, r1, lsl r0
    c41c:	00000012 	andeq	r0, r0, r2, lsl r0
    c420:	00000012 	andeq	r0, r0, r2, lsl r0
    c424:	00000012 	andeq	r0, r0, r2, lsl r0
    c428:	00000012 	andeq	r0, r0, r2, lsl r0
    c42c:	00000012 	andeq	r0, r0, r2, lsl r0
    c430:	00000013 	andeq	r0, r0, r3, lsl r0
    c434:	00000013 	andeq	r0, r0, r3, lsl r0
    c438:	00000013 	andeq	r0, r0, r3, lsl r0
    c43c:	00000013 	andeq	r0, r0, r3, lsl r0
    c440:	00000013 	andeq	r0, r0, r3, lsl r0
    c444:	00000013 	andeq	r0, r0, r3, lsl r0
    c448:	00000014 	andeq	r0, r0, r4, lsl r0
    c44c:	00000014 	andeq	r0, r0, r4, lsl r0
    c450:	00000014 	andeq	r0, r0, r4, lsl r0
    c454:	00000014 	andeq	r0, r0, r4, lsl r0
    c458:	00000014 	andeq	r0, r0, r4, lsl r0
    c45c:	00000015 	andeq	r0, r0, r5, lsl r0
    c460:	00000015 	andeq	r0, r0, r5, lsl r0
    c464:	00000015 	andeq	r0, r0, r5, lsl r0
    c468:	00000015 	andeq	r0, r0, r5, lsl r0
    c46c:	00000015 	andeq	r0, r0, r5, lsl r0
    c470:	00000015 	andeq	r0, r0, r5, lsl r0
    c474:	00000016 	andeq	r0, r0, r6, lsl r0
    c478:	00000016 	andeq	r0, r0, r6, lsl r0
    c47c:	00000016 	andeq	r0, r0, r6, lsl r0
    c480:	00000016 	andeq	r0, r0, r6, lsl r0
    c484:	00000016 	andeq	r0, r0, r6, lsl r0
    c488:	00000017 	andeq	r0, r0, r7, lsl r0
    c48c:	00000017 	andeq	r0, r0, r7, lsl r0
    c490:	00000017 	andeq	r0, r0, r7, lsl r0
    c494:	00000017 	andeq	r0, r0, r7, lsl r0
    c498:	00000017 	andeq	r0, r0, r7, lsl r0
    c49c:	00000018 	andeq	r0, r0, r8, lsl r0
    c4a0:	00000018 	andeq	r0, r0, r8, lsl r0
    c4a4:	00000018 	andeq	r0, r0, r8, lsl r0
    c4a8:	00000018 	andeq	r0, r0, r8, lsl r0
    c4ac:	00000018 	andeq	r0, r0, r8, lsl r0
    c4b0:	00000018 	andeq	r0, r0, r8, lsl r0
    c4b4:	00000019 	andeq	r0, r0, r9, lsl r0
    c4b8:	00000019 	andeq	r0, r0, r9, lsl r0
    c4bc:	00000019 	andeq	r0, r0, r9, lsl r0
    c4c0:	00000019 	andeq	r0, r0, r9, lsl r0
    c4c4:	00000019 	andeq	r0, r0, r9, lsl r0
    c4c8:	0000001a 	andeq	r0, r0, sl, lsl r0
    c4cc:	0000001a 	andeq	r0, r0, sl, lsl r0
    c4d0:	0000001a 	andeq	r0, r0, sl, lsl r0
    c4d4:	0000001a 	andeq	r0, r0, sl, lsl r0
    c4d8:	0000001a 	andeq	r0, r0, sl, lsl r0
    c4dc:	0000001b 	andeq	r0, r0, fp, lsl r0
    c4e0:	0000001b 	andeq	r0, r0, fp, lsl r0
    c4e4:	0000001b 	andeq	r0, r0, fp, lsl r0
    c4e8:	0000001b 	andeq	r0, r0, fp, lsl r0
    c4ec:	0000001b 	andeq	r0, r0, fp, lsl r0
    c4f0:	0000001c 	andeq	r0, r0, ip, lsl r0
    c4f4:	0000001c 	andeq	r0, r0, ip, lsl r0
    c4f8:	0000001c 	andeq	r0, r0, ip, lsl r0
    c4fc:	0000001c 	andeq	r0, r0, ip, lsl r0
    c500:	0000001c 	andeq	r0, r0, ip, lsl r0
    c504:	0000001d 	andeq	r0, r0, sp, lsl r0
    c508:	0000001d 	andeq	r0, r0, sp, lsl r0
    c50c:	0000001d 	andeq	r0, r0, sp, lsl r0
    c510:	0000001d 	andeq	r0, r0, sp, lsl r0
    c514:	0000001d 	andeq	r0, r0, sp, lsl r0
    c518:	0000001e 	andeq	r0, r0, lr, lsl r0
    c51c:	0000001e 	andeq	r0, r0, lr, lsl r0
    c520:	0000001e 	andeq	r0, r0, lr, lsl r0
    c524:	0000001e 	andeq	r0, r0, lr, lsl r0
    c528:	0000001e 	andeq	r0, r0, lr, lsl r0
    c52c:	0000001f 	andeq	r0, r0, pc, lsl r0
    c530:	0000001f 	andeq	r0, r0, pc, lsl r0
    c534:	0000001f 	andeq	r0, r0, pc, lsl r0
    c538:	0000001f 	andeq	r0, r0, pc, lsl r0
    c53c:	0000001f 	andeq	r0, r0, pc, lsl r0
    c540:	00000020 	andeq	r0, r0, r0, lsr #32

0000c544 <waveform_sine>:
    c544:	00000020 	andeq	r0, r0, r0, lsr #32
    c548:	00000023 	andeq	r0, r0, r3, lsr #32
    c54c:	00000026 	andeq	r0, r0, r6, lsr #32
    c550:	00000029 	andeq	r0, r0, r9, lsr #32
    c554:	0000002c 	andeq	r0, r0, ip, lsr #32
    c558:	0000002f 	andeq	r0, r0, pc, lsr #32
    c55c:	00000031 	andeq	r0, r0, r1, lsr r0
    c560:	00000034 	andeq	r0, r0, r4, lsr r0
    c564:	00000036 	andeq	r0, r0, r6, lsr r0
    c568:	00000038 	andeq	r0, r0, r8, lsr r0
    c56c:	0000003a 	andeq	r0, r0, sl, lsr r0
    c570:	0000003c 	andeq	r0, r0, ip, lsr r0
    c574:	0000003d 	andeq	r0, r0, sp, lsr r0
    c578:	0000003e 	andeq	r0, r0, lr, lsr r0
    c57c:	0000003f 	andeq	r0, r0, pc, lsr r0
    c580:	00000040 	andeq	r0, r0, r0, asr #32
    c584:	00000040 	andeq	r0, r0, r0, asr #32
    c588:	0000003f 	andeq	r0, r0, pc, lsr r0
    c58c:	0000003f 	andeq	r0, r0, pc, lsr r0
    c590:	0000003e 	andeq	r0, r0, lr, lsr r0
    c594:	0000003d 	andeq	r0, r0, sp, lsr r0
    c598:	0000003c 	andeq	r0, r0, ip, lsr r0
    c59c:	0000003a 	andeq	r0, r0, sl, lsr r0
    c5a0:	00000038 	andeq	r0, r0, r8, lsr r0
    c5a4:	00000036 	andeq	r0, r0, r6, lsr r0
    c5a8:	00000034 	andeq	r0, r0, r4, lsr r0
    c5ac:	00000031 	andeq	r0, r0, r1, lsr r0
    c5b0:	0000002f 	andeq	r0, r0, pc, lsr #32
    c5b4:	0000002c 	andeq	r0, r0, ip, lsr #32
    c5b8:	00000029 	andeq	r0, r0, r9, lsr #32
    c5bc:	00000026 	andeq	r0, r0, r6, lsr #32
    c5c0:	00000023 	andeq	r0, r0, r3, lsr #32
    c5c4:	00000020 	andeq	r0, r0, r0, lsr #32
    c5c8:	0000001d 	andeq	r0, r0, sp, lsl r0
    c5cc:	0000001a 	andeq	r0, r0, sl, lsl r0
    c5d0:	00000017 	andeq	r0, r0, r7, lsl r0
    c5d4:	00000014 	andeq	r0, r0, r4, lsl r0
    c5d8:	00000011 	andeq	r0, r0, r1, lsl r0
    c5dc:	0000000f 	andeq	r0, r0, pc
    c5e0:	0000000c 	andeq	r0, r0, ip
    c5e4:	0000000a 	andeq	r0, r0, sl
    c5e8:	00000008 	andeq	r0, r0, r8
    c5ec:	00000006 	andeq	r0, r0, r6
    c5f0:	00000004 	andeq	r0, r0, r4
    c5f4:	00000003 	andeq	r0, r0, r3
    c5f8:	00000002 	andeq	r0, r0, r2
    c5fc:	00000001 	andeq	r0, r0, r1
    c600:	00000001 	andeq	r0, r0, r1
    c604:	00000000 	andeq	r0, r0, r0
    c608:	00000001 	andeq	r0, r0, r1
    c60c:	00000001 	andeq	r0, r0, r1
    c610:	00000002 	andeq	r0, r0, r2
    c614:	00000003 	andeq	r0, r0, r3
    c618:	00000004 	andeq	r0, r0, r4
    c61c:	00000006 	andeq	r0, r0, r6
    c620:	00000008 	andeq	r0, r0, r8
    c624:	0000000a 	andeq	r0, r0, sl
    c628:	0000000c 	andeq	r0, r0, ip
    c62c:	0000000f 	andeq	r0, r0, pc
    c630:	00000011 	andeq	r0, r0, r1, lsl r0
    c634:	00000014 	andeq	r0, r0, r4, lsl r0
    c638:	00000017 	andeq	r0, r0, r7, lsl r0
    c63c:	0000001a 	andeq	r0, r0, sl, lsl r0
    c640:	0000001d 	andeq	r0, r0, sp, lsl r0
    c644:	00000020 	andeq	r0, r0, r0, lsr #32

0000c648 <spi>:
    c648:	20204000 	eorcs	r4, r0, r0

Disassembly of section .rodata:

0000c64c <SYSTIMERCLO>:
    c64c:	20003004 	andcs	r3, r0, r4

Disassembly of section .bss:

0000c650 <i>:
	...

0000c658 <increment_total>:
	...

0000c660 <waveform_square>:
	...

0000c760 <waveform_saw>:
	...

0000c860 <waveform_triangle>:
	...

Disassembly of section .debug_info:

00000000 <.debug_info>:
       0:	000002cc 	andeq	r0, r0, ip, asr #5
       4:	00000004 	andeq	r0, r0, r4
       8:	01040000 	mrseq	r0, (UNDEF: 4)
       c:	00000093 	muleq	r0, r3, r0
      10:	00005301 	andeq	r5, r0, r1, lsl #6
      14:	00006300 	andeq	r6, r0, r0, lsl #6
      18:	00801000 	addeq	r1, r0, r0
      1c:	00003000 	andeq	r3, r0, r0
      20:	00000000 	andeq	r0, r0, r0
      24:	05040200 	streq	r0, [r4, #-512]	; 0x200
      28:	00746e69 	rsbseq	r6, r4, r9, ror #28
      2c:	53070403 	movwpl	r0, #29699	; 0x7403
      30:	04000007 	streq	r0, [r0], #-7
      34:	4d160204 	lfmmi	f0, 4, [r6, #-16]
      38:	05000001 	streq	r0, [r0, #-1]
      3c:	d9003542 	stmdble	r0, {r1, r6, r8, sl, ip, sp}
      40:	41050683 	smlabbmi	r5, r3, r6, r0
      44:	b1007335 	tstlt	r0, r5, lsr r3
      48:	410505d8 	ldrdmi	r0, [r5, -r8]
      4c:	afc00035 	svcge	0x00c00035
      50:	35470505 	strbcc	r0, [r7, #-1285]	; 0x505
      54:	88f50073 	ldmhi	r5!, {r0, r1, r4, r5, r6}^
      58:	35470505 	strbcc	r0, [r7, #-1285]	; 0x505
      5c:	04e4bf00 	strbteq	fp, [r4], #3840	; 0xf00
      60:	73354605 	teqvc	r5, #5242880	; 0x500000
      64:	04c28f00 	strbeq	r8, [r2], #3840	; 0xf00
      68:	00354605 	eorseq	r4, r5, r5, lsl #12
      6c:	0504a1d6 	streq	sl, [r4, #-470]	; 0x1d6
      70:	86003545 	strhi	r3, [r0], -r5, asr #10
      74:	44050483 	strmi	r0, [r5], #-1155	; 0x483
      78:	91007335 	tstls	r0, r5, lsr r3
      7c:	440503e6 	strmi	r0, [r5], #-998	; 0x3e6
      80:	caed0035 	bgt	ffb4015c <__bss_end__+0xffb337fc>
      84:	35430503 	strbcc	r0, [r3, #-1283]	; 0x503
      88:	b18d0073 	orrlt	r0, sp, r3, ror r0
      8c:	35430503 	strbcc	r0, [r3, #-1283]	; 0x503
      90:	0398e500 	orrseq	lr, r8, #0, 10
      94:	00344205 	eorseq	r4, r4, r5, lsl #4
      98:	050381ec 	streq	r8, [r3, #-492]	; 0x1ec
      9c:	00733441 	rsbseq	r3, r3, r1, asr #8
      a0:	0502ec98 	streq	lr, [r2, #-3224]	; 0xc98
      a4:	e0003441 	and	r3, r0, r1, asr #8
      a8:	470502d7 			; <UNDEFINED> instruction: 0x470502d7
      ac:	ba007334 	blt	1cd84 <__bss_end__+0x10424>
      b0:	470502c4 	strmi	r0, [r5, -r4, asr #5]
      b4:	b2a00034 	adclt	r0, r0, #52	; 0x34
      b8:	34460502 	strbcc	r0, [r6], #-1282	; 0x502
      bc:	a1870073 	orrge	r0, r7, r3, ror r0
      c0:	34460502 	strbcc	r0, [r6], #-1282	; 0x502
      c4:	0290eb00 	addseq	lr, r0, #0, 22
      c8:	00344505 	eorseq	r4, r4, r5, lsl #10
      cc:	050281c3 	streq	r8, [r2, #-451]	; 0x1c3
      d0:	00733444 	rsbseq	r3, r3, r4, asr #8
      d4:	0501f389 	streq	pc, [r1, #-905]	; 0x389
      d8:	b6003444 	strlt	r3, [r0], -r4, asr #8
      dc:	430501e5 	movwmi	r0, #20965	; 0x51e5
      e0:	c6007334 			; <UNDEFINED> instruction: 0xc6007334
      e4:	430501d8 	movwmi	r0, #20952	; 0x51d8
      e8:	ccb30034 	ldcgt	0, cr0, [r3], #208	; 0xd0
      ec:	33420501 	movtcc	r0, #9473	; 0x2501
      f0:	01c0f600 	biceq	pc, r0, r0, lsl #12
      f4:	73334105 	teqvc	r3, #1073741825	; 0x40000001
      f8:	01b68c00 			; <UNDEFINED> instruction: 0x01b68c00
      fc:	00334105 	eorseq	r4, r3, r5, lsl #2
     100:	0501abf0 	streq	sl, [r1, #-3056]	; 0xbf0
     104:	00733347 	rsbseq	r3, r3, r7, asr #6
     108:	0501a29d 	streq	sl, [r1, #-669]	; 0x29d
     10c:	90003347 	andls	r3, r0, r7, asr #6
     110:	46050199 			; <UNDEFINED> instruction: 0x46050199
     114:	c4007333 	strgt	r7, [r0], #-819	; 0x333
     118:	46050190 			; <UNDEFINED> instruction: 0x46050190
     11c:	88b50033 	ldmhi	r5!, {r0, r1, r4, r5}
     120:	33450501 	movtcc	r0, #21761	; 0x5501
     124:	0180e100 	orreq	lr, r0, r0, lsl #2
     128:	73334405 	teqvc	r3, #83886080	; 0x5000000
     12c:	00f9c400 	rscseq	ip, r9, r0, lsl #8
     130:	00334405 	eorseq	r4, r3, r5, lsl #8
     134:	0500f2db 	streq	pc, [r0, #-731]	; 0x2db
     138:	00733343 	rsbseq	r3, r3, r3, asr #6
     13c:	0500eca3 	streq	lr, [r0, #-3235]	; 0xca3
     140:	9a003343 	bls	ce54 <__bss_end__+0x4f4>
     144:	5e0600e6 	cdppl	0, 0, cr0, cr6, cr6, {7}
     148:	00000000 	andeq	r0, r0, r0
     14c:	010d0700 	tsteq	sp, r0, lsl #14
     150:	41020000 	mrsmi	r0, (UNDEF: 2)
     154:	00000033 	andeq	r0, r0, r3, lsr r0
     158:	43020204 	movwmi	r0, #8708	; 0x2204
     15c:	0000018d 	andeq	r0, r0, sp, lsl #3
     160:	0000be06 	andeq	fp, r0, r6, lsl #28
     164:	0286c000 	addeq	ip, r6, #0
     168:	00004806 	andeq	r4, r0, r6, lsl #16
     16c:	0183a000 	orreq	sl, r3, r0
     170:	52545105 	subspl	r5, r4, #1073741825	; 0x40000001
     174:	00c1d000 	sbceq	sp, r1, r0
     178:	54494505 	strbpl	r4, [r9], #-1285	; 0x505
     17c:	0520e800 	streq	lr, [r0, #-2048]!	; 0x800
     180:	00584953 	subseq	r4, r8, r3, asr r9
     184:	0e0610b4 	mcreq	0, 0, r1, cr6, cr4, {5}
     188:	28000000 	stmdacs	r0, {}	; <UNPREDICTABLE>
     18c:	00c40700 	sbceq	r0, r4, r0, lsl #14
     190:	54020000 	strpl	r0, [r2], #-0
     194:	00000158 	andeq	r0, r0, r8, asr r1
     198:	56020808 	strpl	r0, [r2], -r8, lsl #16
     19c:	000001b9 			; <UNDEFINED> instruction: 0x000001b9
     1a0:	0001d509 	andeq	sp, r1, r9, lsl #10
     1a4:	4d570200 	lfmmi	f0, 2, [r7, #-0]
     1a8:	00000001 	andeq	r0, r0, r1
     1ac:	0008e909 	andeq	lr, r8, r9, lsl #18
     1b0:	8d580200 	lfmhi	f0, 2, [r8, #-0]
     1b4:	04000001 	streq	r0, [r0], #-1
     1b8:	00fd0700 	rscseq	r0, sp, r0, lsl #14
     1bc:	59020000 	stmdbpl	r2, {}	; <UNPREDICTABLE>
     1c0:	00000198 	muleq	r0, r8, r1
     1c4:	0e030408 	cdpeq	4, 0, cr0, cr3, cr8, {0}
     1c8:	000001e5 	andeq	r0, r0, r5, ror #3
     1cc:	0000cc09 	andeq	ip, r0, r9, lsl #24
     1d0:	250f0300 	strcs	r0, [pc, #-768]	; fffffed8 <__bss_end__+0xffff3578>
     1d4:	00000000 	andeq	r0, r0, r0
     1d8:	00004d09 	andeq	r4, r0, r9, lsl #26
     1dc:	e5100300 	ldr	r0, [r0, #-768]	; 0x300
     1e0:	04000001 	streq	r0, [r0], #-1
     1e4:	01b90a00 			; <UNDEFINED> instruction: 0x01b90a00
     1e8:	01f40000 	mvnseq	r0, r0
     1ec:	f40b0000 	vst4.8	{d0-d3}, [fp], r0
     1f0:	00000001 	andeq	r0, r0, r1
     1f4:	22070403 	andcs	r0, r7, #50331648	; 0x3000000
     1f8:	07000000 	streq	r0, [r0, -r0]
     1fc:	00000105 	andeq	r0, r0, r5, lsl #2
     200:	01c41103 	biceq	r1, r4, r3, lsl #2
     204:	2b0c0000 	blcs	30020c <__bss_end__+0x2f38ac>
     208:	01000000 	mrseq	r0, (UNDEF: 0)
     20c:	0080100c 	addeq	r1, r0, ip
     210:	00003000 	andeq	r3, r0, r0
     214:	4a9c0100 	bmi	fe70061c <__bss_end__+0xfe6f3cbc>
     218:	0d000002 	stceq	0, cr0, [r0, #-8]
     21c:	00008018 	andeq	r8, r0, r8, lsl r0
     220:	0000028f 	andeq	r0, r0, pc, lsl #5
     224:	00801c0d 	addeq	r1, r0, sp, lsl #24
     228:	00029c00 	andeq	r9, r2, r0, lsl #24
     22c:	80340e00 	eorshi	r0, r4, r0, lsl #28
     230:	02a90000 	adceq	r0, r9, #0
     234:	010f0000 	mrseq	r0, CPSR
     238:	a8030552 	stmdage	r3, {r1, r4, r6, r8, sl}
     23c:	0f0000a3 	svceq	0x000000a3
     240:	03055001 	movweq	r5, #20481	; 0x5001
     244:	0000a3ac 	andeq	sl, r0, ip, lsr #7
     248:	13100000 	tstne	r0, #0
     24c:	03000000 	movweq	r0, #0
     250:	0001fb15 	andeq	pc, r1, r5, lsl fp	; <UNPREDICTABLE>
     254:	1c030500 	cfstr32ne	mvfx0, [r3], {-0}
     258:	110000a4 	smlatbne	r0, r4, r0, r0
     25c:	000000ed 	andeq	r0, r0, sp, ror #1
     260:	01fb3803 	mvnseq	r3, r3, lsl #16
     264:	35110000 	ldrcc	r0, [r1, #-0]
     268:	03000000 	movweq	r0, #0
     26c:	0001fb8f 	andeq	pc, r1, pc, lsl #23
     270:	00301200 	eorseq	r1, r0, r0, lsl #4
     274:	6a030000 	bvs	c027c <__bss_end__+0xb391c>
     278:	0001fb01 	andeq	pc, r1, r1, lsl #22
     27c:	008d1300 	addeq	r1, sp, r0, lsl #6
     280:	43030000 	movwmi	r0, #12288	; 0x3000
     284:	0001fb02 	andeq	pc, r1, r2, lsl #22
     288:	a8030500 	stmdage	r3, {r8, sl}
     28c:	140000a3 	strne	r0, [r0], #-163	; 0xa3
     290:	000000e2 	andeq	r0, r0, r2, ror #1
     294:	029c5b02 	addseq	r5, ip, #2048	; 0x800
     298:	00150000 	andseq	r0, r5, r0
     29c:	0000d114 	andeq	sp, r0, r4, lsl r1
     2a0:	a9050400 	stmdbge	r5, {sl}
     2a4:	15000002 	strne	r0, [r0, #-2]
     2a8:	00001600 	andeq	r1, r0, r0, lsl #12
     2ac:	0d050000 	stceq	0, cr0, [r5, #-0]
     2b0:	000002c9 	andeq	r0, r0, r9, asr #5
     2b4:	0002c917 	andeq	ip, r2, r7, lsl r9
     2b8:	00251700 	eoreq	r1, r5, r0, lsl #14
     2bc:	c9170000 	ldmdbgt	r7, {}	; <UNPREDICTABLE>
     2c0:	17000002 	strne	r0, [r0, -r2]
     2c4:	00000025 	andeq	r0, r0, r5, lsr #32
     2c8:	b9041800 	stmdblt	r4, {fp, ip}
     2cc:	00000001 	andeq	r0, r0, r1
     2d0:	00000087 	andeq	r0, r0, r7, lsl #1
     2d4:	012d0004 	teqeq	sp, r4
     2d8:	01040000 	mrseq	r0, (UNDEF: 4)
     2dc:	00000093 	muleq	r0, r3, r0
     2e0:	00012901 	andeq	r2, r1, r1, lsl #18
     2e4:	00006300 	andeq	r6, r0, r0, lsl #6
     2e8:	00804000 	addeq	r4, r0, r0
     2ec:	00003800 	andeq	r3, r0, r0, lsl #16
     2f0:	00007700 	andeq	r7, r0, r0, lsl #14
     2f4:	01320200 	teqeq	r2, r0, lsl #4
     2f8:	06010000 	streq	r0, [r1], -r0
     2fc:	00008040 	andeq	r8, r0, r0, asr #32
     300:	00000038 	andeq	r0, r0, r8, lsr r0
     304:	005e9c01 	subseq	r9, lr, r1, lsl #24
     308:	62030000 	andvs	r0, r3, #0
     30c:	01007373 	tsteq	r0, r3, ror r3
     310:	00005e07 	andeq	r5, r0, r7, lsl #28
     314:	00000000 	andeq	r0, r0, r0
     318:	01210400 	teqeq	r1, r0, lsl #8
     31c:	08010000 	stmdaeq	r1, {}	; <UNPREDICTABLE>
     320:	0000005e 	andeq	r0, r0, lr, asr r0
     324:	00806805 	addeq	r6, r0, r5, lsl #16
     328:	00008100 	andeq	r8, r0, r0, lsl #2
     32c:	04060000 	streq	r0, [r6], #-0
     330:	00000064 	andeq	r0, r0, r4, rrx
     334:	69050407 	stmdbvs	r5, {r0, r1, r2, sl}
     338:	0800746e 	stmdaeq	r0, {r1, r2, r3, r5, r6, sl, ip, sp, lr}
     33c:	0000013a 	andeq	r0, r0, sl, lsr r1
     340:	00640101 	rsbeq	r0, r4, r1, lsl #2
     344:	15080000 	strne	r0, [r8, #-0]
     348:	01000001 	tsteq	r0, r1
     34c:	00006402 	andeq	r6, r0, r2, lsl #8
     350:	002b0900 	eoreq	r0, fp, r0, lsl #18
     354:	04010000 	streq	r0, [r1], #-0
     358:	8900000a 	stmdbhi	r0, {r1, r3}
     35c:	04000002 	streq	r0, [r0], #-2
     360:	0001b900 	andeq	fp, r1, r0, lsl #18
     364:	93010400 	movwls	r0, #5120	; 0x1400
     368:	01000000 	mrseq	r0, (UNDEF: 0)
     36c:	0000020b 	andeq	r0, r0, fp, lsl #4
     370:	00000063 	andeq	r0, r0, r3, rrx
     374:	00008078 	andeq	r8, r0, r8, ror r0
     378:	000002d0 	ldrdeq	r0, [r0], -r0	; <UNPREDICTABLE>
     37c:	000000b9 	strheq	r0, [r0], -r9
     380:	00021302 	andeq	r1, r2, r2, lsl #6
     384:	6c600100 	stfvse	f0, [r0], #-0
     388:	78000000 	stmdavc	r0, {}	; <UNPREDICTABLE>
     38c:	8c000080 	stchi	0, cr0, [r0], {128}	; 0x80
     390:	01000000 	mrseq	r0, (UNDEF: 0)
     394:	00006c9c 	muleq	r0, ip, ip
     398:	01e30300 	mvneq	r0, r0, lsl #6
     39c:	60010000 	andvs	r0, r1, r0
     3a0:	0000006c 	andeq	r0, r0, ip, rrx
     3a4:	00000020 	andeq	r0, r0, r0, lsr #32
     3a8:	00024004 	andeq	r4, r2, r4
     3ac:	6c690100 	stfvse	f0, [r9], #-0
     3b0:	4e000000 	cdpmi	0, 0, cr0, cr0, cr0, {0}
     3b4:	04000000 	streq	r0, [r0], #-0
     3b8:	000001fb 	strdeq	r0, [r0], -fp
     3bc:	006c6a01 	rsbeq	r6, ip, r1, lsl #20
     3c0:	006c0000 	rsbeq	r0, ip, r0
     3c4:	05000000 	streq	r0, [r0, #-0]
     3c8:	07530704 	ldrbeq	r0, [r3, -r4, lsl #14]
     3cc:	ca060000 	bgt	1803d4 <__bss_end__+0x173a74>
     3d0:	01000001 	tsteq	r0, r1
     3d4:	00810486 	addeq	r0, r1, r6, lsl #9
     3d8:	00014400 	andeq	r4, r1, r0, lsl #8
     3dc:	d99c0100 	ldmible	ip, {r8}
     3e0:	07000000 	streq	r0, [r0, -r0]
     3e4:	01007a68 	tsteq	r0, r8, ror #20
     3e8:	0000d986 	andeq	sp, r0, r6, lsl #19
     3ec:	0000c500 	andeq	ip, r0, r0, lsl #10
     3f0:	01a00300 	lsleq	r0, r0, #6
     3f4:	86010000 	strhi	r0, [r1], -r0
     3f8:	000000d9 	ldrdeq	r0, [r0], -r9
     3fc:	000000e6 	andeq	r0, r0, r6, ror #1
     400:	00015804 	andeq	r5, r1, r4, lsl #16
     404:	e08a0100 	add	r0, sl, r0, lsl #2
     408:	05000000 	streq	r0, [r0, #-0]
     40c:	04000001 	streq	r0, [r0], #-1
     410:	000001a7 	andeq	r0, r0, r7, lsr #3
     414:	00d98c01 	sbcseq	r8, r9, r1, lsl #24
     418:	01350000 	teqeq	r5, r0
     41c:	00080000 	andeq	r0, r8, r0
     420:	04000000 	streq	r0, [r0], #-0
     424:	000006a9 	andeq	r0, r0, r9, lsr #13
     428:	00d99001 	sbcseq	r9, r9, r1
     42c:	01540000 	cmpeq	r4, r0
     430:	00000000 	andeq	r0, r0, r0
     434:	69050409 	stmdbvs	r5, {r0, r3, sl}
     438:	0500746e 	streq	r7, [r0, #-1134]	; 0x46e
     43c:	01890408 	orreq	r0, r9, r8, lsl #8
     440:	e20a0000 	and	r0, sl, #0
     444:	01000000 	mrseq	r0, (UNDEF: 0)
     448:	008248a6 	addeq	r4, r2, r6, lsr #17
     44c:	0000fc00 	andeq	pc, r0, r0, lsl #24
     450:	6f9c0100 	svcvs	0x009c0100
     454:	0b000001 	bleq	460 <_start-0x7ba0>
     458:	a7010069 	strge	r0, [r1, -r9, rrx]
     45c:	000000d9 	ldrdeq	r0, [r0], -r9
     460:	00000167 	andeq	r0, r0, r7, ror #2
     464:	0082740c 	addeq	r7, r2, ip, lsl #8
     468:	00027f00 	andeq	r7, r2, r0, lsl #30
     46c:	00011e00 	andeq	r1, r1, r0, lsl #28
     470:	50010d00 	andpl	r0, r1, r0, lsl #26
     474:	07d00a03 	ldrbeq	r0, [r0, r3, lsl #20]
     478:	82cc0c00 	sbchi	r0, ip, #0, 24
     47c:	00250000 	eoreq	r0, r5, r0
     480:	01330000 	teqeq	r3, r0
     484:	010d0000 	mrseq	r0, (UNDEF: 13)
     488:	e80a0350 	stmda	sl, {r4, r6, r8, r9}
     48c:	ec0c0003 	stc	0, cr0, [ip], {3}
     490:	7f000082 	svcvc	0x00000082
     494:	48000002 	stmdami	r0, {r1}
     498:	0d000001 	stceq	0, cr0, [r0, #-4]
     49c:	0a035001 	beq	d44a8 <__bss_end__+0xc7b48>
     4a0:	0c0007d0 	stceq	7, cr0, [r0], {208}	; 0xd0
     4a4:	00008300 	andeq	r8, r0, r0, lsl #6
     4a8:	0000027f 	andeq	r0, r0, pc, ror r2
     4ac:	0000015d 	andeq	r0, r0, sp, asr r1
     4b0:	0350010d 	cmpeq	r0, #1073741827	; 0x40000003
     4b4:	0007d00a 	andeq	sp, r7, sl
     4b8:	0083200e 	addeq	r2, r3, lr
     4bc:	00027f00 	andeq	r7, r2, r0, lsl #30
     4c0:	50010d00 	andpl	r0, r1, r0, lsl #26
     4c4:	07d00a03 	ldrbeq	r0, [r0, r3, lsl #20]
     4c8:	230f0000 	movwcs	r0, #61440	; 0xf000
     4cc:	01000002 	tsteq	r0, r2
     4d0:	8344091d 	movthi	r0, #18717	; 0x491d
     4d4:	00040000 	andeq	r0, r4, r0
     4d8:	9c010000 	stcls	0, cr0, [r1], {-0}
     4dc:	0001c510 	andeq	ip, r1, r0, lsl r5
     4e0:	924a0100 	subls	r0, sl, #0, 2
     4e4:	05000001 	streq	r0, [r0, #-1]
     4e8:	00b53c03 	adcseq	r3, r5, r3, lsl #24
     4ec:	98041100 	stmdals	r4, {r8, ip}
     4f0:	12000001 	andne	r0, r0, #1
     4f4:	0000006c 	andeq	r0, r0, ip, rrx
     4f8:	6b6c6313 	blvs	1b1914c <__bss_end__+0x1b0c7ec>
     4fc:	924b0100 	subls	r0, fp, #0, 2
     500:	05000001 	streq	r0, [r0, #-1]
     504:	00a53003 	adceq	r3, r5, r3
     508:	77701300 	ldrbvc	r1, [r0, -r0, lsl #6]!
     50c:	4c01006d 	stcmi	0, cr0, [r1], {109}	; 0x6d
     510:	00000192 	muleq	r0, r2, r1
     514:	a5340305 	ldrge	r0, [r4, #-773]!	; 0x305
     518:	6c140000 	ldcvs	0, cr0, [r4], {-0}
     51c:	cf000000 	svcgt	0x00000000
     520:	15000001 	strne	r0, [r0, #-1]
     524:	000001cf 	andeq	r0, r0, pc, asr #3
     528:	0405003f 	streq	r0, [r5], #-63	; 0x3f
     52c:	00002207 	andeq	r2, r0, r7, lsl #4
     530:	01901000 	orrseq	r1, r0, r0
     534:	4f010000 	svcmi	0x00010000
     538:	000001bf 			; <UNDEFINED> instruction: 0x000001bf
     53c:	c6600305 	strbtgt	r0, [r0], -r5, lsl #6
     540:	77100000 	ldrvc	r0, [r0, -r0]
     544:	01000001 	tsteq	r0, r1
     548:	0001bf50 	andeq	fp, r1, r0, asr pc
     54c:	60030500 	andvs	r0, r3, r0, lsl #10
     550:	100000c8 	andne	r0, r0, r8, asr #1
     554:	00000233 	andeq	r0, r0, r3, lsr r2
     558:	01bf5101 			; <UNDEFINED> instruction: 0x01bf5101
     55c:	03050000 	movweq	r0, #20480	; 0x5000
     560:	0000c760 	andeq	ip, r0, r0, ror #14
     564:	00006c14 	andeq	r6, r0, r4, lsl ip
     568:	00021900 	andeq	r1, r2, r0, lsl #18
     56c:	01cf1500 	biceq	r1, pc, r0, lsl #10
     570:	00400000 	subeq	r0, r0, r0
     574:	0001ed10 	andeq	lr, r1, r0, lsl sp
     578:	09d30100 	ldmibeq	r3, {r8}^
     57c:	05000002 	streq	r0, [r0, #-2]
     580:	00c54403 	sbceq	r4, r5, r3, lsl #8
     584:	006c1400 	rsbeq	r1, ip, r0, lsl #8
     588:	023b0000 	eorseq	r0, fp, #0
     58c:	cf160000 	svcgt	0x00160000
     590:	00000001 	andeq	r0, r0, r1
     594:	62170004 	andsvs	r0, r7, #4
     598:	01000001 	tsteq	r0, r1
     59c:	022a0519 	eoreq	r0, sl, #104857600	; 0x6400000
     5a0:	03050000 	movweq	r0, #20480	; 0x5000
     5a4:	0000b540 	andeq	fp, r0, r0, asr #10
     5a8:	0001ad17 	andeq	sl, r1, r7, lsl sp
     5ac:	01160100 	tsteq	r6, r0, lsl #2
     5b0:	0000022a 	andeq	r0, r0, sl, lsr #4
     5b4:	a5380305 	ldrge	r0, [r8, #-773]!	; 0x305
     5b8:	69130000 	ldmdbvs	r3, {}	; <UNPREDICTABLE>
     5bc:	d9830100 	stmible	r3, {r8}
     5c0:	05000000 	streq	r0, [r0, #-0]
     5c4:	00c65003 	sbceq	r5, r6, r3
     5c8:	01481000 	mrseq	r1, (UNDEF: 72)
     5cc:	84010000 	strhi	r0, [r1], #-0
     5d0:	000000e0 	andeq	r0, r0, r0, ror #1
     5d4:	c6580305 	ldrbgt	r0, [r8], -r5, lsl #6
     5d8:	da180000 	ble	6005e0 <__bss_end__+0x5f3c80>
     5dc:	02000001 	andeq	r0, r0, #1
     5e0:	006c190f 	rsbeq	r1, ip, pc, lsl #18
     5e4:	00000000 	andeq	r0, r0, r0
     5e8:	000000c8 	andeq	r0, r0, r8, asr #1
     5ec:	03240004 	teqeq	r4, #4
     5f0:	01040000 	mrseq	r0, (UNDEF: 4)
     5f4:	00000093 	muleq	r0, r3, r0
     5f8:	00025b01 	andeq	r5, r2, r1, lsl #22
     5fc:	00006300 	andeq	r6, r0, r0, lsl #6
     600:	00834800 	addeq	r4, r3, r0, lsl #16
     604:	00002000 	andeq	r2, r0, r0
     608:	00016e00 	andeq	r6, r1, r0, lsl #28
     60c:	05040200 	streq	r0, [r4, #-512]	; 0x200
     610:	00746e69 	rsbseq	r6, r4, r9, ror #28
     614:	00024d03 	andeq	r4, r2, r3, lsl #26
     618:	37d40200 	ldrbcc	r0, [r4, r0, lsl #4]
     61c:	04000000 	streq	r0, [r0], #-0
     620:	07530704 	ldrbeq	r0, [r3, -r4, lsl #14]
     624:	54050000 	strpl	r0, [r5], #-0
     628:	01000002 	tsteq	r0, r2
     62c:	0000250b 	andeq	r2, r0, fp, lsl #10
     630:	00834800 	addeq	r4, r3, r0, lsl #16
     634:	00002000 	andeq	r2, r0, r0
     638:	aa9c0100 	bge	fe700a40 <__bss_end__+0xfe6f40e0>
     63c:	06000000 	streq	r0, [r0], -r0
     640:	00747364 	rsbseq	r7, r4, r4, ror #6
     644:	00aa0b01 	adceq	r0, sl, r1, lsl #22
     648:	50010000 	andpl	r0, r1, r0
     64c:	63727306 	cmnvs	r2, #402653184	; 0x18000000
     650:	ac0b0100 	stfges	f0, [fp], {-0}
     654:	01000000 	mrseq	r0, (UNDEF: 0)
     658:	006e0651 	rsbeq	r0, lr, r1, asr r6
     65c:	002c0b01 	eoreq	r0, ip, r1, lsl #22
     660:	52010000 	andpl	r0, r1, #0
     664:	01006407 	tsteq	r0, r7, lsl #8
     668:	0000b30c 	andeq	fp, r0, ip, lsl #6
     66c:	07500100 	ldrbeq	r0, [r0, -r0, lsl #2]
     670:	0d010073 	stceq	0, cr0, [r1, #-460]	; 0xfffffe34
     674:	000000c0 	andeq	r0, r0, r0, asr #1
     678:	48085101 	stmdami	r8, {r0, r8, ip, lr}
     67c:	1c000083 	stcne	0, cr0, [r0], {131}	; 0x83
     680:	09000000 	stmdbeq	r0, {}	; <UNPREDICTABLE>
     684:	0e010069 	cdpeq	0, 0, cr0, cr1, cr9, {3}
     688:	00000025 	andeq	r0, r0, r5, lsr #32
     68c:	00000186 	andeq	r0, r0, r6, lsl #3
     690:	040a0000 	streq	r0, [sl], #-0
     694:	00b2040b 	adcseq	r0, r2, fp, lsl #8
     698:	0b0c0000 	bleq	3006a0 <__bss_end__+0x2f3d40>
     69c:	0000b904 	andeq	fp, r0, r4, lsl #18
     6a0:	08010400 	stmdaeq	r1, {sl}
     6a4:	0000057d 	andeq	r0, r0, sp, ror r5
     6a8:	00c6040b 	sbceq	r0, r6, fp, lsl #8
     6ac:	b90d0000 	stmdblt	sp, {}	; <UNPREDICTABLE>
     6b0:	00000000 	andeq	r0, r0, r0
     6b4:	0000036c 	andeq	r0, r0, ip, ror #6
     6b8:	03c90004 	biceq	r0, r9, #4
     6bc:	01040000 	mrseq	r0, (UNDEF: 4)
     6c0:	00000093 	muleq	r0, r3, r0
     6c4:	00046901 	andeq	r6, r4, r1, lsl #18
     6c8:	00006300 	andeq	r6, r0, r0, lsl #6
     6cc:	00836800 	addeq	r6, r3, r0, lsl #16
     6d0:	00014800 	andeq	r4, r1, r0, lsl #16
     6d4:	00021600 	andeq	r1, r2, r0, lsl #12
     6d8:	02010200 	andeq	r0, r1, #0, 4
     6dc:	00017e12 	andeq	r7, r1, r2, lsl lr
     6e0:	04100300 	ldreq	r0, [r0], #-768	; 0x300
     6e4:	03000000 	movweq	r0, #0
     6e8:	0000044b 	andeq	r0, r0, fp, asr #8
     6ec:	04550300 	ldrbeq	r0, [r5], #-768	; 0x300
     6f0:	03010000 	movweq	r0, #4096	; 0x1000
     6f4:	0000045f 	andeq	r0, r0, pc, asr r4
     6f8:	04950302 	ldreq	r0, [r5], #770	; 0x302
     6fc:	03030000 	movweq	r0, #12288	; 0x3000
     700:	00000477 	andeq	r0, r0, r7, ror r4
     704:	04810304 	streq	r0, [r1], #772	; 0x304
     708:	03050000 	movweq	r0, #20480	; 0x5000
     70c:	0000048b 	andeq	r0, r0, fp, lsl #9
     710:	04ea0306 	strbteq	r0, [sl], #774	; 0x306
     714:	03070000 	movweq	r0, #28672	; 0x7000
     718:	0000049f 	muleq	r0, pc, r4	; <UNPREDICTABLE>
     71c:	04a90308 	strteq	r0, [r9], #776	; 0x308
     720:	03090000 	movweq	r0, #36864	; 0x9000
     724:	000002fd 	strdeq	r0, [r0], -sp
     728:	0308030a 	movweq	r0, #33546	; 0x830a
     72c:	030b0000 	movweq	r0, #45056	; 0xb000
     730:	00000313 	andeq	r0, r0, r3, lsl r3
     734:	031e030c 	tsteq	lr, #12, 6	; 0x30000000
     738:	030d0000 	movweq	r0, #53248	; 0xd000
     73c:	00000329 	andeq	r0, r0, r9, lsr #6
     740:	0334030e 	teqeq	r4, #939524096	; 0x38000000
     744:	030f0000 	movweq	r0, #61440	; 0xf000
     748:	0000033f 	andeq	r0, r0, pc, lsr r3
     74c:	034a0310 	movteq	r0, #41744	; 0xa310
     750:	03110000 	tsteq	r1, #0
     754:	00000355 	andeq	r0, r0, r5, asr r3
     758:	03600312 	cmneq	r0, #1207959552	; 0x48000000
     75c:	03130000 	tsteq	r3, #0
     760:	0000051f 	andeq	r0, r0, pc, lsl r5
     764:	052a0314 	streq	r0, [sl, #-788]!	; 0x314
     768:	03150000 	tsteq	r5, #0
     76c:	00000535 	andeq	r0, r0, r5, lsr r5
     770:	05400316 	strbeq	r0, [r0, #-790]	; 0x316
     774:	03170000 	tsteq	r7, #0
     778:	00000556 	andeq	r0, r0, r6, asr r5
     77c:	026f0318 	rsbeq	r0, pc, #24, 6	; 0x60000000
     780:	03190000 	tsteq	r9, #0
     784:	00000285 	andeq	r0, r0, r5, lsl #5
     788:	0290031a 	addseq	r0, r0, #1744830464	; 0x68000000
     78c:	031b0000 	tsteq	fp, #0
     790:	0000029b 	muleq	r0, fp, r2
     794:	04b3031c 	ldrteq	r0, [r3], #796	; 0x31c
     798:	031d0000 	tsteq	sp, #0
     79c:	0000054b 	andeq	r0, r0, fp, asr #10
     7a0:	0264031e 	rsbeq	r0, r4, #2013265920	; 0x78000000
     7a4:	031f0000 	tsteq	pc, #0
     7a8:	0000027a 	andeq	r0, r0, sl, ror r2
     7ac:	036b0320 	cmneq	fp, #32, 6	; 0x80000000
     7b0:	03210000 	teqeq	r1, #0
     7b4:	00000376 	andeq	r0, r0, r6, ror r3
     7b8:	03810322 	orreq	r0, r1, #-2013265920	; 0x88000000
     7bc:	03230000 	teqeq	r3, #0
     7c0:	0000038c 	andeq	r0, r0, ip, lsl #7
     7c4:	03970324 	orrseq	r0, r7, #36, 6	; 0x90000000
     7c8:	03250000 	teqeq	r5, #0
     7cc:	000003a2 	andeq	r0, r0, r2, lsr #7
     7d0:	03ad0326 			; <UNDEFINED> instruction: 0x03ad0326
     7d4:	03270000 	teqeq	r7, #0
     7d8:	000003c3 	andeq	r0, r0, r3, asr #7
     7dc:	02a60328 	adceq	r0, r6, #40, 6	; 0xa0000000
     7e0:	03290000 	teqeq	r9, #0
     7e4:	000002b1 			; <UNDEFINED> instruction: 0x000002b1
     7e8:	04be032a 	ldrteq	r0, [lr], #810	; 0x32a
     7ec:	032b0000 	teqeq	fp, #0
     7f0:	000004c9 	andeq	r0, r0, r9, asr #9
     7f4:	04d4032c 	ldrbeq	r0, [r4], #812	; 0x32c
     7f8:	032d0000 	teqeq	sp, #0
     7fc:	000004df 	ldrdeq	r0, [r0], -pc	; <UNPREDICTABLE>
     800:	02e5032e 	rsceq	r0, r5, #-1207959552	; 0xb8000000
     804:	032f0000 	teqeq	pc, #0
     808:	000004f4 	strdeq	r0, [r0], -r4
     80c:	04ff0330 	ldrbteq	r0, [pc], #816	; 814 <_start-0x77ec>
     810:	03310000 	teqeq	r1, #0
     814:	000002c4 	andeq	r0, r0, r4, asr #5
     818:	02cf0332 	sbceq	r0, pc, #-939524096	; 0xc8000000
     81c:	03330000 	teqeq	r3, #0
     820:	000002da 	ldrdeq	r0, [r0], -sl
     824:	03b80334 			; <UNDEFINED> instruction: 0x03b80334
     828:	03350000 	teqeq	r5, #0
     82c:	0000050a 	andeq	r0, r0, sl, lsl #10
     830:	d1040035 	tstle	r4, r5, lsr r0
     834:	01000000 	mrseq	r0, (UNDEF: 0)
     838:	00836810 	addeq	r6, r3, r0, lsl r8
     83c:	00003000 	andeq	r3, r0, r0
     840:	f69c0100 			; <UNDEFINED> instruction: 0xf69c0100
     844:	05000001 	streq	r0, [r0, #-1]
     848:	00000435 	andeq	r0, r0, r5, lsr r4
     84c:	01f61401 	mvnseq	r1, r1, lsl #8
     850:	01a40000 			; <UNDEFINED> instruction: 0x01a40000
     854:	00060000 	andeq	r0, r6, r0
     858:	00837007 	addeq	r7, r3, r7
     85c:	00031a00 	andeq	r1, r3, r0, lsl #20
     860:	83780800 	cmnhi	r8, #0, 16
     864:	03270000 	teqeq	r7, #0
     868:	01c00000 	biceq	r0, r0, r0
     86c:	01090000 	mrseq	r0, (UNDEF: 9)
     870:	00440150 	subeq	r0, r4, r0, asr r1
     874:	00838008 	addeq	r8, r3, r8
     878:	00033800 	andeq	r3, r3, r0, lsl #16
     87c:	0001d300 	andeq	sp, r1, r0, lsl #6
     880:	50010900 	andpl	r0, r1, r0, lsl #18
     884:	08004401 	stmdaeq	r0, {r0, sl, lr}
     888:	00008388 	andeq	r8, r0, r8, lsl #7
     88c:	00000327 	andeq	r0, r0, r7, lsr #6
     890:	000001e6 	andeq	r0, r0, r6, ror #3
     894:	01500109 	cmpeq	r0, r9, lsl #2
     898:	900a0045 	andls	r0, sl, r5, asr #32
     89c:	38000083 	stmdacc	r0, {r0, r1, r7}
     8a0:	09000003 	stmdbeq	r0, {r0, r1}
     8a4:	45015001 	strmi	r5, [r1, #-1]
     8a8:	040b0000 	streq	r0, [fp], #-0
     8ac:	746e6905 	strbtvc	r6, [lr], #-2309	; 0x905
     8b0:	03dd0c00 	bicseq	r0, sp, #0, 24
     8b4:	1b010000 	blne	408bc <__bss_end__+0x33f5c>
     8b8:	00000237 	andeq	r0, r0, r7, lsr r2
     8bc:	00008398 	muleq	r0, r8, r3
     8c0:	00000010 	andeq	r0, r0, r0, lsl r0
     8c4:	02379c01 	eorseq	r9, r7, #256	; 0x100
     8c8:	180d0000 	stmdane	sp, {}	; <UNPREDICTABLE>
     8cc:	01000005 	tsteq	r0, r5
     8d0:	0001f61b 	andeq	pc, r1, fp, lsl r6	; <UNPREDICTABLE>
     8d4:	0001a500 	andeq	sl, r1, r0, lsl #10
     8d8:	83a00a00 	movhi	r0, #0, 20
     8dc:	03490000 	movteq	r0, #36864	; 0x9000
     8e0:	01090000 	mrseq	r0, (UNDEF: 9)
     8e4:	01f30350 	mvnseq	r0, r0, asr r3
     8e8:	0e000050 	mcreq	0, 0, r0, cr0, cr0, {2}
     8ec:	07530704 	ldrbeq	r0, [r3, -r4, lsl #14]
     8f0:	fe0f0000 	cdp2	0, 0, cr0, cr15, cr0, {0}
     8f4:	01000003 	tsteq	r0, r3
     8f8:	0001f622 	andeq	pc, r1, r2, lsr #12
     8fc:	0083a800 	addeq	sl, r3, r0, lsl #16
     900:	00003c00 	andeq	r3, r0, r0, lsl #24
     904:	749c0100 	ldrvc	r0, [ip], #256	; 0x100
     908:	10000002 	andne	r0, r0, r2
     90c:	00000707 	andeq	r0, r0, r7, lsl #14
     910:	01f62301 	mvnseq	r2, r1, lsl #6
     914:	50010000 	andpl	r0, r1, r0
     918:	0083b40a 	addeq	fp, r3, sl, lsl #8
     91c:	00035e00 	andeq	r5, r3, r0, lsl #28
     920:	50010900 	andpl	r0, r1, r0, lsl #18
     924:	00003301 	andeq	r3, r0, r1, lsl #6
     928:	0003f40f 	andeq	pc, r3, pc, lsl #8
     92c:	f6280100 			; <UNDEFINED> instruction: 0xf6280100
     930:	e4000001 	str	r0, [r0], #-1
     934:	90000083 	andls	r0, r0, r3, lsl #1
     938:	01000000 	mrseq	r0, (UNDEF: 0)
     93c:	0002bb9c 	muleq	r2, ip, fp
     940:	01a01100 	lsleq	r1, r0, #2
     944:	2a010000 	bcs	4094c <__bss_end__+0x33fec>
     948:	000002bb 			; <UNDEFINED> instruction: 0x000002bb
     94c:	000001c6 	andeq	r0, r0, r6, asr #3
     950:	00041f11 	andeq	r1, r4, r1, lsl pc
     954:	f62b0100 			; <UNDEFINED> instruction: 0xf62b0100
     958:	de000001 	cdple	0, 0, cr0, cr0, cr1, {0}
     95c:	0a000001 	beq	968 <_start-0x7698>
     960:	000083f0 	strdeq	r8, [r0], -r0
     964:	0000035e 	andeq	r0, r0, lr, asr r3
     968:	01500109 	cmpeq	r0, r9, lsl #2
     96c:	0e000030 	mcreq	0, 0, r0, cr0, cr0, {1}
     970:	01890408 	orreq	r0, r9, r8, lsl #8
     974:	eb120000 	bl	48097c <__bss_end__+0x47401c>
     978:	01000003 	tsteq	r0, r3
     97c:	0001f63c 	andeq	pc, r1, ip, lsr r6	; <UNPREDICTABLE>
     980:	00847400 	addeq	r7, r4, r0, lsl #8
     984:	00003c00 	andeq	r3, r0, r0, lsl #24
     988:	1a9c0100 	bne	fe700d90 <__bss_end__+0xfe6f4430>
     98c:	0d000003 	stceq	0, cr0, [r0, #-12]
     990:	000002bc 			; <UNDEFINED> instruction: 0x000002bc
     994:	01f63c01 	mvnseq	r3, r1, lsl #24
     998:	02280000 	eoreq	r0, r8, #0
     99c:	45110000 	ldrmi	r0, [r1, #-0]
     9a0:	01000004 	tsteq	r0, r4
     9a4:	0002bb3e 	andeq	fp, r2, lr, lsr fp
     9a8:	00024900 	andeq	r4, r2, r0, lsl #18
     9ac:	041f1100 	ldreq	r1, [pc], #-256	; 9b4 <_start-0x764c>
     9b0:	3f010000 	svccc	0x00010000
     9b4:	000001f6 	strdeq	r0, [r0], -r6
     9b8:	00000261 	andeq	r0, r0, r1, ror #4
     9bc:	00847c0a 	addeq	r7, r4, sl, lsl #24
     9c0:	00035e00 	andeq	r5, r3, r0, lsl #28
     9c4:	50010900 	andpl	r0, r1, r0, lsl #18
     9c8:	5001f303 	andpl	pc, r1, r3, lsl #6
     9cc:	f0130000 			; <UNDEFINED> instruction: 0xf0130000
     9d0:	03000002 	movweq	r0, #2
     9d4:	00032704 	andeq	r2, r3, r4, lsl #14
     9d8:	14000600 	strne	r0, [r0], #-1536	; 0x600
     9dc:	000003ce 	andeq	r0, r0, lr, asr #7
     9e0:	03385d02 	teqeq	r8, #2, 26	; 0x80
     9e4:	37150000 	ldrcc	r0, [r5, -r0]
     9e8:	00000002 	andeq	r0, r0, r2
     9ec:	00043505 	andeq	r3, r4, r5, lsl #10
     9f0:	f6140100 			; <UNDEFINED> instruction: 0xf6140100
     9f4:	49000001 	stmdbmi	r0, {r0}
     9f8:	06000003 	streq	r0, [r0], -r3
     9fc:	04061600 	streq	r1, [r6], #-1536	; 0x600
     a00:	61020000 	mrsvs	r0, (UNDEF: 2)
     a04:	00000237 	andeq	r0, r0, r7, lsr r2
     a08:	0000035e 	andeq	r0, r0, lr, asr r3
     a0c:	00023715 	andeq	r3, r2, r5, lsl r7
     a10:	28170000 	ldmdacs	r7, {}	; <UNPREDICTABLE>
     a14:	03000004 	movweq	r0, #4
     a18:	00023705 	andeq	r3, r2, r5, lsl #14
     a1c:	02371500 	eorseq	r1, r7, #0, 10
     a20:	00000000 	andeq	r0, r0, r0
     a24:	00000108 	andeq	r0, r0, r8, lsl #2
     a28:	053a0004 	ldreq	r0, [sl, #-4]!
     a2c:	01040000 	mrseq	r0, (UNDEF: 4)
     a30:	00000093 	muleq	r0, r3, r0
     a34:	00056a01 	andeq	r6, r5, r1, lsl #20
     a38:	00006300 	andeq	r6, r0, r0, lsl #6
     a3c:	0084b000 	addeq	fp, r4, r0
     a40:	00006c00 	andeq	r6, r0, r0, lsl #24
     a44:	0002ae00 	andeq	sl, r2, r0, lsl #28
     a48:	02f00200 	rscseq	r0, r0, #0, 4
     a4c:	04010000 	streq	r0, [r1], #-0
     a50:	000084b0 			; <UNDEFINED> instruction: 0x000084b0
     a54:	00000018 	andeq	r0, r0, r8, lsl r0
     a58:	00519c01 	subseq	r9, r1, r1, lsl #24
     a5c:	c0030000 	andgt	r0, r3, r0
     a60:	d4000084 	strle	r0, [r0], #-132	; 0x84
     a64:	04000000 	streq	r0, [r0], #-0
     a68:	0a035101 	beq	d4e74 <__bss_end__+0xc8514>
     a6c:	01040400 	tsteq	r4, r0, lsl #8
     a70:	00300150 	eorseq	r0, r0, r0, asr r1
     a74:	04280500 	strteq	r0, [r8], #-1280	; 0x500
     a78:	08010000 	stmdaeq	r1, {}	; <UNPREDICTABLE>
     a7c:	000000af 	andeq	r0, r0, pc, lsr #1
     a80:	000084c8 	andeq	r8, r0, r8, asr #9
     a84:	00000054 	andeq	r0, r0, r4, asr r0
     a88:	00af9c01 	adceq	r9, pc, r1, lsl #24
     a8c:	bc060000 	stclt	0, cr0, [r6], {-0}
     a90:	01000002 	tsteq	r0, r2
     a94:	0000af08 	andeq	sl, r0, r8, lsl #30
     a98:	00028100 	andeq	r8, r2, r0, lsl #2
     a9c:	78740700 	ldmdavc	r4!, {r8, r9, sl}^
     aa0:	b6090100 	strlt	r0, [r9], -r0, lsl #2
     aa4:	02000000 	andeq	r0, r0, #0
     aa8:	72077491 	andvc	r7, r7, #-1862270976	; 0x91000000
     aac:	0a010078 	beq	40c94 <__bss_end__+0x34334>
     ab0:	000000b6 	strheq	r0, [r0], -r6
     ab4:	03709102 	cmneq	r0, #-2147483648	; 0x80000000
     ab8:	00008500 	andeq	r8, r0, r0, lsl #10
     abc:	000000ea 	andeq	r0, r0, sl, ror #1
     ac0:	01520104 	cmpeq	r2, r4, lsl #2
     ac4:	51010433 	tstpl	r1, r3, lsr r4
     ac8:	04007d02 	streq	r7, [r0], #-3330	; 0xd02
     acc:	91025001 	tstls	r2, r1
     ad0:	0800006c 	stmdaeq	r0, {r2, r3, r5, r6}
     ad4:	07530704 	ldrbeq	r0, [r3, -r4, lsl #14]
     ad8:	cd090000 	stcgt	0, cr0, [r9, #-0]
     adc:	c6000000 	strgt	r0, [r0], -r0
     ae0:	0a000000 	beq	ae8 <_start-0x7518>
     ae4:	000000c6 	andeq	r0, r0, r6, asr #1
     ae8:	04080002 	streq	r0, [r8], #-2
     aec:	00002207 	andeq	r2, r0, r7, lsl #4
     af0:	08010800 	stmdaeq	r1, {fp}
     af4:	00000574 	andeq	r0, r0, r4, ror r5
     af8:	0005610b 	andeq	r6, r5, fp, lsl #2
     afc:	ea0d0200 	b	341304 <__bss_end__+0x3349a4>
     b00:	0c000000 	stceq	0, cr0, [r0], {-0}
     b04:	000000af 	andeq	r0, r0, pc, lsr #1
     b08:	0000af0c 	andeq	sl, r0, ip, lsl #30
     b0c:	820b0000 	andhi	r0, fp, #0
     b10:	02000005 	andeq	r0, r0, #5
     b14:	0001050e 	andeq	r0, r1, lr, lsl #10
     b18:	01050c00 	tsteq	r5, r0, lsl #24
     b1c:	050c0000 	streq	r0, [ip, #-0]
     b20:	0c000001 	stceq	0, cr0, [r0], {1}
     b24:	000000af 	andeq	r0, r0, pc, lsr #1
     b28:	cd040d00 	stcgt	13, cr0, [r4, #-0]
     b2c:	00000000 	andeq	r0, r0, r0
     b30:	000001f3 	strdeq	r0, [r0], -r3
     b34:	05f70004 	ldrbeq	r0, [r7, #4]!
     b38:	01040000 	mrseq	r0, (UNDEF: 4)
     b3c:	00000093 	muleq	r0, r3, r0
     b40:	00005701 	andeq	r5, r0, r1, lsl #14
     b44:	00006300 	andeq	r6, r0, r0, lsl #6
     b48:	00852000 	addeq	r2, r5, r0
     b4c:	0002a000 	andeq	sl, r2, r0
     b50:	0002f700 	andeq	pc, r2, r0, lsl #14
     b54:	04080200 	streq	r0, [r8], #-512	; 0x200
     b58:	00000189 	andeq	r0, r0, r9, lsl #3
     b5c:	00061503 	andeq	r1, r6, r3, lsl #10
     b60:	25120100 	ldrcs	r0, [r2, #-256]	; 0x100
     b64:	20000000 	andcs	r0, r0, r0
     b68:	74000085 	strvc	r0, [r0], #-133	; 0x85
     b6c:	01000000 	mrseq	r0, (UNDEF: 0)
     b70:	0000849c 	muleq	r0, ip, r4
     b74:	00780400 	rsbseq	r0, r8, r0, lsl #8
     b78:	00251201 	eoreq	r1, r5, r1, lsl #4
     b7c:	02a20000 	adceq	r0, r2, #0
     b80:	9e050000 	cdpls	0, 0, cr0, cr5, cr0, {0}
     b84:	01000005 	tsteq	r0, r5
     b88:	00002512 	andeq	r2, r0, r2, lsl r5
     b8c:	0002ca00 	andeq	ip, r2, r0, lsl #20
     b90:	05d20600 	ldrbeq	r0, [r2, #1536]	; 0x600
     b94:	13010000 	movwne	r0, #4096	; 0x1000
     b98:	00000025 	andeq	r0, r0, r5, lsr #32
     b9c:	000002f2 	strdeq	r0, [r0], -r2
     ba0:	00001807 	andeq	r1, r0, r7, lsl #16
     ba4:	00690800 	rsbeq	r0, r9, r0, lsl #16
     ba8:	00841401 	addeq	r1, r4, r1, lsl #8
     bac:	032e0000 	teqeq	lr, #0
     bb0:	00000000 	andeq	r0, r0, r0
     bb4:	69050409 	stmdbvs	r5, {r0, r3, sl}
     bb8:	0300746e 	movweq	r7, #1134	; 0x46e
     bbc:	000005fb 	strdeq	r0, [r0], -fp
     bc0:	00252701 	eoreq	r2, r5, r1, lsl #14
     bc4:	85940000 	ldrhi	r0, [r4]
     bc8:	00900000 	addseq	r0, r0, r0
     bcc:	9c010000 	stcls	0, cr0, [r1], {-0}
     bd0:	000000ce 	andeq	r0, r0, lr, asr #1
     bd4:	01007804 	tsteq	r0, r4, lsl #16
     bd8:	00002527 	andeq	r2, r0, r7, lsr #10
     bdc:	00034d00 	andeq	r4, r3, r0, lsl #26
     be0:	00790400 	rsbseq	r0, r9, r0, lsl #8
     be4:	00252701 	eoreq	r2, r5, r1, lsl #14
     be8:	03750000 	cmneq	r5, #0
     bec:	a7060000 	strge	r0, [r6, -r0]
     bf0:	01000005 	tsteq	r0, r5
     bf4:	00008428 	andeq	r8, r0, r8, lsr #8
     bf8:	00039d00 	andeq	r9, r3, r0, lsl #26
     bfc:	f6030000 			; <UNDEFINED> instruction: 0xf6030000
     c00:	01000001 	tsteq	r0, r1
     c04:	0000251a 	andeq	r2, r0, sl, lsl r5
     c08:	00862400 	addeq	r2, r6, r0, lsl #8
     c0c:	00019c00 	andeq	r9, r1, r0, lsl #24
     c10:	799c0100 	ldmibvc	ip, {r8}
     c14:	04000001 	streq	r0, [r0], #-1
     c18:	1a010078 	bne	40e00 <__bss_end__+0x344a0>
     c1c:	00000025 	andeq	r0, r0, r5, lsr #32
     c20:	000003bb 			; <UNDEFINED> instruction: 0x000003bb
     c24:	00061b06 	andeq	r1, r6, r6, lsl #22
     c28:	251b0100 	ldrcs	r0, [fp, #-256]	; 0x100
     c2c:	e3000000 	movw	r0, #0
     c30:	06000003 	streq	r0, [r0], -r3
     c34:	000005d2 	ldrdeq	r0, [r0], -r2
     c38:	00251c01 	eoreq	r1, r5, r1, lsl #24
     c3c:	03fb0000 	mvnseq	r0, #0
     c40:	340a0000 	strcc	r0, [sl], #-0
     c44:	8b000086 	blhi	e64 <_start-0x719c>
     c48:	42000000 	andmi	r0, r0, #0
     c4c:	0b000001 	bleq	c58 <_start-0x73a8>
     c50:	04935206 	ldreq	r5, [r3], #518	; 0x206
     c54:	0b049353 	bleq	1259a8 <__bss_end__+0x119048>
     c58:	4a0825f4 	bmi	20a430 <__bss_end__+0x1fdad0>
     c5c:	fb4d12d8 	blx	13457c6 <__bss_end__+0x1338e66>
     c60:	0b400921 	bleq	10030ec <__bss_end__+0xff678c>
     c64:	04935006 	ldreq	r5, [r3], #6
     c68:	05049351 	streq	r9, [r4, #-849]	; 0x351
     c6c:	00f503f3 	ldrshteq	r0, [r5], #51	; 0x33
     c70:	480c0025 	stmdami	ip, {r0, r2, r5}
     c74:	2c000086 	stccs	0, cr0, [r0], {134}	; 0x86
     c78:	0c000000 	stceq	0, cr0, [r0], {-0}
     c7c:	00008684 	andeq	r8, r0, r4, lsl #13
     c80:	0000002c 	andeq	r0, r0, ip, lsr #32
     c84:	0086b80c 	addeq	fp, r6, ip, lsl #16
     c88:	00002c00 	andeq	r2, r0, r0, lsl #24
     c8c:	86f40c00 	ldrbthi	r0, [r4], r0, lsl #24
     c90:	002c0000 	eoreq	r0, ip, r0
     c94:	280c0000 	stmdacs	ip, {}	; <UNPREDICTABLE>
     c98:	2c000087 	stccs	0, cr0, [r0], {135}	; 0x87
     c9c:	0c000000 	stceq	0, cr0, [r0], {-0}
     ca0:	00008764 	andeq	r8, r0, r4, ror #14
     ca4:	0000002c 	andeq	r0, r0, ip, lsr #32
     ca8:	06050d00 	streq	r0, [r5], -r0, lsl #26
     cac:	0b010000 	bleq	40cb4 <__bss_end__+0x34354>
     cb0:	0000018d 	andeq	r0, r0, sp, lsl #3
     cb4:	00000008 	andeq	r0, r0, r8
     cb8:	18000000 	stmdane	r0, {}	; <UNPREDICTABLE>
     cbc:	00250e40 	eoreq	r0, r5, r0, asr #28
     cc0:	d90d0000 	stmdble	sp, {}	; <UNPREDICTABLE>
     cc4:	01000005 	tsteq	r0, r5
     cc8:	00018d0c 	andeq	r8, r1, ip, lsl #26
     ccc:	00000800 	andeq	r0, r0, r0, lsl #16
     cd0:	00000000 	andeq	r0, r0, r0
     cd4:	c20d405e 	andgt	r4, sp, #94	; 0x5e
     cd8:	01000005 	tsteq	r0, r5
     cdc:	00018d0d 	andeq	r8, r1, sp, lsl #26
     ce0:	00000800 	andeq	r0, r0, r0, lsl #16
     ce4:	b0000000 	andlt	r0, r0, r0
     ce8:	8f0d40b3 	svchi	0x000d40b3
     cec:	01000005 	tsteq	r0, r5
     cf0:	00018d0e 	andeq	r8, r1, lr, lsl #26
     cf4:	00000800 	andeq	r0, r0, r0, lsl #16
     cf8:	26000000 	strcs	r0, [r0], -r0
     cfc:	b10d4116 	tstlt	sp, r6, lsl r1
     d00:	01000005 	tsteq	r0, r5
     d04:	00018d0f 	andeq	r8, r1, pc, lsl #26
     d08:	00000800 	andeq	r0, r0, r0, lsl #16
     d0c:	08a80000 	stmiaeq	r8!, {}	; <UNPREDICTABLE>
     d10:	e80d4183 	stmda	sp, {r0, r1, r7, r8, lr}
     d14:	01000005 	tsteq	r0, r5
     d18:	00018d10 	andeq	r8, r1, r0, lsl sp
     d1c:	00000800 	andeq	r0, r0, r0, lsl #16
     d20:	328cc000 	addcc	ip, ip, #0
     d24:	820041f7 	andhi	r4, r0, #-1073741763	; 0xc000003d
     d28:	04000002 	streq	r0, [r0], #-2
     d2c:	0006ba00 	andeq	fp, r6, r0, lsl #20
     d30:	93010400 	movwls	r0, #5120	; 0x1400
     d34:	01000000 	mrseq	r0, (UNDEF: 0)
     d38:	0000062b 	andeq	r0, r0, fp, lsr #12
     d3c:	00000063 	andeq	r0, r0, r3, rrx
     d40:	000087c0 	andeq	r8, r0, r0, asr #15
     d44:	00000018 	andeq	r0, r0, r8, lsl r0
     d48:	0000035d 	andeq	r0, r0, sp, asr r3
     d4c:	16020402 	strne	r0, [r2], -r2, lsl #8
     d50:	0000013f 	andeq	r0, r0, pc, lsr r1
     d54:	00354203 	eorseq	r4, r5, r3, lsl #4
     d58:	030683d9 	movweq	r8, #25561	; 0x63d9
     d5c:	00733541 	rsbseq	r3, r3, r1, asr #10
     d60:	0305d8b1 	movweq	sp, #22705	; 0x58b1
     d64:	c0003541 	andgt	r3, r0, r1, asr #10
     d68:	470305af 	strmi	r0, [r3, -pc, lsr #11]
     d6c:	f5007335 			; <UNDEFINED> instruction: 0xf5007335
     d70:	47030588 	strmi	r0, [r3, -r8, lsl #11]
     d74:	e4bf0035 	ldrt	r0, [pc], #53	; d7c <_start-0x7284>
     d78:	35460304 	strbcc	r0, [r6, #-772]	; 0x304
     d7c:	c28f0073 	addgt	r0, pc, #115	; 0x73
     d80:	35460304 	strbcc	r0, [r6, #-772]	; 0x304
     d84:	04a1d600 	strteq	sp, [r1], #1536	; 0x600
     d88:	00354503 	eorseq	r4, r5, r3, lsl #10
     d8c:	03048386 	movweq	r8, #17286	; 0x4386
     d90:	00733544 	rsbseq	r3, r3, r4, asr #10
     d94:	0303e691 	movweq	lr, #13969	; 0x3691
     d98:	ed003544 	cfstr32	mvfx3, [r0, #-272]	; 0xfffffef0
     d9c:	430303ca 	movwmi	r0, #13258	; 0x33ca
     da0:	8d007335 	stchi	3, cr7, [r0, #-212]	; 0xffffff2c
     da4:	430303b1 	movwmi	r0, #13233	; 0x33b1
     da8:	98e50035 	stmials	r5!, {r0, r2, r4, r5}^
     dac:	34420303 	strbcc	r0, [r2], #-771	; 0x303
     db0:	0381ec00 	orreq	lr, r1, #0, 24
     db4:	73344103 	teqvc	r4, #-1073741824	; 0xc0000000
     db8:	02ec9800 	rsceq	r9, ip, #0, 16
     dbc:	00344103 	eorseq	r4, r4, r3, lsl #2
     dc0:	0302d7e0 	movweq	sp, #10208	; 0x27e0
     dc4:	00733447 	rsbseq	r3, r3, r7, asr #8
     dc8:	0302c4ba 	movweq	ip, #9402	; 0x24ba
     dcc:	a0003447 	andge	r3, r0, r7, asr #8
     dd0:	460302b2 			; <UNDEFINED> instruction: 0x460302b2
     dd4:	87007334 	smladxhi	r0, r4, r3, r7
     dd8:	460302a1 	strmi	r0, [r3], -r1, lsr #5
     ddc:	90eb0034 	rscls	r0, fp, r4, lsr r0
     de0:	34450302 	strbcc	r0, [r5], #-770	; 0x302
     de4:	0281c300 	addeq	ip, r1, #0, 6
     de8:	73344403 	teqvc	r4, #50331648	; 0x3000000
     dec:	01f38900 	mvnseq	r8, r0, lsl #18
     df0:	00344403 	eorseq	r4, r4, r3, lsl #8
     df4:	0301e5b6 	movweq	lr, #5558	; 0x15b6
     df8:	00733443 	rsbseq	r3, r3, r3, asr #8
     dfc:	0301d8c6 	movweq	sp, #6342	; 0x18c6
     e00:	b3003443 	movwlt	r3, #1091	; 0x443
     e04:	420301cc 	andmi	r0, r3, #204, 2	; 0x33
     e08:	c0f60033 	rscsgt	r0, r6, r3, lsr r0
     e0c:	33410301 	movtcc	r0, #4865	; 0x1301
     e10:	b68c0073 	sxtab16lt	r0, ip, r3
     e14:	33410301 	movtcc	r0, #4865	; 0x1301
     e18:	01abf000 			; <UNDEFINED> instruction: 0x01abf000
     e1c:	73334703 	teqvc	r3, #786432	; 0xc0000
     e20:	01a29d00 			; <UNDEFINED> instruction: 0x01a29d00
     e24:	00334703 	eorseq	r4, r3, r3, lsl #14
     e28:	03019990 	movweq	r9, #6544	; 0x1990
     e2c:	00733346 	rsbseq	r3, r3, r6, asr #6
     e30:	030190c4 	movweq	r9, #4292	; 0x10c4
     e34:	b5003346 	strlt	r3, [r0, #-838]	; 0x346
     e38:	45030188 	strmi	r0, [r3, #-392]	; 0x188
     e3c:	80e10033 	rschi	r0, r1, r3, lsr r0
     e40:	33440301 	movtcc	r0, #17153	; 0x4301
     e44:	f9c40073 			; <UNDEFINED> instruction: 0xf9c40073
     e48:	33440300 	movtcc	r0, #17152	; 0x4300
     e4c:	00f2db00 	rscseq	sp, r2, r0, lsl #22
     e50:	73334303 	teqvc	r3, #201326592	; 0xc000000
     e54:	00eca300 	rsceq	sl, ip, r0, lsl #6
     e58:	00334303 	eorseq	r4, r3, r3, lsl #6
     e5c:	0400e69a 	streq	lr, [r0], #-1690	; 0x69a
     e60:	0000005e 	andeq	r0, r0, lr, asr r0
     e64:	0d050000 	stceq	0, cr0, [r5, #-0]
     e68:	02000001 	andeq	r0, r0, #1
     e6c:	00002541 	andeq	r2, r0, r1, asr #10
     e70:	02020200 	andeq	r0, r2, #0, 4
     e74:	00017f43 	andeq	r7, r1, r3, asr #30
     e78:	00be0400 	adcseq	r0, lr, r0, lsl #8
     e7c:	86c00000 	strbhi	r0, [r0], r0
     e80:	00480402 	subeq	r0, r8, r2, lsl #8
     e84:	83a00000 	movhi	r0, #0
     e88:	54510301 	ldrbpl	r0, [r1], #-769	; 0x301
     e8c:	c1d00052 	bicsgt	r0, r0, r2, asr r0
     e90:	49450300 	stmdbmi	r5, {r8, r9}^
     e94:	20e80054 	rsccs	r0, r8, r4, asr r0
     e98:	58495303 	stmdapl	r9, {r0, r1, r8, r9, ip, lr}^
     e9c:	0410b400 	ldreq	fp, [r0], #-1024	; 0x400
     ea0:	0000000e 	andeq	r0, r0, lr
     ea4:	c4050028 	strgt	r0, [r5], #-40	; 0x28
     ea8:	02000000 	andeq	r0, r0, #0
     eac:	00014a54 	andeq	r4, r1, r4, asr sl
     eb0:	02080600 	andeq	r0, r8, #0, 12
     eb4:	0001ab56 	andeq	sl, r1, r6, asr fp
     eb8:	01d50700 	bicseq	r0, r5, r0, lsl #14
     ebc:	57020000 	strpl	r0, [r2, -r0]
     ec0:	0000013f 	andeq	r0, r0, pc, lsr r1
     ec4:	08e90700 	stmiaeq	r9!, {r8, r9, sl}^
     ec8:	58020000 	stmdapl	r2, {}	; <UNPREDICTABLE>
     ecc:	0000017f 	andeq	r0, r0, pc, ror r1
     ed0:	fd050004 	stc2	0, cr0, [r5, #-16]
     ed4:	02000000 	andeq	r0, r0, #0
     ed8:	00018a59 	andeq	r8, r1, r9, asr sl
     edc:	03040600 	movweq	r0, #17920	; 0x4600
     ee0:	0001d70e 	andeq	sp, r1, lr, lsl #14
     ee4:	00cc0700 	sbceq	r0, ip, r0, lsl #14
     ee8:	0f030000 	svceq	0x00030000
     eec:	000001d7 	ldrdeq	r0, [r0], -r7
     ef0:	004d0700 	subeq	r0, sp, r0, lsl #14
     ef4:	10030000 	andne	r0, r3, r0
     ef8:	000001de 	ldrdeq	r0, [r0], -lr
     efc:	04080004 	streq	r0, [r8], #-4
     f00:	746e6905 	strbtvc	r6, [lr], #-2309	; 0x905
     f04:	01ab0900 			; <UNDEFINED> instruction: 0x01ab0900
     f08:	01ed0000 	mvneq	r0, r0
     f0c:	ed0a0000 	stc	0, cr0, [sl, #-0]
     f10:	00000001 	andeq	r0, r0, r1
     f14:	2207040b 	andcs	r0, r7, #184549376	; 0xb000000
     f18:	05000000 	streq	r0, [r0, #-0]
     f1c:	00000105 	andeq	r0, r0, r5, lsl #2
     f20:	01b61103 			; <UNDEFINED> instruction: 0x01b61103
     f24:	210c0000 	mrscs	r0, (UNDEF: 12)
     f28:	01000006 	tsteq	r0, r6
     f2c:	0087c00e 	addeq	ip, r7, lr
     f30:	00001800 	andeq	r1, r0, r0, lsl #16
     f34:	469c0100 	ldrmi	r0, [ip], r0, lsl #2
     f38:	0d000002 	stceq	0, cr0, [r0, #-8]
     f3c:	0000004d 	andeq	r0, r0, sp, asr #32
     f40:	02460e01 	subeq	r0, r6, #1, 28
     f44:	50010000 	andpl	r0, r1, r0
     f48:	0000cc0d 	andeq	ip, r0, sp, lsl #24
     f4c:	d70e0100 	strle	r0, [lr, -r0, lsl #2]
     f50:	01000001 	tsteq	r0, r1
     f54:	87c00e51 			; <UNDEFINED> instruction: 0x87c00e51
     f58:	00140000 	andseq	r0, r4, r0
     f5c:	690f0000 	stmdbvs	pc, {}	; <UNPREDICTABLE>
     f60:	d70f0100 	strle	r0, [pc, -r0, lsl #2]
     f64:	73000001 	movwvc	r0, #1
     f68:	00000004 	andeq	r0, r0, r4
     f6c:	ab041000 	blge	104f74 <__bss_end__+0xf8614>
     f70:	11000001 	tstne	r0, r1
     f74:	00000013 	andeq	r0, r0, r3, lsl r0
     f78:	01f41503 	mvnseq	r1, r3, lsl #10
     f7c:	ed110000 	ldc	0, cr0, [r1, #-0]
     f80:	03000000 	movweq	r0, #0
     f84:	0001f438 	andeq	pc, r1, r8, lsr r4	; <UNPREDICTABLE>
     f88:	00351100 	eorseq	r1, r5, r0, lsl #2
     f8c:	8f030000 	svchi	0x00030000
     f90:	000001f4 	strdeq	r0, [r0], -r4
     f94:	00003012 	andeq	r3, r0, r2, lsl r0
     f98:	016a0300 	cmneq	sl, r0, lsl #6
     f9c:	000001f4 	strdeq	r0, [r0], -r4
     fa0:	00008d12 	andeq	r8, r0, r2, lsl sp
     fa4:	02430300 	subeq	r0, r3, #0, 6
     fa8:	000001f4 	strdeq	r0, [r0], -r4
     fac:	00005900 	andeq	r5, r0, r0, lsl #18
     fb0:	a0000400 	andge	r0, r0, r0, lsl #8
     fb4:	04000007 	streq	r0, [r0], #-7
     fb8:	00009301 	andeq	r9, r0, r1, lsl #6
     fbc:	06320100 	ldrteq	r0, [r2], -r0, lsl #2
     fc0:	00630000 	rsbeq	r0, r3, r0
     fc4:	87d80000 	ldrbhi	r0, [r8, r0]
     fc8:	00680000 	rsbeq	r0, r8, r0
     fcc:	03b60000 			; <UNDEFINED> instruction: 0x03b60000
     fd0:	08020000 	stmdaeq	r2, {}	; <UNPREDICTABLE>
     fd4:	00018904 	andeq	r8, r1, r4, lsl #18
     fd8:	063a0300 	ldrteq	r0, [sl], -r0, lsl #6
     fdc:	0b010000 	bleq	40fe4 <__bss_end__+0x34684>
     fe0:	00000055 	andeq	r0, r0, r5, asr r0
     fe4:	000087d8 	ldrdeq	r8, [r0], -r8	; <UNPREDICTABLE>
     fe8:	00000068 	andeq	r0, r0, r8, rrx
     fec:	00559c01 	subseq	r9, r5, r1, lsl #24
     ff0:	6e040000 	cdpvs	0, 0, cr0, cr4, cr0, {0}
     ff4:	01006d75 	tsteq	r0, r5, ror sp
     ff8:	0000250b 	andeq	r2, r0, fp, lsl #10
     ffc:	00049200 	andeq	r9, r4, r0, lsl #4
    1000:	04050000 	streq	r0, [r5], #-0
    1004:	746e6905 	strbtvc	r6, [lr], #-2309	; 0x905
    1008:	04600000 	strbteq	r0, [r0], #-0
    100c:	00040000 	andeq	r0, r4, r0
    1010:	000007f5 	strdeq	r0, [r0], -r5
    1014:	00930104 	addseq	r0, r3, r4, lsl #2
    1018:	93010000 	movwls	r0, #4096	; 0x1000
    101c:	63000006 	movwvs	r0, #6
    1020:	40000000 	andmi	r0, r0, r0
    1024:	68000088 	stmdavs	r0, {r3, r7}
    1028:	f1000003 	cps	#3
    102c:	02000003 	andeq	r0, r0, #3
    1030:	3f160204 	svccc	0x00160204
    1034:	03000001 	movweq	r0, #1
    1038:	d9003542 	stmdble	r0, {r1, r6, r8, sl, ip, sp}
    103c:	41030683 	smlabbmi	r3, r3, r6, r0
    1040:	b1007335 	tstlt	r0, r5, lsr r3
    1044:	410305d8 	ldrdmi	r0, [r3, -r8]
    1048:	afc00035 	svcge	0x00c00035
    104c:	35470305 	strbcc	r0, [r7, #-773]	; 0x305
    1050:	88f50073 	ldmhi	r5!, {r0, r1, r4, r5, r6}^
    1054:	35470305 	strbcc	r0, [r7, #-773]	; 0x305
    1058:	04e4bf00 	strbteq	fp, [r4], #3840	; 0xf00
    105c:	73354603 	teqvc	r5, #3145728	; 0x300000
    1060:	04c28f00 	strbeq	r8, [r2], #3840	; 0xf00
    1064:	00354603 	eorseq	r4, r5, r3, lsl #12
    1068:	0304a1d6 	movweq	sl, #16854	; 0x41d6
    106c:	86003545 	strhi	r3, [r0], -r5, asr #10
    1070:	44030483 	strmi	r0, [r3], #-1155	; 0x483
    1074:	91007335 	tstls	r0, r5, lsr r3
    1078:	440303e6 	strmi	r0, [r3], #-998	; 0x3e6
    107c:	caed0035 	bgt	ffb41158 <__bss_end__+0xffb347f8>
    1080:	35430303 	strbcc	r0, [r3, #-771]	; 0x303
    1084:	b18d0073 	orrlt	r0, sp, r3, ror r0
    1088:	35430303 	strbcc	r0, [r3, #-771]	; 0x303
    108c:	0398e500 	orrseq	lr, r8, #0, 10
    1090:	00344203 	eorseq	r4, r4, r3, lsl #4
    1094:	030381ec 	movweq	r8, #12780	; 0x31ec
    1098:	00733441 	rsbseq	r3, r3, r1, asr #8
    109c:	0302ec98 	movweq	lr, #11416	; 0x2c98
    10a0:	e0003441 	and	r3, r0, r1, asr #8
    10a4:	470302d7 			; <UNDEFINED> instruction: 0x470302d7
    10a8:	ba007334 	blt	1dd80 <__bss_end__+0x11420>
    10ac:	470302c4 	strmi	r0, [r3, -r4, asr #5]
    10b0:	b2a00034 	adclt	r0, r0, #52	; 0x34
    10b4:	34460302 	strbcc	r0, [r6], #-770	; 0x302
    10b8:	a1870073 	orrge	r0, r7, r3, ror r0
    10bc:	34460302 	strbcc	r0, [r6], #-770	; 0x302
    10c0:	0290eb00 	addseq	lr, r0, #0, 22
    10c4:	00344503 	eorseq	r4, r4, r3, lsl #10
    10c8:	030281c3 	movweq	r8, #8643	; 0x21c3
    10cc:	00733444 	rsbseq	r3, r3, r4, asr #8
    10d0:	0301f389 	movweq	pc, #5001	; 0x1389	; <UNPREDICTABLE>
    10d4:	b6003444 	strlt	r3, [r0], -r4, asr #8
    10d8:	430301e5 	movwmi	r0, #12773	; 0x31e5
    10dc:	c6007334 			; <UNDEFINED> instruction: 0xc6007334
    10e0:	430301d8 	movwmi	r0, #12760	; 0x31d8
    10e4:	ccb30034 	ldcgt	0, cr0, [r3], #208	; 0xd0
    10e8:	33420301 	movtcc	r0, #8961	; 0x2301
    10ec:	01c0f600 	biceq	pc, r0, r0, lsl #12
    10f0:	73334103 	teqvc	r3, #-1073741824	; 0xc0000000
    10f4:	01b68c00 			; <UNDEFINED> instruction: 0x01b68c00
    10f8:	00334103 	eorseq	r4, r3, r3, lsl #2
    10fc:	0301abf0 	movweq	sl, #7152	; 0x1bf0
    1100:	00733347 	rsbseq	r3, r3, r7, asr #6
    1104:	0301a29d 	movweq	sl, #4765	; 0x129d
    1108:	90003347 	andls	r3, r0, r7, asr #6
    110c:	46030199 			; <UNDEFINED> instruction: 0x46030199
    1110:	c4007333 	strgt	r7, [r0], #-819	; 0x333
    1114:	46030190 			; <UNDEFINED> instruction: 0x46030190
    1118:	88b50033 	ldmhi	r5!, {r0, r1, r4, r5}
    111c:	33450301 	movtcc	r0, #21249	; 0x5301
    1120:	0180e100 	orreq	lr, r0, r0, lsl #2
    1124:	73334403 	teqvc	r3, #50331648	; 0x3000000
    1128:	00f9c400 	rscseq	ip, r9, r0, lsl #8
    112c:	00334403 	eorseq	r4, r3, r3, lsl #8
    1130:	0300f2db 	movweq	pc, #731	; 0x2db	; <UNPREDICTABLE>
    1134:	00733343 	rsbseq	r3, r3, r3, asr #6
    1138:	0300eca3 	movweq	lr, #3235	; 0xca3
    113c:	9a003343 	bls	de50 <__bss_end__+0x14f0>
    1140:	5e0400e6 	cdppl	0, 0, cr0, cr4, cr6, {7}
    1144:	00000000 	andeq	r0, r0, r0
    1148:	010d0500 	tsteq	sp, r0, lsl #10
    114c:	41020000 	mrsmi	r0, (UNDEF: 2)
    1150:	00000025 	andeq	r0, r0, r5, lsr #32
    1154:	43020202 	movwmi	r0, #8706	; 0x2202
    1158:	0000017f 	andeq	r0, r0, pc, ror r1
    115c:	0000be04 	andeq	fp, r0, r4, lsl #28
    1160:	0286c000 	addeq	ip, r6, #0
    1164:	00004804 	andeq	r4, r0, r4, lsl #16
    1168:	0183a000 	orreq	sl, r3, r0
    116c:	52545103 	subspl	r5, r4, #-1073741824	; 0xc0000000
    1170:	00c1d000 	sbceq	sp, r1, r0
    1174:	54494503 	strbpl	r4, [r9], #-1283	; 0x503
    1178:	0320e800 	teqeq	r0, #0, 16
    117c:	00584953 	subseq	r4, r8, r3, asr r9
    1180:	0e0410b4 	mcreq	0, 0, r1, cr4, cr4, {5}
    1184:	28000000 	stmdacs	r0, {}	; <UNPREDICTABLE>
    1188:	00c40500 	sbceq	r0, r4, r0, lsl #10
    118c:	54020000 	strpl	r0, [r2], #-0
    1190:	0000014a 	andeq	r0, r0, sl, asr #2
    1194:	56020806 	strpl	r0, [r2], -r6, lsl #16
    1198:	000001ab 	andeq	r0, r0, fp, lsr #3
    119c:	0001d507 	andeq	sp, r1, r7, lsl #10
    11a0:	3f570200 	svccc	0x00570200
    11a4:	00000001 	andeq	r0, r0, r1
    11a8:	0008e907 	andeq	lr, r8, r7, lsl #18
    11ac:	7f580200 	svcvc	0x00580200
    11b0:	04000001 	streq	r0, [r0], #-1
    11b4:	00fd0500 	rscseq	r0, sp, r0, lsl #10
    11b8:	59020000 	stmdbpl	r2, {}	; <UNPREDICTABLE>
    11bc:	0000018a 	andeq	r0, r0, sl, lsl #3
    11c0:	0e030406 	cdpeq	4, 0, cr0, cr3, cr6, {0}
    11c4:	000001d7 	ldrdeq	r0, [r0], -r7
    11c8:	0000cc07 	andeq	ip, r0, r7, lsl #24
    11cc:	d70f0300 	strle	r0, [pc, -r0, lsl #6]
    11d0:	00000001 	andeq	r0, r0, r1
    11d4:	00004d07 	andeq	r4, r0, r7, lsl #26
    11d8:	de100300 	cdple	3, 1, cr0, cr0, cr0, {0}
    11dc:	04000001 	streq	r0, [r0], #-1
    11e0:	05040800 	streq	r0, [r4, #-2048]	; 0x800
    11e4:	00746e69 	rsbseq	r6, r4, r9, ror #28
    11e8:	0001ab09 	andeq	sl, r1, r9, lsl #22
    11ec:	0001ed00 	andeq	lr, r1, r0, lsl #26
    11f0:	01ed0a00 	mvneq	r0, r0, lsl #20
    11f4:	0b000000 	bleq	11fc <_start-0x6e04>
    11f8:	00220704 	eoreq	r0, r2, r4, lsl #14
    11fc:	05050000 	streq	r0, [r5, #-0]
    1200:	03000001 	movweq	r0, #1
    1204:	0001b611 	andeq	fp, r1, r1, lsl r6
    1208:	00000c00 	andeq	r0, r0, r0, lsl #24
    120c:	1d010000 	stcne	0, cr0, [r1, #-0]
    1210:	00008840 	andeq	r8, r0, r0, asr #16
    1214:	00000368 	andeq	r0, r0, r8, ror #6
    1218:	03f69c01 	mvnseq	r9, #256	; 0x100
    121c:	b00d0000 	andlt	r0, sp, r0
    1220:	01000006 	tsteq	r0, r6
    1224:	0003f61d 	andeq	pc, r3, sp, lsl r6	; <UNPREDICTABLE>
    1228:	0004ba00 	andeq	fp, r4, r0, lsl #20
    122c:	06760d00 	ldrbteq	r0, [r6], -r0, lsl #26
    1230:	1d010000 	stcne	0, cr0, [r1, #-0]
    1234:	000001d7 	ldrdeq	r0, [r0], -r7
    1238:	000004d8 	ldrdeq	r0, [r0], -r8
    123c:	00067f0d 	andeq	r7, r6, sp, lsl #30
    1240:	f61d0100 			; <UNDEFINED> instruction: 0xf61d0100
    1244:	f7000003 			; <UNDEFINED> instruction: 0xf7000003
    1248:	0d000004 	stceq	0, cr0, [r0, #-16]
    124c:	00000653 	andeq	r0, r0, r3, asr r6
    1250:	01d71d01 	bicseq	r1, r7, r1, lsl #26
    1254:	05150000 	ldreq	r0, [r5, #-0]
    1258:	9f0e0000 	svcls	0x000e0000
    125c:	01000006 	tsteq	r0, r6
    1260:	0001d71e 	andeq	sp, r1, lr, lsl r7
    1264:	e90e0100 	stmdb	lr, {r8}
    1268:	01000006 	tsteq	r0, r6
    126c:	0001d71f 	andeq	sp, r1, pc, lsl r7
    1270:	5c0f0100 	stfpls	f0, [pc], {-0}
    1274:	01000006 	tsteq	r0, r6
    1278:	0001d721 	andeq	sp, r1, r1, lsr #14
    127c:	00053400 	andeq	r3, r5, r0, lsl #8
    1280:	06650f00 	strbteq	r0, [r5], -r0, lsl #30
    1284:	22010000 	andcs	r0, r1, #0
    1288:	000001d7 	ldrdeq	r0, [r0], -r7
    128c:	0000058e 	andeq	r0, r0, lr, lsl #11
    1290:	00066e0f 	andeq	r6, r6, pc, lsl #28
    1294:	d7240100 	strle	r0, [r4, -r0, lsl #2]!
    1298:	e8000001 	stmda	r0, {r0}
    129c:	0f000005 	svceq	0x00000005
    12a0:	000006fa 	strdeq	r0, [r0], -sl
    12a4:	01d72501 	bicseq	r2, r7, r1, lsl #10
    12a8:	061e0000 	ldreq	r0, [lr], -r0
    12ac:	dd0e0000 	stcle	0, cr0, [lr, #-0]
    12b0:	01000006 	tsteq	r0, r6
    12b4:	0001d727 	andeq	sp, r1, r7, lsr #14
    12b8:	d10e3200 	mrsle	r3, LR_fiq
    12bc:	01000006 	tsteq	r0, r6
    12c0:	0001d728 	andeq	sp, r1, r8, lsr #14
    12c4:	c90f3200 	stmdbgt	pc, {r9, ip, sp}	; <UNPREDICTABLE>
    12c8:	01000006 	tsteq	r0, r6
    12cc:	0001d72a 	andeq	sp, r1, sl, lsr #14
    12d0:	00065400 	andeq	r5, r6, r0, lsl #8
    12d4:	01a00f00 	lsleq	r0, r0, #30
    12d8:	2c010000 	stccs	0, cr0, [r1], {-0}
    12dc:	000001d7 	ldrdeq	r0, [r0], -r7
    12e0:	000006aa 	andeq	r0, r0, sl, lsr #13
    12e4:	0007020f 	andeq	r0, r7, pc, lsl #4
    12e8:	d72d0100 	strle	r0, [sp, -r0, lsl #2]!
    12ec:	12000001 	andne	r0, r0, #1
    12f0:	0f000007 	svceq	0x00000007
    12f4:	00000649 	andeq	r0, r0, r9, asr #12
    12f8:	01d72e01 	bicseq	r2, r7, r1, lsl #28
    12fc:	07320000 	ldreq	r0, [r2, -r0]!
    1300:	bf0f0000 	svclt	0x000f0000
    1304:	01000006 	tsteq	r0, r6
    1308:	0001d72f 	andeq	sp, r1, pc, lsr #14
    130c:	0007be00 	andeq	fp, r7, r0, lsl #28
    1310:	88801000 	stmhi	r0, {ip}
    1314:	030c0000 	movweq	r0, #49152	; 0xc000
    1318:	890f0000 	stmdbhi	pc, {}	; <UNPREDICTABLE>
    131c:	01000006 	tsteq	r0, r6
    1320:	0001d7be 			; <UNDEFINED> instruction: 0x0001d7be
    1324:	00085400 	andeq	r5, r8, r0, lsl #8
    1328:	88881100 	stmhi	r8, {r8, ip}
    132c:	00940000 	addseq	r0, r4, r0
    1330:	034b0000 	movteq	r0, #45056	; 0xb000
    1334:	300f0000 	andcc	r0, pc, r0
    1338:	01000004 	tsteq	r0, r4
    133c:	0001d73c 	andeq	sp, r1, ip, lsr r7
    1340:	00087300 	andeq	r7, r8, r0, lsl #6
    1344:	88901200 	ldmhi	r0, {r9, ip}
    1348:	04350000 	ldrteq	r0, [r5], #-0
    134c:	01130000 	tsteq	r3, r0
    1350:	00300150 	eorseq	r0, r0, r0, asr r1
    1354:	89381100 	ldmdbhi	r8!, {r8, ip}
    1358:	00dc0000 	sbcseq	r0, ip, r0
    135c:	03770000 	cmneq	r7, #0
    1360:	440f0000 	strmi	r0, [pc], #-0	; 1368 <_start-0x6c98>
    1364:	01000006 	tsteq	r0, r6
    1368:	0001d759 	andeq	sp, r1, r9, asr r7
    136c:	00089c00 	andeq	r9, r8, r0, lsl #24
    1370:	89401200 	stmdbhi	r0, {r9, ip}^
    1374:	04350000 	ldrteq	r0, [r5], #-0
    1378:	01130000 	tsteq	r3, r0
    137c:	00310150 	eorseq	r0, r1, r0, asr r1
    1380:	8a1c1100 	bhi	705788 <__bss_end__+0x6f8e28>
    1384:	00dc0000 	sbcseq	r0, ip, r0
    1388:	03a30000 			; <UNDEFINED> instruction: 0x03a30000
    138c:	ba0f0000 	blt	3c1394 <__bss_end__+0x3b4a34>
    1390:	01000006 	tsteq	r0, r6
    1394:	0001d772 	andeq	sp, r1, r2, ror r7
    1398:	0008d000 	andeq	sp, r8, r0
    139c:	8a241200 	bhi	905ba4 <__bss_end__+0x8f9244>
    13a0:	04350000 	ldrteq	r0, [r5], #-0
    13a4:	01130000 	tsteq	r3, r0
    13a8:	00320150 	eorseq	r0, r2, r0, asr r1
    13ac:	892c1400 	stmdbhi	ip!, {sl, ip}
    13b0:	04350000 	ldrteq	r0, [r5], #-0
    13b4:	03b60000 			; <UNDEFINED> instruction: 0x03b60000
    13b8:	01130000 	tsteq	r3, r0
    13bc:	00330150 	eorseq	r0, r3, r0, asr r1
    13c0:	008b8c12 	addeq	r8, fp, r2, lsl ip
    13c4:	00045100 	andeq	r5, r4, r0, lsl #2
    13c8:	51011300 	mrspl	r1, SP_irq
    13cc:	06449103 	strbeq	r9, [r4], -r3, lsl #2
    13d0:	29500113 	ldmdbcs	r0, {r0, r1, r4, r8}^
    13d4:	fc750075 	ldc2l	0, cr0, [r5], #-468	; 0xfffffe2c
    13d8:	30007507 	andcc	r7, r0, r7, lsl #10
    13dc:	0001282a 	andeq	r2, r1, sl, lsr #16
    13e0:	03231316 	teqeq	r3, #1476395008	; 0x58000000
    13e4:	fc750075 	ldc2l	0, cr0, [r5], #-468	; 0xfffffe2c
    13e8:	30007507 	andcc	r7, r0, r7, lsl #10
    13ec:	0001282a 	andeq	r2, r1, sl, lsr #16
    13f0:	00751316 	rsbseq	r1, r5, r6, lsl r3
    13f4:	01282d30 	teqeq	r8, r0, lsr sp
    13f8:	3a131600 	bcc	4c6c00 <__bss_end__+0x4ba2a0>
    13fc:	00000026 	andeq	r0, r0, r6, lsr #32
    1400:	01ab0415 			; <UNDEFINED> instruction: 0x01ab0415
    1404:	13160000 	tstne	r6, #0
    1408:	03000000 	movweq	r0, #0
    140c:	0001f415 	andeq	pc, r1, r5, lsl r4	; <UNPREDICTABLE>
    1410:	00ed1600 	rsceq	r1, sp, r0, lsl #12
    1414:	38030000 	stmdacc	r3, {}	; <UNPREDICTABLE>
    1418:	000001f4 	strdeq	r0, [r0], -r4
    141c:	00003516 	andeq	r3, r0, r6, lsl r5
    1420:	f48f0300 	vst4.8	{d0[0],d1[0],d2[0],d3[0]}, [pc], r0
    1424:	17000001 	strne	r0, [r0, -r1]
    1428:	00000030 	andeq	r0, r0, r0, lsr r0
    142c:	f4016a03 	vst1.8	{d6-d7}, [r1], r3
    1430:	17000001 	strne	r0, [r0, -r1]
    1434:	0000008d 	andeq	r0, r0, sp, lsl #1
    1438:	f4024303 	vst2.8	{d4-d7}, [r2], r3
    143c:	18000001 	stmdane	r0, {r0}
    1440:	00000428 	andeq	r0, r0, r8, lsr #8
    1444:	044a0504 	strbeq	r0, [sl], #-1284	; 0x504
    1448:	044a0000 	strbeq	r0, [sl], #-0
    144c:	4a190000 	bmi	641454 <__bss_end__+0x634af4>
    1450:	00000004 	andeq	r0, r0, r4
    1454:	5307040b 	movwpl	r0, #29707	; 0x740b
    1458:	1a000007 	bne	147c <_start-0x6b84>
    145c:	000001ca 	andeq	r0, r0, sl, asr #3
    1460:	d7195d02 	ldrle	r5, [r9, -r2, lsl #26]
    1464:	19000001 	stmdbne	r0, {r0}
    1468:	000001d7 	ldrdeq	r0, [r0], -r7
    146c:	02be0000 	adcseq	r0, lr, #0
    1470:	00040000 	andeq	r0, r4, r0
    1474:	00000946 	andeq	r0, r0, r6, asr #18
    1478:	071d0104 	ldreq	r0, [sp, -r4, lsl #2]
    147c:	f3010000 	vhadd.u8	d0, d1, d0
    1480:	2e000007 	cdpcs	0, 0, cr0, cr0, cr7, {0}
    1484:	00003000 	andeq	r3, r0, r0
    1488:	00000000 	andeq	r0, r0, r0
    148c:	0004b900 	andeq	fp, r4, r0, lsl #18
    1490:	07080200 	streq	r0, [r8, -r0, lsl #4]
    1494:	00000749 	andeq	r0, r0, r9, asr #14
    1498:	53070402 	movwpl	r0, #29698	; 0x7402
    149c:	03000007 	movweq	r0, #7
    14a0:	704f0201 	subvc	r0, pc, r1, lsl #4
    14a4:	04000000 	streq	r0, [r0], #-0
    14a8:	000007fa 	strdeq	r0, [r0], -sl
    14ac:	07290400 	streq	r0, [r9, -r0, lsl #8]!
    14b0:	04010000 	streq	r0, [r1], #-0
    14b4:	0000073a 	andeq	r0, r0, sl, lsr r7
    14b8:	07da0404 	ldrbeq	r0, [sl, r4, lsl #8]
    14bc:	04050000 	streq	r0, [r5], #-0
    14c0:	00000760 	andeq	r0, r0, r0, ror #14
    14c4:	076f0406 	strbeq	r0, [pc, -r6, lsl #8]!
    14c8:	04070000 	streq	r0, [r7], #-0
    14cc:	0000077e 	andeq	r0, r0, lr, ror r7
    14d0:	078d0403 	streq	r0, [sp, r3, lsl #8]
    14d4:	04020000 	streq	r0, [r2], #-0
    14d8:	000007a1 	andeq	r0, r0, r1, lsr #15
    14dc:	e9050008 	stmdb	r5, {r3}
    14e0:	01000007 	tsteq	r0, r7
    14e4:	008bd821 	addeq	sp, fp, r1, lsr #16
    14e8:	00001000 	andeq	r1, r0, r0
    14ec:	069c0100 	ldreq	r0, [ip], r0, lsl #2
    14f0:	0000080a 	andeq	r0, r0, sl, lsl #16
    14f4:	8be82401 	blhi	ffa0a500 <__bss_end__+0xff9fdba0>
    14f8:	00640000 	rsbeq	r0, r4, r0
    14fc:	9c010000 	stcls	0, cr0, [r1], {-0}
    1500:	000000ea 	andeq	r0, r0, sl, ror #1
    1504:	6e697007 	cdpvs	0, 6, cr7, cr9, cr7, {0}
    1508:	2a240100 	bcs	901910 <__bss_end__+0x8f4fb0>
    150c:	01000000 	mrseq	r0, (UNDEF: 0)
    1510:	07c30850 			; <UNDEFINED> instruction: 0x07c30850
    1514:	24010000 	strcs	r0, [r1], #-0
    1518:	0000002a 	andeq	r0, r0, sl, lsr #32
    151c:	00000904 	andeq	r0, r0, r4, lsl #18
    1520:	00079c09 	andeq	r9, r7, r9, lsl #24
    1524:	2a2c0100 	bcs	b0192c <__bss_end__+0xaf4fcc>
    1528:	01000000 	mrseq	r0, (UNDEF: 0)
    152c:	65720a5c 	ldrbvs	r0, [r2, #-2652]!	; 0xa5c
    1530:	2d010067 	stccs	0, cr0, [r1, #-412]	; 0xfffffe64
    1534:	000000ea 	andeq	r0, r0, sl, ror #1
    1538:	720b5c01 	andvc	r5, fp, #256	; 0x100
    153c:	2e010061 	cdpcs	0, 0, cr0, cr1, cr1, {3}
    1540:	0000002a 	andeq	r0, r0, sl, lsr #32
    1544:	00000925 	andeq	r0, r0, r5, lsr #18
    1548:	00070c0c 	andeq	r0, r7, ip, lsl #24
    154c:	2a2f0100 	bcs	bc1954 <__bss_end__+0xbb4ff4>
    1550:	4e000000 	cdpmi	0, 0, cr0, cr0, cr0, {0}
    1554:	00000009 	andeq	r0, r0, r9
    1558:	00f0040d 	rscseq	r0, r0, sp, lsl #8
    155c:	2a0e0000 	bcs	381564 <__bss_end__+0x374c04>
    1560:	0f000000 	svceq	0x00000000
    1564:	000007c8 	andeq	r0, r0, r8, asr #15
    1568:	002a3601 	eoreq	r3, sl, r1, lsl #12
    156c:	8c4c0000 	marhi	acc0, r0, ip
    1570:	00580000 	subseq	r0, r8, r0
    1574:	9c010000 	stcls	0, cr0, [r1], {-0}
    1578:	00000159 	andeq	r0, r0, r9, asr r1
    157c:	6e697010 	mcrvs	0, 3, r7, cr9, cr0, {0}
    1580:	2a360100 	bcs	d81988 <__bss_end__+0xd75028>
    1584:	90000000 	andls	r0, r0, r0
    1588:	0c000009 	stceq	0, cr0, [r0], {9}
    158c:	0000079c 	muleq	r0, ip, r7
    1590:	002a3b01 	eoreq	r3, sl, r1, lsl #22
    1594:	09ca0000 	stmibeq	sl, {}^	; <UNPREDICTABLE>
    1598:	720b0000 	andvc	r0, fp, #0
    159c:	01006765 	tsteq	r0, r5, ror #14
    15a0:	0000ea3c 	andeq	lr, r0, ip, lsr sl
    15a4:	0009ca00 	andeq	ip, r9, r0, lsl #20
    15a8:	61720b00 	cmnvs	r2, r0, lsl #22
    15ac:	2a3d0100 	bcs	f419b4 <__bss_end__+0xf35054>
    15b0:	38000000 	stmdacc	r0, {}	; <UNPREDICTABLE>
    15b4:	0c00000a 	stceq	0, cr0, [r0], {10}
    15b8:	0000070c 	andeq	r0, r0, ip, lsl #14
    15bc:	002a3e01 	eoreq	r3, sl, r1, lsl #28
    15c0:	0a4b0000 	beq	12c15c8 <__bss_end__+0x12b4c68>
    15c4:	06000000 	streq	r0, [r0], -r0
    15c8:	000003ce 	andeq	r0, r0, lr, asr #7
    15cc:	8ca44301 	stchi	3, cr4, [r4], #4
    15d0:	00180000 	andseq	r0, r8, r0
    15d4:	9c010000 	stcls	0, cr0, [r1], {-0}
    15d8:	00000194 	muleq	r0, r4, r1
    15dc:	6e697010 	mcrvs	0, 3, r7, cr9, cr0, {0}
    15e0:	2a430100 	bcs	10c19e8 <__bss_end__+0x10b5088>
    15e4:	5e000000 	cdppl	0, 0, cr0, cr0, cr0, {0}
    15e8:	1100000a 	tstne	r0, sl
    15ec:	00008cb8 			; <UNDEFINED> instruction: 0x00008cb8
    15f0:	00000081 	andeq	r0, r0, r1, lsl #1
    15f4:	01510112 	cmpeq	r1, r2, lsl r1
    15f8:	50011230 	andpl	r1, r1, r0, lsr r2
    15fc:	5001f303 	andpl	pc, r1, r3, lsl #6
    1600:	b3060000 	movwlt	r0, #24576	; 0x6000
    1604:	01000007 	tsteq	r0, r7
    1608:	008cbc47 	addeq	fp, ip, r7, asr #24
    160c:	00001800 	andeq	r1, r0, r0, lsl #16
    1610:	cf9c0100 	svcgt	0x009c0100
    1614:	10000001 	andne	r0, r0, r1
    1618:	006e6970 	rsbeq	r6, lr, r0, ror r9
    161c:	002a4701 	eoreq	r4, sl, r1, lsl #14
    1620:	0a7f0000 	beq	1fc1628 <__bss_end__+0x1fb4cc8>
    1624:	d0110000 	andsle	r0, r1, r0
    1628:	8100008c 	smlabbhi	r0, ip, r0, r0
    162c:	12000000 	andne	r0, r0, #0
    1630:	31015101 	tstcc	r1, r1, lsl #2
    1634:	03500112 	cmpeq	r0, #-2147483644	; 0x80000004
    1638:	005001f3 	ldrsheq	r0, [r0], #-19	; 0xffffffed
    163c:	07120600 	ldreq	r0, [r2, -r0, lsl #12]
    1640:	4c010000 	stcmi	0, cr0, [r1], {-0}
    1644:	00008cd4 	ldrdeq	r8, [r0], -r4
    1648:	00000060 	andeq	r0, r0, r0, rrx
    164c:	02609c01 	rsbeq	r9, r0, #256	; 0x100
    1650:	70100000 	andsvc	r0, r0, r0
    1654:	01006e69 	tsteq	r0, r9, ror #28
    1658:	00002a4c 	andeq	r2, r0, ip, asr #20
    165c:	000aa000 	andeq	sl, sl, r0
    1660:	61760700 	cmnvs	r6, r0, lsl #14
    1664:	4c01006c 	stcmi	0, cr0, [r1], {108}	; 0x6c
    1668:	0000002a 	andeq	r0, r0, sl, lsr #32
    166c:	0c0c5101 	stfeqs	f5, [ip], {1}
    1670:	01000007 	tsteq	r0, r7
    1674:	00002a51 	andeq	r2, r0, r1, asr sl
    1678:	000ada00 	andeq	sp, sl, r0, lsl #20
    167c:	8cf41300 	ldclhi	3, cr1, [r4]
    1680:	00180000 	andseq	r0, r8, r0
    1684:	023b0000 	eorseq	r0, fp, #0
    1688:	9c0c0000 	stcls	0, cr0, [ip], {-0}
    168c:	01000007 	tsteq	r0, r7
    1690:	00002a54 	andeq	r2, r0, r4, asr sl
    1694:	000b1800 	andeq	r1, fp, r0, lsl #16
    1698:	65720b00 	ldrbvs	r0, [r2, #-2816]!	; 0xb00
    169c:	55010067 	strpl	r0, [r1, #-103]	; 0x67
    16a0:	000000ea 	andeq	r0, r0, sl, ror #1
    16a4:	00000b18 	andeq	r0, r0, r8, lsl fp
    16a8:	8d101400 	cfldrshi	mvf1, [r0, #-0]
    16ac:	00240000 	eoreq	r0, r4, r0
    16b0:	9c090000 	stcls	0, cr0, [r9], {-0}
    16b4:	01000007 	tsteq	r0, r7
    16b8:	00002a58 	andeq	r2, r0, r8, asr sl
    16bc:	0a500100 	beq	1401ac4 <__bss_end__+0x13f5164>
    16c0:	00676572 	rsbeq	r6, r7, r2, ror r5
    16c4:	00ea5901 	rsceq	r5, sl, r1, lsl #18
    16c8:	50010000 	andpl	r0, r1, r0
    16cc:	06150000 	ldreq	r0, [r5], -r0
    16d0:	01000004 	tsteq	r0, r4
    16d4:	00002a5e 	andeq	r2, r0, lr, asr sl
    16d8:	008d3400 	addeq	r3, sp, r0, lsl #8
    16dc:	00004800 	andeq	r4, r0, r0, lsl #16
    16e0:	109c0100 	addsne	r0, ip, r0, lsl #2
    16e4:	006e6970 	rsbeq	r6, lr, r0, ror r9
    16e8:	002a5e01 	eoreq	r5, sl, r1, lsl #28
    16ec:	0b2b0000 	bleq	ac16f4 <__bss_end__+0xab4d94>
    16f0:	9c0c0000 	stcls	0, cr0, [ip], {-0}
    16f4:	01000007 	tsteq	r0, r7
    16f8:	00002a63 	andeq	r2, r0, r3, ror #20
    16fc:	000b6500 	andeq	r6, fp, r0, lsl #10
    1700:	65720b00 	ldrbvs	r0, [r2, #-2816]!	; 0xb00
    1704:	64010067 	strvs	r0, [r1], #-103	; 0x67
    1708:	000000ea 	andeq	r0, r0, sl, ror #1
    170c:	00000b65 	andeq	r0, r0, r5, ror #22
    1710:	6c61760b 	stclvs	6, cr7, [r1], #-44	; 0xffffffd4
    1714:	2a650100 	bcs	1941b1c <__bss_end__+0x19351bc>
    1718:	a5000000 	strge	r0, [r0, #-0]
    171c:	0c00000b 	stceq	0, cr0, [r0], {11}
    1720:	0000070c 	andeq	r0, r0, ip, lsl #14
    1724:	002a6601 	eoreq	r6, sl, r1, lsl #12
    1728:	0bb80000 	bleq	fee01730 <__bss_end__+0xfedf4dd0>
    172c:	00000000 	andeq	r0, r0, r0
    1730:	000005e8 	andeq	r0, r0, r8, ror #11
    1734:	0a870004 	beq	fe1c174c <__bss_end__+0xfe1b4dec>
    1738:	01040000 	mrseq	r0, (UNDEF: 4)
    173c:	0000071d 	andeq	r0, r0, sp, lsl r7
    1740:	0008a501 	andeq	sl, r8, r1, lsl #10
    1744:	00002e00 	andeq	r2, r0, r0, lsl #28
    1748:	00000001 	andeq	r0, r0, r1
    174c:	8a000000 	bhi	1754 <_start-0x68ac>
    1750:	02000005 	andeq	r0, r0, #5
    1754:	000008ae 	andeq	r0, r0, lr, lsr #17
    1758:	002e2802 	eoreq	r2, lr, r2, lsl #16
    175c:	4b030000 	blmi	c1764 <__bss_end__+0xb4e04>
    1760:	04000008 	streq	r0, [r0], #-8
    1764:	00450003 	subeq	r0, r5, r3
    1768:	71040000 	mrsvc	r0, (UNDEF: 4)
    176c:	45000008 	strmi	r0, [r0, #-8]
    1770:	00000000 	andeq	r0, r0, r0
    1774:	02040500 	andeq	r0, r4, #0, 10
    1778:	0000084d 	andeq	r0, r0, sp, asr #16
    177c:	00236202 	eoreq	r6, r3, r2, lsl #4
    1780:	84060000 	strhi	r0, [r6], #-0
    1784:	01000008 	tsteq	r0, r8
    1788:	008d7c0f 	addeq	r7, sp, pc, lsl #24
    178c:	00001400 	andeq	r1, r0, r0, lsl #8
    1790:	719c0100 	orrsvc	r0, ip, r0, lsl #2
    1794:	07000000 	streq	r0, [r0, -r0]
    1798:	00008d8c 	andeq	r8, r0, ip, lsl #27
    179c:	000005d7 	ldrdeq	r0, [r0], -r7
    17a0:	082d0800 	stmdaeq	sp!, {fp}
    17a4:	16010000 	strne	r0, [r1], -r0
    17a8:	000000be 	strheq	r0, [r0], -lr
    17ac:	00008d90 	muleq	r0, r0, sp
    17b0:	00000038 	andeq	r0, r0, r8, lsr r0
    17b4:	00be9c01 	adcseq	r9, lr, r1, lsl #24
    17b8:	7f090000 	svcvc	0x00090000
    17bc:	01000008 	tsteq	r0, r8
    17c0:	0000be16 	andeq	fp, r0, r6, lsl lr
    17c4:	000bdb00 	andeq	sp, fp, r0, lsl #22
    17c8:	6f700a00 	svcvs	0x00700a00
    17cc:	16010077 			; <UNDEFINED> instruction: 0x16010077
    17d0:	000000be 	strheq	r0, [r0], -lr
    17d4:	9c0b5101 	stflss	f5, [fp], {1}
    17d8:	2400008d 	strcs	r0, [r0], #-141	; 0x8d
    17dc:	0c000000 	stceq	0, cr0, [r0], {-0}
    17e0:	17010069 	strne	r0, [r1, -r9, rrx]
    17e4:	000000be 	strheq	r0, [r0], -lr
    17e8:	00000bf9 	strdeq	r0, [r0], -r9
    17ec:	040d0000 	streq	r0, [sp], #-0
    17f0:	746e6905 	strbtvc	r6, [lr], #-2309	; 0x905
    17f4:	085e0800 	ldmdaeq	lr, {fp}^
    17f8:	21010000 	mrscs	r0, (UNDEF: 1)
    17fc:	000000be 	strheq	r0, [r0], -lr
    1800:	00008dc8 	andeq	r8, r0, r8, asr #27
    1804:	000000c8 	andeq	r0, r0, r8, asr #1
    1808:	01899c01 	orreq	r9, r9, r1, lsl #24
    180c:	620e0000 	andvs	r0, lr, #0
    1810:	01006675 	tsteq	r0, r5, ror r6
    1814:	00018921 	andeq	r8, r1, r1, lsr #18
    1818:	000c1800 	andeq	r1, ip, r0, lsl #16
    181c:	006e0e00 	rsbeq	r0, lr, r0, lsl #28
    1820:	00be2101 	adcseq	r2, lr, r1, lsl #2
    1824:	0c360000 	ldceq	0, cr0, [r6], #-0
    1828:	760a0000 	strvc	r0, [sl], -r0
    182c:	01006c61 	tsteq	r0, r1, ror #24
    1830:	00019621 	andeq	r9, r1, r1, lsr #12
    1834:	09520100 	ldmdbeq	r2, {r8}^
    1838:	0000083e 	andeq	r0, r0, lr, lsr r8
    183c:	00be2101 	adcseq	r2, lr, r1, lsl #2
    1840:	0c560000 	mraeq	r0, r6, acc0
    1844:	9b0f0000 	blls	3c184c <__bss_end__+0x3b4eec>
    1848:	01000008 	tsteq	r0, r8
    184c:	0000be23 	andeq	fp, r0, r3, lsr #28
    1850:	000c7700 	andeq	r7, ip, r0, lsl #14
    1854:	08760f00 	ldmdaeq	r6!, {r8, r9, sl, fp}^
    1858:	2b010000 	blcs	41860 <__bss_end__+0x34f00>
    185c:	000000be 	strheq	r0, [r0], -lr
    1860:	00000c96 	muleq	r0, r6, ip
    1864:	0008cd0f 	andeq	ip, r8, pc, lsl #26
    1868:	be310100 	rsflts	f0, f1, f0
    186c:	b9000000 	stmdblt	r0, {}	; <UNPREDICTABLE>
    1870:	1000000c 	andne	r0, r0, ip
    1874:	00000070 	andeq	r0, r0, r0, ror r0
    1878:	0000015a 	andeq	r0, r0, sl, asr r1
    187c:	0100740c 	tsteq	r0, ip, lsl #8
    1880:	00019626 	andeq	r9, r1, r6, lsr #12
    1884:	000cd800 	andeq	sp, ip, r0, lsl #16
    1888:	88100000 	ldmdahi	r0, {}	; <UNPREDICTABLE>
    188c:	71000000 	mrsvc	r0, (UNDEF: 0)
    1890:	0c000001 	stceq	0, cr0, [r0], {1}
    1894:	32010069 	andcc	r0, r1, #105	; 0x69
    1898:	000000be 	strheq	r0, [r0], -lr
    189c:	00000cf6 	strdeq	r0, [r0], -r6
    18a0:	8e340b00 	vaddhi.f64	d0, d4, d0
    18a4:	00380000 	eorseq	r0, r8, r0
    18a8:	690c0000 	stmdbvs	ip, {}	; <UNPREDICTABLE>
    18ac:	be370100 	rsflts	f0, f7, f0
    18b0:	15000000 	strne	r0, [r0, #-0]
    18b4:	0000000d 	andeq	r0, r0, sp
    18b8:	8f041100 	svchi	0x00041100
    18bc:	12000001 	andne	r0, r0, #1
    18c0:	057d0801 	ldrbeq	r0, [sp, #-2049]!	; 0x801
    18c4:	04120000 	ldreq	r0, [r2], #-0
    18c8:	00075307 	andeq	r5, r7, r7, lsl #6
    18cc:	08d60800 	ldmeq	r6, {fp}^
    18d0:	45010000 	strmi	r0, [r1, #-0]
    18d4:	000000be 	strheq	r0, [r0], -lr
    18d8:	00008e90 	muleq	r0, r0, lr
    18dc:	000000d8 	ldrdeq	r0, [r0], -r8
    18e0:	02769c01 	rsbseq	r9, r6, #256	; 0x100
    18e4:	620e0000 	andvs	r0, lr, #0
    18e8:	01006675 	tsteq	r0, r5, ror r6
    18ec:	00018945 	andeq	r8, r1, r5, asr #18
    18f0:	000d3300 	andeq	r3, sp, r0, lsl #6
    18f4:	006e0e00 	rsbeq	r0, lr, r0, lsl #28
    18f8:	00be4501 	adcseq	r4, lr, r1, lsl #10
    18fc:	0d510000 	ldcleq	0, cr0, [r1, #-0]
    1900:	760a0000 	strvc	r0, [sl], -r0
    1904:	01006c61 	tsteq	r0, r1, ror #24
    1908:	00019645 	andeq	r9, r1, r5, asr #12
    190c:	09520100 	ldmdbeq	r2, {r8}^
    1910:	0000083e 	andeq	r0, r0, lr, lsr r8
    1914:	00be4501 	adcseq	r4, lr, r1, lsl #10
    1918:	0d710000 	ldcleq	0, cr0, [r1, #-0]
    191c:	9b0f0000 	blls	3c1924 <__bss_end__+0x3b4fc4>
    1920:	01000008 	tsteq	r0, r8
    1924:	0000be48 	andeq	fp, r0, r8, asr #28
    1928:	000d9200 	andeq	r9, sp, r0, lsl #4
    192c:	08760f00 	ldmdaeq	r6!, {r8, r9, sl, fp}^
    1930:	4f010000 	svcmi	0x00010000
    1934:	000000be 	strheq	r0, [r0], -lr
    1938:	00000db1 			; <UNDEFINED> instruction: 0x00000db1
    193c:	0008cd0f 	andeq	ip, r8, pc, lsl #26
    1940:	be550100 	rdflts	f0, f5, f0
    1944:	d4000000 	strle	r0, [r0], #-0
    1948:	1000000d 	andne	r0, r0, sp
    194c:	000000a0 	andeq	r0, r0, r0, lsr #1
    1950:	00000232 	andeq	r0, r0, r2, lsr r2
    1954:	0100740c 	tsteq	r0, ip, lsl #8
    1958:	0001964a 	andeq	r9, r1, sl, asr #12
    195c:	000df300 	andeq	pc, sp, r0, lsl #6
    1960:	b8100000 	ldmdalt	r0, {}	; <UNPREDICTABLE>
    1964:	49000000 	stmdbmi	r0, {}	; <UNPREDICTABLE>
    1968:	0c000002 	stceq	0, cr0, [r0], {2}
    196c:	56010069 	strpl	r0, [r1], -r9, rrx
    1970:	000000be 	strheq	r0, [r0], -lr
    1974:	00000e11 	andeq	r0, r0, r1, lsl lr
    1978:	8efc0b00 	vmovhi.f64	d16, #192	; 0xc0
    197c:	00480000 	subeq	r0, r8, r0
    1980:	690c0000 	stmdbvs	ip, {}	; <UNPREDICTABLE>
    1984:	be5b0100 	rdflte	f0, f3, f0
    1988:	30000000 	andcc	r0, r0, r0
    198c:	1300000e 	movwne	r0, #14
    1990:	000000d0 	ldrdeq	r0, [r0], -r0	; <UNPREDICTABLE>
    1994:	0008c70f 	andeq	ip, r8, pc, lsl #14
    1998:	be5d0100 	rdflte	f0, f5, f0
    199c:	4e000000 	cdpmi	0, 0, cr0, cr0, cr0, {0}
    19a0:	0000000e 	andeq	r0, r0, lr
    19a4:	55080000 	strpl	r0, [r8, #-0]
    19a8:	01000008 	tsteq	r0, r8
    19ac:	0000be6f 	andeq	fp, r0, pc, ror #28
    19b0:	008f6800 	addeq	r6, pc, r0, lsl #16
    19b4:	00014c00 	andeq	r4, r1, r0, lsl #24
    19b8:	689c0100 	ldmvs	ip, {r8}
    19bc:	0e000003 	cdpeq	0, 0, cr0, cr0, cr3, {0}
    19c0:	00667562 	rsbeq	r7, r6, r2, ror #10
    19c4:	01896f01 	orreq	r6, r9, r1, lsl #30
    19c8:	0e870000 	cdpeq	0, 8, cr0, cr7, cr0, {0}
    19cc:	6e0e0000 	cdpvs	0, 0, cr0, cr14, cr0, {0}
    19d0:	be6f0100 	powlte	f0, f7, f0
    19d4:	b3000000 	movwlt	r0, #0
    19d8:	0e00000e 	cdpeq	0, 0, cr0, cr0, cr14, {0}
    19dc:	006c6176 	rsbeq	r6, ip, r6, ror r1
    19e0:	00be6f01 	adcseq	r6, lr, r1, lsl #30
    19e4:	0ede0000 	cdpeq	0, 13, cr0, cr14, cr0, {0}
    19e8:	3e090000 	cdpcc	0, 0, cr0, cr9, cr0, {0}
    19ec:	01000008 	tsteq	r0, r8
    19f0:	0000be6f 	andeq	fp, r0, pc, ror #28
    19f4:	000efc00 	andeq	pc, lr, r0, lsl #24
    19f8:	08900f00 	ldmeq	r0, {r8, r9, sl, fp}
    19fc:	70010000 	andvc	r0, r1, r0
    1a00:	0000018f 	andeq	r0, r0, pc, lsl #3
    1a04:	00000f1d 	andeq	r0, r0, sp, lsl pc
    1a08:	00089b0f 	andeq	r9, r8, pc, lsl #22
    1a0c:	be770100 	rpwlts	f0, f7, f0
    1a10:	44000000 	strmi	r0, [r0], #-0
    1a14:	0f00000f 	svceq	0x0000000f
    1a18:	00000876 	andeq	r0, r0, r6, ror r8
    1a1c:	00be7d01 	adcseq	r7, lr, r1, lsl #26
    1a20:	0f6d0000 	svceq	0x006d0000
    1a24:	cd0f0000 	stcgt	0, cr0, [pc, #-0]	; 1a2c <_start-0x65d4>
    1a28:	01000008 	tsteq	r0, r8
    1a2c:	0000be83 	andeq	fp, r0, r3, lsl #29
    1a30:	000f9000 	andeq	r9, pc, r0
    1a34:	00e81000 	rsceq	r1, r8, r0
    1a38:	031c0000 	tsteq	ip, #0
    1a3c:	740c0000 	strvc	r0, [ip], #-0
    1a40:	be780100 	rpwlte	f0, f0, f0
    1a44:	ba000000 	blt	1a4c <_start-0x65b4>
    1a48:	0000000f 	andeq	r0, r0, pc
    1a4c:	008ffc14 	addeq	pc, pc, r4, lsl ip	; <UNPREDICTABLE>
    1a50:	00002800 	andeq	r2, r0, r0, lsl #16
    1a54:	00033700 	andeq	r3, r3, r0, lsl #14
    1a58:	00690c00 	rsbeq	r0, r9, r0, lsl #24
    1a5c:	00be8a01 	adcseq	r8, lr, r1, lsl #20
    1a60:	0fee0000 	svceq	0x00ee0000
    1a64:	0b000000 	bleq	1a6c <_start-0x6594>
    1a68:	00009028 	andeq	r9, r0, r8, lsr #32
    1a6c:	0000005c 	andeq	r0, r0, ip, asr r0
    1a70:	0100690c 	tsteq	r0, ip, lsl #18
    1a74:	0000be91 	muleq	r0, r1, lr
    1a78:	00100100 	andseq	r0, r0, r0, lsl #2
    1a7c:	90501500 	subsls	r1, r0, r0, lsl #10
    1a80:	00710000 	rsbseq	r0, r1, r0
    1a84:	01160000 	tsteq	r6, r0
    1a88:	007a0551 	rsbseq	r0, sl, r1, asr r5
    1a8c:	161c0075 			; <UNDEFINED> instruction: 0x161c0075
    1a90:	79025001 	stmdbvc	r2, {r0, ip, lr}
    1a94:	00000000 	andeq	r0, r0, r0
    1a98:	00086708 	andeq	r6, r8, r8, lsl #14
    1a9c:	be9f0100 	fmllte	f0, f7, f0
    1aa0:	b4000000 	strlt	r0, [r0], #-0
    1aa4:	e0000090 	mul	r0, r0, r0
    1aa8:	01000001 	tsteq	r0, r1
    1aac:	00047e9c 	muleq	r4, ip, lr
    1ab0:	75620e00 	strbvc	r0, [r2, #-3584]!	; 0xe00
    1ab4:	9f010066 	svcls	0x00010066
    1ab8:	00000189 	andeq	r0, r0, r9, lsl #3
    1abc:	00001020 	andeq	r1, r0, r0, lsr #32
    1ac0:	0000cc09 	andeq	ip, r0, r9, lsl #24
    1ac4:	be9f0100 	fmllte	f0, f7, f0
    1ac8:	6a000000 	bvs	1ad0 <_start-0x6530>
    1acc:	09000010 	stmdbeq	r0, {r4}
    1ad0:	00000844 	andeq	r0, r0, r4, asr #16
    1ad4:	047e9f01 	ldrbteq	r9, [lr], #-3841	; 0xf01
    1ad8:	10930000 	addsne	r0, r3, r0
    1adc:	610e0000 	mrsvs	r0, (UNDEF: 14)
    1ae0:	9f010070 	svcls	0x00010070
    1ae4:	00000047 	andeq	r0, r0, r7, asr #32
    1ae8:	000010bf 	strheq	r1, [r0], -pc	; <UNPREDICTABLE>
    1aec:	0008cd0f 	andeq	ip, r8, pc, lsl #26
    1af0:	bea00100 	fdvlts	f0, f0, f0
    1af4:	f3000000 	vhadd.u8	d0, d0, d0
    1af8:	0f000010 	svceq	0x00000010
    1afc:	00000826 	andeq	r0, r0, r6, lsr #16
    1b00:	047ea101 	ldrbteq	sl, [lr], #-257	; 0x101
    1b04:	111e0000 	tstne	lr, r0
    1b08:	630c0000 	movwvs	r0, #49152	; 0xc000
    1b0c:	8fa20100 	svchi	0x00a20100
    1b10:	94000001 	strls	r0, [r0], #-1
    1b14:	0c000011 	stceq	0, cr0, [r0], {17}
    1b18:	00727473 	rsbseq	r7, r2, r3, ror r4
    1b1c:	0189a201 	orreq	sl, r9, r1, lsl #4
    1b20:	124a0000 	subne	r0, sl, #0
    1b24:	3e0f0000 	cdpcc	0, 0, cr0, cr15, cr0, {0}
    1b28:	01000008 	tsteq	r0, r8
    1b2c:	0000bea3 	andeq	fp, r0, r3, lsr #29
    1b30:	00125d00 	andseq	r5, r2, r0, lsl #26
    1b34:	08c70f00 	stmiaeq	r7, {r8, r9, sl, fp}^
    1b38:	a3010000 	movwge	r0, #4096	; 0x1000
    1b3c:	000000be 	strheq	r0, [r0], -lr
    1b40:	000012ca 	andeq	r1, r0, sl, asr #5
    1b44:	0100650c 	tsteq	r0, ip, lsl #10
    1b48:	0000bea4 	andeq	fp, r0, r4, lsr #29
    1b4c:	0012dd00 	andseq	sp, r2, r0, lsl #26
    1b50:	92241700 	eorls	r1, r4, #0, 14
    1b54:	02760000 	rsbseq	r0, r6, #0
    1b58:	04410000 	strbeq	r0, [r1], #-0
    1b5c:	01160000 	tsteq	r6, r0
    1b60:	00780551 	rsbseq	r0, r8, r1, asr r5
    1b64:	161c0074 			; <UNDEFINED> instruction: 0x161c0074
    1b68:	77055001 	strvc	r5, [r5, -r1]
    1b6c:	22007400 	andcs	r7, r0, #0, 8
    1b70:	92441700 	subls	r1, r4, #0, 14
    1b74:	019d0000 	orrseq	r0, sp, r0
    1b78:	04610000 	strbteq	r0, [r1], #-0
    1b7c:	01160000 	tsteq	r6, r0
    1b80:	00780551 	rsbseq	r0, r8, r1, asr r5
    1b84:	161c0074 			; <UNDEFINED> instruction: 0x161c0074
    1b88:	77055001 	strvc	r5, [r5, -r1]
    1b8c:	22007400 	andcs	r7, r0, #0, 8
    1b90:	92641500 	rsbls	r1, r4, #0, 10
    1b94:	00c50000 	sbceq	r0, r5, r0
    1b98:	01160000 	tsteq	r6, r0
    1b9c:	00780551 	rsbseq	r0, r8, r1, asr r5
    1ba0:	161c0074 			; <UNDEFINED> instruction: 0x161c0074
    1ba4:	77055001 	strvc	r5, [r5, -r1]
    1ba8:	22007400 	andcs	r7, r0, #0, 8
    1bac:	04110000 	ldreq	r0, [r1], #-0
    1bb0:	00000484 	andeq	r0, r0, r4, lsl #9
    1bb4:	00018f18 	andeq	r8, r1, r8, lsl pc
    1bb8:	08681900 	stmdaeq	r8!, {r8, fp, ip}^
    1bbc:	01010000 	mrseq	r0, (UNDEF: 1)
    1bc0:	0000be01 	andeq	fp, r0, r1, lsl #28
    1bc4:	00929400 	addseq	r9, r2, r0, lsl #8
    1bc8:	00002c00 	andeq	r2, r0, r0, lsl #24
    1bcc:	159c0100 	ldrne	r0, [ip, #256]	; 0x100
    1bd0:	1a000005 	bne	1bec <_start-0x6414>
    1bd4:	00667562 	rsbeq	r7, r6, r2, ror #10
    1bd8:	89010101 	stmdbhi	r1, {r0, r8}
    1bdc:	1c000001 	stcne	0, cr0, [r0], {1}
    1be0:	1b000013 	blne	1c34 <_start-0x63cc>
    1be4:	000000cc 	andeq	r0, r0, ip, asr #1
    1be8:	be010101 	adflts	f0, f1, f1
    1bec:	3d000000 	stccc	0, cr0, [r0, #-0]
    1bf0:	1c000013 	stcne	0, cr0, [r0], {19}
    1bf4:	00000844 	andeq	r0, r0, r4, asr #16
    1bf8:	7e010101 	adfvcs	f0, f1, f1
    1bfc:	02000004 	andeq	r0, r0, #4
    1c00:	1e1d7891 	mrcne	8, 0, r7, cr13, cr1, {4}
    1c04:	01007061 	tsteq	r0, r1, rrx
    1c08:	00470102 	subeq	r0, r7, r2, lsl #2
    1c0c:	91020000 	mrsls	r0, (UNDEF: 2)
    1c10:	08cd1f64 	stmiaeq	sp, {r2, r5, r6, r8, r9, sl, fp, ip}^
    1c14:	04010000 	streq	r0, [r1], #-0
    1c18:	0000be01 	andeq	fp, r0, r1, lsl #28
    1c1c:	15500100 	ldrbne	r0, [r0, #-256]	; 0x100
    1c20:	000092b8 			; <UNDEFINED> instruction: 0x000092b8
    1c24:	00000368 	andeq	r0, r0, r8, ror #6
    1c28:	02530116 	subseq	r0, r3, #-2147483643	; 0x80000005
    1c2c:	01167c91 			; <UNDEFINED> instruction: 0x01167c91
    1c30:	78910352 	ldmvc	r1, {r1, r4, r6, r8, r9}
    1c34:	51011606 	tstpl	r1, r6, lsl #12
    1c38:	5101f303 	tstpl	r1, r3, lsl #6
    1c3c:	03500116 	cmpeq	r0, #-2147483643	; 0x80000005
    1c40:	005001f3 	ldrsheq	r0, [r0], #-19	; 0xffffffed
    1c44:	086a1900 	stmdaeq	sl!, {r8, fp, ip}^
    1c48:	09010000 	stmdbeq	r1, {}	; <UNPREDICTABLE>
    1c4c:	0000be01 	andeq	fp, r0, r1, lsl #28
    1c50:	0092c000 	addseq	ip, r2, r0
    1c54:	00006800 	andeq	r6, r0, r0, lsl #16
    1c58:	bf9c0100 	svclt	0x009c0100
    1c5c:	1c000005 	stcne	0, cr0, [r0], {5}
    1c60:	00000844 	andeq	r0, r0, r4, asr #16
    1c64:	7e010901 	cdpvc	9, 0, cr0, cr1, cr1, {0}
    1c68:	02000004 	andeq	r0, r0, #4
    1c6c:	1e1d7091 	mrcne	0, 0, r7, cr13, cr1, {4}
    1c70:	00667562 	rsbeq	r7, r6, r2, ror #10
    1c74:	bf010a01 	svclt	0x00010a01
    1c78:	03000005 	movweq	r0, #5
    1c7c:	2077d891 			; <UNDEFINED> instruction: 0x2077d891
    1c80:	0b010063 	bleq	41e14 <__bss_end__+0x354b4>
    1c84:	00018f01 	andeq	r8, r1, r1, lsl #30
    1c88:	00135e00 	andseq	r5, r3, r0, lsl #28
    1c8c:	74702000 	ldrbtvc	r2, [r0], #-0
    1c90:	0b010072 	bleq	41e60 <__bss_end__+0x35500>
    1c94:	00018901 	andeq	r8, r1, r1, lsl #18
    1c98:	00137e00 	andseq	r7, r3, r0, lsl #28
    1c9c:	70611e00 	rsbvc	r1, r1, r0, lsl #28
    1ca0:	010c0100 	mrseq	r0, (UNDEF: 28)
    1ca4:	00000047 	andeq	r0, r0, r7, asr #32
    1ca8:	77d49103 	ldrbvc	r9, [r4, r3, lsl #2]
    1cac:	0008cd21 	andeq	ip, r8, r1, lsr #26
    1cb0:	010e0100 	mrseq	r0, (UNDEF: 30)
    1cb4:	000000be 	strheq	r0, [r0], -lr
    1cb8:	000013b5 			; <UNDEFINED> instruction: 0x000013b5
    1cbc:	0092f417 	addseq	pc, r2, r7, lsl r4	; <UNPREDICTABLE>
    1cc0:	00036800 	andeq	r6, r3, r0, lsl #16
    1cc4:	0005b500 	andeq	fp, r5, r0, lsl #10
    1cc8:	53011600 	movwpl	r1, #5632	; 0x1600
    1ccc:	16749102 	ldrbtne	r9, [r4], -r2, lsl #2
    1cd0:	91035201 	tstls	r3, r1, lsl #4
    1cd4:	01160670 	tsteq	r6, r0, ror r6
    1cd8:	000a0351 	andeq	r0, sl, r1, asr r3
    1cdc:	50011604 	andpl	r1, r1, r4, lsl #12
    1ce0:	77d89103 	ldrbvc	r9, [r8, r3, lsl #2]
    1ce4:	93080700 	movwls	r0, #34560	; 0x8700
    1ce8:	05de0000 	ldrbeq	r0, [lr]
    1cec:	22000000 	andcs	r0, r0, #0
    1cf0:	0000018f 	andeq	r0, r0, pc, lsl #3
    1cf4:	000005d0 	ldrdeq	r0, [r0], -r0	; <UNPREDICTABLE>
    1cf8:	0005d023 	andeq	sp, r5, r3, lsr #32
    1cfc:	0003ff00 	andeq	pc, r3, r0, lsl #30
    1d00:	22070412 	andcs	r0, r7, #301989888	; 0x12000000
    1d04:	24000000 	strcs	r0, [r0], #-0
    1d08:	0000081c 	andeq	r0, r0, ip, lsl r8
    1d0c:	bd250b04 	vstmdblt	r5!, {d0-d1}
    1d10:	04000008 	streq	r0, [r0], #-8
    1d14:	0196260d 	orrseq	r2, r6, sp, lsl #12
    1d18:	00000000 	andeq	r0, r0, r0
    1d1c:	000001ad 	andeq	r0, r0, sp, lsr #3
    1d20:	0c880004 	stceq	0, cr0, [r8], {4}
    1d24:	01040000 	mrseq	r0, (UNDEF: 4)
    1d28:	0000071d 	andeq	r0, r0, sp, lsl r7
    1d2c:	00090701 	andeq	r0, r9, r1, lsl #14
    1d30:	48002e00 	stmdami	r0, {r9, sl, fp, sp}
    1d34:	00000001 	andeq	r0, r0, r1
    1d38:	fc000000 	stc2	0, cr0, [r0], {-0}
    1d3c:	02000007 	andeq	r0, r0, #7
    1d40:	000008f7 	strdeq	r0, [r0], -r7
    1d44:	93280801 	teqls	r8, #65536	; 0x10000
    1d48:	00100000 	andseq	r0, r0, r0
    1d4c:	9c010000 	stcls	0, cr0, [r1], {-0}
    1d50:	0008df03 	andeq	sp, r8, r3, lsl #30
    1d54:	5d0a0100 	stfpls	f0, [sl, #-0]
    1d58:	38000000 	stmdacc	r0, {}	; <UNPREDICTABLE>
    1d5c:	1c000093 	stcne	0, cr0, [r0], {147}	; 0x93
    1d60:	01000000 	mrseq	r0, (UNDEF: 0)
    1d64:	00005d9c 	muleq	r0, ip, sp
    1d68:	06c90400 	strbeq	r0, [r9], r0, lsl #8
    1d6c:	0b010000 	bleq	41d74 <__bss_end__+0x35414>
    1d70:	00000064 	andeq	r0, r0, r4, rrx
    1d74:	20003004 	andcs	r3, r0, r4
    1d78:	07040500 	streq	r0, [r4, -r0, lsl #10]
    1d7c:	00000753 	andeq	r0, r0, r3, asr r7
    1d80:	006a0406 	rsbeq	r0, sl, r6, lsl #8
    1d84:	5d070000 	stcpl	0, cr0, [r7, #-0]
    1d88:	08000000 	stmdaeq	r0, {}	; <UNPREDICTABLE>
    1d8c:	000001da 	ldrdeq	r0, [r0], -sl
    1d90:	93540f01 	cmpls	r4, #1, 30
    1d94:	002c0000 	eoreq	r0, ip, r0
    1d98:	9c010000 	stcls	0, cr0, [r1], {-0}
    1d9c:	000000cd 	andeq	r0, r0, sp, asr #1
    1da0:	00737509 	rsbseq	r7, r3, r9, lsl #10
    1da4:	005d0f01 	subseq	r0, sp, r1, lsl #30
    1da8:	13d30000 	bicsne	r0, r3, #0
    1dac:	720a0000 	andvc	r0, sl, #0
    1db0:	10010062 	andne	r0, r1, r2, rrx
    1db4:	0000005d 	andeq	r0, r0, sp, asr r0
    1db8:	6c0b5401 	cfstrsvs	mvf5, [fp], {1}
    1dbc:	10000093 	mulne	r0, r3, r0
    1dc0:	c3000000 	movwgt	r0, #0
    1dc4:	0c000000 	stceq	0, cr0, [r0], {-0}
    1dc8:	01006172 	tsteq	r0, r2, ror r1
    1dcc:	00005d12 	andeq	r5, r0, r2, lsl sp
    1dd0:	0013f100 	andseq	pc, r3, r0, lsl #2
    1dd4:	93700d00 	cmnls	r0, #0, 26
    1dd8:	00340000 	eorseq	r0, r4, r0
    1ddc:	0d000000 	stceq	0, cr0, [r0, #-0]
    1de0:	00009368 	andeq	r9, r0, r8, ror #6
    1de4:	00000034 	andeq	r0, r0, r4, lsr r0
    1de8:	09210800 	stmdbeq	r1!, {fp}
    1dec:	19010000 	stmdbne	r1, {}	; <UNPREDICTABLE>
    1df0:	00009380 	andeq	r9, r0, r0, lsl #7
    1df4:	00000034 	andeq	r0, r0, r4, lsr r0
    1df8:	010e9c01 	tsteq	lr, r1, lsl #24
    1dfc:	6d090000 	stcvs	0, cr0, [r9, #-0]
    1e00:	19010073 	stmdbne	r1, {r0, r1, r4, r5, r6}
    1e04:	0000005d 	andeq	r0, r0, sp, asr r0
    1e08:	00001404 	andeq	r1, r0, r4, lsl #8
    1e0c:	0100690c 	tsteq	r0, ip, lsl #18
    1e10:	00010e1a 	andeq	r0, r1, sl, lsl lr
    1e14:	00142200 	andseq	r2, r4, r0, lsl #4
    1e18:	93a40e00 			; <UNDEFINED> instruction: 0x93a40e00
    1e1c:	006f0000 	rsbeq	r0, pc, r0
    1e20:	010f0000 	mrseq	r0, CPSR
    1e24:	00760250 	rsbseq	r0, r6, r0, asr r2
    1e28:	04100000 	ldreq	r0, [r0], #-0
    1e2c:	746e6905 	strbtvc	r6, [lr], #-2309	; 0x905
    1e30:	091b0800 	ldmdbeq	fp, {fp}
    1e34:	20010000 	andcs	r0, r1, r0
    1e38:	000093b4 			; <UNDEFINED> instruction: 0x000093b4
    1e3c:	00000034 	andeq	r0, r0, r4, lsr r0
    1e40:	01559c01 	cmpeq	r5, r1, lsl #24
    1e44:	73090000 	movwvc	r0, #36864	; 0x9000
    1e48:	5d200100 	stfpls	f0, [r0, #-0]
    1e4c:	41000000 	mrsmi	r0, (UNDEF: 0)
    1e50:	0c000014 	stceq	0, cr0, [r0], {20}
    1e54:	21010069 	tstcs	r1, r9, rrx
    1e58:	0000010e 	andeq	r0, r0, lr, lsl #2
    1e5c:	0000145f 	andeq	r1, r0, pc, asr r4
    1e60:	0093d80e 	addseq	sp, r3, lr, lsl #16
    1e64:	0000cd00 	andeq	ip, r0, r0, lsl #26
    1e68:	50010f00 	andpl	r0, r1, r0, lsl #30
    1e6c:	00007602 	andeq	r7, r0, r2, lsl #12
    1e70:	08ee0800 	stmiaeq	lr!, {fp}^
    1e74:	27010000 	strcs	r0, [r1, -r0]
    1e78:	000093e8 	andeq	r9, r0, r8, ror #7
    1e7c:	00000020 	andeq	r0, r0, r0, lsr #32
    1e80:	019a9c01 	orrseq	r9, sl, r1, lsl #24
    1e84:	02110000 	andseq	r0, r1, #0
    1e88:	01000009 	tsteq	r0, r9
    1e8c:	00005d27 	andeq	r5, r0, r7, lsr #26
    1e90:	00147e00 	andseq	r7, r4, r0, lsl #28
    1e94:	93f81200 	mvnsls	r1, #0, 4
    1e98:	000c0000 	andeq	r0, ip, r0
    1e9c:	e9130000 	ldmdb	r3, {}	; <UNPREDICTABLE>
    1ea0:	01000008 	tsteq	r0, r8
    1ea4:	00005d29 	andeq	r5, r0, r9, lsr #26
    1ea8:	0d500100 	ldfeqe	f0, [r0, #-0]
    1eac:	000093fc 	strdeq	r9, [r0], -ip
    1eb0:	00000034 	andeq	r0, r0, r4, lsr r0
    1eb4:	0f140000 	svceq	0x00140000
    1eb8:	01000009 	tsteq	r0, r9
    1ebc:	0001ab05 	andeq	sl, r1, r5, lsl #22
    1ec0:	4c030500 	cfstr32mi	mvfx0, [r3], {-0}
    1ec4:	150000c6 	strne	r0, [r0, #-198]	; 0xc6
    1ec8:	0000005d 	andeq	r0, r0, sp, asr r0
    1ecc:	0001de00 	andeq	sp, r1, r0, lsl #28
    1ed0:	b8000400 	stmdalt	r0, {sl}
    1ed4:	0400000d 	streq	r0, [r0], #-13
    1ed8:	00071d01 	andeq	r1, r7, r1, lsl #26
    1edc:	09340100 	ldmdbeq	r4!, {r8}
    1ee0:	002e0000 	eoreq	r0, lr, r0
    1ee4:	00000180 	andeq	r0, r0, r0, lsl #3
    1ee8:	00000000 	andeq	r0, r0, r0
    1eec:	000008b0 			; <UNDEFINED> instruction: 0x000008b0
    1ef0:	4f020102 	svcmi	0x00020102
    1ef4:	00000062 	andeq	r0, r0, r2, rrx
    1ef8:	0007fa03 	andeq	pc, r7, r3, lsl #20
    1efc:	29030000 	stmdbcs	r3, {}	; <UNPREDICTABLE>
    1f00:	01000007 	tsteq	r0, r7
    1f04:	00073a03 	andeq	r3, r7, r3, lsl #20
    1f08:	da030400 	ble	c2f10 <__bss_end__+0xb65b0>
    1f0c:	05000007 	streq	r0, [r0, #-7]
    1f10:	00076003 	andeq	r6, r7, r3
    1f14:	6f030600 	svcvs	0x00030600
    1f18:	07000007 	streq	r0, [r0, -r7]
    1f1c:	00077e03 	andeq	r7, r7, r3, lsl #28
    1f20:	8d030300 	stchi	3, cr0, [r3, #-0]
    1f24:	02000007 	andeq	r0, r0, #7
    1f28:	0007a103 	andeq	sl, r7, r3, lsl #2
    1f2c:	04000800 	streq	r0, [r0], #-2048	; 0x800
    1f30:	00000967 	andeq	r0, r0, r7, ror #18
    1f34:	f305012c 	vrhadd.u8	d0, d5, d28
    1f38:	05000000 	streq	r0, [r0, #-0]
    1f3c:	0000092f 	andeq	r0, r0, pc, lsr #18
    1f40:	00f30601 	rscseq	r0, r3, r1, lsl #12
    1f44:	06000000 	streq	r0, [r0], -r0
    1f48:	00726569 	rsbseq	r6, r2, r9, ror #10
    1f4c:	00f30701 	rscseq	r0, r3, r1, lsl #14
    1f50:	06040000 	streq	r0, [r4], -r0
    1f54:	00726969 	rsbseq	r6, r2, r9, ror #18
    1f58:	00f30801 	rscseq	r0, r3, r1, lsl #16
    1f5c:	06080000 	streq	r0, [r8], -r0
    1f60:	0072636c 	rsbseq	r6, r2, ip, ror #6
    1f64:	00f30901 	rscseq	r0, r3, r1, lsl #18
    1f68:	060c0000 	streq	r0, [ip], -r0
    1f6c:	0072636d 	rsbseq	r6, r2, sp, ror #6
    1f70:	00f30a01 	rscseq	r0, r3, r1, lsl #20
    1f74:	06100000 	ldreq	r0, [r0], -r0
    1f78:	0072736c 	rsbseq	r7, r2, ip, ror #6
    1f7c:	00f30b01 	rscseq	r0, r3, r1, lsl #22
    1f80:	06140000 	ldreq	r0, [r4], -r0
    1f84:	0072736d 	rsbseq	r7, r2, sp, ror #6
    1f88:	00f30c01 	rscseq	r0, r3, r1, lsl #24
    1f8c:	05180000 	ldreq	r0, [r8, #-0]
    1f90:	0000095a 	andeq	r0, r0, sl, asr r9
    1f94:	00f30d01 	rscseq	r0, r3, r1, lsl #26
    1f98:	051c0000 	ldreq	r0, [ip, #-0]
    1f9c:	00000955 	andeq	r0, r0, r5, asr r9
    1fa0:	00f30e01 	rscseq	r0, r3, r1, lsl #28
    1fa4:	05200000 	streq	r0, [r0, #-0]!
    1fa8:	0000092a 	andeq	r0, r0, sl, lsr #18
    1fac:	00f30f01 	rscseq	r0, r3, r1, lsl #30
    1fb0:	05240000 	streq	r0, [r4, #-0]!
    1fb4:	00000950 	andeq	r0, r0, r0, asr r9
    1fb8:	00f31001 	rscseq	r1, r3, r1
    1fbc:	00280000 	eoreq	r0, r8, r0
    1fc0:	53070407 	movwpl	r0, #29703	; 0x7407
    1fc4:	08000007 	stmdaeq	r0, {r0, r1, r2}
    1fc8:	0000081c 	andeq	r0, r0, ip, lsl r8
    1fcc:	94082a01 	strls	r2, [r8], #-2561	; 0xa01
    1fd0:	00680000 	rsbeq	r0, r8, r0
    1fd4:	9c010000 	stcls	0, cr0, [r1], {-0}
    1fd8:	0000014b 	andeq	r0, r0, fp, asr #2
    1fdc:	78756109 	ldmdavc	r5!, {r0, r3, r8, sp, lr}^
    1fe0:	4b2b0100 	blmi	ac23e8 <__bss_end__+0xab5a88>
    1fe4:	04000001 	streq	r0, [r0], #-1
    1fe8:	0a202150 	beq	80a530 <__bss_end__+0x7fdbd0>
    1fec:	00009454 	andeq	r9, r0, r4, asr r4
    1ff0:	000001cf 	andeq	r0, r0, pc, asr #3
    1ff4:	00000136 	andeq	r0, r0, r6, lsr r1
    1ff8:	0151010b 	cmpeq	r1, fp, lsl #2
    1ffc:	50010b32 	andpl	r0, r1, r2, lsr fp
    2000:	0c003e01 	stceq	14, cr3, [r0], {1}
    2004:	00009460 	andeq	r9, r0, r0, ror #8
    2008:	000001cf 	andeq	r0, r0, pc, asr #3
    200c:	0151010b 	cmpeq	r1, fp, lsl #2
    2010:	50010b32 	andpl	r0, r1, r2, lsr fp
    2014:	00003f01 	andeq	r3, r0, r1, lsl #30
    2018:	0151040d 	cmpeq	r1, sp, lsl #8
    201c:	040e0000 	streq	r0, [lr], #-0
    2020:	746e6905 	strbtvc	r6, [lr], #-2309	; 0x905
    2024:	09460f00 	stmdbeq	r6, {r8, r9, sl, fp}^
    2028:	41010000 	mrsmi	r0, (UNDEF: 1)
    202c:	00000151 	andeq	r0, r0, r1, asr r1
    2030:	00009470 	andeq	r9, r0, r0, ror r4
    2034:	00000030 	andeq	r0, r0, r0, lsr r0
    2038:	bd089c01 	stclt	12, cr9, [r8, #-4]
    203c:	01000008 	tsteq	r0, r8
    2040:	0094a046 	addseq	sl, r4, r6, asr #32
    2044:	00004000 	andeq	r4, r0, r0
    2048:	9f9c0100 	svcls	0x009c0100
    204c:	10000001 	andne	r0, r0, r1
    2050:	46010063 	strmi	r0, [r1], -r3, rrx
    2054:	000000f3 	strdeq	r0, [r0], -r3
    2058:	0000149c 	muleq	r0, ip, r4
    205c:	0094c00c 	addseq	ip, r4, ip
    2060:	00016d00 	andeq	r6, r1, r0, lsl #26
    2064:	50010b00 	andpl	r0, r1, r0, lsl #22
    2068:	00003d01 	andeq	r3, r0, r1, lsl #26
    206c:	00093b11 	andeq	r3, r9, r1, lsl fp
    2070:	e04e0100 	sub	r0, lr, r0, lsl #2
    2074:	24000094 	strcs	r0, [r0], #-148	; 0x94
    2078:	01000000 	mrseq	r0, (UNDEF: 0)
    207c:	0962129c 	stmdbeq	r2!, {r2, r3, r4, r7, r9, ip}^
    2080:	28010000 	stmdacs	r1, {}	; <UNPREDICTABLE>
    2084:	000001bf 			; <UNDEFINED> instruction: 0x000001bf
    2088:	20215040 	eorcs	r5, r1, r0, asr #32
    208c:	0001c413 	andeq	ip, r1, r3, lsl r4
    2090:	ca040d00 	bgt	105498 <__bss_end__+0xf8b38>
    2094:	14000001 	strne	r0, [r0], #-1
    2098:	00000062 	andeq	r0, r0, r2, rrx
    209c:	00080a15 	andeq	r0, r8, r5, lsl sl
    20a0:	165a0200 	ldrbne	r0, [sl], -r0, lsl #4
    20a4:	000000f3 	strdeq	r0, [r0], -r3
    20a8:	0000f316 	andeq	pc, r0, r6, lsl r3	; <UNPREDICTABLE>
    20ac:	6a000000 	bvs	20b4 <_start-0x5f4c>
    20b0:	04000001 	streq	r0, [r0], #-1
    20b4:	000ef100 	andeq	pc, lr, r0, lsl #2
    20b8:	1d010400 	cfstrsne	mvf0, [r1, #-0]
    20bc:	01000007 	tsteq	r0, r7
    20c0:	0000096c 	andeq	r0, r0, ip, ror #18
    20c4:	01a8002e 			; <UNDEFINED> instruction: 0x01a8002e
    20c8:	00000000 	andeq	r0, r0, r0
    20cc:	09510000 	ldmdbeq	r1, {}^	; <UNPREDICTABLE>
    20d0:	01020000 	mrseq	r0, (UNDEF: 2)
    20d4:	003e0402 	eorseq	r0, lr, r2, lsl #8
    20d8:	a2030000 	andge	r0, r3, #0
    20dc:	00000009 	andeq	r0, r0, r9
    20e0:	00099003 	andeq	r9, r9, r3
    20e4:	80030100 	andhi	r0, r3, r0, lsl #2
    20e8:	02000009 	andeq	r0, r0, #9
    20ec:	09cd0400 	stmibeq	sp, {sl}^
    20f0:	13010000 	movwne	r0, #4096	; 0x1000
    20f4:	00009504 	andeq	r9, r0, r4, lsl #10
    20f8:	00000068 	andeq	r0, r0, r8, rrx
    20fc:	00d89c01 	sbcseq	r9, r8, r1, lsl #24
    2100:	70050000 	andvc	r0, r5, r0
    2104:	01006e69 	tsteq	r0, r9, ror #28
    2108:	0000d813 	andeq	sp, r0, r3, lsl r8
    210c:	0014ba00 	andseq	fp, r4, r0, lsl #20
    2110:	75700500 	ldrbvc	r0, [r0, #-1280]!	; 0x500
    2114:	13010064 	movwne	r0, #4196	; 0x1064
    2118:	000000d8 	ldrdeq	r0, [r0], -r8
    211c:	000014e6 	andeq	r1, r0, r6, ror #9
    2120:	00097806 	andeq	r7, r9, r6, lsl #16
    2124:	df170100 	svcle	0x00170100
    2128:	94000000 	strls	r0, [r0], #-0
    212c:	06202000 	strteq	r2, [r0], -r0
    2130:	000009b3 			; <UNDEFINED> instruction: 0x000009b3
    2134:	00df1b01 	sbcseq	r1, pc, r1, lsl #22
    2138:	00980000 	addseq	r0, r8, r0
    213c:	30072020 	andcc	r2, r7, r0, lsr #32
    2140:	60000095 	mulvs	r0, r5, r0
    2144:	a2000001 	andge	r0, r0, #1
    2148:	08000000 	stmdaeq	r0, {}	; <UNPREDICTABLE>
    214c:	35015001 	strcc	r5, [r1, #-1]
    2150:	95480700 	strbls	r0, [r8, #-1792]	; 0x700
    2154:	01600000 	cmneq	r0, r0
    2158:	00b50000 	adcseq	r0, r5, r0
    215c:	01080000 	mrseq	r0, (UNDEF: 8)
    2160:	00350150 	eorseq	r0, r5, r0, asr r1
    2164:	00955807 	addseq	r5, r5, r7, lsl #16
    2168:	00016000 	andeq	r6, r1, r0
    216c:	0000c800 	andeq	ip, r0, r0, lsl #16
    2170:	50010800 	andpl	r0, r1, r0, lsl #16
    2174:	09003501 	stmdbeq	r0, {r0, r8, sl, ip, sp}
    2178:	00009564 	andeq	r9, r0, r4, ror #10
    217c:	00000160 	andeq	r0, r0, r0, ror #2
    2180:	01500108 	cmpeq	r0, r8, lsl #2
    2184:	0a000035 	beq	2260 <_start-0x5da0>
    2188:	07530704 	ldrbeq	r0, [r3, -r4, lsl #14]
    218c:	040b0000 	streq	r0, [fp], #-0
    2190:	000000e5 	andeq	r0, r0, r5, ror #1
    2194:	0000d80c 	andeq	sp, r0, ip, lsl #16
    2198:	04350400 	ldrteq	r0, [r5], #-1024	; 0x400
    219c:	26010000 	strcs	r0, [r1], -r0
    21a0:	0000956c 	andeq	r9, r0, ip, ror #10
    21a4:	00000020 	andeq	r0, r0, r0, lsr #32
    21a8:	01259c01 	teqeq	r5, r1, lsl #24
    21ac:	70050000 	andvc	r0, r5, r0
    21b0:	01006e69 	tsteq	r0, r9, ror #28
    21b4:	0000d826 	andeq	sp, r0, r6, lsr #16
    21b8:	00150700 	andseq	r0, r5, r0, lsl #14
    21bc:	95880900 	strls	r0, [r8, #2304]	; 0x900
    21c0:	003e0000 	eorseq	r0, lr, r0
    21c4:	01080000 	mrseq	r0, (UNDEF: 8)
    21c8:	08320151 	ldmdaeq	r2!, {r0, r4, r6, r8}
    21cc:	f3035001 	vhadd.u8	d5, d3, d1
    21d0:	00005001 	andeq	r5, r0, r1
    21d4:	0009bb04 	andeq	fp, r9, r4, lsl #22
    21d8:	8c2e0100 	stfhis	f0, [lr], #-0
    21dc:	18000095 	stmdane	r0, {r0, r2, r4, r7}
    21e0:	01000000 	mrseq	r0, (UNDEF: 0)
    21e4:	0001609c 	muleq	r1, ip, r0
    21e8:	69700500 	ldmdbvs	r0!, {r8, sl}^
    21ec:	2e01006e 	cdpcs	0, 0, cr0, cr1, cr14, {3}
    21f0:	000000d8 	ldrdeq	r0, [r0], -r8
    21f4:	00001528 	andeq	r1, r0, r8, lsr #10
    21f8:	0095a009 	addseq	sl, r5, r9
    21fc:	00003e00 	andeq	r3, r0, r0, lsl #28
    2200:	51010800 	tstpl	r1, r0, lsl #16
    2204:	01083101 	tsteq	r8, r1, lsl #2
    2208:	01f30350 	mvnseq	r0, r0, asr r3
    220c:	0d000050 	stceq	0, cr0, [r0, #-320]	; 0xfffffec0
    2210:	000001da 	ldrdeq	r0, [r0], -sl
    2214:	d80e0f03 	stmdale	lr, {r0, r1, r8, r9, sl, fp}
    2218:	00000000 	andeq	r0, r0, r0
    221c:	00035000 	andeq	r5, r3, r0
    2220:	aa000400 	bge	3228 <_start-0x4dd8>
    2224:	0400000f 	streq	r0, [r0], #-15
    2228:	00071d01 	andeq	r1, r7, r1, lsl #26
    222c:	09da0100 	ldmibeq	sl, {r8}^
    2230:	002e0000 	eoreq	r0, lr, r0
    2234:	000001c8 	andeq	r0, r0, r8, asr #3
    2238:	00000000 	andeq	r0, r0, r0
    223c:	000009db 	ldrdeq	r0, [r0], -fp
    2240:	12020102 	andne	r0, r2, #-2147483648	; 0x80000000
    2244:	0000017c 	andeq	r0, r0, ip, ror r1
    2248:	00041003 	andeq	r1, r4, r3
    224c:	4b030000 	blmi	c2254 <__bss_end__+0xb58f4>
    2250:	00000004 	andeq	r0, r0, r4
    2254:	00045503 	andeq	r5, r4, r3, lsl #10
    2258:	5f030100 	svcpl	0x00030100
    225c:	02000004 	andeq	r0, r0, #4
    2260:	00049503 	andeq	r9, r4, r3, lsl #10
    2264:	77030300 	strvc	r0, [r3, -r0, lsl #6]
    2268:	04000004 	streq	r0, [r0], #-4
    226c:	00048103 	andeq	r8, r4, r3, lsl #2
    2270:	8b030500 	blhi	c3678 <__bss_end__+0xb6d18>
    2274:	06000004 	streq	r0, [r0], -r4
    2278:	0004ea03 	andeq	lr, r4, r3, lsl #20
    227c:	9f030700 	svcls	0x00030700
    2280:	08000004 	stmdaeq	r0, {r2}
    2284:	0004a903 	andeq	sl, r4, r3, lsl #18
    2288:	fd030900 	stc2	9, cr0, [r3, #-0]
    228c:	0a000002 	beq	229c <_start-0x5d64>
    2290:	00030803 	andeq	r0, r3, r3, lsl #16
    2294:	13030b00 	movwne	r0, #15104	; 0x3b00
    2298:	0c000003 	stceq	0, cr0, [r0], {3}
    229c:	00031e03 	andeq	r1, r3, r3, lsl #28
    22a0:	29030d00 	stmdbcs	r3, {r8, sl, fp}
    22a4:	0e000003 	cdpeq	0, 0, cr0, cr0, cr3, {0}
    22a8:	00033403 	andeq	r3, r3, r3, lsl #8
    22ac:	3f030f00 	svccc	0x00030f00
    22b0:	10000003 	andne	r0, r0, r3
    22b4:	00034a03 	andeq	r4, r3, r3, lsl #20
    22b8:	55031100 	strpl	r1, [r3, #-256]	; 0x100
    22bc:	12000003 	andne	r0, r0, #3
    22c0:	00036003 	andeq	r6, r3, r3
    22c4:	1f031300 	svcne	0x00031300
    22c8:	14000005 	strne	r0, [r0], #-5
    22cc:	00052a03 	andeq	r2, r5, r3, lsl #20
    22d0:	35031500 	strcc	r1, [r3, #-1280]	; 0x500
    22d4:	16000005 	strne	r0, [r0], -r5
    22d8:	00054003 	andeq	r4, r5, r3
    22dc:	56031700 	strpl	r1, [r3], -r0, lsl #14
    22e0:	18000005 	stmdane	r0, {r0, r2}
    22e4:	00026f03 	andeq	r6, r2, r3, lsl #30
    22e8:	85031900 	strhi	r1, [r3, #-2304]	; 0x900
    22ec:	1a000002 	bne	22fc <_start-0x5d04>
    22f0:	00029003 	andeq	r9, r2, r3
    22f4:	9b031b00 	blls	c8efc <__bss_end__+0xbc59c>
    22f8:	1c000002 	stcne	0, cr0, [r0], {2}
    22fc:	0004b303 	andeq	fp, r4, r3, lsl #6
    2300:	4b031d00 	blmi	c9708 <__bss_end__+0xbcda8>
    2304:	1e000005 	cdpne	0, 0, cr0, cr0, cr5, {0}
    2308:	00026403 	andeq	r6, r2, r3, lsl #8
    230c:	7a031f00 	bvc	c9f14 <__bss_end__+0xbd5b4>
    2310:	20000002 	andcs	r0, r0, r2
    2314:	00036b03 	andeq	r6, r3, r3, lsl #22
    2318:	76032100 	strvc	r2, [r3], -r0, lsl #2
    231c:	22000003 	andcs	r0, r0, #3
    2320:	00038103 	andeq	r8, r3, r3, lsl #2
    2324:	8c032300 	stchi	3, cr2, [r3], {-0}
    2328:	24000003 	strcs	r0, [r0], #-3
    232c:	00039703 	andeq	r9, r3, r3, lsl #14
    2330:	a2032500 	andge	r2, r3, #0, 10
    2334:	26000003 	strcs	r0, [r0], -r3
    2338:	0003ad03 	andeq	sl, r3, r3, lsl #26
    233c:	c3032700 	movwgt	r2, #14080	; 0x3700
    2340:	28000003 	stmdacs	r0, {r0, r1}
    2344:	0002a603 	andeq	sl, r2, r3, lsl #12
    2348:	b1032900 	tstlt	r3, r0, lsl #18
    234c:	2a000002 	bcs	235c <_start-0x5ca4>
    2350:	0004be03 	andeq	fp, r4, r3, lsl #28
    2354:	c9032b00 	stmdbgt	r3, {r8, r9, fp, sp}
    2358:	2c000004 	stccs	0, cr0, [r0], {4}
    235c:	0004d403 	andeq	sp, r4, r3, lsl #8
    2360:	df032d00 	svcle	0x00032d00
    2364:	2e000004 	cdpcs	0, 0, cr0, cr0, cr4, {0}
    2368:	0002e503 	andeq	lr, r2, r3, lsl #10
    236c:	f4032f00 			; <UNDEFINED> instruction: 0xf4032f00
    2370:	30000004 	andcc	r0, r0, r4
    2374:	0004ff03 	andeq	pc, r4, r3, lsl #30
    2378:	c4033100 	strgt	r3, [r3], #-256	; 0x100
    237c:	32000002 	andcc	r0, r0, #2
    2380:	0002cf03 	andeq	ip, r2, r3, lsl #30
    2384:	da033300 	ble	cef8c <__bss_end__+0xc262c>
    2388:	34000002 	strcc	r0, [r0], #-2
    238c:	0003b803 	andeq	fp, r3, r3, lsl #16
    2390:	0a033500 	beq	cf798 <__bss_end__+0xc2e38>
    2394:	35000005 	strcc	r0, [r0, #-5]
    2398:	02010200 	andeq	r0, r1, #0, 4
    239c:	0001bb4f 	andeq	fp, r1, pc, asr #22
    23a0:	07fa0300 	ldrbeq	r0, [sl, r0, lsl #6]!
    23a4:	03000000 	movweq	r0, #0
    23a8:	00000729 	andeq	r0, r0, r9, lsr #14
    23ac:	073a0301 	ldreq	r0, [sl, -r1, lsl #6]!
    23b0:	03040000 	movweq	r0, #16384	; 0x4000
    23b4:	000007da 	ldrdeq	r0, [r0], -sl
    23b8:	07600305 	strbeq	r0, [r0, -r5, lsl #6]!
    23bc:	03060000 	movweq	r0, #24576	; 0x6000
    23c0:	0000076f 	andeq	r0, r0, pc, ror #14
    23c4:	077e0307 	ldrbeq	r0, [lr, -r7, lsl #6]!
    23c8:	03030000 	movweq	r0, #12288	; 0x3000
    23cc:	0000078d 	andeq	r0, r0, sp, lsl #15
    23d0:	07a10302 	streq	r0, [r1, r2, lsl #6]!
    23d4:	00080000 	andeq	r0, r8, r0
    23d8:	69707304 	ldmdbvs	r0!, {r2, r8, r9, ip, sp, lr}^
    23dc:	04011800 	streq	r1, [r1], #-2048	; 0x800
    23e0:	0000020e 	andeq	r0, r0, lr, lsl #4
    23e4:	00736305 	rsbseq	r6, r3, r5, lsl #6
    23e8:	020e0501 	andeq	r0, lr, #4194304	; 0x400000
    23ec:	06000000 	streq	r0, [r0], -r0
    23f0:	000009f1 	strdeq	r0, [r0], -r1
    23f4:	020e0601 	andeq	r0, lr, #1048576	; 0x100000
    23f8:	05040000 	streq	r0, [r4, #-0]
    23fc:	006b6c63 	rsbeq	r6, fp, r3, ror #24
    2400:	020e0701 	andeq	r0, lr, #262144	; 0x40000
    2404:	06080000 	streq	r0, [r8], -r0
    2408:	000009ec 	andeq	r0, r0, ip, ror #19
    240c:	020e0801 	andeq	r0, lr, #65536	; 0x10000
    2410:	060c0000 	streq	r0, [ip], -r0
    2414:	000009f6 	strdeq	r0, [r0], -r6
    2418:	020e0901 	andeq	r0, lr, #16384	; 0x4000
    241c:	05100000 	ldreq	r0, [r0, #-0]
    2420:	01006364 	tsteq	r0, r4, ror #6
    2424:	00020e0a 	andeq	r0, r2, sl, lsl #28
    2428:	07001400 	streq	r1, [r0, -r0, lsl #8]
    242c:	07530704 	ldrbeq	r0, [r3, -r4, lsl #14]
    2430:	61080000 	mrsvs	r0, (UNDEF: 8)
    2434:	01000005 	tsteq	r0, r5
    2438:	0095a416 	addseq	sl, r5, r6, lsl r4
    243c:	0000bc00 	andeq	fp, r0, r0, lsl #24
    2440:	bd9c0100 	ldflts	f0, [ip]
    2444:	09000002 	stmdbeq	r0, {r1}
    2448:	000009e0 	andeq	r0, r0, r0, ror #19
    244c:	020e1601 	andeq	r1, lr, #1048576	; 0x100000
    2450:	15490000 	strbne	r0, [r9, #-0]
    2454:	fb090000 	blx	24245e <__bss_end__+0x235afe>
    2458:	01000009 	tsteq	r0, r9
    245c:	00020e16 	andeq	r0, r2, r6, lsl lr
    2460:	00156700 	andseq	r6, r5, r0, lsl #14
    2464:	95c40a00 	strbls	r0, [r4, #2560]	; 0xa00
    2468:	03410000 	movteq	r0, #4096	; 0x1000
    246c:	02600000 	rsbeq	r0, r0, #0
    2470:	010b0000 	mrseq	r0, (UNDEF: 11)
    2474:	0b340151 	bleq	d029c0 <__bss_end__+0xcf6060>
    2478:	37015001 	strcc	r5, [r1, -r1]
    247c:	95d00a00 	ldrbls	r0, [r0, #2560]	; 0xa00
    2480:	03410000 	movteq	r0, #4096	; 0x1000
    2484:	02780000 	rsbseq	r0, r8, #0
    2488:	010b0000 	mrseq	r0, (UNDEF: 11)
    248c:	0b340151 	bleq	d029d8 <__bss_end__+0xcf6078>
    2490:	38015001 	stmdacc	r1, {r0, ip, lr}
    2494:	95dc0a00 	ldrbls	r0, [ip, #2560]	; 0xa00
    2498:	03410000 	movteq	r0, #4096	; 0x1000
    249c:	02900000 	addseq	r0, r0, #0
    24a0:	010b0000 	mrseq	r0, (UNDEF: 11)
    24a4:	0b340151 	bleq	d029f0 <__bss_end__+0xcf6090>
    24a8:	39015001 	stmdbcc	r1, {r0, ip, lr}
    24ac:	95e80a00 	strbls	r0, [r8, #2560]!	; 0xa00
    24b0:	03410000 	movteq	r0, #4096	; 0x1000
    24b4:	02a80000 	adceq	r0, r8, #0
    24b8:	010b0000 	mrseq	r0, (UNDEF: 11)
    24bc:	0b340151 	bleq	d02a08 <__bss_end__+0xcf60a8>
    24c0:	3a015001 	bcc	564cc <__bss_end__+0x49b6c>
    24c4:	95f40c00 	ldrbls	r0, [r4, #3072]!	; 0xc00
    24c8:	03410000 	movteq	r0, #4096	; 0x1000
    24cc:	010b0000 	mrseq	r0, (UNDEF: 11)
    24d0:	0b340151 	bleq	d02a1c <__bss_end__+0xcf60bc>
    24d4:	3b015001 	blcc	564e0 <__bss_end__+0x49b80>
    24d8:	82080000 	andhi	r0, r8, #0
    24dc:	01000005 	tsteq	r0, r5
    24e0:	00966029 	addseq	r6, r6, r9, lsr #32
    24e4:	00009000 	andeq	r9, r0, r0
    24e8:	119c0100 	orrsne	r0, ip, r0, lsl #2
    24ec:	0d000003 	stceq	0, cr0, [r0, #-12]
    24f0:	01007874 	tsteq	r0, r4, ror r8
    24f4:	00031129 	andeq	r1, r3, r9, lsr #2
    24f8:	0d500100 	ldfeqe	f0, [r0, #-0]
    24fc:	01007872 	tsteq	r0, r2, ror r8
    2500:	00031129 	andeq	r1, r3, r9, lsr #2
    2504:	0e510100 	rdfeqs	f0, f1, f0
    2508:	006e656c 	rsbeq	r6, lr, ip, ror #10
    250c:	020e2901 	andeq	r2, lr, #16384	; 0x4000
    2510:	15850000 	strne	r0, [r5]
    2514:	800f0000 	andhi	r0, pc, r0
    2518:	54000096 	strpl	r0, [r0], #-150	; 0x96
    251c:	10000000 	andne	r0, r0, r0
    2520:	2c010069 	stccs	0, cr0, [r1], {105}	; 0x69
    2524:	0000031e 	andeq	r0, r0, lr, lsl r3
    2528:	000015a6 	andeq	r1, r0, r6, lsr #11
    252c:	04110000 	ldreq	r0, [r1], #-0
    2530:	00000317 	andeq	r0, r0, r7, lsl r3
    2534:	74080107 	strvc	r0, [r8], #-263	; 0x107
    2538:	12000005 	andne	r0, r0, #5
    253c:	6e690504 	cdpvs	5, 6, cr0, cr9, cr4, {0}
    2540:	73130074 	tstvc	r3, #116	; 0x74
    2544:	01006970 	tsteq	r0, r0, ror r9
    2548:	00033614 	andeq	r3, r3, r4, lsl r6
    254c:	48030500 	stmdami	r3, {r8, sl}
    2550:	110000c6 	smlabtne	r0, r6, r0, r0
    2554:	00033c04 	andeq	r3, r3, r4, lsl #24
    2558:	01bb1400 			; <UNDEFINED> instruction: 0x01bb1400
    255c:	0a150000 	beq	542564 <__bss_end__+0x535c04>
    2560:	02000008 	andeq	r0, r0, #8
    2564:	020e165a 	andeq	r1, lr, #94371840	; 0x5a00000
    2568:	0e160000 	cdpeq	0, 1, cr0, cr6, cr0, {0}
    256c:	00000002 	andeq	r0, r0, r2
    2570:	0000a800 	andeq	sl, r0, r0, lsl #16
    2574:	d3000200 	movwle	r0, #512	; 0x200
    2578:	04000010 	streq	r0, [r0], #-16
    257c:	000a6201 	andeq	r6, sl, r1, lsl #4
    2580:	0096f000 	addseq	pc, r6, r0
    2584:	00980400 	addseq	r0, r8, r0, lsl #8
    2588:	2f2e2e00 	svccs	0x002e2e00
    258c:	2e2f2e2e 	cdpcs	14, 2, cr2, cr15, cr14, {1}
    2590:	63672f2e 	cmnvs	r7, #46, 30	; 0xb8
    2594:	2e342d63 	cdpcs	13, 3, cr2, cr4, cr3, {3}
    2598:	2f332e38 	svccs	0x00332e38
    259c:	6762696c 	strbvs	r6, [r2, -ip, ror #18]!
    25a0:	632f6363 	teqvs	pc, #-1946157055	; 0x8c000001
    25a4:	69666e6f 	stmdbvs	r6!, {r0, r1, r2, r3, r5, r6, r9, sl, fp, sp, lr}^
    25a8:	72612f67 	rsbvc	r2, r1, #412	; 0x19c
    25ac:	696c2f6d 	stmdbvs	ip!, {r0, r2, r3, r5, r6, r8, r9, sl, fp, sp}^
    25b0:	75663162 	strbvc	r3, [r6, #-354]!	; 0x162
    25b4:	2e73636e 	cdpcs	3, 7, cr6, cr3, cr14, {3}
    25b8:	552f0053 	strpl	r0, [pc, #-83]!	; 256d <_start-0x5a93>
    25bc:	73726573 	cmnvc	r2, #482344960	; 0x1cc00000
    25c0:	7562692f 	strbvc	r6, [r2, #-2351]!	; 0x92f
    25c4:	442f6873 	strtmi	r6, [pc], #-2163	; 25cc <_start-0x5a34>
    25c8:	6d75636f 	ldclvs	3, cr6, [r5, #-444]!	; 0xfffffe44
    25cc:	73746e65 	cmnvc	r4, #1616	; 0x650
    25d0:	6174532f 	cmnvs	r4, pc, lsr #6
    25d4:	726f666e 	rsbvc	r6, pc, #115343360	; 0x6e00000
    25d8:	53432f64 	movtpl	r2, #16228	; 0x3f64
    25dc:	45373031 	ldrmi	r3, [r7, #-49]!	; 0x31
    25e0:	6f72632f 	svcvs	0x0072632f
    25e4:	635f7373 	cmpvs	pc, #-872415231	; 0xcc000001
    25e8:	69706d6f 	ldmdbvs	r0!, {r0, r1, r2, r3, r5, r6, r8, sl, fp, sp, lr}^
    25ec:	2f72656c 	svccs	0x0072656c
    25f0:	6c697562 	cfstr64vs	mvdx7, [r9], #-392	; 0xfffffe78
    25f4:	63672d64 	cmnvs	r7, #100, 26	; 0x1900
    25f8:	72612f63 	rsbvc	r2, r1, #396	; 0x18c
    25fc:	6f6e2d6d 	svcvs	0x006e2d6d
    2600:	652d656e 	strvs	r6, [sp, #-1390]!	; 0x56e
    2604:	2f696261 	svccs	0x00696261
    2608:	6762696c 	strbvs	r6, [r2, -ip, ror #18]!
    260c:	47006363 	strmi	r6, [r0, -r3, ror #6]
    2610:	4120554e 	teqmi	r0, lr, asr #10
    2614:	2e322053 	mrccs	0, 1, r2, cr2, cr3, {2}
    2618:	01003432 	tsteq	r0, r2, lsr r4
    261c:	0000a880 	andeq	sl, r0, r0, lsl #17
    2620:	e7000200 	str	r0, [r0, -r0, lsl #4]
    2624:	04000010 	streq	r0, [r0], #-16
    2628:	000aec01 	andeq	lr, sl, r1, lsl #24
    262c:	00980400 	addseq	r0, r8, r0, lsl #8
    2630:	00994c00 	addseq	r4, r9, r0, lsl #24
    2634:	2f2e2e00 	svccs	0x002e2e00
    2638:	2e2f2e2e 	cdpcs	14, 2, cr2, cr15, cr14, {1}
    263c:	63672f2e 	cmnvs	r7, #46, 30	; 0xb8
    2640:	2e342d63 	cdpcs	13, 3, cr2, cr4, cr3, {3}
    2644:	2f332e38 	svccs	0x00332e38
    2648:	6762696c 	strbvs	r6, [r2, -ip, ror #18]!
    264c:	632f6363 	teqvs	pc, #-1946157055	; 0x8c000001
    2650:	69666e6f 	stmdbvs	r6!, {r0, r1, r2, r3, r5, r6, r9, sl, fp, sp, lr}^
    2654:	72612f67 	rsbvc	r2, r1, #412	; 0x19c
    2658:	696c2f6d 	stmdbvs	ip!, {r0, r2, r3, r5, r6, r8, r9, sl, fp, sp}^
    265c:	75663162 	strbvc	r3, [r6, #-354]!	; 0x162
    2660:	2e73636e 	cdpcs	3, 7, cr6, cr3, cr14, {3}
    2664:	552f0053 	strpl	r0, [pc, #-83]!	; 2619 <_start-0x59e7>
    2668:	73726573 	cmnvc	r2, #482344960	; 0x1cc00000
    266c:	7562692f 	strbvc	r6, [r2, #-2351]!	; 0x92f
    2670:	442f6873 	strtmi	r6, [pc], #-2163	; 2678 <_start-0x5988>
    2674:	6d75636f 	ldclvs	3, cr6, [r5, #-444]!	; 0xfffffe44
    2678:	73746e65 	cmnvc	r4, #1616	; 0x650
    267c:	6174532f 	cmnvs	r4, pc, lsr #6
    2680:	726f666e 	rsbvc	r6, pc, #115343360	; 0x6e00000
    2684:	53432f64 	movtpl	r2, #16228	; 0x3f64
    2688:	45373031 	ldrmi	r3, [r7, #-49]!	; 0x31
    268c:	6f72632f 	svcvs	0x0072632f
    2690:	635f7373 	cmpvs	pc, #-872415231	; 0xcc000001
    2694:	69706d6f 	ldmdbvs	r0!, {r0, r1, r2, r3, r5, r6, r8, sl, fp, sp, lr}^
    2698:	2f72656c 	svccs	0x0072656c
    269c:	6c697562 	cfstr64vs	mvdx7, [r9], #-392	; 0xfffffe78
    26a0:	63672d64 	cmnvs	r7, #100, 26	; 0x1900
    26a4:	72612f63 	rsbvc	r2, r1, #396	; 0x18c
    26a8:	6f6e2d6d 	svcvs	0x006e2d6d
    26ac:	652d656e 	strvs	r6, [sp, #-1390]!	; 0x56e
    26b0:	2f696261 	svccs	0x00696261
    26b4:	6762696c 	strbvs	r6, [r2, -ip, ror #18]!
    26b8:	47006363 	strmi	r6, [r0, -r3, ror #6]
    26bc:	4120554e 	teqmi	r0, lr, asr #10
    26c0:	2e322053 	mrccs	0, 1, r2, cr2, cr3, {2}
    26c4:	01003432 	tsteq	r0, r2, lsr r4
    26c8:	0000a880 	andeq	sl, r0, r0, lsl #17
    26cc:	fb000200 	blx	2ed6 <_start-0x512a>
    26d0:	04000010 	streq	r0, [r0], #-16
    26d4:	000b8201 	andeq	r8, fp, r1, lsl #4
    26d8:	00994c00 	addseq	r4, r9, r0, lsl #24
    26dc:	00995000 	addseq	r5, r9, r0
    26e0:	2f2e2e00 	svccs	0x002e2e00
    26e4:	2e2f2e2e 	cdpcs	14, 2, cr2, cr15, cr14, {1}
    26e8:	63672f2e 	cmnvs	r7, #46, 30	; 0xb8
    26ec:	2e342d63 	cdpcs	13, 3, cr2, cr4, cr3, {3}
    26f0:	2f332e38 	svccs	0x00332e38
    26f4:	6762696c 	strbvs	r6, [r2, -ip, ror #18]!
    26f8:	632f6363 	teqvs	pc, #-1946157055	; 0x8c000001
    26fc:	69666e6f 	stmdbvs	r6!, {r0, r1, r2, r3, r5, r6, r9, sl, fp, sp, lr}^
    2700:	72612f67 	rsbvc	r2, r1, #412	; 0x19c
    2704:	696c2f6d 	stmdbvs	ip!, {r0, r2, r3, r5, r6, r8, r9, sl, fp, sp}^
    2708:	75663162 	strbvc	r3, [r6, #-354]!	; 0x162
    270c:	2e73636e 	cdpcs	3, 7, cr6, cr3, cr14, {3}
    2710:	552f0053 	strpl	r0, [pc, #-83]!	; 26c5 <_start-0x593b>
    2714:	73726573 	cmnvc	r2, #482344960	; 0x1cc00000
    2718:	7562692f 	strbvc	r6, [r2, #-2351]!	; 0x92f
    271c:	442f6873 	strtmi	r6, [pc], #-2163	; 2724 <_start-0x58dc>
    2720:	6d75636f 	ldclvs	3, cr6, [r5, #-444]!	; 0xfffffe44
    2724:	73746e65 	cmnvc	r4, #1616	; 0x650
    2728:	6174532f 	cmnvs	r4, pc, lsr #6
    272c:	726f666e 	rsbvc	r6, pc, #115343360	; 0x6e00000
    2730:	53432f64 	movtpl	r2, #16228	; 0x3f64
    2734:	45373031 	ldrmi	r3, [r7, #-49]!	; 0x31
    2738:	6f72632f 	svcvs	0x0072632f
    273c:	635f7373 	cmpvs	pc, #-872415231	; 0xcc000001
    2740:	69706d6f 	ldmdbvs	r0!, {r0, r1, r2, r3, r5, r6, r8, sl, fp, sp, lr}^
    2744:	2f72656c 	svccs	0x0072656c
    2748:	6c697562 	cfstr64vs	mvdx7, [r9], #-392	; 0xfffffe78
    274c:	63672d64 	cmnvs	r7, #100, 26	; 0x1900
    2750:	72612f63 	rsbvc	r2, r1, #396	; 0x18c
    2754:	6f6e2d6d 	svcvs	0x006e2d6d
    2758:	652d656e 	strvs	r6, [sp, #-1390]!	; 0x56e
    275c:	2f696261 	svccs	0x00696261
    2760:	6762696c 	strbvs	r6, [r2, -ip, ror #18]!
    2764:	47006363 	strmi	r6, [r0, -r3, ror #6]
    2768:	4120554e 	teqmi	r0, lr, asr #10
    276c:	2e322053 	mrccs	0, 1, r2, cr2, cr3, {2}
    2770:	01003432 	tsteq	r0, r2, lsr r4
    2774:	0000a980 	andeq	sl, r0, r0, lsl #19
    2778:	0f000200 	svceq	0x00000200
    277c:	04000011 	streq	r0, [r0], #-17
    2780:	000be301 	andeq	lr, fp, r1, lsl #6
    2784:	00995000 	addseq	r5, r9, r0
    2788:	009d6c00 	addseq	r6, sp, r0, lsl #24
    278c:	2f2e2e00 	svccs	0x002e2e00
    2790:	2e2f2e2e 	cdpcs	14, 2, cr2, cr15, cr14, {1}
    2794:	63672f2e 	cmnvs	r7, #46, 30	; 0xb8
    2798:	2e342d63 	cdpcs	13, 3, cr2, cr4, cr3, {3}
    279c:	2f332e38 	svccs	0x00332e38
    27a0:	6762696c 	strbvs	r6, [r2, -ip, ror #18]!
    27a4:	632f6363 	teqvs	pc, #-1946157055	; 0x8c000001
    27a8:	69666e6f 	stmdbvs	r6!, {r0, r1, r2, r3, r5, r6, r9, sl, fp, sp, lr}^
    27ac:	72612f67 	rsbvc	r2, r1, #412	; 0x19c
    27b0:	65692f6d 	strbvs	r2, [r9, #-3949]!	; 0xf6d
    27b4:	35376565 	ldrcc	r6, [r7, #-1381]!	; 0x565
    27b8:	66642d34 			; <UNDEFINED> instruction: 0x66642d34
    27bc:	2f00532e 	svccs	0x0000532e
    27c0:	72657355 	rsbvc	r7, r5, #1409286145	; 0x54000001
    27c4:	62692f73 	rsbvs	r2, r9, #460	; 0x1cc
    27c8:	2f687375 	svccs	0x00687375
    27cc:	75636f44 	strbvc	r6, [r3, #-3908]!	; 0xf44
    27d0:	746e656d 	strbtvc	r6, [lr], #-1389	; 0x56d
    27d4:	74532f73 	ldrbvc	r2, [r3], #-3955	; 0xf73
    27d8:	6f666e61 	svcvs	0x00666e61
    27dc:	432f6472 	teqmi	pc, #1912602624	; 0x72000000
    27e0:	37303153 			; <UNDEFINED> instruction: 0x37303153
    27e4:	72632f45 	rsbvc	r2, r3, #276	; 0x114
    27e8:	5f73736f 	svcpl	0x0073736f
    27ec:	706d6f63 	rsbvc	r6, sp, r3, ror #30
    27f0:	72656c69 	rsbvc	r6, r5, #26880	; 0x6900
    27f4:	6975622f 	ldmdbvs	r5!, {r0, r1, r2, r3, r5, r9, sp, lr}^
    27f8:	672d646c 	strvs	r6, [sp, -ip, ror #8]!
    27fc:	612f6363 	teqvs	pc, r3, ror #6
    2800:	6e2d6d72 	mcrvs	13, 1, r6, cr13, cr2, {3}
    2804:	2d656e6f 	stclcs	14, cr6, [r5, #-444]!	; 0xfffffe44
    2808:	69626165 	stmdbvs	r2!, {r0, r2, r5, r6, r8, sp, lr}^
    280c:	62696c2f 	rsbvs	r6, r9, #12032	; 0x2f00
    2810:	00636367 	rsbeq	r6, r3, r7, ror #6
    2814:	20554e47 	subscs	r4, r5, r7, asr #28
    2818:	32205341 	eorcc	r5, r0, #67108865	; 0x4000001
    281c:	0034322e 	eorseq	r3, r4, lr, lsr #4
    2820:	00a98001 	adceq	r8, r9, r1
    2824:	00020000 	andeq	r0, r2, r0
    2828:	00001123 	andeq	r1, r0, r3, lsr #2
    282c:	0d470104 	stfeqe	f0, [r7, #-16]
    2830:	9d6c0000 	stclls	0, cr0, [ip, #-0]
    2834:	a2080000 	andge	r0, r8, #0
    2838:	2e2e0000 	cdpcs	0, 2, cr0, cr14, cr0, {0}
    283c:	2f2e2e2f 	svccs	0x002e2e2f
    2840:	672f2e2e 	strvs	r2, [pc, -lr, lsr #28]!
    2844:	342d6363 	strtcc	r6, [sp], #-867	; 0x363
    2848:	332e382e 	teqcc	lr, #3014656	; 0x2e0000
    284c:	62696c2f 	rsbvs	r6, r9, #12032	; 0x2f00
    2850:	2f636367 	svccs	0x00636367
    2854:	666e6f63 	strbtvs	r6, [lr], -r3, ror #30
    2858:	612f6769 	teqvs	pc, r9, ror #14
    285c:	692f6d72 	stmdbvs	pc!, {r1, r4, r5, r6, r8, sl, fp, sp, lr}	; <UNPREDICTABLE>
    2860:	37656565 	strbcc	r6, [r5, -r5, ror #10]!
    2864:	642d3435 	strtvs	r3, [sp], #-1077	; 0x435
    2868:	00532e66 	subseq	r2, r3, r6, ror #28
    286c:	6573552f 	ldrbvs	r5, [r3, #-1327]!	; 0x52f
    2870:	692f7372 	stmdbvs	pc!, {r1, r4, r5, r6, r8, r9, ip, sp, lr}	; <UNPREDICTABLE>
    2874:	68737562 	ldmdavs	r3!, {r1, r5, r6, r8, sl, ip, sp, lr}^
    2878:	636f442f 	cmnvs	pc, #788529152	; 0x2f000000
    287c:	6e656d75 	mcrvs	13, 3, r6, cr5, cr5, {3}
    2880:	532f7374 	teqpl	pc, #116, 6	; 0xd0000001
    2884:	666e6174 			; <UNDEFINED> instruction: 0x666e6174
    2888:	2f64726f 	svccs	0x0064726f
    288c:	30315343 	eorscc	r5, r1, r3, asr #6
    2890:	632f4537 	teqvs	pc, #230686720	; 0xdc00000
    2894:	73736f72 	cmnvc	r3, #456	; 0x1c8
    2898:	6d6f635f 	stclvs	3, cr6, [pc, #-380]!	; 2724 <_start-0x58dc>
    289c:	656c6970 	strbvs	r6, [ip, #-2416]!	; 0x970
    28a0:	75622f72 	strbvc	r2, [r2, #-3954]!	; 0xf72
    28a4:	2d646c69 	stclcs	12, cr6, [r4, #-420]!	; 0xfffffe5c
    28a8:	2f636367 	svccs	0x00636367
    28ac:	2d6d7261 	sfmcs	f7, 2, [sp, #-388]!	; 0xfffffe7c
    28b0:	656e6f6e 	strbvs	r6, [lr, #-3950]!	; 0xf6e
    28b4:	6261652d 	rsbvs	r6, r1, #188743680	; 0xb400000
    28b8:	696c2f69 	stmdbvs	ip!, {r0, r3, r5, r6, r8, r9, sl, fp, sp}^
    28bc:	63636762 	cmnvs	r3, #25690112	; 0x1880000
    28c0:	554e4700 	strbpl	r4, [lr, #-1792]	; 0x700
    28c4:	20534120 	subscs	r4, r3, r0, lsr #2
    28c8:	34322e32 	ldrtcc	r2, [r2], #-3634	; 0xe32
    28cc:	a9800100 	stmibge	r0, {r8}
    28d0:	02000000 	andeq	r0, r0, #0
    28d4:	00113700 	andseq	r3, r1, r0, lsl #14
    28d8:	c7010400 	strgt	r0, [r1, -r0, lsl #8]
    28dc:	0800000e 	stmdaeq	r0, {r1, r2, r3}
    28e0:	4c0000a2 	stcmi	0, cr0, [r0], {162}	; 0xa2
    28e4:	2e0000a3 	cdpcs	0, 0, cr0, cr0, cr3, {5}
    28e8:	2e2e2f2e 	cdpcs	15, 2, cr2, cr14, cr14, {1}
    28ec:	2f2e2e2f 	svccs	0x002e2e2f
    28f0:	2d636367 	stclcs	3, cr6, [r3, #-412]!	; 0xfffffe64
    28f4:	2e382e34 	mrccs	14, 1, r2, cr8, cr4, {1}
    28f8:	696c2f33 	stmdbvs	ip!, {r0, r1, r4, r5, r8, r9, sl, fp, sp}^
    28fc:	63636762 	cmnvs	r3, #25690112	; 0x1880000
    2900:	6e6f632f 	cdpvs	3, 6, cr6, cr15, cr15, {1}
    2904:	2f676966 	svccs	0x00676966
    2908:	2f6d7261 	svccs	0x006d7261
    290c:	65656569 	strbvs	r6, [r5, #-1385]!	; 0x569
    2910:	2d343537 	cfldr32cs	mvfx3, [r4, #-220]!	; 0xffffff24
    2914:	532e6664 	teqpl	lr, #100, 12	; 0x6400000
    2918:	73552f00 	cmpvc	r5, #0, 30
    291c:	2f737265 	svccs	0x00737265
    2920:	73756269 	cmnvc	r5, #-1879048186	; 0x90000006
    2924:	6f442f68 	svcvs	0x00442f68
    2928:	656d7563 	strbvs	r7, [sp, #-1379]!	; 0x563
    292c:	2f73746e 	svccs	0x0073746e
    2930:	6e617453 	mcrvs	4, 3, r7, cr1, cr3, {2}
    2934:	64726f66 	ldrbtvs	r6, [r2], #-3942	; 0xf66
    2938:	3153432f 	cmpcc	r3, pc, lsr #6
    293c:	2f453730 	svccs	0x00453730
    2940:	736f7263 	cmnvc	pc, #805306374	; 0x30000006
    2944:	6f635f73 	svcvs	0x00635f73
    2948:	6c69706d 	stclvs	0, cr7, [r9], #-436	; 0xfffffe4c
    294c:	622f7265 	eorvs	r7, pc, #1342177286	; 0x50000006
    2950:	646c6975 	strbtvs	r6, [ip], #-2421	; 0x975
    2954:	6363672d 	cmnvs	r3, #11796480	; 0xb40000
    2958:	6d72612f 	ldfvse	f6, [r2, #-188]!	; 0xffffff44
    295c:	6e6f6e2d 	cdpvs	14, 6, cr6, cr15, cr13, {1}
    2960:	61652d65 	cmnvs	r5, r5, ror #26
    2964:	6c2f6962 	stcvs	9, cr6, [pc], #-392	; 27e4 <_start-0x581c>
    2968:	63676269 	cmnvs	r7, #-1879048186	; 0x90000006
    296c:	4e470063 	cdpmi	0, 4, cr0, cr7, cr3, {3}
    2970:	53412055 	movtpl	r2, #4181	; 0x1055
    2974:	322e3220 	eorcc	r3, lr, #32, 4
    2978:	80010034 	andhi	r0, r1, r4, lsr r0
    297c:	000000a9 	andeq	r0, r0, r9, lsr #1
    2980:	114b0002 	cmpne	fp, r2
    2984:	01040000 	mrseq	r0, (UNDEF: 4)
    2988:	00000f75 	andeq	r0, r0, r5, ror pc
    298c:	0000a34c 	andeq	sl, r0, ip, asr #6
    2990:	0000a3a8 	andeq	sl, r0, r8, lsr #7
    2994:	2e2f2e2e 	cdpcs	14, 2, cr2, cr15, cr14, {1}
    2998:	2e2e2f2e 	cdpcs	15, 2, cr2, cr14, cr14, {1}
    299c:	6363672f 	cmnvs	r3, #12320768	; 0xbc0000
    29a0:	382e342d 	stmdacc	lr!, {r0, r2, r3, r5, sl, ip, sp}
    29a4:	6c2f332e 	stcvs	3, cr3, [pc], #-184	; 28f4 <_start-0x570c>
    29a8:	63676269 	cmnvs	r7, #-1879048186	; 0x90000006
    29ac:	6f632f63 	svcvs	0x00632f63
    29b0:	6769666e 	strbvs	r6, [r9, -lr, ror #12]!
    29b4:	6d72612f 	ldfvse	f6, [r2, #-188]!	; 0xffffff44
    29b8:	6565692f 	strbvs	r6, [r5, #-2351]!	; 0x92f
    29bc:	34353765 	ldrtcc	r3, [r5], #-1893	; 0x765
    29c0:	2e66642d 	cdpcs	4, 6, cr6, cr6, cr13, {1}
    29c4:	552f0053 	strpl	r0, [pc, #-83]!	; 2979 <_start-0x5687>
    29c8:	73726573 	cmnvc	r2, #482344960	; 0x1cc00000
    29cc:	7562692f 	strbvc	r6, [r2, #-2351]!	; 0x92f
    29d0:	442f6873 	strtmi	r6, [pc], #-2163	; 29d8 <_start-0x5628>
    29d4:	6d75636f 	ldclvs	3, cr6, [r5, #-444]!	; 0xfffffe44
    29d8:	73746e65 	cmnvc	r4, #1616	; 0x650
    29dc:	6174532f 	cmnvs	r4, pc, lsr #6
    29e0:	726f666e 	rsbvc	r6, pc, #115343360	; 0x6e00000
    29e4:	53432f64 	movtpl	r2, #16228	; 0x3f64
    29e8:	45373031 	ldrmi	r3, [r7, #-49]!	; 0x31
    29ec:	6f72632f 	svcvs	0x0072632f
    29f0:	635f7373 	cmpvs	pc, #-872415231	; 0xcc000001
    29f4:	69706d6f 	ldmdbvs	r0!, {r0, r1, r2, r3, r5, r6, r8, sl, fp, sp, lr}^
    29f8:	2f72656c 	svccs	0x0072656c
    29fc:	6c697562 	cfstr64vs	mvdx7, [r9], #-392	; 0xfffffe78
    2a00:	63672d64 	cmnvs	r7, #100, 26	; 0x1900
    2a04:	72612f63 	rsbvc	r2, r1, #396	; 0x18c
    2a08:	6f6e2d6d 	svcvs	0x006e2d6d
    2a0c:	652d656e 	strvs	r6, [sp, #-1390]!	; 0x56e
    2a10:	2f696261 	svccs	0x00696261
    2a14:	6762696c 	strbvs	r6, [r2, -ip, ror #18]!
    2a18:	47006363 	strmi	r6, [r0, -r3, ror #6]
    2a1c:	4120554e 	teqmi	r0, lr, asr #10
    2a20:	2e322053 	mrccs	0, 1, r2, cr2, cr3, {2}
    2a24:	01003432 	tsteq	r0, r2, lsr r4
    2a28:	Address 0x0000000000002a28 is out of bounds.


Disassembly of section .debug_abbrev:

00000000 <.debug_abbrev>:
       0:	25011101 	strcs	r1, [r1, #-257]	; 0x101
       4:	030b130e 	movweq	r1, #45838	; 0xb30e
       8:	110e1b0e 	tstne	lr, lr, lsl #22
       c:	10061201 	andne	r1, r6, r1, lsl #4
      10:	02000017 	andeq	r0, r0, #23
      14:	0b0b0024 	bleq	2c00ac <__bss_end__+0x2b374c>
      18:	08030b3e 	stmdaeq	r3, {r1, r2, r3, r4, r5, r8, r9, fp}
      1c:	24030000 	strcs	r0, [r3], #-0
      20:	3e0b0b00 	vmlacc.f64	d0, d11, d0
      24:	000e030b 	andeq	r0, lr, fp, lsl #6
      28:	01040400 	tsteq	r4, r0, lsl #8
      2c:	0b3a0b0b 	bleq	e82c60 <__bss_end__+0xe76300>
      30:	13010b3b 	movwne	r0, #6971	; 0x1b3b
      34:	28050000 	stmdacs	r5, {}	; <UNPREDICTABLE>
      38:	1c080300 	stcne	3, cr0, [r8], {-0}
      3c:	0600000d 	streq	r0, [r0], -sp
      40:	0e030028 	cdpeq	0, 0, cr0, cr3, cr8, {1}
      44:	00000d1c 	andeq	r0, r0, ip, lsl sp
      48:	03001607 	movweq	r1, #1543	; 0x607
      4c:	3b0b3a0e 	blcc	2ce88c <__bss_end__+0x2c1f2c>
      50:	0013490b 	andseq	r4, r3, fp, lsl #18
      54:	01130800 	tsteq	r3, r0, lsl #16
      58:	0b3a0b0b 	bleq	e82c8c <__bss_end__+0xe7632c>
      5c:	13010b3b 	movwne	r0, #6971	; 0x1b3b
      60:	0d090000 	stceq	0, cr0, [r9, #-0]
      64:	3a0e0300 	bcc	380c6c <__bss_end__+0x37430c>
      68:	490b3b0b 	stmdbmi	fp, {r0, r1, r3, r8, r9, fp, ip, sp}
      6c:	000b3813 	andeq	r3, fp, r3, lsl r8
      70:	01010a00 	tsteq	r1, r0, lsl #20
      74:	13011349 	movwne	r1, #4937	; 0x1349
      78:	210b0000 	mrscs	r0, (UNDEF: 11)
      7c:	00134900 	andseq	r4, r3, r0, lsl #18
      80:	012e0c00 	teqeq	lr, r0, lsl #24
      84:	0e03193f 	mcreq	9, 0, r1, cr3, cr15, {1}
      88:	0b3b0b3a 	bleq	ec2d78 <__bss_end__+0xeb6418>
      8c:	06120111 			; <UNDEFINED> instruction: 0x06120111
      90:	42971840 	addsmi	r1, r7, #64, 16	; 0x400000
      94:	00130119 	andseq	r0, r3, r9, lsl r1
      98:	82890d00 	addhi	r0, r9, #0, 26
      9c:	01110001 	tsteq	r1, r1
      a0:	00001331 	andeq	r1, r0, r1, lsr r3
      a4:	0182890e 	orreq	r8, r2, lr, lsl #18
      a8:	31011101 	tstcc	r1, r1, lsl #2
      ac:	0f000013 	svceq	0x00000013
      b0:	0001828a 	andeq	r8, r1, sl, lsl #5
      b4:	42911802 	addsmi	r1, r1, #131072	; 0x20000
      b8:	10000018 	andne	r0, r0, r8, lsl r0
      bc:	0e030034 	mcreq	0, 0, r0, cr3, cr4, {1}
      c0:	0b3b0b3a 	bleq	ec2db0 <__bss_end__+0xeb6450>
      c4:	18021349 	stmdane	r2, {r0, r3, r6, r8, r9, ip}
      c8:	34110000 	ldrcc	r0, [r1], #-0
      cc:	3a0e0300 	bcc	380cd4 <__bss_end__+0x374374>
      d0:	490b3b0b 	stmdbmi	fp, {r0, r1, r3, r8, r9, fp, ip, sp}
      d4:	12000013 	andne	r0, r0, #19
      d8:	0e030034 	mcreq	0, 0, r0, cr3, cr4, {1}
      dc:	053b0b3a 	ldreq	r0, [fp, #-2874]!	; 0xb3a
      e0:	00001349 	andeq	r1, r0, r9, asr #6
      e4:	03003413 	movweq	r3, #1043	; 0x413
      e8:	3b0b3a0e 	blcc	2ce928 <__bss_end__+0x2c1fc8>
      ec:	02134905 	andseq	r4, r3, #81920	; 0x14000
      f0:	14000018 	strne	r0, [r0], #-24
      f4:	193f012e 	ldmdbne	pc!, {r1, r2, r3, r5, r8}	; <UNPREDICTABLE>
      f8:	0b3a0e03 	bleq	e8390c <__bss_end__+0xe76fac>
      fc:	193c0b3b 	ldmdbne	ip!, {r0, r1, r3, r4, r5, r8, r9, fp}
     100:	00001301 	andeq	r1, r0, r1, lsl #6
     104:	00001815 	andeq	r1, r0, r5, lsl r8
     108:	012e1600 	teqeq	lr, r0, lsl #12
     10c:	0e03193f 	mcreq	9, 0, r1, cr3, cr15, {1}
     110:	0b3b0b3a 	bleq	ec2e00 <__bss_end__+0xeb64a0>
     114:	193c1927 	ldmdbne	ip!, {r0, r1, r2, r5, r8, fp, ip}
     118:	00001301 	andeq	r1, r0, r1, lsl #6
     11c:	49000517 	stmdbmi	r0, {r0, r1, r2, r4, r8, sl}
     120:	18000013 	stmdane	r0, {r0, r1, r4}
     124:	0b0b000f 	bleq	2c0168 <__bss_end__+0x2b3808>
     128:	00001349 	andeq	r1, r0, r9, asr #6
     12c:	01110100 	tsteq	r1, r0, lsl #2
     130:	0b130e25 	bleq	4c39cc <__bss_end__+0x4b706c>
     134:	0e1b0e03 	cdpeq	14, 1, cr0, cr11, cr3, {0}
     138:	06120111 			; <UNDEFINED> instruction: 0x06120111
     13c:	00001710 	andeq	r1, r0, r0, lsl r7
     140:	3f012e02 	svccc	0x00012e02
     144:	3a0e0319 	bcc	380db0 <__bss_end__+0x374450>
     148:	110b3b0b 	tstne	fp, fp, lsl #22
     14c:	40061201 	andmi	r1, r6, r1, lsl #4
     150:	19429718 	stmdbne	r2, {r3, r4, r8, r9, sl, ip, pc}^
     154:	00001301 	andeq	r1, r0, r1, lsl #6
     158:	03003403 	movweq	r3, #1027	; 0x403
     15c:	3b0b3a08 	blcc	2ce984 <__bss_end__+0x2c2024>
     160:	0213490b 	andseq	r4, r3, #180224	; 0x2c000
     164:	04000017 	streq	r0, [r0], #-23
     168:	0e030034 	mcreq	0, 0, r0, cr3, cr4, {1}
     16c:	0b3b0b3a 	bleq	ec2e5c <__bss_end__+0xeb64fc>
     170:	00001349 	andeq	r1, r0, r9, asr #6
     174:	01828905 	orreq	r8, r2, r5, lsl #18
     178:	31011100 	mrscc	r1, (UNDEF: 17)
     17c:	06000013 			; <UNDEFINED> instruction: 0x06000013
     180:	0b0b000f 	bleq	2c01c4 <__bss_end__+0x2b3864>
     184:	00001349 	andeq	r1, r0, r9, asr #6
     188:	0b002407 	bleq	91ac <vsnprintf+0xf8>
     18c:	030b3e0b 	movweq	r3, #48651	; 0xbe0b
     190:	08000008 	stmdaeq	r0, {r3}
     194:	0e030034 	mcreq	0, 0, r0, cr3, cr4, {1}
     198:	0b3b0b3a 	bleq	ec2e88 <__bss_end__+0xeb6528>
     19c:	193f1349 	ldmdbne	pc!, {r0, r3, r6, r8, r9, ip}	; <UNPREDICTABLE>
     1a0:	0000193c 	andeq	r1, r0, ip, lsr r9
     1a4:	3f012e09 	svccc	0x00012e09
     1a8:	3a0e0319 	bcc	380e14 <__bss_end__+0x3744b4>
     1ac:	3c0b3b0b 	stccc	11, cr3, [fp], {11}
     1b0:	0a000019 	beq	21c <_start-0x7de4>
     1b4:	00000018 	andeq	r0, r0, r8, lsl r0
     1b8:	01110100 	tsteq	r1, r0, lsl #2
     1bc:	0b130e25 	bleq	4c3a58 <__bss_end__+0x4b70f8>
     1c0:	0e1b0e03 	cdpeq	14, 1, cr0, cr11, cr3, {0}
     1c4:	06120111 			; <UNDEFINED> instruction: 0x06120111
     1c8:	00001710 	andeq	r1, r0, r0, lsl r7
     1cc:	3f012e02 	svccc	0x00012e02
     1d0:	3a0e0319 	bcc	380e3c <__bss_end__+0x3744dc>
     1d4:	270b3b0b 	strcs	r3, [fp, -fp, lsl #22]
     1d8:	11134919 	tstne	r3, r9, lsl r9
     1dc:	40061201 	andmi	r1, r6, r1, lsl #4
     1e0:	19429618 	stmdbne	r2, {r3, r4, r9, sl, ip, pc}^
     1e4:	00001301 	andeq	r1, r0, r1, lsl #6
     1e8:	03000503 	movweq	r0, #1283	; 0x503
     1ec:	3b0b3a0e 	blcc	2cea2c <__bss_end__+0x2c20cc>
     1f0:	0213490b 	andseq	r4, r3, #180224	; 0x2c000
     1f4:	04000017 	streq	r0, [r0], #-23
     1f8:	0e030034 	mcreq	0, 0, r0, cr3, cr4, {1}
     1fc:	0b3b0b3a 	bleq	ec2eec <__bss_end__+0xeb658c>
     200:	17021349 	strne	r1, [r2, -r9, asr #6]
     204:	24050000 	strcs	r0, [r5], #-0
     208:	3e0b0b00 	vmlacc.f64	d0, d11, d0
     20c:	000e030b 	andeq	r0, lr, fp, lsl #6
     210:	012e0600 	teqeq	lr, r0, lsl #12
     214:	0e03193f 	mcreq	9, 0, r1, cr3, cr15, {1}
     218:	0b3b0b3a 	bleq	ec2f08 <__bss_end__+0xeb65a8>
     21c:	01111927 	tsteq	r1, r7, lsr #18
     220:	18400612 	stmdane	r0, {r1, r4, r9, sl}^
     224:	01194296 			; <UNDEFINED> instruction: 0x01194296
     228:	07000013 	smladeq	r0, r3, r0, r0
     22c:	08030005 	stmdaeq	r3, {r0, r2}
     230:	0b3b0b3a 	bleq	ec2f20 <__bss_end__+0xeb65c0>
     234:	17021349 	strne	r1, [r2, -r9, asr #6]
     238:	0b080000 	bleq	200240 <__bss_end__+0x1f38e0>
     23c:	00175501 	andseq	r5, r7, r1, lsl #10
     240:	00240900 	eoreq	r0, r4, r0, lsl #18
     244:	0b3e0b0b 	bleq	f82e78 <__bss_end__+0xf76518>
     248:	00000803 	andeq	r0, r0, r3, lsl #16
     24c:	3f012e0a 	svccc	0x00012e0a
     250:	3a0e0319 	bcc	380ebc <__bss_end__+0x37455c>
     254:	110b3b0b 	tstne	fp, fp, lsl #22
     258:	40061201 	andmi	r1, r6, r1, lsl #4
     25c:	19429718 	stmdbne	r2, {r3, r4, r8, r9, sl, ip, pc}^
     260:	00001301 	andeq	r1, r0, r1, lsl #6
     264:	0300340b 	movweq	r3, #1035	; 0x40b
     268:	3b0b3a08 	blcc	2cea90 <__bss_end__+0x2c2130>
     26c:	0213490b 	andseq	r4, r3, #180224	; 0x2c000
     270:	0c000017 	stceq	0, cr0, [r0], {23}
     274:	01018289 	smlabbeq	r1, r9, r2, r8
     278:	13310111 	teqne	r1, #1073741828	; 0x40000004
     27c:	00001301 	andeq	r1, r0, r1, lsl #6
     280:	01828a0d 	orreq	r8, r2, sp, lsl #20
     284:	91180200 	tstls	r8, r0, lsl #4
     288:	00001842 	andeq	r1, r0, r2, asr #16
     28c:	0182890e 	orreq	r8, r2, lr, lsl #18
     290:	31011101 	tstcc	r1, r1, lsl #2
     294:	0f000013 	svceq	0x00000013
     298:	193f002e 	ldmdbne	pc!, {r1, r2, r3, r5}	; <UNPREDICTABLE>
     29c:	0b3a0e03 	bleq	e83ab0 <__bss_end__+0xe77150>
     2a0:	0111053b 	tsteq	r1, fp, lsr r5
     2a4:	18400612 	stmdane	r0, {r1, r4, r9, sl}^
     2a8:	00194297 	mulseq	r9, r7, r2
     2ac:	00341000 	eorseq	r1, r4, r0
     2b0:	0b3a0e03 	bleq	e83ac4 <__bss_end__+0xe77164>
     2b4:	13490b3b 	movtne	r0, #39739	; 0x9b3b
     2b8:	1802193f 	stmdane	r2, {r0, r1, r2, r3, r4, r5, r8, fp, ip}
     2bc:	0f110000 	svceq	0x00110000
     2c0:	490b0b00 	stmdbmi	fp, {r8, r9, fp}
     2c4:	12000013 	andne	r0, r0, #19
     2c8:	13490035 	movtne	r0, #36917	; 0x9035
     2cc:	34130000 	ldrcc	r0, [r3], #-0
     2d0:	3a080300 	bcc	200ed8 <__bss_end__+0x1f4578>
     2d4:	490b3b0b 	stmdbmi	fp, {r0, r1, r3, r8, r9, fp, ip, sp}
     2d8:	02193f13 	andseq	r3, r9, #19, 30	; 0x4c
     2dc:	14000018 	strne	r0, [r0], #-24
     2e0:	13490101 	movtne	r0, #37121	; 0x9101
     2e4:	00001301 	andeq	r1, r0, r1, lsl #6
     2e8:	49002115 	stmdbmi	r0, {r0, r2, r4, r8, sp}
     2ec:	000b2f13 	andeq	r2, fp, r3, lsl pc
     2f0:	00211600 	eoreq	r1, r1, r0, lsl #12
     2f4:	052f1349 	streq	r1, [pc, #-841]!	; ffffffb3 <__bss_end__+0xffff3653>
     2f8:	34170000 	ldrcc	r0, [r7], #-0
     2fc:	3a0e0300 	bcc	380f04 <__bss_end__+0x3745a4>
     300:	49053b0b 	stmdbmi	r5, {r0, r1, r3, r8, r9, fp, ip, sp}
     304:	02193f13 	andseq	r3, r9, #19, 30	; 0x4c
     308:	18000018 	stmdane	r0, {r3, r4}
     30c:	193f012e 	ldmdbne	pc!, {r1, r2, r3, r5, r8}	; <UNPREDICTABLE>
     310:	0b3a0e03 	bleq	e83b24 <__bss_end__+0xe771c4>
     314:	19270b3b 	stmdbne	r7!, {r0, r1, r3, r4, r5, r8, r9, fp}
     318:	0000193c 	andeq	r1, r0, ip, lsr r9
     31c:	49000519 	stmdbmi	r0, {r0, r3, r4, r8, sl}
     320:	00000013 	andeq	r0, r0, r3, lsl r0
     324:	25011101 	strcs	r1, [r1, #-257]	; 0x101
     328:	030b130e 	movweq	r1, #45838	; 0xb30e
     32c:	110e1b0e 	tstne	lr, lr, lsl #22
     330:	10061201 	andne	r1, r6, r1, lsl #4
     334:	02000017 	andeq	r0, r0, #23
     338:	0b0b0024 	bleq	2c03d0 <__bss_end__+0x2b3a70>
     33c:	08030b3e 	stmdaeq	r3, {r1, r2, r3, r4, r5, r8, r9, fp}
     340:	16030000 	strne	r0, [r3], -r0
     344:	3a0e0300 	bcc	380f4c <__bss_end__+0x3745ec>
     348:	490b3b0b 	stmdbmi	fp, {r0, r1, r3, r8, r9, fp, ip, sp}
     34c:	04000013 	streq	r0, [r0], #-19
     350:	0b0b0024 	bleq	2c03e8 <__bss_end__+0x2b3a88>
     354:	0e030b3e 	vmoveq.16	d3[0], r0
     358:	2e050000 	cdpcs	0, 0, cr0, cr5, cr0, {0}
     35c:	03193f01 	tsteq	r9, #1, 30
     360:	3b0b3a0e 	blcc	2ceba0 <__bss_end__+0x2c2240>
     364:	4919270b 	ldmdbmi	r9, {r0, r1, r3, r8, r9, sl, sp}
     368:	12011113 	andne	r1, r1, #-1073741820	; 0xc0000004
     36c:	97184006 	ldrls	r4, [r8, -r6]
     370:	13011942 	movwne	r1, #6466	; 0x1942
     374:	05060000 	streq	r0, [r6, #-0]
     378:	3a080300 	bcc	200f80 <__bss_end__+0x1f4620>
     37c:	490b3b0b 	stmdbmi	fp, {r0, r1, r3, r8, r9, fp, ip, sp}
     380:	00180213 	andseq	r0, r8, r3, lsl r2
     384:	00340700 	eorseq	r0, r4, r0, lsl #14
     388:	0b3a0803 	bleq	e8239c <__bss_end__+0xe75a3c>
     38c:	13490b3b 	movtne	r0, #39739	; 0x9b3b
     390:	00001802 	andeq	r1, r0, r2, lsl #16
     394:	11010b08 	tstne	r1, r8, lsl #22
     398:	00061201 	andeq	r1, r6, r1, lsl #4
     39c:	00340900 	eorseq	r0, r4, r0, lsl #18
     3a0:	0b3a0803 	bleq	e823b4 <__bss_end__+0xe75a54>
     3a4:	13490b3b 	movtne	r0, #39739	; 0x9b3b
     3a8:	00001702 	andeq	r1, r0, r2, lsl #14
     3ac:	0b000f0a 	bleq	3fdc <_start-0x4024>
     3b0:	0b00000b 	bleq	3e4 <_start-0x7c1c>
     3b4:	0b0b000f 	bleq	2c03f8 <__bss_end__+0x2b3a98>
     3b8:	00001349 	andeq	r1, r0, r9, asr #6
     3bc:	0000260c 	andeq	r2, r0, ip, lsl #12
     3c0:	00260d00 	eoreq	r0, r6, r0, lsl #26
     3c4:	00001349 	andeq	r1, r0, r9, asr #6
     3c8:	01110100 	tsteq	r1, r0, lsl #2
     3cc:	0b130e25 	bleq	4c3c68 <__bss_end__+0x4b7308>
     3d0:	0e1b0e03 	cdpeq	14, 1, cr0, cr11, cr3, {0}
     3d4:	06120111 			; <UNDEFINED> instruction: 0x06120111
     3d8:	00001710 	andeq	r1, r0, r0, lsl r7
     3dc:	0b010402 	bleq	413ec <__bss_end__+0x34a8c>
     3e0:	3b0b3a0b 	blcc	2cec14 <__bss_end__+0x2c22b4>
     3e4:	0013010b 	andseq	r0, r3, fp, lsl #2
     3e8:	00280300 	eoreq	r0, r8, r0, lsl #6
     3ec:	0d1c0e03 	ldceq	14, cr0, [ip, #-12]
     3f0:	2e040000 	cdpcs	0, 0, cr0, cr4, cr0, {0}
     3f4:	03193f01 	tsteq	r9, #1, 30
     3f8:	3b0b3a0e 	blcc	2cec38 <__bss_end__+0x2c22d8>
     3fc:	1201110b 	andne	r1, r1, #-1073741822	; 0xc0000002
     400:	97184006 	ldrls	r4, [r8, -r6]
     404:	13011942 	movwne	r1, #6466	; 0x1942
     408:	2e050000 	cdpcs	0, 0, cr0, cr5, cr0, {0}
     40c:	03193f01 	tsteq	r9, #1, 30
     410:	3b0b3a0e 	blcc	2cec50 <__bss_end__+0x2c22f0>
     414:	3c13490b 	ldccc	9, cr4, [r3], {11}
     418:	00130119 	andseq	r0, r3, r9, lsl r1
     41c:	00180600 	andseq	r0, r8, r0, lsl #12
     420:	89070000 	stmdbhi	r7, {}	; <UNPREDICTABLE>
     424:	11000182 	smlabbne	r0, r2, r1, r0
     428:	00133101 	andseq	r3, r3, r1, lsl #2
     42c:	82890800 	addhi	r0, r9, #0, 16
     430:	01110101 	tsteq	r1, r1, lsl #2
     434:	13011331 	movwne	r1, #4913	; 0x1331
     438:	8a090000 	bhi	240440 <__bss_end__+0x233ae0>
     43c:	02000182 	andeq	r0, r0, #-2147483616	; 0x80000020
     440:	18429118 	stmdane	r2, {r3, r4, r8, ip, pc}^
     444:	890a0000 	stmdbhi	sl, {}	; <UNPREDICTABLE>
     448:	11010182 	smlabbne	r1, r2, r1, r0
     44c:	00133101 	andseq	r3, r3, r1, lsl #2
     450:	00240b00 	eoreq	r0, r4, r0, lsl #22
     454:	0b3e0b0b 	bleq	f83088 <__bss_end__+0xf76728>
     458:	00000803 	andeq	r0, r0, r3, lsl #16
     45c:	3f012e0c 	svccc	0x00012e0c
     460:	3a0e0319 	bcc	3810cc <__bss_end__+0x37476c>
     464:	270b3b0b 	strcs	r3, [fp, -fp, lsl #22]
     468:	11134919 	tstne	r3, r9, lsl r9
     46c:	40061201 	andmi	r1, r6, r1, lsl #4
     470:	19429718 	stmdbne	r2, {r3, r4, r8, r9, sl, ip, pc}^
     474:	00001301 	andeq	r1, r0, r1, lsl #6
     478:	0300050d 	movweq	r0, #1293	; 0x50d
     47c:	3b0b3a0e 	blcc	2cecbc <__bss_end__+0x2c235c>
     480:	0213490b 	andseq	r4, r3, #180224	; 0x2c000
     484:	0e000017 	mcreq	0, 0, r0, cr0, cr7, {0}
     488:	0b0b0024 	bleq	2c0520 <__bss_end__+0x2b3bc0>
     48c:	0e030b3e 	vmoveq.16	d3[0], r0
     490:	2e0f0000 	cdpcs	0, 0, cr0, cr15, cr0, {0}
     494:	03193f01 	tsteq	r9, #1, 30
     498:	3b0b3a0e 	blcc	2cecd8 <__bss_end__+0x2c2378>
     49c:	1113490b 	tstne	r3, fp, lsl #18
     4a0:	40061201 	andmi	r1, r6, r1, lsl #4
     4a4:	19429618 	stmdbne	r2, {r3, r4, r9, sl, ip, pc}^
     4a8:	00001301 	andeq	r1, r0, r1, lsl #6
     4ac:	03003410 	movweq	r3, #1040	; 0x410
     4b0:	3b0b3a0e 	blcc	2cecf0 <__bss_end__+0x2c2390>
     4b4:	0213490b 	andseq	r4, r3, #180224	; 0x2c000
     4b8:	11000018 	tstne	r0, r8, lsl r0
     4bc:	0e030034 	mcreq	0, 0, r0, cr3, cr4, {1}
     4c0:	0b3b0b3a 	bleq	ec31b0 <__bss_end__+0xeb6850>
     4c4:	17021349 	strne	r1, [r2, -r9, asr #6]
     4c8:	2e120000 	cdpcs	0, 1, cr0, cr2, cr0, {0}
     4cc:	03193f01 	tsteq	r9, #1, 30
     4d0:	3b0b3a0e 	blcc	2ced10 <__bss_end__+0x2c23b0>
     4d4:	4919270b 	ldmdbmi	r9, {r0, r1, r3, r8, r9, sl, sp}
     4d8:	12011113 	andne	r1, r1, #-1073741820	; 0xc0000004
     4dc:	96184006 	ldrls	r4, [r8], -r6
     4e0:	13011942 	movwne	r1, #6466	; 0x1942
     4e4:	2e130000 	cdpcs	0, 1, cr0, cr3, cr0, {0}
     4e8:	03193f01 	tsteq	r9, #1, 30
     4ec:	3b0b3a0e 	blcc	2ced2c <__bss_end__+0x2c23cc>
     4f0:	01193c0b 	tsteq	r9, fp, lsl #24
     4f4:	14000013 	strne	r0, [r0], #-19
     4f8:	193f012e 	ldmdbne	pc!, {r1, r2, r3, r5, r8}	; <UNPREDICTABLE>
     4fc:	0b3a0e03 	bleq	e83d10 <__bss_end__+0xe773b0>
     500:	19270b3b 	stmdbne	r7!, {r0, r1, r3, r4, r5, r8, r9, fp}
     504:	1301193c 	movwne	r1, #6460	; 0x193c
     508:	05150000 	ldreq	r0, [r5, #-0]
     50c:	00134900 	andseq	r4, r3, r0, lsl #18
     510:	012e1600 	teqeq	lr, r0, lsl #12
     514:	0e03193f 	mcreq	9, 0, r1, cr3, cr15, {1}
     518:	0b3b0b3a 	bleq	ec3208 <__bss_end__+0xeb68a8>
     51c:	13491927 	movtne	r1, #39207	; 0x9927
     520:	1301193c 	movwne	r1, #6460	; 0x193c
     524:	2e170000 	cdpcs	0, 1, cr0, cr7, cr0, {0}
     528:	03193f01 	tsteq	r9, #1, 30
     52c:	3b0b3a0e 	blcc	2ced6c <__bss_end__+0x2c240c>
     530:	4919270b 	ldmdbmi	r9, {r0, r1, r3, r8, r9, sl, sp}
     534:	00193c13 	andseq	r3, r9, r3, lsl ip
     538:	11010000 	mrsne	r0, (UNDEF: 1)
     53c:	130e2501 	movwne	r2, #58625	; 0xe501
     540:	1b0e030b 	blne	381174 <__bss_end__+0x374814>
     544:	1201110e 	andne	r1, r1, #-2147483645	; 0x80000003
     548:	00171006 	andseq	r1, r7, r6
     54c:	012e0200 	teqeq	lr, r0, lsl #4
     550:	0e03193f 	mcreq	9, 0, r1, cr3, cr15, {1}
     554:	0b3b0b3a 	bleq	ec3244 <__bss_end__+0xeb68e4>
     558:	06120111 			; <UNDEFINED> instruction: 0x06120111
     55c:	42971840 	addsmi	r1, r7, #64, 16	; 0x400000
     560:	00130119 	andseq	r0, r3, r9, lsl r1
     564:	82890300 	addhi	r0, r9, #0, 6
     568:	01110101 	tsteq	r1, r1, lsl #2
     56c:	00001331 	andeq	r1, r0, r1, lsr r3
     570:	01828a04 	orreq	r8, r2, r4, lsl #20
     574:	91180200 	tstls	r8, r0, lsl #4
     578:	00001842 	andeq	r1, r0, r2, asr #16
     57c:	3f012e05 	svccc	0x00012e05
     580:	3a0e0319 	bcc	3811ec <__bss_end__+0x37488c>
     584:	270b3b0b 	strcs	r3, [fp, -fp, lsl #22]
     588:	11134919 	tstne	r3, r9, lsl r9
     58c:	40061201 	andmi	r1, r6, r1, lsl #4
     590:	19429718 	stmdbne	r2, {r3, r4, r8, r9, sl, ip, pc}^
     594:	00001301 	andeq	r1, r0, r1, lsl #6
     598:	03000506 	movweq	r0, #1286	; 0x506
     59c:	3b0b3a0e 	blcc	2ceddc <__bss_end__+0x2c247c>
     5a0:	0213490b 	andseq	r4, r3, #180224	; 0x2c000
     5a4:	07000017 	smladeq	r0, r7, r0, r0
     5a8:	08030034 	stmdaeq	r3, {r2, r4, r5}
     5ac:	0b3b0b3a 	bleq	ec329c <__bss_end__+0xeb693c>
     5b0:	18021349 	stmdane	r2, {r0, r3, r6, r8, r9, ip}
     5b4:	24080000 	strcs	r0, [r8], #-0
     5b8:	3e0b0b00 	vmlacc.f64	d0, d11, d0
     5bc:	000e030b 	andeq	r0, lr, fp, lsl #6
     5c0:	01010900 	tsteq	r1, r0, lsl #18
     5c4:	13011349 	movwne	r1, #4937	; 0x1349
     5c8:	210a0000 	mrscs	r0, (UNDEF: 10)
     5cc:	2f134900 	svccs	0x00134900
     5d0:	0b00000b 	bleq	604 <_start-0x79fc>
     5d4:	193f012e 	ldmdbne	pc!, {r1, r2, r3, r5, r8}	; <UNPREDICTABLE>
     5d8:	0b3a0e03 	bleq	e83dec <__bss_end__+0xe7748c>
     5dc:	19270b3b 	stmdbne	r7!, {r0, r1, r3, r4, r5, r8, r9, fp}
     5e0:	1301193c 	movwne	r1, #6460	; 0x193c
     5e4:	050c0000 	streq	r0, [ip, #-0]
     5e8:	00134900 	andseq	r4, r3, r0, lsl #18
     5ec:	000f0d00 	andeq	r0, pc, r0, lsl #26
     5f0:	13490b0b 	movtne	r0, #39691	; 0x9b0b
     5f4:	01000000 	mrseq	r0, (UNDEF: 0)
     5f8:	0e250111 	mcreq	1, 1, r0, cr5, cr1, {0}
     5fc:	0e030b13 	vmoveq.32	d3[0], r0
     600:	01110e1b 	tsteq	r1, fp, lsl lr
     604:	17100612 			; <UNDEFINED> instruction: 0x17100612
     608:	24020000 	strcs	r0, [r2], #-0
     60c:	3e0b0b00 	vmlacc.f64	d0, d11, d0
     610:	000e030b 	andeq	r0, lr, fp, lsl #6
     614:	012e0300 	teqeq	lr, r0, lsl #6
     618:	0e03193f 	mcreq	9, 0, r1, cr3, cr15, {1}
     61c:	0b3b0b3a 	bleq	ec330c <__bss_end__+0xeb69ac>
     620:	13491927 	movtne	r1, #39207	; 0x9927
     624:	06120111 			; <UNDEFINED> instruction: 0x06120111
     628:	42961840 	addsmi	r1, r6, #64, 16	; 0x400000
     62c:	00130119 	andseq	r0, r3, r9, lsl r1
     630:	00050400 	andeq	r0, r5, r0, lsl #8
     634:	0b3a0803 	bleq	e82648 <__bss_end__+0xe75ce8>
     638:	13490b3b 	movtne	r0, #39739	; 0x9b3b
     63c:	00001702 	andeq	r1, r0, r2, lsl #14
     640:	03000505 	movweq	r0, #1285	; 0x505
     644:	3b0b3a0e 	blcc	2cee84 <__bss_end__+0x2c2524>
     648:	0213490b 	andseq	r4, r3, #180224	; 0x2c000
     64c:	06000017 			; <UNDEFINED> instruction: 0x06000017
     650:	0e030034 	mcreq	0, 0, r0, cr3, cr4, {1}
     654:	0b3b0b3a 	bleq	ec3344 <__bss_end__+0xeb69e4>
     658:	17021349 	strne	r1, [r2, -r9, asr #6]
     65c:	0b070000 	bleq	1c0664 <__bss_end__+0x1b3d04>
     660:	00175501 	andseq	r5, r7, r1, lsl #10
     664:	00340800 	eorseq	r0, r4, r0, lsl #16
     668:	0b3a0803 	bleq	e8267c <__bss_end__+0xe75d1c>
     66c:	13490b3b 	movtne	r0, #39739	; 0x9b3b
     670:	00001702 	andeq	r1, r0, r2, lsl #14
     674:	0b002409 	bleq	96a0 <spi_transfer+0x40>
     678:	030b3e0b 	movweq	r3, #48651	; 0xbe0b
     67c:	0a000008 	beq	6a4 <_start-0x795c>
     680:	01018289 	smlabbeq	r1, r9, r2, r8
     684:	13310111 	teqne	r1, #1073741828	; 0x40000004
     688:	00001301 	andeq	r1, r0, r1, lsl #6
     68c:	01828a0b 	orreq	r8, r2, fp, lsl #20
     690:	91180200 	tstls	r8, r0, lsl #4
     694:	00001842 	andeq	r1, r0, r2, asr #16
     698:	0182890c 	orreq	r8, r2, ip, lsl #18
     69c:	31011100 	mrscc	r1, (UNDEF: 17)
     6a0:	0d000013 	stceq	0, cr0, [r0, #-76]	; 0xffffffb4
     6a4:	0e030034 	mcreq	0, 0, r0, cr3, cr4, {1}
     6a8:	0b3b0b3a 	bleq	ec3398 <__bss_end__+0xeb6a38>
     6ac:	0a1c1349 	beq	7053d8 <__bss_end__+0x6f8a78>
     6b0:	260e0000 	strcs	r0, [lr], -r0
     6b4:	00134900 	andseq	r4, r3, r0, lsl #18
     6b8:	11010000 	mrsne	r0, (UNDEF: 1)
     6bc:	130e2501 	movwne	r2, #58625	; 0xe501
     6c0:	1b0e030b 	blne	3812f4 <__bss_end__+0x374994>
     6c4:	1201110e 	andne	r1, r1, #-2147483645	; 0x80000003
     6c8:	00171006 	andseq	r1, r7, r6
     6cc:	01040200 	mrseq	r0, R12_usr
     6d0:	0b3a0b0b 	bleq	e83304 <__bss_end__+0xe769a4>
     6d4:	13010b3b 	movwne	r0, #6971	; 0x1b3b
     6d8:	28030000 	stmdacs	r3, {}	; <UNPREDICTABLE>
     6dc:	1c080300 	stcne	3, cr0, [r8], {-0}
     6e0:	0400000d 	streq	r0, [r0], #-13
     6e4:	0e030028 	cdpeq	0, 0, cr0, cr3, cr8, {1}
     6e8:	00000d1c 	andeq	r0, r0, ip, lsl sp
     6ec:	03001605 	movweq	r1, #1541	; 0x605
     6f0:	3b0b3a0e 	blcc	2cef30 <__bss_end__+0x2c25d0>
     6f4:	0013490b 	andseq	r4, r3, fp, lsl #18
     6f8:	01130600 	tsteq	r3, r0, lsl #12
     6fc:	0b3a0b0b 	bleq	e83330 <__bss_end__+0xe769d0>
     700:	13010b3b 	movwne	r0, #6971	; 0x1b3b
     704:	0d070000 	stceq	0, cr0, [r7, #-0]
     708:	3a0e0300 	bcc	381310 <__bss_end__+0x3749b0>
     70c:	490b3b0b 	stmdbmi	fp, {r0, r1, r3, r8, r9, fp, ip, sp}
     710:	000b3813 	andeq	r3, fp, r3, lsl r8
     714:	00240800 	eoreq	r0, r4, r0, lsl #16
     718:	0b3e0b0b 	bleq	f8334c <__bss_end__+0xf769ec>
     71c:	00000803 	andeq	r0, r0, r3, lsl #16
     720:	49010109 	stmdbmi	r1, {r0, r3, r8}
     724:	00130113 	andseq	r0, r3, r3, lsl r1
     728:	00210a00 	eoreq	r0, r1, r0, lsl #20
     72c:	00001349 	andeq	r1, r0, r9, asr #6
     730:	0b00240b 	bleq	9764 <__aeabi_uidiv+0x74>
     734:	030b3e0b 	movweq	r3, #48651	; 0xbe0b
     738:	0c00000e 	stceq	0, cr0, [r0], {14}
     73c:	193f012e 	ldmdbne	pc!, {r1, r2, r3, r5, r8}	; <UNPREDICTABLE>
     740:	0b3a0e03 	bleq	e83f54 <__bss_end__+0xe775f4>
     744:	19270b3b 	stmdbne	r7!, {r0, r1, r3, r4, r5, r8, r9, fp}
     748:	06120111 			; <UNDEFINED> instruction: 0x06120111
     74c:	42971840 	addsmi	r1, r7, #64, 16	; 0x400000
     750:	00130119 	andseq	r0, r3, r9, lsl r1
     754:	00050d00 	andeq	r0, r5, r0, lsl #26
     758:	0b3a0e03 	bleq	e83f6c <__bss_end__+0xe7760c>
     75c:	13490b3b 	movtne	r0, #39739	; 0x9b3b
     760:	00001802 	andeq	r1, r0, r2, lsl #16
     764:	11010b0e 	tstne	r1, lr, lsl #22
     768:	00061201 	andeq	r1, r6, r1, lsl #4
     76c:	00340f00 	eorseq	r0, r4, r0, lsl #30
     770:	0b3a0803 	bleq	e82784 <__bss_end__+0xe75e24>
     774:	13490b3b 	movtne	r0, #39739	; 0x9b3b
     778:	00001702 	andeq	r1, r0, r2, lsl #14
     77c:	0b000f10 	bleq	43c4 <_start-0x3c3c>
     780:	0013490b 	andseq	r4, r3, fp, lsl #18
     784:	00341100 	eorseq	r1, r4, r0, lsl #2
     788:	0b3a0e03 	bleq	e83f9c <__bss_end__+0xe7763c>
     78c:	13490b3b 	movtne	r0, #39739	; 0x9b3b
     790:	34120000 	ldrcc	r0, [r2], #-0
     794:	3a0e0300 	bcc	38139c <__bss_end__+0x374a3c>
     798:	49053b0b 	stmdbmi	r5, {r0, r1, r3, r8, r9, fp, ip, sp}
     79c:	00000013 	andeq	r0, r0, r3, lsl r0
     7a0:	25011101 	strcs	r1, [r1, #-257]	; 0x101
     7a4:	030b130e 	movweq	r1, #45838	; 0xb30e
     7a8:	110e1b0e 	tstne	lr, lr, lsl #22
     7ac:	10061201 	andne	r1, r6, r1, lsl #4
     7b0:	02000017 	andeq	r0, r0, #23
     7b4:	0b0b0024 	bleq	2c084c <__bss_end__+0x2b3eec>
     7b8:	0e030b3e 	vmoveq.16	d3[0], r0
     7bc:	2e030000 	cdpcs	0, 0, cr0, cr3, cr0, {0}
     7c0:	03193f01 	tsteq	r9, #1, 30
     7c4:	3b0b3a0e 	blcc	2cf004 <__bss_end__+0x2c26a4>
     7c8:	4919270b 	ldmdbmi	r9, {r0, r1, r3, r8, r9, sl, sp}
     7cc:	12011113 	andne	r1, r1, #-1073741820	; 0xc0000004
     7d0:	96184006 	ldrls	r4, [r8], -r6
     7d4:	13011942 	movwne	r1, #6466	; 0x1942
     7d8:	05040000 	streq	r0, [r4, #-0]
     7dc:	3a080300 	bcc	2013e4 <__bss_end__+0x1f4a84>
     7e0:	490b3b0b 	stmdbmi	fp, {r0, r1, r3, r8, r9, fp, ip, sp}
     7e4:	00170213 	andseq	r0, r7, r3, lsl r2
     7e8:	00240500 	eoreq	r0, r4, r0, lsl #10
     7ec:	0b3e0b0b 	bleq	f83420 <__bss_end__+0xf76ac0>
     7f0:	00000803 	andeq	r0, r0, r3, lsl #16
     7f4:	01110100 	tsteq	r1, r0, lsl #2
     7f8:	0b130e25 	bleq	4c4094 <__bss_end__+0x4b7734>
     7fc:	0e1b0e03 	cdpeq	14, 1, cr0, cr11, cr3, {0}
     800:	06120111 			; <UNDEFINED> instruction: 0x06120111
     804:	00001710 	andeq	r1, r0, r0, lsl r7
     808:	0b010402 	bleq	41818 <__bss_end__+0x34eb8>
     80c:	3b0b3a0b 	blcc	2cf040 <__bss_end__+0x2c26e0>
     810:	0013010b 	andseq	r0, r3, fp, lsl #2
     814:	00280300 	eoreq	r0, r8, r0, lsl #6
     818:	0d1c0803 	ldceq	8, cr0, [ip, #-12]
     81c:	28040000 	stmdacs	r4, {}	; <UNPREDICTABLE>
     820:	1c0e0300 	stcne	3, cr0, [lr], {-0}
     824:	0500000d 	streq	r0, [r0, #-13]
     828:	0e030016 	mcreq	0, 0, r0, cr3, cr6, {0}
     82c:	0b3b0b3a 	bleq	ec351c <__bss_end__+0xeb6bbc>
     830:	00001349 	andeq	r1, r0, r9, asr #6
     834:	0b011306 	bleq	45454 <__bss_end__+0x38af4>
     838:	3b0b3a0b 	blcc	2cf06c <__bss_end__+0x2c270c>
     83c:	0013010b 	andseq	r0, r3, fp, lsl #2
     840:	000d0700 	andeq	r0, sp, r0, lsl #14
     844:	0b3a0e03 	bleq	e84058 <__bss_end__+0xe776f8>
     848:	13490b3b 	movtne	r0, #39739	; 0x9b3b
     84c:	00000b38 	andeq	r0, r0, r8, lsr fp
     850:	0b002408 	bleq	9878 <.divsi3_skip_div0_test+0x6c>
     854:	030b3e0b 	movweq	r3, #48651	; 0xbe0b
     858:	09000008 	stmdbeq	r0, {r3}
     85c:	13490101 	movtne	r0, #37121	; 0x9101
     860:	00001301 	andeq	r1, r0, r1, lsl #6
     864:	4900210a 	stmdbmi	r0, {r1, r3, r8, sp}
     868:	0b000013 	bleq	8bc <_start-0x7744>
     86c:	0b0b0024 	bleq	2c0904 <__bss_end__+0x2b3fa4>
     870:	0e030b3e 	vmoveq.16	d3[0], r0
     874:	2e0c0000 	cdpcs	0, 0, cr0, cr12, cr0, {0}
     878:	03193f01 	tsteq	r9, #1, 30
     87c:	3b0b3a0e 	blcc	2cf0bc <__bss_end__+0x2c275c>
     880:	1119270b 	tstne	r9, fp, lsl #14
     884:	40061201 	andmi	r1, r6, r1, lsl #4
     888:	19429618 	stmdbne	r2, {r3, r4, r9, sl, ip, pc}^
     88c:	00001301 	andeq	r1, r0, r1, lsl #6
     890:	0300050d 	movweq	r0, #1293	; 0x50d
     894:	3b0b3a0e 	blcc	2cf0d4 <__bss_end__+0x2c2774>
     898:	0213490b 	andseq	r4, r3, #180224	; 0x2c000
     89c:	0e000017 	mcreq	0, 0, r0, cr0, cr7, {0}
     8a0:	0e030034 	mcreq	0, 0, r0, cr3, cr4, {1}
     8a4:	0b3b0b3a 	bleq	ec3594 <__bss_end__+0xeb6c34>
     8a8:	0b1c1349 	bleq	7055d4 <__bss_end__+0x6f8c74>
     8ac:	340f0000 	strcc	r0, [pc], #-0	; 8b4 <_start-0x774c>
     8b0:	3a0e0300 	bcc	3814b8 <__bss_end__+0x374b58>
     8b4:	490b3b0b 	stmdbmi	fp, {r0, r1, r3, r8, r9, fp, ip, sp}
     8b8:	00170213 	andseq	r0, r7, r3, lsl r2
     8bc:	010b1000 	mrseq	r1, (UNDEF: 11)
     8c0:	06120111 			; <UNDEFINED> instruction: 0x06120111
     8c4:	0b110000 	bleq	4408cc <__bss_end__+0x433f6c>
     8c8:	12011101 	andne	r1, r1, #1073741824	; 0x40000000
     8cc:	00130106 	andseq	r0, r3, r6, lsl #2
     8d0:	82891200 	addhi	r1, r9, #0, 4
     8d4:	01110101 	tsteq	r1, r1, lsl #2
     8d8:	00001331 	andeq	r1, r0, r1, lsr r3
     8dc:	01828a13 	orreq	r8, r2, r3, lsl sl
     8e0:	91180200 	tstls	r8, r0, lsl #4
     8e4:	00001842 	andeq	r1, r0, r2, asr #16
     8e8:	01828914 	orreq	r8, r2, r4, lsl r9
     8ec:	31011101 	tstcc	r1, r1, lsl #2
     8f0:	00130113 	andseq	r0, r3, r3, lsl r1
     8f4:	000f1500 	andeq	r1, pc, r0, lsl #10
     8f8:	13490b0b 	movtne	r0, #39691	; 0x9b0b
     8fc:	34160000 	ldrcc	r0, [r6], #-0
     900:	3a0e0300 	bcc	381508 <__bss_end__+0x374ba8>
     904:	490b3b0b 	stmdbmi	fp, {r0, r1, r3, r8, r9, fp, ip, sp}
     908:	17000013 	smladne	r0, r3, r0, r0
     90c:	0e030034 	mcreq	0, 0, r0, cr3, cr4, {1}
     910:	053b0b3a 	ldreq	r0, [fp, #-2874]!	; 0xb3a
     914:	00001349 	andeq	r1, r0, r9, asr #6
     918:	3f012e18 	svccc	0x00012e18
     91c:	3a0e0319 	bcc	381588 <__bss_end__+0x374c28>
     920:	270b3b0b 	strcs	r3, [fp, -fp, lsl #22]
     924:	3c134919 	ldccc	9, cr4, [r3], {25}
     928:	00130119 	andseq	r0, r3, r9, lsl r1
     92c:	00051900 	andeq	r1, r5, r0, lsl #18
     930:	00001349 	andeq	r1, r0, r9, asr #6
     934:	3f012e1a 	svccc	0x00012e1a
     938:	3a0e0319 	bcc	3815a4 <__bss_end__+0x374c44>
     93c:	270b3b0b 	strcs	r3, [fp, -fp, lsl #22]
     940:	00193c19 	andseq	r3, r9, r9, lsl ip
     944:	11010000 	mrsne	r0, (UNDEF: 1)
     948:	130e2501 	movwne	r2, #58625	; 0xe501
     94c:	1b0e030b 	blne	381580 <__bss_end__+0x374c20>
     950:	11175508 	tstne	r7, r8, lsl #10
     954:	00171001 	andseq	r1, r7, r1
     958:	00240200 	eoreq	r0, r4, r0, lsl #4
     95c:	0b3e0b0b 	bleq	f83590 <__bss_end__+0xf76c30>
     960:	00000e03 	andeq	r0, r0, r3, lsl #28
     964:	0b010403 	bleq	41978 <__bss_end__+0x35018>
     968:	3b0b3a0b 	blcc	2cf19c <__bss_end__+0x2c283c>
     96c:	0013010b 	andseq	r0, r3, fp, lsl #2
     970:	00280400 	eoreq	r0, r8, r0, lsl #8
     974:	0d1c0e03 	ldceq	14, cr0, [ip, #-12]
     978:	2e050000 	cdpcs	0, 0, cr0, cr5, cr0, {0}
     97c:	03193f00 	tsteq	r9, #0, 30
     980:	3b0b3a0e 	blcc	2cf1c0 <__bss_end__+0x2c2860>
     984:	1119270b 	tstne	r9, fp, lsl #14
     988:	40061201 	andmi	r1, r6, r1, lsl #4
     98c:	19429718 	stmdbne	r2, {r3, r4, r8, r9, sl, ip, pc}^
     990:	2e060000 	cdpcs	0, 0, cr0, cr6, cr0, {0}
     994:	03193f01 	tsteq	r9, #1, 30
     998:	3b0b3a0e 	blcc	2cf1d8 <__bss_end__+0x2c2878>
     99c:	1119270b 	tstne	r9, fp, lsl #14
     9a0:	40061201 	andmi	r1, r6, r1, lsl #4
     9a4:	19429718 	stmdbne	r2, {r3, r4, r8, r9, sl, ip, pc}^
     9a8:	00001301 	andeq	r1, r0, r1, lsl #6
     9ac:	03000507 	movweq	r0, #1287	; 0x507
     9b0:	3b0b3a08 	blcc	2cf1d8 <__bss_end__+0x2c2878>
     9b4:	0213490b 	andseq	r4, r3, #180224	; 0x2c000
     9b8:	08000018 	stmdaeq	r0, {r3, r4}
     9bc:	0e030005 	cdpeq	0, 0, cr0, cr3, cr5, {0}
     9c0:	0b3b0b3a 	bleq	ec36b0 <__bss_end__+0xeb6d50>
     9c4:	17021349 	strne	r1, [r2, -r9, asr #6]
     9c8:	34090000 	strcc	r0, [r9], #-0
     9cc:	3a0e0300 	bcc	3815d4 <__bss_end__+0x374c74>
     9d0:	490b3b0b 	stmdbmi	fp, {r0, r1, r3, r8, r9, fp, ip, sp}
     9d4:	00180213 	andseq	r0, r8, r3, lsl r2
     9d8:	00340a00 	eorseq	r0, r4, r0, lsl #20
     9dc:	0b3a0803 	bleq	e829f0 <__bss_end__+0xe76090>
     9e0:	13490b3b 	movtne	r0, #39739	; 0x9b3b
     9e4:	00001802 	andeq	r1, r0, r2, lsl #16
     9e8:	0300340b 	movweq	r3, #1035	; 0x40b
     9ec:	3b0b3a08 	blcc	2cf214 <__bss_end__+0x2c28b4>
     9f0:	0213490b 	andseq	r4, r3, #180224	; 0x2c000
     9f4:	0c000017 	stceq	0, cr0, [r0], {23}
     9f8:	0e030034 	mcreq	0, 0, r0, cr3, cr4, {1}
     9fc:	0b3b0b3a 	bleq	ec36ec <__bss_end__+0xeb6d8c>
     a00:	17021349 	strne	r1, [r2, -r9, asr #6]
     a04:	0f0d0000 	svceq	0x000d0000
     a08:	490b0b00 	stmdbmi	fp, {r8, r9, fp}
     a0c:	0e000013 	mcreq	0, 0, r0, cr0, cr3, {0}
     a10:	13490035 	movtne	r0, #36917	; 0x9035
     a14:	2e0f0000 	cdpcs	0, 0, cr0, cr15, cr0, {0}
     a18:	03193f01 	tsteq	r9, #1, 30
     a1c:	3b0b3a0e 	blcc	2cf25c <__bss_end__+0x2c28fc>
     a20:	4919270b 	ldmdbmi	r9, {r0, r1, r3, r8, r9, sl, sp}
     a24:	12011113 	andne	r1, r1, #-1073741820	; 0xc0000004
     a28:	97184006 	ldrls	r4, [r8, -r6]
     a2c:	13011942 	movwne	r1, #6466	; 0x1942
     a30:	05100000 	ldreq	r0, [r0, #-0]
     a34:	3a080300 	bcc	20163c <__bss_end__+0x1f4cdc>
     a38:	490b3b0b 	stmdbmi	fp, {r0, r1, r3, r8, r9, fp, ip, sp}
     a3c:	00170213 	andseq	r0, r7, r3, lsl r2
     a40:	82891100 	addhi	r1, r9, #0, 2
     a44:	01110101 	tsteq	r1, r1, lsl #2
     a48:	00001331 	andeq	r1, r0, r1, lsr r3
     a4c:	01828a12 	orreq	r8, r2, r2, lsl sl
     a50:	91180200 	tstls	r8, r0, lsl #4
     a54:	00001842 	andeq	r1, r0, r2, asr #16
     a58:	11010b13 	tstne	r1, r3, lsl fp
     a5c:	01061201 	tsteq	r6, r1, lsl #4
     a60:	14000013 	strne	r0, [r0], #-19
     a64:	0111010b 	tsteq	r1, fp, lsl #2
     a68:	00000612 	andeq	r0, r0, r2, lsl r6
     a6c:	3f012e15 	svccc	0x00012e15
     a70:	3a0e0319 	bcc	3816dc <__bss_end__+0x374d7c>
     a74:	270b3b0b 	strcs	r3, [fp, -fp, lsl #22]
     a78:	11134919 	tstne	r3, r9, lsl r9
     a7c:	40061201 	andmi	r1, r6, r1, lsl #4
     a80:	19429718 	stmdbne	r2, {r3, r4, r8, r9, sl, ip, pc}^
     a84:	01000000 	mrseq	r0, (UNDEF: 0)
     a88:	0e250111 	mcreq	1, 1, r0, cr5, cr1, {0}
     a8c:	0e030b13 	vmoveq.32	d3[0], r0
     a90:	1755081b 	smmlane	r5, fp, r8, r0
     a94:	17100111 			; <UNDEFINED> instruction: 0x17100111
     a98:	16020000 	strne	r0, [r2], -r0
     a9c:	3a0e0300 	bcc	3816a4 <__bss_end__+0x374d44>
     aa0:	490b3b0b 	stmdbmi	fp, {r0, r1, r3, r8, r9, fp, ip, sp}
     aa4:	03000013 	movweq	r0, #19
     aa8:	0e030113 	mcreq	1, 0, r0, cr3, cr3, {0}
     aac:	0b3a0b0b 	bleq	e836e0 <__bss_end__+0xe76d80>
     ab0:	13010b3b 	movwne	r0, #6971	; 0x1b3b
     ab4:	0d040000 	stceq	0, cr0, [r4, #-0]
     ab8:	490e0300 	stmdbmi	lr, {r8, r9}
     abc:	340b3813 	strcc	r3, [fp], #-2067	; 0x813
     ac0:	05000019 	streq	r0, [r0, #-25]
     ac4:	0b0b000f 	bleq	2c0b08 <__bss_end__+0x2b41a8>
     ac8:	2e060000 	cdpcs	0, 0, cr0, cr6, cr0, {0}
     acc:	03193f01 	tsteq	r9, #1, 30
     ad0:	3b0b3a0e 	blcc	2cf310 <__bss_end__+0x2c29b0>
     ad4:	1201110b 	andne	r1, r1, #-1073741822	; 0xc0000002
     ad8:	97184006 	ldrls	r4, [r8, -r6]
     adc:	13011942 	movwne	r1, #6466	; 0x1942
     ae0:	89070000 	stmdbhi	r7, {}	; <UNPREDICTABLE>
     ae4:	11000182 	smlabbne	r0, r2, r1, r0
     ae8:	00133101 	andseq	r3, r3, r1, lsl #2
     aec:	012e0800 	teqeq	lr, r0, lsl #16
     af0:	0e03193f 	mcreq	9, 0, r1, cr3, cr15, {1}
     af4:	0b3b0b3a 	bleq	ec37e4 <__bss_end__+0xeb6e84>
     af8:	13491927 	movtne	r1, #39207	; 0x9927
     afc:	06120111 			; <UNDEFINED> instruction: 0x06120111
     b00:	42971840 	addsmi	r1, r7, #64, 16	; 0x400000
     b04:	00130119 	andseq	r0, r3, r9, lsl r1
     b08:	00050900 	andeq	r0, r5, r0, lsl #18
     b0c:	0b3a0e03 	bleq	e84320 <__bss_end__+0xe779c0>
     b10:	13490b3b 	movtne	r0, #39739	; 0x9b3b
     b14:	00001702 	andeq	r1, r0, r2, lsl #14
     b18:	0300050a 	movweq	r0, #1290	; 0x50a
     b1c:	3b0b3a08 	blcc	2cf344 <__bss_end__+0x2c29e4>
     b20:	0213490b 	andseq	r4, r3, #180224	; 0x2c000
     b24:	0b000018 	bleq	b8c <_start-0x7474>
     b28:	0111010b 	tsteq	r1, fp, lsl #2
     b2c:	00000612 	andeq	r0, r0, r2, lsl r6
     b30:	0300340c 	movweq	r3, #1036	; 0x40c
     b34:	3b0b3a08 	blcc	2cf35c <__bss_end__+0x2c29fc>
     b38:	0213490b 	andseq	r4, r3, #180224	; 0x2c000
     b3c:	0d000017 	stceq	0, cr0, [r0, #-92]	; 0xffffffa4
     b40:	0b0b0024 	bleq	2c0bd8 <__bss_end__+0x2b4278>
     b44:	08030b3e 	stmdaeq	r3, {r1, r2, r3, r4, r5, r8, r9, fp}
     b48:	050e0000 	streq	r0, [lr, #-0]
     b4c:	3a080300 	bcc	201754 <__bss_end__+0x1f4df4>
     b50:	490b3b0b 	stmdbmi	fp, {r0, r1, r3, r8, r9, fp, ip, sp}
     b54:	00170213 	andseq	r0, r7, r3, lsl r2
     b58:	00340f00 	eorseq	r0, r4, r0, lsl #30
     b5c:	0b3a0e03 	bleq	e84370 <__bss_end__+0xe77a10>
     b60:	13490b3b 	movtne	r0, #39739	; 0x9b3b
     b64:	00001702 	andeq	r1, r0, r2, lsl #14
     b68:	55010b10 	strpl	r0, [r1, #-2832]	; 0xb10
     b6c:	00130117 	andseq	r0, r3, r7, lsl r1
     b70:	000f1100 	andeq	r1, pc, r0, lsl #2
     b74:	13490b0b 	movtne	r0, #39691	; 0x9b0b
     b78:	24120000 	ldrcs	r0, [r2], #-0
     b7c:	3e0b0b00 	vmlacc.f64	d0, d11, d0
     b80:	000e030b 	andeq	r0, lr, fp, lsl #6
     b84:	010b1300 	mrseq	r1, (UNDEF: 59)
     b88:	00001755 	andeq	r1, r0, r5, asr r7
     b8c:	11010b14 	tstne	r1, r4, lsl fp
     b90:	01061201 	tsteq	r6, r1, lsl #4
     b94:	15000013 	strne	r0, [r0, #-19]
     b98:	01018289 	smlabbeq	r1, r9, r2, r8
     b9c:	13310111 	teqne	r1, #1073741828	; 0x40000004
     ba0:	8a160000 	bhi	580ba8 <__bss_end__+0x574248>
     ba4:	02000182 	andeq	r0, r0, #-2147483616	; 0x80000020
     ba8:	18429118 	stmdane	r2, {r3, r4, r8, ip, pc}^
     bac:	89170000 	ldmdbhi	r7, {}	; <UNPREDICTABLE>
     bb0:	11010182 	smlabbne	r1, r2, r1, r0
     bb4:	01133101 	tsteq	r3, r1, lsl #2
     bb8:	18000013 	stmdane	r0, {r0, r1, r4}
     bbc:	13490026 	movtne	r0, #36902	; 0x9026
     bc0:	2e190000 	cdpcs	0, 1, cr0, cr9, cr0, {0}
     bc4:	03193f01 	tsteq	r9, #1, 30
     bc8:	3b0b3a0e 	blcc	2cf408 <__bss_end__+0x2c2aa8>
     bcc:	49192705 	ldmdbmi	r9, {r0, r2, r8, r9, sl, sp}
     bd0:	12011113 	andne	r1, r1, #-1073741820	; 0xc0000004
     bd4:	97184006 	ldrls	r4, [r8, -r6]
     bd8:	13011942 	movwne	r1, #6466	; 0x1942
     bdc:	051a0000 	ldreq	r0, [sl, #-0]
     be0:	3a080300 	bcc	2017e8 <__bss_end__+0x1f4e88>
     be4:	49053b0b 	stmdbmi	r5, {r0, r1, r3, r8, r9, fp, ip, sp}
     be8:	00170213 	andseq	r0, r7, r3, lsl r2
     bec:	00051b00 	andeq	r1, r5, r0, lsl #22
     bf0:	0b3a0e03 	bleq	e84404 <__bss_end__+0xe77aa4>
     bf4:	1349053b 	movtne	r0, #38203	; 0x953b
     bf8:	00001702 	andeq	r1, r0, r2, lsl #14
     bfc:	0300051c 	movweq	r0, #1308	; 0x51c
     c00:	3b0b3a0e 	blcc	2cf440 <__bss_end__+0x2c2ae0>
     c04:	02134905 	andseq	r4, r3, #81920	; 0x14000
     c08:	1d000018 	stcne	0, cr0, [r0, #-96]	; 0xffffffa0
     c0c:	00000018 	andeq	r0, r0, r8, lsl r0
     c10:	0300341e 	movweq	r3, #1054	; 0x41e
     c14:	3b0b3a08 	blcc	2cf43c <__bss_end__+0x2c2adc>
     c18:	02134905 	andseq	r4, r3, #81920	; 0x14000
     c1c:	1f000018 	svcne	0x00000018
     c20:	0e030034 	mcreq	0, 0, r0, cr3, cr4, {1}
     c24:	053b0b3a 	ldreq	r0, [fp, #-2874]!	; 0xb3a
     c28:	18021349 	stmdane	r2, {r0, r3, r6, r8, r9, ip}
     c2c:	34200000 	strtcc	r0, [r0], #-0
     c30:	3a080300 	bcc	201838 <__bss_end__+0x1f4ed8>
     c34:	49053b0b 	stmdbmi	r5, {r0, r1, r3, r8, r9, fp, ip, sp}
     c38:	00170213 	andseq	r0, r7, r3, lsl r2
     c3c:	00342100 	eorseq	r2, r4, r0, lsl #2
     c40:	0b3a0e03 	bleq	e84454 <__bss_end__+0xe77af4>
     c44:	1349053b 	movtne	r0, #38203	; 0x953b
     c48:	00001702 	andeq	r1, r0, r2, lsl #14
     c4c:	49010122 	stmdbmi	r1, {r1, r5, r8}
     c50:	00130113 	andseq	r0, r3, r3, lsl r1
     c54:	00212300 	eoreq	r2, r1, r0, lsl #6
     c58:	052f1349 	streq	r1, [pc, #-841]!	; 917 <_start-0x76e9>
     c5c:	2e240000 	cdpcs	0, 2, cr0, cr4, cr0, {0}
     c60:	03193f00 	tsteq	r9, #0, 30
     c64:	3b0b3a0e 	blcc	2cf4a4 <__bss_end__+0x2c2b44>
     c68:	3c19270b 	ldccc	7, cr2, [r9], {11}
     c6c:	25000019 	strcs	r0, [r0, #-25]
     c70:	193f012e 	ldmdbne	pc!, {r1, r2, r3, r5, r8}	; <UNPREDICTABLE>
     c74:	0b3a0e03 	bleq	e84488 <__bss_end__+0xe77b28>
     c78:	19270b3b 	stmdbne	r7!, {r0, r1, r3, r4, r5, r8, r9, fp}
     c7c:	0000193c 	andeq	r1, r0, ip, lsr r9
     c80:	49000526 	stmdbmi	r0, {r1, r2, r5, r8, sl}
     c84:	00000013 	andeq	r0, r0, r3, lsl r0
     c88:	25011101 	strcs	r1, [r1, #-257]	; 0x101
     c8c:	030b130e 	movweq	r1, #45838	; 0xb30e
     c90:	55081b0e 	strpl	r1, [r8, #-2830]	; 0xb0e
     c94:	10011117 	andne	r1, r1, r7, lsl r1
     c98:	02000017 	andeq	r0, r0, #23
     c9c:	193f002e 	ldmdbne	pc!, {r1, r2, r3, r5}	; <UNPREDICTABLE>
     ca0:	0b3a0e03 	bleq	e844b4 <__bss_end__+0xe77b54>
     ca4:	19270b3b 	stmdbne	r7!, {r0, r1, r3, r4, r5, r8, r9, fp}
     ca8:	06120111 			; <UNDEFINED> instruction: 0x06120111
     cac:	42971840 	addsmi	r1, r7, #64, 16	; 0x400000
     cb0:	03000019 	movweq	r0, #25
     cb4:	193f012e 	ldmdbne	pc!, {r1, r2, r3, r5, r8}	; <UNPREDICTABLE>
     cb8:	0b3a0e03 	bleq	e844cc <__bss_end__+0xe77b6c>
     cbc:	19270b3b 	stmdbne	r7!, {r0, r1, r3, r4, r5, r8, r9, fp}
     cc0:	01111349 	tsteq	r1, r9, asr #6
     cc4:	18400612 	stmdane	r0, {r1, r4, r9, sl}^
     cc8:	01194297 			; <UNDEFINED> instruction: 0x01194297
     ccc:	04000013 	streq	r0, [r0], #-19
     cd0:	0e030034 	mcreq	0, 0, r0, cr3, cr4, {1}
     cd4:	0b3b0b3a 	bleq	ec39c4 <__bss_end__+0xeb7064>
     cd8:	061c1349 	ldreq	r1, [ip], -r9, asr #6
     cdc:	24050000 	strcs	r0, [r5], #-0
     ce0:	3e0b0b00 	vmlacc.f64	d0, d11, d0
     ce4:	000e030b 	andeq	r0, lr, fp, lsl #6
     ce8:	000f0600 	andeq	r0, pc, r0, lsl #12
     cec:	13490b0b 	movtne	r0, #39691	; 0x9b0b
     cf0:	35070000 	strcc	r0, [r7, #-0]
     cf4:	00134900 	andseq	r4, r3, r0, lsl #18
     cf8:	012e0800 	teqeq	lr, r0, lsl #16
     cfc:	0e03193f 	mcreq	9, 0, r1, cr3, cr15, {1}
     d00:	0b3b0b3a 	bleq	ec39f0 <__bss_end__+0xeb7090>
     d04:	01111927 	tsteq	r1, r7, lsr #18
     d08:	18400612 	stmdane	r0, {r1, r4, r9, sl}^
     d0c:	01194297 			; <UNDEFINED> instruction: 0x01194297
     d10:	09000013 	stmdbeq	r0, {r0, r1, r4}
     d14:	08030005 	stmdaeq	r3, {r0, r2}
     d18:	0b3b0b3a 	bleq	ec3a08 <__bss_end__+0xeb70a8>
     d1c:	17021349 	strne	r1, [r2, -r9, asr #6]
     d20:	340a0000 	strcc	r0, [sl], #-0
     d24:	3a080300 	bcc	20192c <__bss_end__+0x1f4fcc>
     d28:	490b3b0b 	stmdbmi	fp, {r0, r1, r3, r8, r9, fp, ip, sp}
     d2c:	00180213 	andseq	r0, r8, r3, lsl r2
     d30:	010b0b00 	tsteq	fp, r0, lsl #22
     d34:	06120111 			; <UNDEFINED> instruction: 0x06120111
     d38:	00001301 	andeq	r1, r0, r1, lsl #6
     d3c:	0300340c 	movweq	r3, #1036	; 0x40c
     d40:	3b0b3a08 	blcc	2cf568 <__bss_end__+0x2c2c08>
     d44:	0213490b 	andseq	r4, r3, #180224	; 0x2c000
     d48:	0d000017 	stceq	0, cr0, [r0, #-92]	; 0xffffffa4
     d4c:	00018289 	andeq	r8, r1, r9, lsl #5
     d50:	13310111 	teqne	r1, #1073741828	; 0x40000004
     d54:	890e0000 	stmdbhi	lr, {}	; <UNPREDICTABLE>
     d58:	11010182 	smlabbne	r1, r2, r1, r0
     d5c:	00133101 	andseq	r3, r3, r1, lsl #2
     d60:	828a0f00 	addhi	r0, sl, #0, 30
     d64:	18020001 	stmdane	r2, {r0}
     d68:	00184291 	mulseq	r8, r1, r2
     d6c:	00241000 	eoreq	r1, r4, r0
     d70:	0b3e0b0b 	bleq	f839a4 <__bss_end__+0xf77044>
     d74:	00000803 	andeq	r0, r0, r3, lsl #16
     d78:	03000511 	movweq	r0, #1297	; 0x511
     d7c:	3b0b3a0e 	blcc	2cf5bc <__bss_end__+0x2c2c5c>
     d80:	0213490b 	andseq	r4, r3, #180224	; 0x2c000
     d84:	12000017 	andne	r0, r0, #23
     d88:	0111010b 	tsteq	r1, fp, lsl #2
     d8c:	00000612 	andeq	r0, r0, r2, lsl r6
     d90:	03003413 	movweq	r3, #1043	; 0x413
     d94:	3b0b3a0e 	blcc	2cf5d4 <__bss_end__+0x2c2c74>
     d98:	0213490b 	andseq	r4, r3, #180224	; 0x2c000
     d9c:	14000018 	strne	r0, [r0], #-24
     da0:	0e030034 	mcreq	0, 0, r0, cr3, cr4, {1}
     da4:	0b3b0b3a 	bleq	ec3a94 <__bss_end__+0xeb7134>
     da8:	193f1349 	ldmdbne	pc!, {r0, r3, r6, r8, r9, ip}	; <UNPREDICTABLE>
     dac:	00001802 	andeq	r1, r0, r2, lsl #16
     db0:	49002615 	stmdbmi	r0, {r0, r2, r4, r9, sl, sp}
     db4:	00000013 	andeq	r0, r0, r3, lsl r0
     db8:	25011101 	strcs	r1, [r1, #-257]	; 0x101
     dbc:	030b130e 	movweq	r1, #45838	; 0xb30e
     dc0:	55081b0e 	strpl	r1, [r8, #-2830]	; 0xb0e
     dc4:	10011117 	andne	r1, r1, r7, lsl r1
     dc8:	02000017 	andeq	r0, r0, #23
     dcc:	0b0b0104 	bleq	2c11e4 <__bss_end__+0x2b4884>
     dd0:	0b3b0b3a 	bleq	ec3ac0 <__bss_end__+0xeb7160>
     dd4:	00001301 	andeq	r1, r0, r1, lsl #6
     dd8:	03002803 	movweq	r2, #2051	; 0x803
     ddc:	000d1c0e 	andeq	r1, sp, lr, lsl #24
     de0:	01130400 	tsteq	r3, r0, lsl #8
     de4:	0b0b0e03 	bleq	2c45f8 <__bss_end__+0x2b7c98>
     de8:	0b3b0b3a 	bleq	ec3ad8 <__bss_end__+0xeb7178>
     dec:	00001301 	andeq	r1, r0, r1, lsl #6
     df0:	03000d05 	movweq	r0, #3333	; 0xd05
     df4:	3b0b3a0e 	blcc	2cf634 <__bss_end__+0x2c2cd4>
     df8:	3813490b 	ldmdacc	r3, {r0, r1, r3, r8, fp, lr}
     dfc:	0600000b 	streq	r0, [r0], -fp
     e00:	0803000d 	stmdaeq	r3, {r0, r2, r3}
     e04:	0b3b0b3a 	bleq	ec3af4 <__bss_end__+0xeb7194>
     e08:	0b381349 	bleq	e05b34 <__bss_end__+0xdf91d4>
     e0c:	24070000 	strcs	r0, [r7], #-0
     e10:	3e0b0b00 	vmlacc.f64	d0, d11, d0
     e14:	000e030b 	andeq	r0, lr, fp, lsl #6
     e18:	012e0800 	teqeq	lr, r0, lsl #16
     e1c:	0e03193f 	mcreq	9, 0, r1, cr3, cr15, {1}
     e20:	0b3b0b3a 	bleq	ec3b10 <__bss_end__+0xeb71b0>
     e24:	01111927 	tsteq	r1, r7, lsr #18
     e28:	18400612 	stmdane	r0, {r1, r4, r9, sl}^
     e2c:	01194297 			; <UNDEFINED> instruction: 0x01194297
     e30:	09000013 	stmdbeq	r0, {r0, r1, r4}
     e34:	08030034 	stmdaeq	r3, {r2, r4, r5}
     e38:	0b3b0b3a 	bleq	ec3b28 <__bss_end__+0xeb71c8>
     e3c:	061c1349 	ldreq	r1, [ip], -r9, asr #6
     e40:	890a0000 	stmdbhi	sl, {}	; <UNPREDICTABLE>
     e44:	11010182 	smlabbne	r1, r2, r1, r0
     e48:	01133101 	tsteq	r3, r1, lsl #2
     e4c:	0b000013 	bleq	ea0 <_start-0x7160>
     e50:	0001828a 	andeq	r8, r1, sl, lsl #5
     e54:	42911802 	addsmi	r1, r1, #131072	; 0x20000
     e58:	0c000018 	stceq	0, cr0, [r0], {24}
     e5c:	01018289 	smlabbeq	r1, r9, r2, r8
     e60:	13310111 	teqne	r1, #1073741828	; 0x40000004
     e64:	0f0d0000 	svceq	0x000d0000
     e68:	490b0b00 	stmdbmi	fp, {r8, r9, fp}
     e6c:	0e000013 	mcreq	0, 0, r0, cr0, cr3, {0}
     e70:	0b0b0024 	bleq	2c0f08 <__bss_end__+0x2b45a8>
     e74:	08030b3e 	stmdaeq	r3, {r1, r2, r3, r4, r5, r8, r9, fp}
     e78:	2e0f0000 	cdpcs	0, 0, cr0, cr15, cr0, {0}
     e7c:	03193f00 	tsteq	r9, #0, 30
     e80:	3b0b3a0e 	blcc	2cf6c0 <__bss_end__+0x2c2d60>
     e84:	4919270b 	ldmdbmi	r9, {r0, r1, r3, r8, r9, sl, sp}
     e88:	12011113 	andne	r1, r1, #-1073741820	; 0xc0000004
     e8c:	97184006 	ldrls	r4, [r8, -r6]
     e90:	00001942 	andeq	r1, r0, r2, asr #18
     e94:	03000510 	movweq	r0, #1296	; 0x510
     e98:	3b0b3a08 	blcc	2cf6c0 <__bss_end__+0x2c2d60>
     e9c:	0213490b 	andseq	r4, r3, #180224	; 0x2c000
     ea0:	11000017 	tstne	r0, r7, lsl r0
     ea4:	193f002e 	ldmdbne	pc!, {r1, r2, r3, r5}	; <UNPREDICTABLE>
     ea8:	0b3a0e03 	bleq	e846bc <__bss_end__+0xe77d5c>
     eac:	19270b3b 	stmdbne	r7!, {r0, r1, r3, r4, r5, r8, r9, fp}
     eb0:	06120111 			; <UNDEFINED> instruction: 0x06120111
     eb4:	42971840 	addsmi	r1, r7, #64, 16	; 0x400000
     eb8:	12000019 	andne	r0, r0, #25
     ebc:	0e030034 	mcreq	0, 0, r0, cr3, cr4, {1}
     ec0:	0b3b0b3a 	bleq	ec3bb0 <__bss_end__+0xeb7250>
     ec4:	061c1349 	ldreq	r1, [ip], -r9, asr #6
     ec8:	26130000 	ldrcs	r0, [r3], -r0
     ecc:	00134900 	andseq	r4, r3, r0, lsl #18
     ed0:	00351400 	eorseq	r1, r5, r0, lsl #8
     ed4:	00001349 	andeq	r1, r0, r9, asr #6
     ed8:	3f012e15 	svccc	0x00012e15
     edc:	3a0e0319 	bcc	381b48 <__bss_end__+0x3751e8>
     ee0:	270b3b0b 	strcs	r3, [fp, -fp, lsl #22]
     ee4:	00193c19 	andseq	r3, r9, r9, lsl ip
     ee8:	00051600 	andeq	r1, r5, r0, lsl #12
     eec:	00001349 	andeq	r1, r0, r9, asr #6
     ef0:	01110100 	tsteq	r1, r0, lsl #2
     ef4:	0b130e25 	bleq	4c4790 <__bss_end__+0x4b7e30>
     ef8:	081b0e03 	ldmdaeq	fp, {r0, r1, r9, sl, fp}
     efc:	01111755 	tsteq	r1, r5, asr r7
     f00:	00001710 	andeq	r1, r0, r0, lsl r7
     f04:	0b010402 	bleq	41f14 <__bss_end__+0x355b4>
     f08:	3b0b3a0b 	blcc	2cf73c <__bss_end__+0x2c2ddc>
     f0c:	0013010b 	andseq	r0, r3, fp, lsl #2
     f10:	00280300 	eoreq	r0, r8, r0, lsl #6
     f14:	0d1c0e03 	ldceq	14, cr0, [ip, #-12]
     f18:	2e040000 	cdpcs	0, 0, cr0, cr4, cr0, {0}
     f1c:	03193f01 	tsteq	r9, #1, 30
     f20:	3b0b3a0e 	blcc	2cf760 <__bss_end__+0x2c2e00>
     f24:	1119270b 	tstne	r9, fp, lsl #14
     f28:	40061201 	andmi	r1, r6, r1, lsl #4
     f2c:	19429718 	stmdbne	r2, {r3, r4, r8, r9, sl, ip, pc}^
     f30:	00001301 	andeq	r1, r0, r1, lsl #6
     f34:	03000505 	movweq	r0, #1285	; 0x505
     f38:	3b0b3a08 	blcc	2cf760 <__bss_end__+0x2c2e00>
     f3c:	0213490b 	andseq	r4, r3, #180224	; 0x2c000
     f40:	06000017 			; <UNDEFINED> instruction: 0x06000017
     f44:	0e030034 	mcreq	0, 0, r0, cr3, cr4, {1}
     f48:	0b3b0b3a 	bleq	ec3c38 <__bss_end__+0xeb72d8>
     f4c:	061c1349 	ldreq	r1, [ip], -r9, asr #6
     f50:	89070000 	stmdbhi	r7, {}	; <UNPREDICTABLE>
     f54:	11010182 	smlabbne	r1, r2, r1, r0
     f58:	01133101 	tsteq	r3, r1, lsl #2
     f5c:	08000013 	stmdaeq	r0, {r0, r1, r4}
     f60:	0001828a 	andeq	r8, r1, sl, lsl #5
     f64:	42911802 	addsmi	r1, r1, #131072	; 0x20000
     f68:	09000018 	stmdbeq	r0, {r3, r4}
     f6c:	01018289 	smlabbeq	r1, r9, r2, r8
     f70:	13310111 	teqne	r1, #1073741828	; 0x40000004
     f74:	240a0000 	strcs	r0, [sl], #-0
     f78:	3e0b0b00 	vmlacc.f64	d0, d11, d0
     f7c:	000e030b 	andeq	r0, lr, fp, lsl #6
     f80:	000f0b00 	andeq	r0, pc, r0, lsl #22
     f84:	13490b0b 	movtne	r0, #39691	; 0x9b0b
     f88:	350c0000 	strcc	r0, [ip, #-0]
     f8c:	00134900 	andseq	r4, r3, r0, lsl #18
     f90:	012e0d00 	teqeq	lr, r0, lsl #26
     f94:	0e03193f 	mcreq	9, 0, r1, cr3, cr15, {1}
     f98:	0b3b0b3a 	bleq	ec3c88 <__bss_end__+0xeb7328>
     f9c:	193c1927 	ldmdbne	ip!, {r0, r1, r2, r5, r8, fp, ip}
     fa0:	050e0000 	streq	r0, [lr, #-0]
     fa4:	00134900 	andseq	r4, r3, r0, lsl #18
     fa8:	11010000 	mrsne	r0, (UNDEF: 1)
     fac:	130e2501 	movwne	r2, #58625	; 0xe501
     fb0:	1b0e030b 	blne	381be4 <__bss_end__+0x375284>
     fb4:	11175508 	tstne	r7, r8, lsl #10
     fb8:	00171001 	andseq	r1, r7, r1
     fbc:	01040200 	mrseq	r0, R12_usr
     fc0:	0b3a0b0b 	bleq	e83bf4 <__bss_end__+0xe77294>
     fc4:	13010b3b 	movwne	r0, #6971	; 0x1b3b
     fc8:	28030000 	stmdacs	r3, {}	; <UNPREDICTABLE>
     fcc:	1c0e0300 	stcne	3, cr0, [lr], {-0}
     fd0:	0400000d 	streq	r0, [r0], #-13
     fd4:	08030113 	stmdaeq	r3, {r0, r1, r4, r8}
     fd8:	0b3a0b0b 	bleq	e83c0c <__bss_end__+0xe772ac>
     fdc:	13010b3b 	movwne	r0, #6971	; 0x1b3b
     fe0:	0d050000 	stceq	0, cr0, [r5, #-0]
     fe4:	3a080300 	bcc	201bec <__bss_end__+0x1f528c>
     fe8:	490b3b0b 	stmdbmi	fp, {r0, r1, r3, r8, r9, fp, ip, sp}
     fec:	000b3813 	andeq	r3, fp, r3, lsl r8
     ff0:	000d0600 	andeq	r0, sp, r0, lsl #12
     ff4:	0b3a0e03 	bleq	e84808 <__bss_end__+0xe77ea8>
     ff8:	13490b3b 	movtne	r0, #39739	; 0x9b3b
     ffc:	00000b38 	andeq	r0, r0, r8, lsr fp
    1000:	0b002407 	bleq	a024 <__aeabi_ddiv+0x28>
    1004:	030b3e0b 	movweq	r3, #48651	; 0xbe0b
    1008:	0800000e 	stmdaeq	r0, {r1, r2, r3}
    100c:	193f012e 	ldmdbne	pc!, {r1, r2, r3, r5, r8}	; <UNPREDICTABLE>
    1010:	0b3a0e03 	bleq	e84824 <__bss_end__+0xe77ec4>
    1014:	19270b3b 	stmdbne	r7!, {r0, r1, r3, r4, r5, r8, r9, fp}
    1018:	06120111 			; <UNDEFINED> instruction: 0x06120111
    101c:	42971840 	addsmi	r1, r7, #64, 16	; 0x400000
    1020:	00130119 	andseq	r0, r3, r9, lsl r1
    1024:	00050900 	andeq	r0, r5, r0, lsl #18
    1028:	0b3a0e03 	bleq	e8483c <__bss_end__+0xe77edc>
    102c:	13490b3b 	movtne	r0, #39739	; 0x9b3b
    1030:	00001702 	andeq	r1, r0, r2, lsl #14
    1034:	0182890a 	orreq	r8, r2, sl, lsl #18
    1038:	31011101 	tstcc	r1, r1, lsl #2
    103c:	00130113 	andseq	r0, r3, r3, lsl r1
    1040:	828a0b00 	addhi	r0, sl, #0, 22
    1044:	18020001 	stmdane	r2, {r0}
    1048:	00184291 	mulseq	r8, r1, r2
    104c:	82890c00 	addhi	r0, r9, #0, 24
    1050:	01110101 	tsteq	r1, r1, lsl #2
    1054:	00001331 	andeq	r1, r0, r1, lsr r3
    1058:	0300050d 	movweq	r0, #1293	; 0x50d
    105c:	3b0b3a08 	blcc	2cf884 <__bss_end__+0x2c2f24>
    1060:	0213490b 	andseq	r4, r3, #180224	; 0x2c000
    1064:	0e000018 	mcreq	0, 0, r0, cr0, cr8, {0}
    1068:	08030005 	stmdaeq	r3, {r0, r2}
    106c:	0b3b0b3a 	bleq	ec3d5c <__bss_end__+0xeb73fc>
    1070:	17021349 	strne	r1, [r2, -r9, asr #6]
    1074:	0b0f0000 	bleq	3c107c <__bss_end__+0x3b471c>
    1078:	12011101 	andne	r1, r1, #1073741824	; 0x40000000
    107c:	10000006 	andne	r0, r0, r6
    1080:	08030034 	stmdaeq	r3, {r2, r4, r5}
    1084:	0b3b0b3a 	bleq	ec3d74 <__bss_end__+0xeb7414>
    1088:	17021349 	strne	r1, [r2, -r9, asr #6]
    108c:	0f110000 	svceq	0x00110000
    1090:	490b0b00 	stmdbmi	fp, {r8, r9, fp}
    1094:	12000013 	andne	r0, r0, #19
    1098:	0b0b0024 	bleq	2c1130 <__bss_end__+0x2b47d0>
    109c:	08030b3e 	stmdaeq	r3, {r1, r2, r3, r4, r5, r8, r9, fp}
    10a0:	34130000 	ldrcc	r0, [r3], #-0
    10a4:	3a080300 	bcc	201cac <__bss_end__+0x1f534c>
    10a8:	490b3b0b 	stmdbmi	fp, {r0, r1, r3, r8, r9, fp, ip, sp}
    10ac:	02193f13 	andseq	r3, r9, #19, 30	; 0x4c
    10b0:	14000018 	strne	r0, [r0], #-24
    10b4:	13490035 	movtne	r0, #36917	; 0x9035
    10b8:	2e150000 	cdpcs	0, 1, cr0, cr5, cr0, {0}
    10bc:	03193f01 	tsteq	r9, #1, 30
    10c0:	3b0b3a0e 	blcc	2cf900 <__bss_end__+0x2c2fa0>
    10c4:	3c19270b 	ldccc	7, cr2, [r9], {11}
    10c8:	16000019 			; <UNDEFINED> instruction: 0x16000019
    10cc:	13490005 	movtne	r0, #36869	; 0x9005
    10d0:	01000000 	mrseq	r0, (UNDEF: 0)
    10d4:	06100011 			; <UNDEFINED> instruction: 0x06100011
    10d8:	01120111 	tsteq	r2, r1, lsl r1
    10dc:	081b0803 	ldmdaeq	fp, {r0, r1, fp}
    10e0:	05130825 	ldreq	r0, [r3, #-2085]	; 0x825
    10e4:	01000000 	mrseq	r0, (UNDEF: 0)
    10e8:	06100011 			; <UNDEFINED> instruction: 0x06100011
    10ec:	01120111 	tsteq	r2, r1, lsl r1
    10f0:	081b0803 	ldmdaeq	fp, {r0, r1, fp}
    10f4:	05130825 	ldreq	r0, [r3, #-2085]	; 0x825
    10f8:	01000000 	mrseq	r0, (UNDEF: 0)
    10fc:	06100011 			; <UNDEFINED> instruction: 0x06100011
    1100:	01120111 	tsteq	r2, r1, lsl r1
    1104:	081b0803 	ldmdaeq	fp, {r0, r1, fp}
    1108:	05130825 	ldreq	r0, [r3, #-2085]	; 0x825
    110c:	01000000 	mrseq	r0, (UNDEF: 0)
    1110:	06100011 			; <UNDEFINED> instruction: 0x06100011
    1114:	01120111 	tsteq	r2, r1, lsl r1
    1118:	081b0803 	ldmdaeq	fp, {r0, r1, fp}
    111c:	05130825 	ldreq	r0, [r3, #-2085]	; 0x825
    1120:	01000000 	mrseq	r0, (UNDEF: 0)
    1124:	06100011 			; <UNDEFINED> instruction: 0x06100011
    1128:	01120111 	tsteq	r2, r1, lsl r1
    112c:	081b0803 	ldmdaeq	fp, {r0, r1, fp}
    1130:	05130825 	ldreq	r0, [r3, #-2085]	; 0x825
    1134:	01000000 	mrseq	r0, (UNDEF: 0)
    1138:	06100011 			; <UNDEFINED> instruction: 0x06100011
    113c:	01120111 	tsteq	r2, r1, lsl r1
    1140:	081b0803 	ldmdaeq	fp, {r0, r1, fp}
    1144:	05130825 	ldreq	r0, [r3, #-2085]	; 0x825
    1148:	01000000 	mrseq	r0, (UNDEF: 0)
    114c:	06100011 			; <UNDEFINED> instruction: 0x06100011
    1150:	01120111 	tsteq	r2, r1, lsl r1
    1154:	081b0803 	ldmdaeq	fp, {r0, r1, fp}
    1158:	05130825 	ldreq	r0, [r3, #-2085]	; 0x825
    115c:	Address 0x000000000000115c is out of bounds.


Disassembly of section .debug_aranges:

00000000 <.debug_aranges>:
   0:	0000001c 	andeq	r0, r0, ip, lsl r0
   4:	00000002 	andeq	r0, r0, r2
   8:	00040000 	andeq	r0, r4, r0
   c:	00000000 	andeq	r0, r0, r0
  10:	00008010 	andeq	r8, r0, r0, lsl r0
  14:	00000030 	andeq	r0, r0, r0, lsr r0
	...
  20:	0000001c 	andeq	r0, r0, ip, lsl r0
  24:	02d00002 	sbcseq	r0, r0, #2
  28:	00040000 	andeq	r0, r4, r0
  2c:	00000000 	andeq	r0, r0, r0
  30:	00008040 	andeq	r8, r0, r0, asr #32
  34:	00000038 	andeq	r0, r0, r8, lsr r0
	...
  40:	0000001c 	andeq	r0, r0, ip, lsl r0
  44:	035b0002 	cmpeq	fp, #2
  48:	00040000 	andeq	r0, r4, r0
  4c:	00000000 	andeq	r0, r0, r0
  50:	00008078 	andeq	r8, r0, r8, ror r0
  54:	000002d0 	ldrdeq	r0, [r0], -r0	; <UNPREDICTABLE>
	...
  60:	0000001c 	andeq	r0, r0, ip, lsl r0
  64:	05e80002 	strbeq	r0, [r8, #2]!
  68:	00040000 	andeq	r0, r4, r0
  6c:	00000000 	andeq	r0, r0, r0
  70:	00008348 	andeq	r8, r0, r8, asr #6
  74:	00000020 	andeq	r0, r0, r0, lsr #32
	...
  80:	0000001c 	andeq	r0, r0, ip, lsl r0
  84:	06b40002 	ldrteq	r0, [r4], r2
  88:	00040000 	andeq	r0, r4, r0
  8c:	00000000 	andeq	r0, r0, r0
  90:	00008368 	andeq	r8, r0, r8, ror #6
  94:	00000148 	andeq	r0, r0, r8, asr #2
	...
  a0:	0000001c 	andeq	r0, r0, ip, lsl r0
  a4:	0a240002 	beq	9000b4 <__bss_end__+0x8f3754>
  a8:	00040000 	andeq	r0, r4, r0
  ac:	00000000 	andeq	r0, r0, r0
  b0:	000084b0 			; <UNDEFINED> instruction: 0x000084b0
  b4:	0000006c 	andeq	r0, r0, ip, rrx
	...
  c0:	0000001c 	andeq	r0, r0, ip, lsl r0
  c4:	0b300002 	bleq	c000d4 <__bss_end__+0xbf3774>
  c8:	00040000 	andeq	r0, r4, r0
  cc:	00000000 	andeq	r0, r0, r0
  d0:	00008520 	andeq	r8, r0, r0, lsr #10
  d4:	000002a0 	andeq	r0, r0, r0, lsr #5
	...
  e0:	0000001c 	andeq	r0, r0, ip, lsl r0
  e4:	0d270002 	stceq	0, cr0, [r7, #-8]!
  e8:	00040000 	andeq	r0, r4, r0
  ec:	00000000 	andeq	r0, r0, r0
  f0:	000087c0 	andeq	r8, r0, r0, asr #15
  f4:	00000018 	andeq	r0, r0, r8, lsl r0
	...
 100:	0000001c 	andeq	r0, r0, ip, lsl r0
 104:	0fad0002 	svceq	0x00ad0002
 108:	00040000 	andeq	r0, r4, r0
 10c:	00000000 	andeq	r0, r0, r0
 110:	000087d8 	ldrdeq	r8, [r0], -r8	; <UNPREDICTABLE>
 114:	00000068 	andeq	r0, r0, r8, rrx
	...
 120:	0000001c 	andeq	r0, r0, ip, lsl r0
 124:	100a0002 	andne	r0, sl, r2
 128:	00040000 	andeq	r0, r4, r0
 12c:	00000000 	andeq	r0, r0, r0
 130:	00008840 	andeq	r8, r0, r0, asr #16
 134:	00000368 	andeq	r0, r0, r8, ror #6
	...
 140:	0000004c 	andeq	r0, r0, ip, asr #32
 144:	146e0002 	strbtne	r0, [lr], #-2
 148:	00040000 	andeq	r0, r4, r0
 14c:	00000000 	andeq	r0, r0, r0
 150:	00008bd8 	ldrdeq	r8, [r0], -r8	; <UNPREDICTABLE>
 154:	00000010 	andeq	r0, r0, r0, lsl r0
 158:	00008be8 	andeq	r8, r0, r8, ror #23
 15c:	00000064 	andeq	r0, r0, r4, rrx
 160:	00008c4c 	andeq	r8, r0, ip, asr #24
 164:	00000058 	andeq	r0, r0, r8, asr r0
 168:	00008ca4 	andeq	r8, r0, r4, lsr #25
 16c:	00000018 	andeq	r0, r0, r8, lsl r0
 170:	00008cbc 			; <UNDEFINED> instruction: 0x00008cbc
 174:	00000018 	andeq	r0, r0, r8, lsl r0
 178:	00008cd4 	ldrdeq	r8, [r0], -r4
 17c:	00000060 	andeq	r0, r0, r0, rrx
 180:	00008d34 	andeq	r8, r0, r4, lsr sp
 184:	00000048 	andeq	r0, r0, r8, asr #32
	...
 190:	00000054 	andeq	r0, r0, r4, asr r0
 194:	17300002 	ldrne	r0, [r0, -r2]!
 198:	00040000 	andeq	r0, r4, r0
 19c:	00000000 	andeq	r0, r0, r0
 1a0:	00008d7c 	andeq	r8, r0, ip, ror sp
 1a4:	00000014 	andeq	r0, r0, r4, lsl r0
 1a8:	00008d90 	muleq	r0, r0, sp
 1ac:	00000038 	andeq	r0, r0, r8, lsr r0
 1b0:	00008dc8 	andeq	r8, r0, r8, asr #27
 1b4:	000000c8 	andeq	r0, r0, r8, asr #1
 1b8:	00008e90 	muleq	r0, r0, lr
 1bc:	000000d8 	ldrdeq	r0, [r0], -r8
 1c0:	00008f68 	andeq	r8, r0, r8, ror #30
 1c4:	0000014c 	andeq	r0, r0, ip, asr #2
 1c8:	000090b4 	strheq	r9, [r0], -r4
 1cc:	000001e0 	andeq	r0, r0, r0, ror #3
 1d0:	00009294 	muleq	r0, r4, r2
 1d4:	0000002c 	andeq	r0, r0, ip, lsr #32
 1d8:	000092c0 	andeq	r9, r0, r0, asr #5
 1dc:	00000068 	andeq	r0, r0, r8, rrx
	...
 1e8:	00000044 	andeq	r0, r0, r4, asr #32
 1ec:	1d1c0002 	ldcne	0, cr0, [ip, #-8]
 1f0:	00040000 	andeq	r0, r4, r0
 1f4:	00000000 	andeq	r0, r0, r0
 1f8:	00009328 	andeq	r9, r0, r8, lsr #6
 1fc:	00000010 	andeq	r0, r0, r0, lsl r0
 200:	00009338 	andeq	r9, r0, r8, lsr r3
 204:	0000001c 	andeq	r0, r0, ip, lsl r0
 208:	00009354 	andeq	r9, r0, r4, asr r3
 20c:	0000002c 	andeq	r0, r0, ip, lsr #32
 210:	00009380 	andeq	r9, r0, r0, lsl #7
 214:	00000034 	andeq	r0, r0, r4, lsr r0
 218:	000093b4 			; <UNDEFINED> instruction: 0x000093b4
 21c:	00000034 	andeq	r0, r0, r4, lsr r0
 220:	000093e8 	andeq	r9, r0, r8, ror #7
 224:	00000020 	andeq	r0, r0, r0, lsr #32
	...
 230:	00000034 	andeq	r0, r0, r4, lsr r0
 234:	1ecd0002 	cdpne	0, 12, cr0, cr13, cr2, {0}
 238:	00040000 	andeq	r0, r4, r0
 23c:	00000000 	andeq	r0, r0, r0
 240:	00009408 	andeq	r9, r0, r8, lsl #8
 244:	00000068 	andeq	r0, r0, r8, rrx
 248:	00009470 	andeq	r9, r0, r0, ror r4
 24c:	00000030 	andeq	r0, r0, r0, lsr r0
 250:	000094a0 	andeq	r9, r0, r0, lsr #9
 254:	00000040 	andeq	r0, r0, r0, asr #32
 258:	000094e0 	andeq	r9, r0, r0, ror #9
 25c:	00000024 	andeq	r0, r0, r4, lsr #32
	...
 268:	0000002c 	andeq	r0, r0, ip, lsr #32
 26c:	20af0002 	adccs	r0, pc, r2
 270:	00040000 	andeq	r0, r4, r0
 274:	00000000 	andeq	r0, r0, r0
 278:	00009504 	andeq	r9, r0, r4, lsl #10
 27c:	00000068 	andeq	r0, r0, r8, rrx
 280:	0000956c 	andeq	r9, r0, ip, ror #10
 284:	00000020 	andeq	r0, r0, r0, lsr #32
 288:	0000958c 	andeq	r9, r0, ip, lsl #11
 28c:	00000018 	andeq	r0, r0, r8, lsl r0
	...
 298:	00000024 	andeq	r0, r0, r4, lsr #32
 29c:	221d0002 	andscs	r0, sp, #2
 2a0:	00040000 	andeq	r0, r4, r0
 2a4:	00000000 	andeq	r0, r0, r0
 2a8:	000095a4 	andeq	r9, r0, r4, lsr #11
 2ac:	000000bc 	strheq	r0, [r0], -ip
 2b0:	00009660 	andeq	r9, r0, r0, ror #12
 2b4:	00000090 	muleq	r0, r0, r0
	...
 2c0:	0000001c 	andeq	r0, r0, ip, lsl r0
 2c4:	25710002 	ldrbcs	r0, [r1, #-2]!
 2c8:	00040000 	andeq	r0, r4, r0
 2cc:	00000000 	andeq	r0, r0, r0
 2d0:	000096f0 	strdeq	r9, [r0], -r0
 2d4:	00000114 	andeq	r0, r0, r4, lsl r1
	...
 2e0:	0000001c 	andeq	r0, r0, ip, lsl r0
 2e4:	261d0002 	ldrcs	r0, [sp], -r2
 2e8:	00040000 	andeq	r0, r4, r0
 2ec:	00000000 	andeq	r0, r0, r0
 2f0:	00009804 	andeq	r9, r0, r4, lsl #16
 2f4:	00000148 	andeq	r0, r0, r8, asr #2
	...
 300:	0000001c 	andeq	r0, r0, ip, lsl r0
 304:	26c90002 	strbcs	r0, [r9], r2
 308:	00040000 	andeq	r0, r4, r0
 30c:	00000000 	andeq	r0, r0, r0
 310:	0000994c 	andeq	r9, r0, ip, asr #18
 314:	00000004 	andeq	r0, r0, r4
	...
 320:	0000001c 	andeq	r0, r0, ip, lsl r0
 324:	27750002 	ldrbcs	r0, [r5, -r2]!
 328:	00040000 	andeq	r0, r4, r0
 32c:	00000000 	andeq	r0, r0, r0
 330:	00009950 	andeq	r9, r0, r0, asr r9
 334:	0000041c 	andeq	r0, r0, ip, lsl r4
	...
 340:	0000001c 	andeq	r0, r0, ip, lsl r0
 344:	28220002 	stmdacs	r2!, {r1}
 348:	00040000 	andeq	r0, r4, r0
 34c:	00000000 	andeq	r0, r0, r0
 350:	00009d6c 	andeq	r9, r0, ip, ror #26
 354:	0000049c 	muleq	r0, ip, r4
	...
 360:	0000001c 	andeq	r0, r0, ip, lsl r0
 364:	28cf0002 	stmiacs	pc, {r1}^	; <UNPREDICTABLE>
 368:	00040000 	andeq	r0, r4, r0
 36c:	00000000 	andeq	r0, r0, r0
 370:	0000a208 	andeq	sl, r0, r8, lsl #4
 374:	00000144 	andeq	r0, r0, r4, asr #2
	...
 380:	0000001c 	andeq	r0, r0, ip, lsl r0
 384:	297c0002 	ldmdbcs	ip!, {r1}^
 388:	00040000 	andeq	r0, r4, r0
 38c:	00000000 	andeq	r0, r0, r0
 390:	0000a34c 	andeq	sl, r0, ip, asr #6
 394:	0000005c 	andeq	r0, r0, ip, asr r0
	...

Disassembly of section .debug_line:

00000000 <.debug_line>:
   0:	00000073 	andeq	r0, r0, r3, ror r0
   4:	00560002 	subseq	r0, r6, r2
   8:	01020000 	mrseq	r0, (UNDEF: 2)
   c:	000d0efb 	strdeq	r0, [sp], -fp
  10:	01010101 	tsteq	r1, r1, lsl #2
  14:	01000000 	mrseq	r0, (UNDEF: 0)
  18:	00010000 	andeq	r0, r1, r0
  1c:	2d6d7770 	stclcs	7, cr7, [sp, #-448]!	; 0xfffffe40
  20:	656e6973 	strbvs	r6, [lr, #-2419]!	; 0x973
  24:	0000632e 	andeq	r6, r0, lr, lsr #6
  28:	75610000 	strbvc	r0, [r1, #-0]!
  2c:	2e6f6964 	cdpcs	9, 6, cr6, cr15, cr4, {3}
  30:	00000068 	andeq	r0, r0, r8, rrx
  34:	6e6f7300 	cdpvs	3, 6, cr7, cr15, cr0, {0}
  38:	00682e67 	rsbeq	r2, r8, r7, ror #28
  3c:	70000000 	andvc	r0, r0, r0
  40:	70697265 	rsbvc	r7, r9, r5, ror #4
  44:	61726568 	cmnvs	r2, r8, ror #10
  48:	682e736c 	stmdavs	lr!, {r2, r3, r5, r6, r8, r9, ip, sp, lr}
  4c:	00000000 	andeq	r0, r0, r0
  50:	6e727574 	mrcvs	5, 3, r7, cr2, cr4, {3}
  54:	6c626174 	stfvse	f6, [r2], #-464	; 0xfffffe30
  58:	00682e65 	rsbeq	r2, r8, r5, ror #28
  5c:	00000000 	andeq	r0, r0, r0
  60:	10020500 	andne	r0, r2, r0, lsl #10
  64:	03000080 	movweq	r0, #128	; 0x80
  68:	302f010b 	eorcc	r0, pc, fp, lsl #2
  6c:	032e1703 	teqeq	lr, #786432	; 0xc0000
  70:	0602ba1f 			; <UNDEFINED> instruction: 0x0602ba1f
  74:	3e010100 	adfccs	f0, f1, f0
  78:	02000000 	andeq	r0, r0, #0
  7c:	00001f00 	andeq	r1, r0, r0, lsl #30
  80:	fb010200 	blx	4088a <__bss_end__+0x33f2a>
  84:	01000d0e 	tsteq	r0, lr, lsl #26
  88:	00010101 	andeq	r0, r1, r1, lsl #2
  8c:	00010000 	andeq	r0, r1, r0
  90:	63000100 	movwvs	r0, #256	; 0x100
  94:	72617473 	rsbvc	r7, r1, #1929379840	; 0x73000000
  98:	00632e74 	rsbeq	r2, r3, r4, ror lr
  9c:	00000000 	andeq	r0, r0, r0
  a0:	40020500 	andmi	r0, r2, r0, lsl #10
  a4:	17000080 	strne	r0, [r0, -r0, lsl #1]
  a8:	2d2f312f 	stfcss	f3, [pc, #-188]!	; fffffff4 <__bss_end__+0xffff3694>
  ac:	0402002f 	streq	r0, [r2], #-47	; 0x2f
  b0:	2f4d4901 	svccs	0x004d4901
  b4:	01000802 	tsteq	r0, r2, lsl #16
  b8:	0000b101 	andeq	fp, r0, r1, lsl #2
  bc:	29000200 	stmdbcs	r0, {r9}
  c0:	02000000 	andeq	r0, r0, #0
  c4:	0d0efb01 	vstreq	d15, [lr, #-4]
  c8:	01010100 	mrseq	r0, (UNDEF: 17)
  cc:	00000001 	andeq	r0, r0, r1
  d0:	01000001 	tsteq	r0, r1
  d4:	64756100 	ldrbtvs	r6, [r5], #-256	; 0x100
  d8:	632e6f69 	teqvs	lr, #420	; 0x1a4
  dc:	00000000 	andeq	r0, r0, r0
  e0:	656d6974 	strbvs	r6, [sp, #-2420]!	; 0x974
  e4:	00682e72 	rsbeq	r2, r8, r2, ror lr
  e8:	00000000 	andeq	r0, r0, r0
  ec:	78020500 	stmdavc	r2, {r8, sl}
  f0:	03000080 	movweq	r0, #128	; 0x80
  f4:	2f0100df 	svccs	0x000100df
  f8:	6a4b8336 	bvs	12e0dd8 <__bss_end__+0x12d4478>
  fc:	67844d83 	strvs	r4, [r4, r3, lsl #27]
 100:	0c03684c 	stceq	8, cr6, [r3], {76}	; 0x4c
 104:	5a086aba 	bpl	21abf4 <__bss_end__+0x20e294>
 108:	2f2a3132 	svccs	0x002a3132
 10c:	f3bb4b4c 	vtbx.8	d4, {d11-d14}, d12
 110:	31f49108 	mvnscc	r9, r8, lsl #2
 114:	004c2fd8 	ldrdeq	r2, [ip], #-248	; 0xffffff08
 118:	03010402 	movweq	r0, #5122	; 0x1402
 11c:	14032e6f 	strne	r2, [r3], #-3695	; 0xe6f
 120:	303f084a 	eorscc	r0, pc, sl, asr #16
 124:	2f4b679f 	svccs	0x004b679f
 128:	2f2b2f67 	svccs	0x002b2f67
 12c:	03040200 	movweq	r0, #16896	; 0x4200
 130:	02006606 	andeq	r6, r0, #6291456	; 0x600000
 134:	2f060304 	svccs	0x00060304
 138:	01040200 	mrseq	r0, R12_usr
 13c:	02002e06 	andeq	r2, r0, #6, 28	; 0x60
 140:	002e0204 	eoreq	r0, lr, r4, lsl #4
 144:	4a030402 	bmi	c1154 <__bss_end__+0xb47f4>
 148:	03040200 	movweq	r0, #16896	; 0x4200
 14c:	02002f06 	andeq	r2, r0, #6, 30
 150:	002b0304 	eoreq	r0, fp, r4, lsl #6
 154:	06010402 	streq	r0, [r1], -r2, lsl #8
 158:	8650062e 	ldrbhi	r0, [r0], -lr, lsr #12
 15c:	4e684d87 	cdpmi	13, 6, cr4, cr8, cr7, {4}
 160:	4c513167 	ldfmie	f3, [r1], {103}	; 0x67
 164:	0810cd03 	ldmdaeq	r0, {r0, r1, r8, sl, fp, lr, pc}
 168:	00020220 	andeq	r0, r2, r0, lsr #4
 16c:	00a40101 	adceq	r0, r4, r1, lsl #2
 170:	00020000 	andeq	r0, r2, r0
 174:	0000007c 	andeq	r0, r0, ip, ror r0
 178:	0efb0102 	cdpeq	1, 15, cr0, cr11, cr2, {0}
 17c:	0101000d 	tsteq	r1, sp
 180:	00000101 	andeq	r0, r0, r1, lsl #2
 184:	00000100 	andeq	r0, r0, r0, lsl #2
 188:	73752f01 	cmnvc	r5, #1, 30
 18c:	6f6c2f72 	svcvs	0x006c2f72
 190:	2f6c6163 	svccs	0x006c6163
 194:	6c6c6543 	cfstr64vs	mvdx6, [ip], #-268	; 0xfffffef4
 198:	612f7261 	teqvs	pc, r1, ror #4
 19c:	6e2d6d72 	mcrvs	13, 1, r6, cr13, cr2, {3}
 1a0:	2d656e6f 	stclcs	14, cr6, [r5, #-444]!	; 0xfffffe44
 1a4:	69626165 	stmdbvs	r2!, {r0, r2, r5, r6, r8, sp, lr}^
 1a8:	382e342f 	stmdacc	lr!, {r0, r1, r2, r3, r5, sl, ip, sp}
 1ac:	632d332e 	teqvs	sp, #-1207959552	; 0xb8000000
 1b0:	30373173 	eorscc	r3, r7, r3, ror r1
 1b4:	696c2f65 	stmdbvs	ip!, {r0, r2, r5, r6, r8, r9, sl, fp, sp}^
 1b8:	63672f62 	cmnvs	r7, #392	; 0x188
 1bc:	72612f63 	rsbvc	r2, r1, #396	; 0x18c
 1c0:	6f6e2d6d 	svcvs	0x006e2d6d
 1c4:	652d656e 	strvs	r6, [sp, #-1390]!	; 0x56e
 1c8:	2f696261 	svccs	0x00696261
 1cc:	2e382e34 	mrccs	14, 1, r2, cr8, cr4, {1}
 1d0:	6e692f33 	mcrvs	15, 3, r2, cr9, cr3, {1}
 1d4:	64756c63 	ldrbtvs	r6, [r5], #-3171	; 0xc63
 1d8:	6d000065 	stcvs	0, cr0, [r0, #-404]	; 0xfffffe6c
 1dc:	70636d65 	rsbvc	r6, r3, r5, ror #26
 1e0:	00632e79 	rsbeq	r2, r3, r9, ror lr
 1e4:	73000000 	movwvc	r0, #0
 1e8:	65646474 	strbvs	r6, [r4, #-1140]!	; 0x474
 1ec:	00682e66 	rsbeq	r2, r8, r6, ror #28
 1f0:	00000001 	andeq	r0, r0, r1
 1f4:	48020500 	stmdami	r2, {r8, sl}
 1f8:	03000083 	movweq	r0, #131	; 0x83
 1fc:	0015010a 	andseq	r0, r5, sl, lsl #2
 200:	4b020402 	blmi	81210 <__bss_end__+0x748b0>
 204:	02040200 	andeq	r0, r4, #0, 4
 208:	04020049 	streq	r0, [r2], #-73	; 0x49
 20c:	062e0601 	strteq	r0, [lr], -r1, lsl #12
 210:	0002024e 	andeq	r0, r2, lr, asr #4
 214:	00940101 	addseq	r0, r4, r1, lsl #2
 218:	00020000 	andeq	r0, r2, r0
 21c:	0000005d 	andeq	r0, r0, sp, asr r0
 220:	0efb0102 	cdpeq	1, 15, cr0, cr11, cr2, {0}
 224:	0101000d 	tsteq	r1, sp
 228:	00000101 	andeq	r0, r0, r1, lsl #2
 22c:	00000100 	andeq	r0, r0, r0, lsl #2
 230:	2f2e2e01 	svccs	0x002e2e01
 234:	30317363 	eorscc	r7, r1, r3, ror #6
 238:	672e6537 			; <UNDEFINED> instruction: 0x672e6537
 23c:	75687469 	strbvc	r7, [r8, #-1129]!	; 0x469
 240:	6f692e62 	svcvs	0x00692e62
 244:	62696c2f 	rsbvs	r6, r9, #12032	; 0x2f00
 248:	692f6970 	stmdbvs	pc!, {r4, r5, r6, r8, fp, sp, lr}	; <UNPREDICTABLE>
 24c:	756c636e 	strbvc	r6, [ip, #-878]!	; 0x36e
 250:	00006564 	andeq	r6, r0, r4, ror #10
 254:	69726570 	ldmdbvs	r2!, {r4, r5, r6, r8, sl, sp, lr}^
 258:	72656870 	rsbvc	r6, r5, #112, 16	; 0x700000
 25c:	2e736c61 	cdpcs	12, 7, cr6, cr3, cr1, {3}
 260:	00000063 	andeq	r0, r0, r3, rrx
 264:	69706700 	ldmdbvs	r0!, {r8, r9, sl, sp, lr}^
 268:	00682e6f 	rsbeq	r2, r8, pc, ror #28
 26c:	6d000001 	stcvs	0, cr0, [r0, #-4]
 270:	30337063 	eorscc	r7, r3, r3, rrx
 274:	682e3830 	stmdavs	lr!, {r4, r5, fp, ip, sp}
 278:	00000000 	andeq	r0, r0, r0
 27c:	02050000 	andeq	r0, r5, #0
 280:	00008368 	andeq	r8, r0, r8, ror #6
 284:	2f010f03 	svccs	0x00010f03
 288:	4b4b4b30 	blmi	12d2f50 <__bss_end__+0x12c65f0>
 28c:	302f4c4d 	eorcc	r4, pc, sp, asr #24
 290:	3f082f4e 	svccc	0x00082f4e
 294:	d8673084 	stmdale	r7!, {r2, r7, ip, sp}^
 298:	4c4c4c4c 	mcrrmi	12, 4, r4, ip, cr12
 29c:	4a78034b 	bmi	1e00fd0 <__bss_end__+0x1df4670>
 2a0:	4e4c4c4c 	cdpmi	12, 4, cr4, cr12, cr12, {2}
 2a4:	4b308430 	blmi	c2136c <__bss_end__+0xc14a0c>
 2a8:	000a02db 	ldrdeq	r0, [sl], -fp
 2ac:	00450101 	subeq	r0, r5, r1, lsl #2
 2b0:	00020000 	andeq	r0, r2, r0
 2b4:	00000029 	andeq	r0, r0, r9, lsr #32
 2b8:	0efb0102 	cdpeq	1, 15, cr0, cr11, cr2, {0}
 2bc:	0101000d 	tsteq	r1, sp
 2c0:	00000101 	andeq	r0, r0, r1, lsl #2
 2c4:	00000100 	andeq	r0, r0, r0, lsl #2
 2c8:	636d0001 	cmnvs	sp, #1
 2cc:	30303370 	eorscc	r3, r0, r0, ror r3
 2d0:	00632e38 	rsbeq	r2, r3, r8, lsr lr
 2d4:	73000000 	movwvc	r0, #0
 2d8:	682e6970 	stmdavs	lr!, {r4, r5, r6, r8, fp, sp, lr}
 2dc:	00000000 	andeq	r0, r0, r0
 2e0:	02050000 	andeq	r0, r5, #0
 2e4:	000084b0 			; <UNDEFINED> instruction: 0x000084b0
 2e8:	4c672f15 	stclmi	15, cr2, [r7], #-84	; 0xffffffac
 2ec:	4c834c4f 	stcmi	12, cr4, [r3], {79}	; 0x4f
 2f0:	08026783 	stmdaeq	r2, {r0, r1, r7, r8, r9, sl, sp, lr}
 2f4:	62010100 	andvs	r0, r1, #0, 2
 2f8:	02000000 	andeq	r0, r0, #0
 2fc:	00001d00 	andeq	r1, r0, r0, lsl #26
 300:	fb010200 	blx	40b0a <__bss_end__+0x341aa>
 304:	01000d0e 	tsteq	r0, lr, lsl #26
 308:	00010101 	andeq	r0, r1, r1, lsl #2
 30c:	00010000 	andeq	r0, r1, r0
 310:	73000100 	movwvc	r0, #256	; 0x100
 314:	2e656e69 	cdpcs	14, 6, cr6, cr5, cr9, {3}
 318:	00000063 	andeq	r0, r0, r3, rrx
 31c:	05000000 	streq	r0, [r0, #-0]
 320:	00852002 	addeq	r2, r5, r2
 324:	01110300 	tsteq	r1, r0, lsl #6
 328:	004b2da0 	subeq	r2, fp, r0, lsr #27
 32c:	2f020402 	svccs	0x00020402
 330:	02040200 	andeq	r0, r4, #0, 4
 334:	040200d5 	streq	r0, [r2], #-213	; 0xd5
 338:	062e0601 	strteq	r0, [lr], -r1, lsl #12
 33c:	9e0f03da 	mcrls	3, 0, r0, cr15, cr10, {6}
 340:	084b4c9f 	stmdaeq	fp, {r0, r1, r2, r3, r4, r7, sl, fp, lr}^
 344:	03590876 	cmpeq	r9, #7733248	; 0x760000
 348:	a12f826c 	teqge	pc, ip, ror #4
 34c:	91089108 	tstls	r8, r8, lsl #2
 350:	9108c908 	tstls	r8, r8, lsl #18
 354:	5a08c908 	bpl	23277c <__bss_end__+0x225e1c>
 358:	01002202 	tsteq	r0, r2, lsl #4
 35c:	00005501 	andeq	r5, r0, r1, lsl #10
 360:	32000200 	andcc	r0, r0, #0, 4
 364:	02000000 	andeq	r0, r0, #0
 368:	0d0efb01 	vstreq	d15, [lr, #-4]
 36c:	01010100 	mrseq	r0, (UNDEF: 17)
 370:	00000001 	andeq	r0, r0, r1
 374:	01000001 	tsteq	r0, r1
 378:	6e6f7300 	cdpvs	3, 6, cr7, cr15, cr0, {0}
 37c:	00632e67 	rsbeq	r2, r3, r7, ror #28
 380:	61000000 	mrsvs	r0, (UNDEF: 0)
 384:	6f696475 	svcvs	0x00696475
 388:	0000682e 	andeq	r6, r0, lr, lsr #16
 38c:	6f730000 	svcvs	0x00730000
 390:	682e676e 	stmdavs	lr!, {r1, r2, r3, r5, r6, r8, r9, sl, sp, lr}
 394:	00000000 	andeq	r0, r0, r0
 398:	02050000 	andeq	r0, r5, #0
 39c:	000087c0 	andeq	r8, r0, r0, asr #15
 3a0:	13010d03 	movwne	r0, #7427	; 0x1d03
 3a4:	02040200 	andeq	r0, r4, #0, 4
 3a8:	02004a06 	andeq	r4, r0, #24576	; 0x6000
 3ac:	062e0104 	strteq	r0, [lr], -r4, lsl #2
 3b0:	0002024d 	andeq	r0, r2, sp, asr #4
 3b4:	00370101 	eorseq	r0, r7, r1, lsl #2
 3b8:	00020000 	andeq	r0, r2, r0
 3bc:	0000001e 	andeq	r0, r0, lr, lsl r0
 3c0:	0efb0102 	cdpeq	1, 15, cr0, cr11, cr2, {0}
 3c4:	0101000d 	tsteq	r1, sp
 3c8:	00000101 	andeq	r0, r0, r1, lsl #2
 3cc:	00000100 	andeq	r0, r0, r0, lsl #2
 3d0:	6f720001 	svcvs	0x00720001
 3d4:	2e646e75 	mcrcs	14, 3, r6, cr4, cr5, {3}
 3d8:	00000063 	andeq	r0, r0, r3, rrx
 3dc:	05000000 	streq	r0, [r0, #-0]
 3e0:	0087d802 	addeq	sp, r7, r2, lsl #16
 3e4:	010a0300 	mrseq	r0, (UNDEF: 58)
 3e8:	d8590867 	ldmdale	r9, {r0, r1, r2, r5, r6, fp}^
 3ec:	01000a02 	tsteq	r0, r2, lsl #20
 3f0:	0000c401 	andeq	ip, r0, r1, lsl #8
 3f4:	44000200 	strmi	r0, [r0], #-512	; 0x200
 3f8:	02000000 	andeq	r0, r0, #0
 3fc:	0d0efb01 	vstreq	d15, [lr, #-4]
 400:	01010100 	mrseq	r0, (UNDEF: 17)
 404:	00000001 	andeq	r0, r0, r1
 408:	01000001 	tsteq	r0, r1
 40c:	72757400 	rsbsvc	r7, r5, #0, 8
 410:	6261746e 	rsbvs	r7, r1, #1845493760	; 0x6e000000
 414:	632e656c 	teqvs	lr, #108, 10	; 0x1b000000
 418:	00000000 	andeq	r0, r0, r0
 41c:	69647561 	stmdbvs	r4!, {r0, r5, r6, r8, sl, ip, sp, lr}^
 420:	00682e6f 	rsbeq	r2, r8, pc, ror #28
 424:	73000000 	movwvc	r0, #0
 428:	2e676e6f 	cdpcs	14, 6, cr6, cr7, cr15, {3}
 42c:	00000068 	andeq	r0, r0, r8, rrx
 430:	70636d00 	rsbvc	r6, r3, r0, lsl #26
 434:	38303033 	ldmdacc	r0!, {r0, r1, r4, r5, ip, sp}
 438:	0000682e 	andeq	r6, r0, lr, lsr #16
 43c:	00000000 	andeq	r0, r0, r0
 440:	88400205 	stmdahi	r0, {r0, r2, r9}^
 444:	1c030000 	stcne	0, cr0, [r3], {-0}
 448:	ba120301 	blt	481054 <__bss_end__+0x4746f4>
 44c:	2c2d2d49 	stccs	13, cr2, [sp], #-292	; 0xfffffedc
 450:	2d2c2d29 	stccs	13, cr2, [ip, #-164]!	; 0xffffff5c
 454:	4b2e1a03 	blmi	b86c68 <__bss_end__+0xb7a308>
 458:	684c4c4c 	stmdavs	ip, {r2, r3, r6, sl, fp, lr}^
 45c:	034e4b68 	movteq	r4, #60264	; 0xeb68
 460:	0c034a74 	stceq	10, cr4, [r3], {116}	; 0x74
 464:	4a76034a 	bmi	1d81194 <__bss_end__+0x1d74834>
 468:	034a0a03 	movteq	r0, #43523	; 0xaa03
 46c:	03524a78 	cmpeq	r2, #120, 20	; 0x78000
 470:	48504a7a 	ldmdami	r0, {r1, r3, r4, r5, r6, r9, fp, lr}^
 474:	6a50314c 	bvs	140c9ac <__bss_end__+0x140004c>
 478:	4c4c4b4b 	mcrrmi	11, 4, r4, ip, cr11
 47c:	68686868 	stmdavs	r8!, {r3, r5, r6, fp, sp, lr}^
 480:	0367684c 	cmneq	r7, #76, 16	; 0x4c0000
 484:	68686670 	stmdavs	r8!, {r4, r5, r6, r9, sl, sp, lr}^
 488:	68686868 	stmdavs	r8!, {r3, r5, r6, fp, sp, lr}^
 48c:	4b4e6a68 	blmi	139ae34 <__bss_end__+0x138e4d4>
 490:	684c4c4b 	stmdavs	ip, {r0, r1, r3, r6, sl, fp, lr}^
 494:	4c686868 	stclmi	8, cr6, [r8], #-416	; 0xfffffe60
 498:	70036768 	andvc	r6, r3, r8, ror #14
 49c:	68686866 	stmdavs	r8!, {r1, r2, r5, r6, fp, sp, lr}^
 4a0:	68686868 	stmdavs	r8!, {r3, r5, r6, fp, sp, lr}^
 4a4:	38034e6a 	stmdacc	r3, {r1, r3, r5, r6, r9, sl, fp, lr}
 4a8:	684b832e 	stmdavs	fp, {r1, r2, r3, r5, r8, r9, pc}^
 4ac:	4b9f3383 	blmi	fe7cd2c0 <__bss_end__+0xfe7c0960>
 4b0:	da328368 	ble	ca1258 <__bss_end__+0xc948f8>
 4b4:	01000e02 	tsteq	r0, r2, lsl #28
 4b8:	0000cd01 	andeq	ip, r0, r1, lsl #26
 4bc:	32000200 	andcc	r0, r0, #0, 4
 4c0:	02000000 	andeq	r0, r0, #0
 4c4:	0d0efb01 	vstreq	d15, [lr, #-4]
 4c8:	01010100 	mrseq	r0, (UNDEF: 17)
 4cc:	00000001 	andeq	r0, r0, r1
 4d0:	01000001 	tsteq	r0, r1
 4d4:	692f2e2e 	stmdbvs	pc!, {r1, r2, r3, r5, r9, sl, fp, sp}	; <UNPREDICTABLE>
 4d8:	756c636e 	strbvc	r6, [ip, #-878]!	; 0x36e
 4dc:	00006564 	andeq	r6, r0, r4, ror #10
 4e0:	6f697067 	svcvs	0x00697067
 4e4:	0000632e 	andeq	r6, r0, lr, lsr #6
 4e8:	70670000 	rsbvc	r0, r7, r0
 4ec:	682e6f69 	stmdavs	lr!, {r0, r3, r5, r6, r8, r9, sl, fp, sp, lr}
 4f0:	00000100 	andeq	r0, r0, r0, lsl #2
 4f4:	02050000 	andeq	r0, r5, #0
 4f8:	00008bd8 	ldrdeq	r8, [r0], -r8	; <UNPREDICTABLE>
 4fc:	02012003 	andeq	r2, r1, #3
 500:	01010008 	tsteq	r1, r8
 504:	e8020500 	stmda	r2, {r8, sl}
 508:	0300008b 	movweq	r0, #139	; 0x8b
 50c:	67010123 	strvs	r0, [r1, -r3, lsr #2]
 510:	2fbc4e4d 	svccs	0x00bc4e4d
 514:	024b4b84 	subeq	r4, fp, #132, 22	; 0x21000
 518:	01010006 	tsteq	r1, r6
 51c:	4c020500 	cfstr32mi	mvfx0, [r2], {-0}
 520:	0300008c 	movweq	r0, #140	; 0x8c
 524:	4e670135 	mcrmi	1, 3, r0, cr7, cr5, {1}
 528:	03842fbc 	orreq	r2, r4, #188, 30	; 0x2f0
 52c:	09036678 	stmdbeq	r3, {r3, r4, r5, r6, r9, sl, sp, lr}
 530:	0004022e 	andeq	r0, r4, lr, lsr #4
 534:	05000101 	streq	r0, [r0, #-257]	; 0x101
 538:	008ca402 	addeq	sl, ip, r2, lsl #8
 53c:	00c20300 	sbceq	r0, r2, r0, lsl #6
 540:	06026701 	streq	r6, [r2], -r1, lsl #14
 544:	00010100 	andeq	r0, r1, r0, lsl #2
 548:	8cbc0205 	lfmhi	f0, 4, [ip], #20
 54c:	c6030000 	strgt	r0, [r3], -r0
 550:	02670100 	rsbeq	r0, r7, #0, 2
 554:	01010006 	tsteq	r1, r6
 558:	d4020500 	strle	r0, [r2], #-1280	; 0x500
 55c:	0300008c 	movweq	r0, #140	; 0x8c
 560:	670100cb 	strvs	r0, [r1, -fp, asr #1]
 564:	684b304e 	stmdavs	fp, {r1, r2, r3, r6, ip, sp}^
 568:	0c026884 	stceq	8, cr6, [r2], {132}	; 0x84
 56c:	00010100 	andeq	r0, r1, r0, lsl #2
 570:	8d340205 	lfmhi	f0, 4, [r4, #-20]!	; 0xffffffec
 574:	dd030000 	stcle	0, cr0, [r3, #-0]
 578:	4e670100 	powmis	f0, f7, f0
 57c:	03302f68 	teqeq	r0, #104, 30	; 0x1a0
 580:	09039e78 	stmdbeq	r3, {r3, r4, r5, r6, r9, sl, fp, ip, pc}
 584:	0004022e 	andeq	r0, r4, lr, lsr #4
 588:	026e0101 	rsbeq	r0, lr, #1073741824	; 0x40000000
 58c:	00020000 	andeq	r0, r2, r0
 590:	0000009f 	muleq	r0, pc, r0	; <UNPREDICTABLE>
 594:	0efb0102 	cdpeq	1, 15, cr0, cr11, cr2, {0}
 598:	0101000d 	tsteq	r1, sp
 59c:	00000101 	andeq	r0, r0, r1, lsl #2
 5a0:	00000100 	andeq	r0, r0, r0, lsl #2
 5a4:	73752f01 	cmnvc	r5, #1, 30
 5a8:	6f6c2f72 	svcvs	0x006c2f72
 5ac:	2f6c6163 	svccs	0x006c6163
 5b0:	6c6c6543 	cfstr64vs	mvdx6, [ip], #-268	; 0xfffffef4
 5b4:	612f7261 	teqvs	pc, r1, ror #4
 5b8:	6e2d6d72 	mcrvs	13, 1, r6, cr13, cr2, {3}
 5bc:	2d656e6f 	stclcs	14, cr6, [r5, #-444]!	; 0xfffffe44
 5c0:	69626165 	stmdbvs	r2!, {r0, r2, r5, r6, r8, sp, lr}^
 5c4:	382e342f 	stmdacc	lr!, {r0, r1, r2, r3, r5, sl, ip, sp}
 5c8:	632d332e 	teqvs	sp, #-1207959552	; 0xb8000000
 5cc:	30373173 	eorscc	r3, r7, r3, ror r1
 5d0:	696c2f65 	stmdbvs	ip!, {r0, r2, r5, r6, r8, r9, sl, fp, sp}^
 5d4:	63672f62 	cmnvs	r7, #392	; 0x188
 5d8:	72612f63 	rsbvc	r2, r1, #396	; 0x18c
 5dc:	6f6e2d6d 	svcvs	0x006e2d6d
 5e0:	652d656e 	strvs	r6, [sp, #-1390]!	; 0x56e
 5e4:	2f696261 	svccs	0x00696261
 5e8:	2e382e34 	mrccs	14, 1, r2, cr8, cr4, {1}
 5ec:	6e692f33 	mcrvs	15, 3, r2, cr9, cr3, {1}
 5f0:	64756c63 	ldrbtvs	r6, [r5], #-3171	; 0xc63
 5f4:	2e2e0065 	cdpcs	0, 2, cr0, cr14, cr5, {3}
 5f8:	636e692f 	cmnvs	lr, #770048	; 0xbc000
 5fc:	6564756c 	strbvs	r7, [r4, #-1388]!	; 0x56c
 600:	72700000 	rsbsvc	r0, r0, #0
 604:	66746e69 	ldrbtvs	r6, [r4], -r9, ror #28
 608:	0000632e 	andeq	r6, r0, lr, lsr #6
 60c:	74730000 	ldrbtvc	r0, [r3], #-0
 610:	67726164 	ldrbvs	r6, [r2, -r4, ror #2]!
 614:	0100682e 	tsteq	r0, lr, lsr #16
 618:	623c0000 	eorsvs	r0, ip, #0
 61c:	746c6975 	strbtvc	r6, [ip], #-2421	; 0x975
 620:	3e6e692d 	cdpcc	9, 6, cr6, cr14, cr13, {1}
 624:	00000000 	andeq	r0, r0, r0
 628:	74726175 	ldrbtvc	r6, [r2], #-373	; 0x175
 62c:	0200682e 	andeq	r6, r0, #3014656	; 0x2e0000
 630:	00000000 	andeq	r0, r0, r0
 634:	8d7c0205 	lfmhi	f0, 2, [ip, #-20]!	; 0xffffffec
 638:	0e030000 	cdpeq	0, 0, cr0, cr3, cr0, {0}
 63c:	04026701 	streq	r6, [r2], #-1793	; 0x701
 640:	00010100 	andeq	r0, r1, r0, lsl #2
 644:	8d900205 	lfmhi	f0, 4, [r0, #20]
 648:	15030000 	strne	r0, [r3, #-0]
 64c:	2d2f6701 	stccs	7, cr6, [pc, #-4]!	; 650 <_start-0x79b0>
 650:	02040200 	andeq	r0, r4, #0, 4
 654:	0402002f 	streq	r0, [r2], #-47	; 0x2f
 658:	02006502 	andeq	r6, r0, #8388608	; 0x800000
 65c:	2e060104 	adfcss	f0, f6, f4
 660:	04024e06 	streq	r4, [r2], #-3590	; 0xe06
 664:	00010100 	andeq	r0, r1, r0, lsl #2
 668:	8dc80205 	sfmhi	f0, 2, [r8, #20]
 66c:	20030000 	andcs	r0, r3, r0
 670:	312b8701 	teqcc	fp, r1, lsl #14
 674:	02040200 	andeq	r0, r4, #0, 4
 678:	02002e06 	andeq	r2, r0, #6, 28	; 0x60
 67c:	064a0104 	strbeq	r0, [sl], -r4, lsl #2
 680:	2f322f4b 	svccs	0x00322f4b
 684:	2f302d33 	svccs	0x00302d33
 688:	2c2f2f2c 	stccs	15, cr2, [pc], #-176	; 5e0 <_start-0x7a20>
 68c:	01040200 	mrseq	r0, R12_usr
 690:	6c064a06 	stcvs	10, cr4, [r6], {6}
 694:	9c4b492f 	mcrrls	9, 2, r4, fp, cr15
 698:	01040200 	mrseq	r0, R12_usr
 69c:	4f064a06 	svcmi	0x00064a06
 6a0:	026a684b 	rsbeq	r6, sl, #4915200	; 0x4b0000
 6a4:	01010002 	tsteq	r1, r2
 6a8:	90020500 	andls	r0, r2, r0, lsl #10
 6ac:	0300008e 	movweq	r0, #142	; 0x8e
 6b0:	870100c4 	strhi	r0, [r1, -r4, asr #1]
 6b4:	0200302c 	andeq	r3, r0, #44	; 0x2c
 6b8:	2e060204 	cdpcs	2, 0, cr0, cr6, cr4, {0}
 6bc:	01040200 	mrseq	r0, R12_usr
 6c0:	2f4b064a 	svccs	0x004b064a
 6c4:	2d332f32 	ldccs	15, cr2, [r3, #-200]!	; 0xffffff38
 6c8:	2f2c2f30 	svccs	0x002c2f30
 6cc:	02002c2f 	andeq	r2, r0, #12032	; 0x2f00
 6d0:	4a060104 	bmi	180ae8 <__bss_end__+0x174188>
 6d4:	492f6c06 	stmdbmi	pc!, {r1, r2, sl, fp, sp, lr}	; <UNPREDICTABLE>
 6d8:	4c2f834b 	stcmi	3, cr8, [pc], #-300	; 5b4 <_start-0x7a4c>
 6dc:	004a7a03 	subeq	r7, sl, r3, lsl #20
 6e0:	06010402 	streq	r0, [r1], -r2, lsl #8
 6e4:	0b03064a 	bleq	c2014 <__bss_end__+0xb56b4>
 6e8:	6a684b4a 	bvs	1a13418 <__bss_end__+0x1a06ab8>
 6ec:	01000202 	tsteq	r0, r2, lsl #4
 6f0:	02050001 	andeq	r0, r5, #1
 6f4:	00008f68 	andeq	r8, r0, r8, ror #30
 6f8:	0100ee03 	tsteq	r0, r3, lsl #28
 6fc:	2d342fd8 	ldccs	15, cr2, [r4, #-864]!	; 0xfffffca0
 700:	0402002f 	streq	r0, [r2], #-47	; 0x2f
 704:	004a0602 	subeq	r0, sl, r2, lsl #12
 708:	82010402 	andhi	r0, r1, #33554432	; 0x2000000
 70c:	322f4b06 	eorcc	r4, pc, #6144	; 0x1800
 710:	834b332f 	movthi	r3, #45871	; 0xb32f
 714:	004f454c 	subeq	r4, pc, ip, asr #10
 718:	29010402 	stmdbcs	r1, {r1, sl}
 71c:	01040200 	mrseq	r0, R12_usr
 720:	04020036 	streq	r0, [r2], #-54	; 0x36
 724:	2f494b01 	svccs	0x00494b01
 728:	0402002c 	streq	r0, [r2], #-44	; 0x2c
 72c:	064a0601 	strbeq	r0, [sl], -r1, lsl #12
 730:	4b2f2f50 	blmi	bcc478 <__bss_end__+0xbbfb18>
 734:	084b2f2c 	stmdaeq	fp, {r2, r3, r5, r8, r9, sl, fp, sp}^
 738:	04020072 	streq	r0, [r2], #-114	; 0x72
 73c:	064a0601 	strbeq	r0, [sl], -r1, lsl #12
 740:	854c4b50 	strbhi	r4, [ip, #-2896]	; 0xb50
 744:	01000802 	tsteq	r0, r2, lsl #16
 748:	02050001 	andeq	r0, r5, #1
 74c:	000090b4 	strheq	r9, [r0], -r4
 750:	01019e03 	tsteq	r1, r3, lsl #28
 754:	6b4b4bc1 	blvs	12d3660 <__bss_end__+0x12c6d00>
 758:	0402002f 	streq	r0, [r2], #-47	; 0x2f
 75c:	66390301 	ldrtvs	r0, [r9], -r1, lsl #6
 760:	01040200 	mrseq	r0, R12_usr
 764:	4a460333 	bmi	1181438 <__bss_end__+0x1174ad8>
 768:	31302f4b 	teqcc	r0, fp, asr #30
 76c:	2e77032f 	cdpcs	3, 7, cr0, cr7, cr15, {1}
 770:	302e0b03 	eorcc	r0, lr, r3, lsl #22
 774:	302f4b4b 	eorcc	r4, pc, fp, asr #22
 778:	79032f2f 	stmdbvc	r3, {r0, r1, r2, r3, r5, r8, r9, sl, fp, sp}
 77c:	2e09032e 	cdpcs	3, 0, cr0, cr9, cr14, {1}
 780:	854b6832 	strbhi	r6, [fp, #-2098]	; 0x832
 784:	7a034b2f 	bvc	d3448 <__bss_end__+0xc6ae8>
 788:	7603352e 	strvc	r3, [r3], -lr, lsr #10
 78c:	0a034d2e 	beq	d3c4c <__bss_end__+0xc72ec>
 790:	2f674b2e 	svccs	0x00674b2e
 794:	0402002c 	streq	r0, [r2], #-44	; 0x2c
 798:	004a0601 	subeq	r0, sl, r1, lsl #12
 79c:	4a020402 	bmi	817ac <__bss_end__+0x74e4c>
 7a0:	302f6a06 	eorcc	r6, pc, r6, lsl #20
 7a4:	2f4b4b50 	svccs	0x004b4b50
 7a8:	302f2f30 	eorcc	r2, pc, r0, lsr pc	; <UNPREDICTABLE>
 7ac:	4bbb4b4c 	blmi	feed34e4 <__bss_end__+0xfeec6b84>
 7b0:	02004bbb 	andeq	r4, r0, #191488	; 0x2ec00
 7b4:	bc030104 	stflts	f0, [r3], {4}
 7b8:	c703d67f 	smlsdxgt	r3, pc, r6, sp	; <UNPREDICTABLE>
 7bc:	b2038200 	andlt	r8, r3, #0, 4
 7c0:	cf034a7f 	svcgt	0x00034a7f
 7c4:	02022e00 	andeq	r2, r2, #0, 28
 7c8:	00010100 	andeq	r0, r1, r0, lsl #2
 7cc:	92940205 	addsls	r0, r4, #1342177280	; 0x50000000
 7d0:	80030000 	andhi	r0, r3, r0
 7d4:	4ba00102 	blmi	fe800be4 <__bss_end__+0xfe7f4284>
 7d8:	0004024d 	andeq	r0, r4, sp, asr #4
 7dc:	05000101 	streq	r0, [r0, #-257]	; 0x101
 7e0:	0092c002 	addseq	ip, r2, r2
 7e4:	02880300 	addeq	r0, r8, #0, 6
 7e8:	b74bbe01 	strblt	fp, [fp, -r1, lsl #28]
 7ec:	002d2f4f 	eoreq	r2, sp, pc, asr #30
 7f0:	06010402 	streq	r0, [r1], -r2, lsl #8
 7f4:	0287062e 	addeq	r0, r7, #48234496	; 0x2e00000
 7f8:	01010006 	tsteq	r1, r6
 7fc:	000000b0 	strheq	r0, [r0], -r0	; <UNPREDICTABLE>
 800:	001e0002 	andseq	r0, lr, r2
 804:	01020000 	mrseq	r0, (UNDEF: 2)
 808:	000d0efb 	strdeq	r0, [sp], -fp
 80c:	01010101 	tsteq	r1, r1, lsl #2
 810:	01000000 	mrseq	r0, (UNDEF: 0)
 814:	00010000 	andeq	r0, r1, r0
 818:	656d6974 	strbvs	r6, [sp, #-2420]!	; 0x974
 81c:	00632e72 	rsbeq	r2, r3, r2, ror lr
 820:	00000000 	andeq	r0, r0, r0
 824:	28020500 	stmdacs	r2, {r8, sl}
 828:	19000093 	stmdbne	r0, {r0, r1, r4, r7}
 82c:	01000802 	tsteq	r0, r2, lsl #16
 830:	02050001 	andeq	r0, r5, #1
 834:	00009338 	andeq	r9, r0, r8, lsr r3
 838:	01010903 	tsteq	r1, r3, lsl #18
 83c:	04024b68 	streq	r4, [r2], #-2920	; 0xb68
 840:	00010100 	andeq	r0, r1, r0, lsl #2
 844:	93540205 	cmpls	r4, #1342177280	; 0x50000000
 848:	0e030000 	cdpeq	0, 0, cr0, cr3, cr0, {0}
 84c:	2f4c8301 	svccs	0x004c8301
 850:	0002026a 	andeq	r0, r2, sl, ror #4
 854:	05000101 	streq	r0, [r0, #-257]	; 0x101
 858:	00938002 	addseq	r8, r3, r2
 85c:	01180300 	tsteq	r8, r0, lsl #6
 860:	002d2f84 	eoreq	r2, sp, r4, lsl #31
 864:	2f020402 	svccs	0x00020402
 868:	02040200 	andeq	r0, r4, #0, 4
 86c:	04020049 	streq	r0, [r2], #-73	; 0x49
 870:	062e0601 	strteq	r0, [lr], -r1, lsl #12
 874:	0002024d 	andeq	r0, r2, sp, asr #4
 878:	05000101 	streq	r0, [r0, #-257]	; 0x101
 87c:	0093b402 	addseq	fp, r3, r2, lsl #8
 880:	011f0300 	tsteq	pc, r0, lsl #6
 884:	002d2f84 	eoreq	r2, sp, r4, lsl #31
 888:	2f020402 	svccs	0x00020402
 88c:	02040200 	andeq	r0, r4, #0, 4
 890:	04020049 	streq	r0, [r2], #-73	; 0x49
 894:	062e0601 	strteq	r0, [lr], -r1, lsl #12
 898:	0002024d 	andeq	r0, r2, sp, asr #4
 89c:	05000101 	streq	r0, [r0, #-257]	; 0x101
 8a0:	0093e802 	addseq	lr, r3, r2, lsl #16
 8a4:	01260300 	teqeq	r6, r0, lsl #6
 8a8:	024e2f84 	subeq	r2, lr, #132, 30	; 0x210
 8ac:	01010002 	tsteq	r1, r2
 8b0:	0000009d 	muleq	r0, sp, r0
 8b4:	00320002 	eorseq	r0, r2, r2
 8b8:	01020000 	mrseq	r0, (UNDEF: 2)
 8bc:	000d0efb 	strdeq	r0, [sp], -fp
 8c0:	01010101 	tsteq	r1, r1, lsl #2
 8c4:	01000000 	mrseq	r0, (UNDEF: 0)
 8c8:	2e010000 	cdpcs	0, 0, cr0, cr1, cr0, {0}
 8cc:	6e692f2e 	cdpvs	15, 6, cr2, cr9, cr14, {1}
 8d0:	64756c63 	ldrbtvs	r6, [r5], #-3171	; 0xc63
 8d4:	75000065 	strvc	r0, [r0, #-101]	; 0x65
 8d8:	2e747261 	cdpcs	2, 7, cr7, cr4, cr1, {3}
 8dc:	00000063 	andeq	r0, r0, r3, rrx
 8e0:	69706700 	ldmdbvs	r0!, {r8, r9, sl, sp, lr}^
 8e4:	00682e6f 	rsbeq	r2, r8, pc, ror #28
 8e8:	00000001 	andeq	r0, r0, r1
 8ec:	08020500 	stmdaeq	r2, {r8, sl}
 8f0:	03000094 	movweq	r0, #148	; 0x94
 8f4:	68690129 	stmdavs	r9!, {r0, r3, r5, r8}^
 8f8:	2f4b2f4b 	svccs	0x004b2f4b
 8fc:	4b4c4f2f 	blmi	13145c0 <__bss_end__+0x1307c60>
 900:	00080268 	andeq	r0, r8, r8, ror #4
 904:	05000101 	streq	r0, [r0, #-257]	; 0x101
 908:	00947002 	addseq	r7, r4, r2
 90c:	00c00300 	sbceq	r0, r0, r0, lsl #6
 910:	02006701 	andeq	r6, r0, #262144	; 0x40000
 914:	2e060104 	adfcss	f0, f6, f4
 918:	024b6706 	subeq	r6, fp, #1572864	; 0x180000
 91c:	01010006 	tsteq	r1, r6
 920:	a0020500 	andge	r0, r2, r0, lsl #10
 924:	03000094 	movweq	r0, #148	; 0x94
 928:	830100c5 	movwhi	r0, #4293	; 0x10c5
 92c:	0402004b 	streq	r0, [r2], #-75	; 0x4b
 930:	02834c01 	addeq	r4, r3, #256	; 0x100
 934:	01010008 	tsteq	r1, r8
 938:	e0020500 	and	r0, r2, r0, lsl #10
 93c:	03000094 	movweq	r0, #148	; 0x94
 940:	670100cd 	strvs	r0, [r1, -sp, asr #1]
 944:	01040200 	mrseq	r0, R12_usr
 948:	67062e06 	strvs	r2, [r6, -r6, lsl #28]
 94c:	01000402 	tsteq	r0, r2, lsl #8
 950:	00008601 	andeq	r8, r0, r1, lsl #12
 954:	47000200 	strmi	r0, [r0, -r0, lsl #4]
 958:	02000000 	andeq	r0, r0, #0
 95c:	0d0efb01 	vstreq	d15, [lr, #-4]
 960:	01010100 	mrseq	r0, (UNDEF: 17)
 964:	00000001 	andeq	r0, r0, r1
 968:	01000001 	tsteq	r0, r1
 96c:	692f2e2e 	stmdbvs	pc!, {r1, r2, r3, r5, r9, sl, fp, sp}	; <UNPREDICTABLE>
 970:	756c636e 	strbvc	r6, [ip, #-878]!	; 0x36e
 974:	00006564 	andeq	r6, r0, r4, ror #10
 978:	6f697067 	svcvs	0x00697067
 97c:	72747865 	rsbsvc	r7, r4, #6619136	; 0x650000
 980:	00632e61 	rsbeq	r2, r3, r1, ror #28
 984:	67000000 	strvs	r0, [r0, -r0]
 988:	656f6970 	strbvs	r6, [pc, #-2416]!	; 20 <_start-0x7fe0>
 98c:	61727478 	cmnvs	r2, r8, ror r4
 990:	0100682e 	tsteq	r0, lr, lsr #16
 994:	69740000 	ldmdbvs	r4!, {}^	; <UNPREDICTABLE>
 998:	2e72656d 	cdpcs	5, 7, cr6, cr2, cr13, {3}
 99c:	00010068 	andeq	r0, r1, r8, rrx
 9a0:	05000000 	streq	r0, [r0, #-0]
 9a4:	00950402 	addseq	r0, r5, r2, lsl #8
 9a8:	01120300 	tsteq	r2, r0, lsl #6
 9ac:	4d674e83 	stclmi	14, cr4, [r7, #-524]!	; 0xfffffdf4
 9b0:	4c4b4c83 	mcrrmi	12, 8, r4, fp, cr3
 9b4:	0008022f 	andeq	r0, r8, pc, lsr #4
 9b8:	05000101 	streq	r0, [r0, #-257]	; 0x101
 9bc:	00956c02 	addseq	r6, r5, r2, lsl #24
 9c0:	01250300 	teqeq	r5, r0, lsl #6
 9c4:	06024e67 	streq	r4, [r2], -r7, ror #28
 9c8:	00010100 	andeq	r0, r1, r0, lsl #2
 9cc:	958c0205 	strls	r0, [ip, #517]	; 0x205
 9d0:	2d030000 	stccs	0, cr0, [r3, #-0]
 9d4:	06026701 	streq	r6, [r2], -r1, lsl #14
 9d8:	83010100 	movwhi	r0, #4352	; 0x1100
 9dc:	02000000 	andeq	r0, r0, #0
 9e0:	00003100 	andeq	r3, r0, r0, lsl #2
 9e4:	fb010200 	blx	411ee <__bss_end__+0x3488e>
 9e8:	01000d0e 	tsteq	r0, lr, lsl #26
 9ec:	00010101 	andeq	r0, r1, r1, lsl #2
 9f0:	00010000 	andeq	r0, r1, r0
 9f4:	2e2e0100 	sufcse	f0, f6, f0
 9f8:	636e692f 	cmnvs	lr, #770048	; 0xbc000
 9fc:	6564756c 	strbvs	r7, [r4, #-1388]!	; 0x56c
 a00:	70730000 	rsbsvc	r0, r3, r0
 a04:	00632e69 	rsbeq	r2, r3, r9, ror #28
 a08:	67000000 	strvs	r0, [r0, -r0]
 a0c:	2e6f6970 	mcrcs	9, 3, r6, cr15, cr0, {3}
 a10:	00010068 	andeq	r0, r1, r8, rrx
 a14:	05000000 	streq	r0, [r0, #-0]
 a18:	0095a402 	addseq	sl, r5, r2, lsl #8
 a1c:	01150300 	tsteq	r5, r0, lsl #6
 a20:	6767679f 			; <UNDEFINED> instruction: 0x6767679f
 a24:	84836867 	strhi	r6, [r3], #2151	; 0x867
 a28:	a14b9f4b 	cmpge	fp, fp, asr #30
 a2c:	01000a02 	tsteq	r0, r2, lsl #20
 a30:	02050001 	andeq	r0, r5, #1
 a34:	00009660 	andeq	r9, r0, r0, ror #12
 a38:	67012803 	strvs	r2, [r1, -r3, lsl #16]
 a3c:	002d2fa0 	eoreq	r2, sp, r0, lsr #31
 a40:	2f010402 	svccs	0x00010402
 a44:	04020083 	streq	r0, [r2], #-131	; 0x83
 a48:	02004c01 	andeq	r4, r0, #256	; 0x100
 a4c:	67670104 	strbvs	r0, [r7, -r4, lsl #2]!
 a50:	004a7a03 	subeq	r7, sl, r3, lsl #20
 a54:	06010402 	streq	r0, [r1], -r2, lsl #8
 a58:	0903062e 	stmdbeq	r3, {r1, r2, r3, r5, r9, sl}
 a5c:	000e0266 	andeq	r0, lr, r6, ror #4
 a60:	00860101 	addeq	r0, r6, r1, lsl #2
 a64:	00020000 	andeq	r0, r2, r0
 a68:	00000047 	andeq	r0, r0, r7, asr #32
 a6c:	0efb0102 	cdpeq	1, 15, cr0, cr11, cr2, {0}
 a70:	0101000d 	tsteq	r1, sp
 a74:	00000101 	andeq	r0, r0, r1, lsl #2
 a78:	00000100 	andeq	r0, r0, r0, lsl #2
 a7c:	2f2e2e01 	svccs	0x002e2e01
 a80:	2e2f2e2e 	cdpcs	14, 2, cr2, cr15, cr14, {1}
 a84:	63672f2e 	cmnvs	r7, #46, 30	; 0xb8
 a88:	2e342d63 	cdpcs	13, 3, cr2, cr4, cr3, {3}
 a8c:	2f332e38 	svccs	0x00332e38
 a90:	6762696c 	strbvs	r6, [r2, -ip, ror #18]!
 a94:	632f6363 	teqvs	pc, #-1946157055	; 0x8c000001
 a98:	69666e6f 	stmdbvs	r6!, {r0, r1, r2, r3, r5, r6, r9, sl, fp, sp, lr}^
 a9c:	72612f67 	rsbvc	r2, r1, #412	; 0x19c
 aa0:	6c00006d 	stcvs	0, cr0, [r0], {109}	; 0x6d
 aa4:	66316269 	ldrtvs	r6, [r1], -r9, ror #4
 aa8:	73636e75 	cmnvc	r3, #1872	; 0x750
 aac:	0100532e 	tsteq	r0, lr, lsr #6
 ab0:	00000000 	andeq	r0, r0, r0
 ab4:	96f00205 	ldrbtls	r0, [r0], r5, lsl #4
 ab8:	cf030000 	svcgt	0x00030000
 abc:	2f300107 	svccs	0x00300107
 ac0:	2f2f2f2f 	svccs	0x002f2f2f
 ac4:	2e7cfe03 	cdpcs	14, 7, cr15, cr12, cr3, {0}
 ac8:	02038603 	andeq	r8, r3, #3145728	; 0x300000
 acc:	312f013e 	teqcc	pc, lr, lsr r1	; <UNPREDICTABLE>
 ad0:	b7032f2f 	strlt	r2, [r3, -pc, lsr #30]
 ad4:	cd032e7d 	stcgt	14, cr2, [r3, #-500]	; 0xfffffe0c
 ad8:	2f900802 	svccs	0x00900802
 adc:	66160332 			; <UNDEFINED> instruction: 0x66160332
 ae0:	2f2f2f2f 	svccs	0x002f2f2f
 ae4:	022f2f2f 	eoreq	r2, pc, #47, 30	; 0xbc
 ae8:	01010002 	tsteq	r1, r2
 aec:	00000092 	muleq	r0, r2, r0
 af0:	00470002 	subeq	r0, r7, r2
 af4:	01020000 	mrseq	r0, (UNDEF: 2)
 af8:	000d0efb 	strdeq	r0, [sp], -fp
 afc:	01010101 	tsteq	r1, r1, lsl #2
 b00:	01000000 	mrseq	r0, (UNDEF: 0)
 b04:	2e010000 	cdpcs	0, 0, cr0, cr1, cr0, {0}
 b08:	2e2e2f2e 	cdpcs	15, 2, cr2, cr14, cr14, {1}
 b0c:	2f2e2e2f 	svccs	0x002e2e2f
 b10:	2d636367 	stclcs	3, cr6, [r3, #-412]!	; 0xfffffe64
 b14:	2e382e34 	mrccs	14, 1, r2, cr8, cr4, {1}
 b18:	696c2f33 	stmdbvs	ip!, {r0, r1, r4, r5, r8, r9, sl, fp, sp}^
 b1c:	63636762 	cmnvs	r3, #25690112	; 0x1880000
 b20:	6e6f632f 	cdpvs	3, 6, cr6, cr15, cr15, {1}
 b24:	2f676966 	svccs	0x00676966
 b28:	006d7261 	rsbeq	r7, sp, r1, ror #4
 b2c:	62696c00 	rsbvs	r6, r9, #0, 24
 b30:	6e756631 	mrcvs	6, 3, r6, cr5, cr1, {1}
 b34:	532e7363 	teqpl	lr, #-1946157055	; 0x8c000001
 b38:	00000100 	andeq	r0, r0, r0, lsl #2
 b3c:	02050000 	andeq	r0, r5, #0
 b40:	00009804 	andeq	r9, r0, r4, lsl #16
 b44:	0108f603 	tsteq	r8, r3, lsl #12
 b48:	2f30302f 	svccs	0x0030302f
 b4c:	2f302f2f 	svccs	0x00302f2f
 b50:	032f2f2f 	teqeq	pc, #47, 30	; 0xbc
 b54:	032e7bd0 	teqeq	lr, #208, 22	; 0x34000
 b58:	3e0204b4 	mcrcc	4, 0, r0, cr2, cr4, {5}
 b5c:	302f3001 	eorcc	r3, pc, r1
 b60:	30312f30 	eorscc	r2, r1, r0, lsr pc
 b64:	80032f2f 	andhi	r2, r3, pc, lsr #30
 b68:	84032e7c 	strhi	r2, [r3], #-3708	; 0xe7c
 b6c:	2f900804 	svccs	0x00900804
 b70:	03322f30 	teqeq	r2, #48, 30	; 0xc0
 b74:	2f2f8216 	svccs	0x002f8216
 b78:	2f2f2f2f 	svccs	0x002f2f2f
 b7c:	0002022f 	andeq	r0, r2, pc, lsr #4
 b80:	005d0101 	subseq	r0, sp, r1, lsl #2
 b84:	00020000 	andeq	r0, r2, r0
 b88:	00000047 	andeq	r0, r0, r7, asr #32
 b8c:	0efb0102 	cdpeq	1, 15, cr0, cr11, cr2, {0}
 b90:	0101000d 	tsteq	r1, sp
 b94:	00000101 	andeq	r0, r0, r1, lsl #2
 b98:	00000100 	andeq	r0, r0, r0, lsl #2
 b9c:	2f2e2e01 	svccs	0x002e2e01
 ba0:	2e2f2e2e 	cdpcs	14, 2, cr2, cr15, cr14, {1}
 ba4:	63672f2e 	cmnvs	r7, #46, 30	; 0xb8
 ba8:	2e342d63 	cdpcs	13, 3, cr2, cr4, cr3, {3}
 bac:	2f332e38 	svccs	0x00332e38
 bb0:	6762696c 	strbvs	r6, [r2, -ip, ror #18]!
 bb4:	632f6363 	teqvs	pc, #-1946157055	; 0x8c000001
 bb8:	69666e6f 	stmdbvs	r6!, {r0, r1, r2, r3, r5, r6, r9, sl, fp, sp, lr}^
 bbc:	72612f67 	rsbvc	r2, r1, #412	; 0x19c
 bc0:	6c00006d 	stcvs	0, cr0, [r0], {109}	; 0x6d
 bc4:	66316269 	ldrtvs	r6, [r1], -r9, ror #4
 bc8:	73636e75 	cmnvc	r3, #1872	; 0x750
 bcc:	0100532e 	tsteq	r0, lr, lsr #6
 bd0:	00000000 	andeq	r0, r0, r0
 bd4:	994c0205 	stmdbls	ip, {r0, r2, r9}^
 bd8:	96030000 	strls	r0, [r3], -r0
 bdc:	0202010a 	andeq	r0, r2, #-2147483646	; 0x80000002
 be0:	60010100 	andvs	r0, r1, r0, lsl #2
 be4:	02000001 	andeq	r0, r0, #1
 be8:	00004800 	andeq	r4, r0, r0, lsl #16
 bec:	fb010200 	blx	413f6 <__bss_end__+0x34a96>
 bf0:	01000d0e 	tsteq	r0, lr, lsl #26
 bf4:	00010101 	andeq	r0, r1, r1, lsl #2
 bf8:	00010000 	andeq	r0, r1, r0
 bfc:	2e2e0100 	sufcse	f0, f6, f0
 c00:	2f2e2e2f 	svccs	0x002e2e2f
 c04:	672f2e2e 	strvs	r2, [pc, -lr, lsr #28]!
 c08:	342d6363 	strtcc	r6, [sp], #-867	; 0x363
 c0c:	332e382e 	teqcc	lr, #3014656	; 0x2e0000
 c10:	62696c2f 	rsbvs	r6, r9, #12032	; 0x2f00
 c14:	2f636367 	svccs	0x00636367
 c18:	666e6f63 	strbtvs	r6, [lr], -r3, ror #30
 c1c:	612f6769 	teqvs	pc, r9, ror #14
 c20:	00006d72 	andeq	r6, r0, r2, ror sp
 c24:	65656569 	strbvs	r6, [r5, #-1385]!	; 0x569
 c28:	2d343537 	cfldr32cs	mvfx3, [r4, #-220]!	; 0xffffff24
 c2c:	532e6664 	teqpl	lr, #100, 12	; 0x6400000
 c30:	00000100 	andeq	r0, r0, r0, lsl #2
 c34:	02050000 	andeq	r0, r5, #0
 c38:	00009950 	andeq	r9, r0, r0, asr r9
 c3c:	0100c503 	tsteq	r0, r3, lsl #10
 c40:	3136332f 	teqcc	r6, pc, lsr #6
 c44:	30302f2f 	eorscc	r2, r0, pc, lsr #30
 c48:	2f2f2f2f 	svccs	0x002f2f2f
 c4c:	2f302f32 	svccs	0x00302f32
 c50:	2f2f2f2f 	svccs	0x002f2f2f
 c54:	332f2f2f 	teqcc	pc, #47, 30	; 0xbc
 c58:	2f2f4d30 	svccs	0x002f4d30
 c5c:	2f332f2f 	svccs	0x00332f2f
 c60:	2f2f2f31 	svccs	0x002f2f31
 c64:	2f332f33 	svccs	0x00332f33
 c68:	2f2f3132 	svccs	0x002f3132
 c6c:	2f2f2f2f 	svccs	0x002f2f2f
 c70:	2f2f2f2f 	svccs	0x002f2f2f
 c74:	2f2f302f 	svccs	0x002f302f
 c78:	2f352f32 	svccs	0x00352f32
 c7c:	2f2f332f 	svccs	0x002f332f
 c80:	2f2f312f 	svccs	0x002f312f
 c84:	2f2f312f 	svccs	0x002f312f
 c88:	2f2f3035 	svccs	0x002f3035
 c8c:	2f4e2f2f 	svccs	0x004e2f2f
 c90:	2f2f2f2f 	svccs	0x002f2f2f
 c94:	2f2f2f35 	svccs	0x002f2f35
 c98:	2f2f2f2f 	svccs	0x002f2f2f
 c9c:	2f2f2f2f 	svccs	0x002f2f2f
 ca0:	2f2f2f2f 	svccs	0x002f2f2f
 ca4:	032f2f2f 	teqeq	pc, #47, 30	; 0xbc
 ca8:	2f2f2e10 	svccs	0x002f2e10
 cac:	2f2f322f 	svccs	0x002f322f
 cb0:	30322f2f 	eorscc	r2, r2, pc, lsr #30
 cb4:	322f352f 	eorcc	r3, pc, #197132288	; 0xbc00000
 cb8:	4e2f2f30 	mcrmi	15, 1, r2, cr15, cr0, {1}
 cbc:	2f2f2f2f 	svccs	0x002f2f2f
 cc0:	2f2f2f31 	svccs	0x002f2f31
 cc4:	2f4e2f2f 	svccs	0x004e2f2f
 cc8:	2f2f2f2f 	svccs	0x002f2f2f
 ccc:	4f2f2f4e 	svcmi	0x002f2f4e
 cd0:	2f2f302f 	svccs	0x002f302f
 cd4:	2f30322f 	svccs	0x0030322f
 cd8:	312f3030 	teqcc	pc, r0, lsr r0	; <UNPREDICTABLE>
 cdc:	4c2f2f30 	stcmi	15, cr2, [pc], #-192	; c24 <_start-0x73dc>
 ce0:	4d2f2f32 	stcmi	15, cr2, [pc, #-200]!	; c20 <_start-0x73e0>
 ce4:	302f2f2f 	eorcc	r2, pc, pc, lsr #30
 ce8:	2f304b2f 	svccs	0x00304b2f
 cec:	2f2f324b 	svccs	0x002f324b
 cf0:	4a09032f 	bmi	2419b4 <__bss_end__+0x235054>
 cf4:	302f2f30 	eorcc	r2, pc, r0, lsr pc	; <UNPREDICTABLE>
 cf8:	2f302f2f 	svccs	0x00302f2f
 cfc:	0a032f2f 	beq	cc9c0 <__bss_end__+0xc0060>
 d00:	2f2f304a 	svccs	0x002f304a
 d04:	322f2f2f 	eorcc	r2, pc, #47, 30	; 0xbc
 d08:	2f30362f 	svccs	0x0030362f
 d0c:	2f2f2f2f 	svccs	0x002f2f2f
 d10:	362f3230 			; <UNDEFINED> instruction: 0x362f3230
 d14:	302f2f2f 	eorcc	r2, pc, pc, lsr #30
 d18:	302f2f2f 	eorcc	r2, pc, pc, lsr #30
 d1c:	2f312f30 	svccs	0x00312f30
 d20:	362f2f2f 	strtcc	r2, [pc], -pc, lsr #30
 d24:	2f303030 	svccs	0x00303030
 d28:	30303033 	eorscc	r3, r0, r3, lsr r0
 d2c:	312f332f 	teqcc	pc, pc, lsr #6
 d30:	2e09032f 	cdpcs	3, 0, cr0, cr9, cr15, {1}
 d34:	302f312f 	eorcc	r3, pc, pc, lsr #2
 d38:	302f302f 	eorcc	r3, pc, pc, lsr #32
 d3c:	2f2f2f2f 	svccs	0x002f2f2f
 d40:	02022f2f 	andeq	r2, r2, #47, 30	; 0xbc
 d44:	7c010100 	stfvcs	f0, [r1], {-0}
 d48:	02000001 	andeq	r0, r0, #1
 d4c:	00004800 	andeq	r4, r0, r0, lsl #16
 d50:	fb010200 	blx	4155a <__bss_end__+0x34bfa>
 d54:	01000d0e 	tsteq	r0, lr, lsl #26
 d58:	00010101 	andeq	r0, r1, r1, lsl #2
 d5c:	00010000 	andeq	r0, r1, r0
 d60:	2e2e0100 	sufcse	f0, f6, f0
 d64:	2f2e2e2f 	svccs	0x002e2e2f
 d68:	672f2e2e 	strvs	r2, [pc, -lr, lsr #28]!
 d6c:	342d6363 	strtcc	r6, [sp], #-867	; 0x363
 d70:	332e382e 	teqcc	lr, #3014656	; 0x2e0000
 d74:	62696c2f 	rsbvs	r6, r9, #12032	; 0x2f00
 d78:	2f636367 	svccs	0x00636367
 d7c:	666e6f63 	strbtvs	r6, [lr], -r3, ror #30
 d80:	612f6769 	teqvs	pc, r9, ror #14
 d84:	00006d72 	andeq	r6, r0, r2, ror sp
 d88:	65656569 	strbvs	r6, [r5, #-1385]!	; 0x569
 d8c:	2d343537 	cfldr32cs	mvfx3, [r4, #-220]!	; 0xffffff24
 d90:	532e6664 	teqpl	lr, #100, 12	; 0x6400000
 d94:	00000100 	andeq	r0, r0, r0, lsl #2
 d98:	02050000 	andeq	r0, r5, #0
 d9c:	00009d6c 	andeq	r9, r0, ip, ror #26
 da0:	0104b303 	tsteq	r4, r3, lsl #6
 da4:	302f2f31 	eorcc	r2, pc, r1, lsr pc	; <UNPREDICTABLE>
 da8:	312f2f2f 	teqcc	pc, pc, lsr #30
 dac:	2f2f3231 	svccs	0x002f3231
 db0:	2f2f2f30 	svccs	0x002f2f30
 db4:	2e00c103 	mvfcss	f4, f3
 db8:	2f2f2f2f 	svccs	0x002f2f2f
 dbc:	30342f2f 	eorscc	r2, r4, pc, lsr #30
 dc0:	2f2f2f31 	svccs	0x002f2f31
 dc4:	312f2f2f 	teqcc	pc, pc, lsr #30
 dc8:	2f2f2f2f 	svccs	0x002f2f2f
 dcc:	312f3031 	teqcc	pc, r1, lsr r0	; <UNPREDICTABLE>
 dd0:	2f2f2f30 	svccs	0x002f2f30
 dd4:	2f2f2f4e 	svccs	0x002f2f4e
 dd8:	2f2f302f 	svccs	0x002f302f
 ddc:	322f2f4d 	eorcc	r2, pc, #308	; 0x134
 de0:	2f2f3031 	svccs	0x002f3031
 de4:	2f2f2f4d 	svccs	0x002f2f4d
 de8:	2f2f312f 	svccs	0x002f312f
 dec:	2f2f2f2f 	svccs	0x002f2f2f
 df0:	302f2f2f 	eorcc	r2, pc, pc, lsr #30
 df4:	2f2f4e2f 	svccs	0x002f4e2f
 df8:	2f2f2f2f 	svccs	0x002f2f2f
 dfc:	2f302f2f 	svccs	0x00302f2f
 e00:	2f2f2f4e 	svccs	0x002f2f4e
 e04:	2f2f2f2f 	svccs	0x002f2f2f
 e08:	4f2f302f 	svcmi	0x002f302f
 e0c:	2f2f2f2f 	svccs	0x002f2f2f
 e10:	2f2f302f 	svccs	0x002f302f
 e14:	2f2f302f 	svccs	0x002f302f
 e18:	2f302f2f 	svccs	0x00302f2f
 e1c:	2f322f2f 	svccs	0x00322f2f
 e20:	30312f30 	eorscc	r2, r1, r0, lsr pc
 e24:	2f2f322f 	svccs	0x002f322f
 e28:	2f304d2f 	svccs	0x00304d2f
 e2c:	2f2f2f2f 	svccs	0x002f2f2f
 e30:	2f2f2f2f 	svccs	0x002f2f2f
 e34:	2f2f302f 	svccs	0x002f302f
 e38:	2f2f3232 	svccs	0x002f3232
 e3c:	2f4e2f2f 	svccs	0x004e2f2f
 e40:	2f31522f 	svccs	0x0031522f
 e44:	2f2f302f 	svccs	0x002f302f
 e48:	3231312f 	eorscc	r3, r1, #-1073741813	; 0xc000000b
 e4c:	2f2f2f2f 	svccs	0x002f2f2f
 e50:	2f2f2f2f 	svccs	0x002f2f2f
 e54:	32312f2f 	eorscc	r2, r1, #47, 30	; 0xbc
 e58:	2f2f2f30 	svccs	0x002f2f30
 e5c:	2f312f2f 	svccs	0x00312f2f
 e60:	2f2f2f2f 	svccs	0x002f2f2f
 e64:	2f302f31 	svccs	0x00302f31
 e68:	2f2f2f2f 	svccs	0x002f2f2f
 e6c:	2f2f302f 	svccs	0x002f302f
 e70:	2f2f2f2f 	svccs	0x002f2f2f
 e74:	2f2f2f30 	svccs	0x002f2f30
 e78:	302f2f2f 	eorcc	r2, pc, pc, lsr #30
 e7c:	2f302f2f 	svccs	0x00302f2f
 e80:	2f2f2f2f 	svccs	0x002f2f2f
 e84:	2f2f2f2f 	svccs	0x002f2f2f
 e88:	2f2f2f32 	svccs	0x002f2f32
 e8c:	30312f2f 	eorscc	r2, r1, pc, lsr #30
 e90:	2f30312f 	svccs	0x0030312f
 e94:	2f2f3031 	svccs	0x002f3031
 e98:	2f4e2f2f 	svccs	0x004e2f2f
 e9c:	2f2f302f 	svccs	0x002f302f
 ea0:	2f2f2f4c 	svccs	0x002f2f4c
 ea4:	2f322f33 	svccs	0x00322f33
 ea8:	2f2f2f30 	svccs	0x002f2f30
 eac:	2f2f2f2f 	svccs	0x002f2f2f
 eb0:	2f2f2f2f 	svccs	0x002f2f2f
 eb4:	2f2f2f2f 	svccs	0x002f2f2f
 eb8:	30302f2f 	eorscc	r2, r0, pc, lsr #30
 ebc:	2f2f302f 	svccs	0x002f302f
 ec0:	02022f2f 	andeq	r2, r2, #47, 30	; 0xbc
 ec4:	aa010100 	bge	412cc <__bss_end__+0x3496c>
 ec8:	02000000 	andeq	r0, r0, #0
 ecc:	00004800 	andeq	r4, r0, r0, lsl #16
 ed0:	fb010200 	blx	416da <__bss_end__+0x34d7a>
 ed4:	01000d0e 	tsteq	r0, lr, lsl #26
 ed8:	00010101 	andeq	r0, r1, r1, lsl #2
 edc:	00010000 	andeq	r0, r1, r0
 ee0:	2e2e0100 	sufcse	f0, f6, f0
 ee4:	2f2e2e2f 	svccs	0x002e2e2f
 ee8:	672f2e2e 	strvs	r2, [pc, -lr, lsr #28]!
 eec:	342d6363 	strtcc	r6, [sp], #-867	; 0x363
 ef0:	332e382e 	teqcc	lr, #3014656	; 0x2e0000
 ef4:	62696c2f 	rsbvs	r6, r9, #12032	; 0x2f00
 ef8:	2f636367 	svccs	0x00636367
 efc:	666e6f63 	strbtvs	r6, [lr], -r3, ror #30
 f00:	612f6769 	teqvs	pc, r9, ror #14
 f04:	00006d72 	andeq	r6, r0, r2, ror sp
 f08:	65656569 	strbvs	r6, [r5, #-1385]!	; 0x569
 f0c:	2d343537 	cfldr32cs	mvfx3, [r4, #-220]!	; 0xffffff24
 f10:	532e6664 	teqpl	lr, #100, 12	; 0x6400000
 f14:	00000100 	andeq	r0, r0, r0, lsl #2
 f18:	02050000 	andeq	r0, r5, #0
 f1c:	0000a208 	andeq	sl, r0, r8, lsl #4
 f20:	0108a903 	tsteq	r8, r3, lsl #18
 f24:	332f322f 	teqcc	pc, #-268435454	; 0xf0000002
 f28:	2f2f3130 	svccs	0x002f3130
 f2c:	2f322f30 	svccs	0x00322f30
 f30:	2f302f30 	svccs	0x00302f30
 f34:	3231312f 	eorscc	r3, r1, #-1073741813	; 0xc000000b
 f38:	2f2f3230 	svccs	0x002f3230
 f3c:	2f2f312f 	svccs	0x002f312f
 f40:	2f2f2f2f 	svccs	0x002f2f2f
 f44:	2f2f2f2f 	svccs	0x002f2f2f
 f48:	2e0c032f 	cdpcs	3, 0, cr0, cr12, cr15, {1}
 f4c:	2f2f2f2f 	svccs	0x002f2f2f
 f50:	2f352f2f 	svccs	0x00352f2f
 f54:	522f3230 	eorpl	r3, pc, #48, 4
 f58:	2f2f302f 	svccs	0x002f302f
 f5c:	2f302f50 	svccs	0x00302f50
 f60:	302f502f 	eorcc	r5, pc, pc, lsr #32
 f64:	2f502f2f 	svccs	0x00502f2f
 f68:	502f2f30 	eorpl	r2, pc, r0, lsr pc	; <UNPREDICTABLE>
 f6c:	302f302f 	eorcc	r3, pc, pc, lsr #32
 f70:	01000402 	tsteq	r0, r2, lsl #8
 f74:	00007401 	andeq	r7, r0, r1, lsl #8
 f78:	48000200 	stmdami	r0, {r9}
 f7c:	02000000 	andeq	r0, r0, #0
 f80:	0d0efb01 	vstreq	d15, [lr, #-4]
 f84:	01010100 	mrseq	r0, (UNDEF: 17)
 f88:	00000001 	andeq	r0, r0, r1
 f8c:	01000001 	tsteq	r0, r1
 f90:	2e2f2e2e 	cdpcs	14, 2, cr2, cr15, cr14, {1}
 f94:	2e2e2f2e 	cdpcs	15, 2, cr2, cr14, cr14, {1}
 f98:	6363672f 	cmnvs	r3, #12320768	; 0xbc0000
 f9c:	382e342d 	stmdacc	lr!, {r0, r2, r3, r5, sl, ip, sp}
 fa0:	6c2f332e 	stcvs	3, cr3, [pc], #-184	; ef0 <_start-0x7110>
 fa4:	63676269 	cmnvs	r7, #-1879048186	; 0x90000006
 fa8:	6f632f63 	svcvs	0x00632f63
 fac:	6769666e 	strbvs	r6, [r9, -lr, ror #12]!
 fb0:	6d72612f 	ldfvse	f6, [r2, #-188]!	; 0xffffff44
 fb4:	65690000 	strbvs	r0, [r9, #-0]!
 fb8:	35376565 	ldrcc	r6, [r7, #-1381]!	; 0x565
 fbc:	66642d34 			; <UNDEFINED> instruction: 0x66642d34
 fc0:	0100532e 	tsteq	r0, lr, lsr #6
 fc4:	00000000 	andeq	r0, r0, r0
 fc8:	a34c0205 	movtge	r0, #49669	; 0xc205
 fcc:	ec030000 	stc	0, cr0, [r3], {-0}
 fd0:	2f2f0109 	svccs	0x002f0109
 fd4:	2f2f2f2f 	svccs	0x002f2f2f
 fd8:	2f2f2f31 	svccs	0x002f2f31
 fdc:	302f302f 	eorcc	r3, pc, pc, lsr #32
 fe0:	2f2f302f 	svccs	0x002f302f
 fe4:	2f302f30 	svccs	0x00302f30
 fe8:	01000202 	tsteq	r0, r2, lsl #4
 fec:	Address 0x0000000000000fec is out of bounds.


Disassembly of section .debug_str:

00000000 <.debug_str>:
   0:	6e727574 	mrcvs	5, 3, r7, cr2, cr4, {3}
   4:	6c626174 	stfvse	f6, [r2], #-464	; 0xfffffe30
   8:	75725f65 	ldrbvc	r5, [r2, #-3941]!	; 0xf65
   c:	5453006e 	ldrbpl	r0, [r3], #-110	; 0x6e
  10:	48004341 	stmdami	r0, {r0, r6, r8, r9, lr}
  14:	435f544f 	cmpmi	pc, #1325400064	; 0x4f000000
  18:	53534f52 	cmppl	r3, #328	; 0x148
  1c:	4e55425f 	mrcmi	2, 2, r4, cr5, cr15, {2}
  20:	69730053 	ldmdbvs	r3!, {r0, r1, r4, r6}^
  24:	7974657a 	ldmdbvc	r4!, {r1, r3, r4, r5, r6, r8, sl, sp, lr}^
  28:	6d006570 	cfstr32vs	mvfx6, [r0, #-448]	; 0xfffffe40
  2c:	006e6961 	rsbeq	r6, lr, r1, ror #18
  30:	59415453 	stmdbpl	r1, {r0, r1, r4, r6, sl, ip, lr}^
  34:	52454800 	subpl	r4, r5, #0, 16
  38:	4f435f45 	svcmi	0x00435f45
  3c:	5f53454d 	svcpl	0x0053454d
  40:	5f454854 	svcpl	0x00454854
  44:	004e5553 	subeq	r5, lr, r3, asr r5
  48:	464c4148 	strbmi	r4, [ip], -r8, asr #2
  4c:	746f6e00 	strbtvc	r6, [pc], #-3584	; 54 <_start-0x7fac>
  50:	70007365 	andvc	r7, r0, r5, ror #6
  54:	732d6d77 	teqvc	sp, #7616	; 0x1dc0
  58:	2e656e69 	cdpcs	14, 6, cr6, cr5, cr9, {3}
  5c:	45520063 	ldrbmi	r0, [r2, #-99]	; 0x63
  60:	2f005453 	svccs	0x00005453
  64:	72657355 	rsbvc	r7, r5, #1409286145	; 0x54000001
  68:	61682f73 	smcvs	33523	; 0x82f3
  6c:	73697272 	cmnvc	r9, #536870919	; 0x20000007
  70:	72626e6f 	rsbvc	r6, r2, #1776	; 0x6f0
  74:	65666e6f 	strbvs	r6, [r6, #-3695]!	; 0xe6f
  78:	682f646c 	stmdavs	pc!, {r2, r3, r5, r6, sl, sp, lr}	; <UNPREDICTABLE>
  7c:	62687361 	rsbvs	r7, r8, #-2080374783	; 0x84000001
  80:	2d6e6f72 	stclcs	15, cr6, [lr, #-456]!	; 0xfffffe38
  84:	2d616461 	cfstrdcs	mvd6, [r1, #-388]!	; 0xfffffe7c
  88:	756f687a 	strbvc	r6, [pc, #-2170]!	; fffff816 <__bss_end__+0xffff2eb6>
  8c:	41435300 	mrsmi	r5, (UNDEF: 115)
  90:	4700454c 	strmi	r4, [r0, -ip, asr #10]
  94:	4320554e 	teqmi	r0, #327155712	; 0x13800000
  98:	382e3420 	stmdacc	lr!, {r5, sl, ip, sp}
  9c:	2d20332e 	stccs	3, cr3, [r0, #-184]!	; 0xffffff48
  a0:	4f2d2067 	svcmi	0x002d2067
  a4:	732d2067 	teqvc	sp, #103	; 0x67
  a8:	633d6474 	teqvs	sp, #116, 8	; 0x74000000
  ac:	2d203939 	stccs	9, cr3, [r0, #-228]!	; 0xffffff1c
  b0:	65726666 	ldrbvs	r6, [r2, #-1638]!	; 0x666
  b4:	61747365 	cmnvs	r4, r5, ror #6
  b8:	6e69646e 	cdpvs	4, 6, cr6, cr9, cr14, {3}
  bc:	48570067 	ldmdami	r7, {r0, r1, r2, r5, r6}^
  c0:	00454c4f 	subeq	r4, r5, pc, asr #24
  c4:	656d6974 	strbvs	r6, [sp, #-2420]!	; 0x974
  c8:	00745f73 	rsbseq	r5, r4, r3, ror pc
  cc:	657a6973 	ldrbvs	r6, [sl, #-2419]!	; 0x973
  d0:	72657000 	rsbvc	r7, r5, #0
  d4:	65687069 	strbvs	r7, [r8, #-105]!	; 0x69
  d8:	736c6172 	cmnvc	ip, #-2147483620	; 0x8000001c
  dc:	696e695f 	stmdbvs	lr!, {r0, r1, r2, r3, r4, r6, r8, fp, sp, lr}^
  e0:	75610074 	strbvc	r0, [r1, #-116]!	; 0x74
  e4:	5f6f6964 	svcpl	0x006f6964
  e8:	74696e69 	strbtvc	r6, [r9], #-3689	; 0xe69
  ec:	49575400 	ldmdbmi	r7, {sl, ip, lr}^
  f0:	454c4b4e 	strbmi	r4, [ip, #-2894]	; 0xb4e
  f4:	4957545f 	ldmdbmi	r7, {r0, r1, r2, r3, r4, r6, sl, ip, lr}^
  f8:	454c4b4e 	strbmi	r4, [ip, #-2894]	; 0xb4e
  fc:	746f6e00 	strbtvc	r6, [pc], #-3584	; 104 <_start-0x7efc>
 100:	745f7365 	ldrbvc	r7, [pc], #-869	; 108 <_start-0x7ef8>
 104:	6e6f7300 	cdpvs	3, 6, cr7, cr15, cr0, {0}
 108:	745f7367 	ldrbvc	r7, [pc], #-871	; 110 <_start-0x7ef0>
 10c:	6e6f7400 	cdpvs	4, 6, cr7, cr15, cr0, {0}
 110:	745f7365 	ldrbvc	r7, [pc], #-869	; 118 <_start-0x7ee8>
 114:	625f5f00 	subsvs	r5, pc, #0, 30
 118:	655f7373 	ldrbvs	r7, [pc, #-883]	; fffffdad <__bss_end__+0xffff344d>
 11c:	5f5f646e 	svcpl	0x005f646e
 120:	73736200 	cmnvc	r3, #0, 4
 124:	646e655f 	strbtvs	r6, [lr], #-1375	; 0x55f
 128:	74736300 	ldrbtvc	r6, [r3], #-768	; 0x300
 12c:	2e747261 	cdpcs	2, 7, cr7, cr4, cr1, {3}
 130:	635f0063 	cmpvs	pc, #99	; 0x63
 134:	72617473 	rsbvc	r7, r1, #1929379840	; 0x73000000
 138:	5f5f0074 	svcpl	0x005f0074
 13c:	5f737362 	svcpl	0x00737362
 140:	72617473 	rsbvc	r7, r1, #1929379840	; 0x73000000
 144:	005f5f74 	subseq	r5, pc, r4, ror pc	; <UNPREDICTABLE>
 148:	72636e69 	rsbvc	r6, r3, #1680	; 0x690
 14c:	6e656d65 	cdpvs	13, 6, cr6, cr5, cr5, {3}
 150:	6f745f74 	svcvs	0x00745f74
 154:	006c6174 	rsbeq	r6, ip, r4, ror r1
 158:	72636e69 	rsbvc	r6, r3, #1680	; 0x690
 15c:	6e656d65 	cdpvs	13, 6, cr6, cr5, cr5, {3}
 160:	61770074 	cmnvs	r7, r4, ror r0
 164:	6f666576 	svcvs	0x00666576
 168:	735f6d72 	cmpvc	pc, #7296	; 0x1c80
 16c:	5f656e69 	svcpl	0x00656e69
 170:	74737563 	ldrbtvc	r7, [r3], #-1379	; 0x563
 174:	77006d6f 	strvc	r6, [r0, -pc, ror #26]
 178:	66657661 	strbtvs	r7, [r5], -r1, ror #12
 17c:	5f6d726f 	svcpl	0x006d726f
 180:	61697274 	smcvs	38692	; 0x9724
 184:	656c676e 	strbvs	r6, [ip, #-1902]!	; 0x76e
 188:	756f6400 	strbvc	r6, [pc, #-1024]!	; fffffd90 <__bss_end__+0xffff3430>
 18c:	00656c62 	rsbeq	r6, r5, r2, ror #24
 190:	65766177 	ldrbvs	r6, [r6, #-375]!	; 0x177
 194:	6d726f66 	ldclvs	15, cr6, [r2, #-408]!	; 0xfffffe68
 198:	7571735f 	ldrbvc	r7, [r1, #-863]!	; 0x35f
 19c:	00657261 	rsbeq	r7, r5, r1, ror #4
 1a0:	756c6f76 	strbvc	r6, [ip, #-3958]!	; 0xf76
 1a4:	7400656d 	strvc	r6, [r0], #-1389	; 0x56d
 1a8:	72656d69 	rsbvc	r6, r5, #6720	; 0x1a40
 1ac:	76617700 	strbtvc	r7, [r1], -r0, lsl #14
 1b0:	726f6665 	rsbvc	r6, pc, #105906176	; 0x6500000
 1b4:	69735f6d 	ldmdbvs	r3!, {r0, r2, r3, r5, r6, r8, r9, sl, fp, ip, lr}^
 1b8:	635f656e 	cmpvs	pc, #461373440	; 0x1b800000
 1bc:	6f747375 	svcvs	0x00747375
 1c0:	34365f6d 	ldrtcc	r5, [r6], #-3949	; 0xf6d
 1c4:	69706700 	ldmdbvs	r0!, {r8, r9, sl, sp, lr}^
 1c8:	7561006f 	strbvc	r0, [r1, #-111]!	; 0x6f
 1cc:	5f6f6964 	svcpl	0x006f6964
 1d0:	646e6573 	strbtvs	r6, [lr], #-1395	; 0x573
 1d4:	6e6f745f 	mcrvs	4, 3, r7, cr15, cr15, {2}
 1d8:	65640065 	strbvs	r0, [r4, #-101]!	; 0x65
 1dc:	5f79616c 	svcpl	0x0079616c
 1e0:	66007375 			; <UNDEFINED> instruction: 0x66007375
 1e4:	75716572 	ldrbvc	r6, [r1, #-1394]!	; 0x572
 1e8:	79636e65 	stmdbvc	r3!, {r0, r2, r5, r6, r9, sl, fp, sp, lr}^
 1ec:	76617700 	strbtvc	r7, [r1], -r0, lsl #14
 1f0:	726f6665 	rsbvc	r6, pc, #105906176	; 0x6500000
 1f4:	69735f6d 	ldmdbvs	r3!, {r0, r2, r3, r5, r6, r8, r9, sl, fp, ip, lr}^
 1f8:	6600656e 	strvs	r6, [r0], -lr, ror #10
 1fc:	74636172 	strbtvc	r6, [r3], #-370	; 0x172
 200:	616e6f69 	cmnvs	lr, r9, ror #30
 204:	61705f6c 	cmnvs	r0, ip, ror #30
 208:	61007472 	tstvs	r0, r2, ror r4
 20c:	6f696475 	svcvs	0x00696475
 210:	6100632e 	tstvs	r0, lr, lsr #6
 214:	6f696475 	svcvs	0x00696475
 218:	7465735f 	strbtvc	r7, [r5], #-863	; 0x35f
 21c:	6f6c635f 	svcvs	0x006c635f
 220:	61006b63 	tstvs	r0, r3, ror #22
 224:	6f696475 	svcvs	0x00696475
 228:	6e65735f 	mcrvs	3, 3, r7, cr5, cr15, {2}
 22c:	6b315f64 	blvs	c57fc4 <__bss_end__+0xc4b664>
 230:	77007a48 	strvc	r7, [r0, -r8, asr #20]
 234:	66657661 	strbtvs	r7, [r5], -r1, ror #12
 238:	5f6d726f 	svcpl	0x006d726f
 23c:	00776173 	rsbseq	r6, r7, r3, ror r1
 240:	65746e69 	ldrbvs	r6, [r4, #-3689]!	; 0xe69
 244:	5f726567 	svcpl	0x00726567
 248:	74726170 	ldrbtvc	r6, [r2], #-368	; 0x170
 24c:	7a697300 	bvc	1a5ce54 <__bss_end__+0x1a504f4>
 250:	00745f65 	rsbseq	r5, r4, r5, ror #30
 254:	636d656d 	cmnvs	sp, #457179136	; 0x1b400000
 258:	6d007970 	stcvs	9, cr7, [r0, #-448]	; 0xfffffe40
 25c:	70636d65 	rsbvc	r6, r3, r5, ror #26
 260:	00632e79 	rsbeq	r2, r3, r9, ror lr
 264:	4f495047 	svcmi	0x00495047
 268:	4e49505f 	mcrmi	0, 2, r5, cr9, cr15, {2}
 26c:	47003133 	smladxmi	r0, r3, r1, r3
 270:	5f4f4950 	svcpl	0x004f4950
 274:	324e4950 	subcc	r4, lr, #80, 18	; 0x140000
 278:	50470035 	subpl	r0, r7, r5, lsr r0
 27c:	505f4f49 	subspl	r4, pc, r9, asr #30
 280:	32334e49 	eorscc	r4, r3, #1168	; 0x490
 284:	49504700 	ldmdbmi	r0, {r8, r9, sl, lr}^
 288:	49505f4f 	ldmdbmi	r0, {r0, r1, r2, r3, r6, r8, r9, sl, fp, ip, lr}^
 28c:	0036324e 	eorseq	r3, r6, lr, asr #4
 290:	4f495047 	svcmi	0x00495047
 294:	4e49505f 	mcrmi	0, 2, r5, cr9, cr15, {2}
 298:	47003732 	smladxmi	r0, r2, r7, r3
 29c:	5f4f4950 	svcpl	0x004f4950
 2a0:	324e4950 	subcc	r4, lr, #80, 18	; 0x140000
 2a4:	50470038 	subpl	r0, r7, r8, lsr r0
 2a8:	505f4f49 	subspl	r4, pc, r9, asr #30
 2ac:	31344e49 	teqcc	r4, r9, asr #28
 2b0:	49504700 	ldmdbmi	r0, {r8, r9, sl, lr}^
 2b4:	49505f4f 	ldmdbmi	r0, {r0, r1, r2, r3, r6, r8, r9, sl, fp, ip, lr}^
 2b8:	0032344e 	eorseq	r3, r2, lr, asr #8
 2bc:	6e616863 	cdpvs	8, 6, cr6, cr1, cr3, {3}
 2c0:	006c656e 	rsbeq	r6, ip, lr, ror #10
 2c4:	4f495047 	svcmi	0x00495047
 2c8:	4e49505f 	mcrmi	0, 2, r5, cr9, cr15, {2}
 2cc:	47003035 	smladxmi	r0, r5, r0, r3
 2d0:	5f4f4950 	svcpl	0x004f4950
 2d4:	354e4950 	strbcc	r4, [lr, #-2384]	; 0x950
 2d8:	50470031 	subpl	r0, r7, r1, lsr r0
 2dc:	505f4f49 	subspl	r4, pc, r9, asr #30
 2e0:	32354e49 	eorscc	r4, r5, #1168	; 0x490
 2e4:	49504700 	ldmdbmi	r0, {r8, r9, sl, lr}^
 2e8:	49505f4f 	ldmdbmi	r0, {r0, r1, r2, r3, r6, r8, r9, sl, fp, ip, lr}^
 2ec:	0037344e 	eorseq	r3, r7, lr, asr #8
 2f0:	3370636d 	cmncc	r0, #-1275068415	; 0xb4000001
 2f4:	5f383030 	svcpl	0x00383030
 2f8:	74696e69 	strbtvc	r6, [r9], #-3689	; 0xe69
 2fc:	49504700 	ldmdbmi	r0, {r8, r9, sl, lr}^
 300:	49505f4f 	ldmdbmi	r0, {r0, r1, r2, r3, r6, r8, r9, sl, fp, ip, lr}^
 304:	0030314e 	eorseq	r3, r0, lr, asr #2
 308:	4f495047 	svcmi	0x00495047
 30c:	4e49505f 	mcrmi	0, 2, r5, cr9, cr15, {2}
 310:	47003131 	smladxmi	r0, r1, r1, r3
 314:	5f4f4950 	svcpl	0x004f4950
 318:	314e4950 	cmpcc	lr, r0, asr r9
 31c:	50470032 	subpl	r0, r7, r2, lsr r0
 320:	505f4f49 	subspl	r4, pc, r9, asr #30
 324:	33314e49 	teqcc	r1, #1168	; 0x490
 328:	49504700 	ldmdbmi	r0, {r8, r9, sl, lr}^
 32c:	49505f4f 	ldmdbmi	r0, {r0, r1, r2, r3, r6, r8, r9, sl, fp, ip, lr}^
 330:	0034314e 	eorseq	r3, r4, lr, asr #2
 334:	4f495047 	svcmi	0x00495047
 338:	4e49505f 	mcrmi	0, 2, r5, cr9, cr15, {2}
 33c:	47003531 	smladxmi	r0, r1, r5, r3
 340:	5f4f4950 	svcpl	0x004f4950
 344:	314e4950 	cmpcc	lr, r0, asr r9
 348:	50470036 	subpl	r0, r7, r6, lsr r0
 34c:	505f4f49 	subspl	r4, pc, r9, asr #30
 350:	37314e49 	ldrcc	r4, [r1, -r9, asr #28]!
 354:	49504700 	ldmdbmi	r0, {r8, r9, sl, lr}^
 358:	49505f4f 	ldmdbmi	r0, {r0, r1, r2, r3, r6, r8, r9, sl, fp, ip, lr}^
 35c:	0038314e 	eorseq	r3, r8, lr, asr #2
 360:	4f495047 	svcmi	0x00495047
 364:	4e49505f 	mcrmi	0, 2, r5, cr9, cr15, {2}
 368:	47003931 	smladxmi	r0, r1, r9, r3
 36c:	5f4f4950 	svcpl	0x004f4950
 370:	334e4950 	movtcc	r4, #59728	; 0xe950
 374:	50470033 	subpl	r0, r7, r3, lsr r0
 378:	505f4f49 	subspl	r4, pc, r9, asr #30
 37c:	34334e49 	ldrtcc	r4, [r3], #-3657	; 0xe49
 380:	49504700 	ldmdbmi	r0, {r8, r9, sl, lr}^
 384:	49505f4f 	ldmdbmi	r0, {r0, r1, r2, r3, r6, r8, r9, sl, fp, ip, lr}^
 388:	0035334e 	eorseq	r3, r5, lr, asr #6
 38c:	4f495047 	svcmi	0x00495047
 390:	4e49505f 	mcrmi	0, 2, r5, cr9, cr15, {2}
 394:	47003633 	smladxmi	r0, r3, r6, r3
 398:	5f4f4950 	svcpl	0x004f4950
 39c:	334e4950 	movtcc	r4, #59728	; 0xe950
 3a0:	50470037 	subpl	r0, r7, r7, lsr r0
 3a4:	505f4f49 	subspl	r4, pc, r9, asr #30
 3a8:	38334e49 	ldmdacc	r3!, {r0, r3, r6, r9, sl, fp, lr}
 3ac:	49504700 	ldmdbmi	r0, {r8, r9, sl, lr}^
 3b0:	49505f4f 	ldmdbmi	r0, {r0, r1, r2, r3, r6, r8, r9, sl, fp, ip, lr}^
 3b4:	0039334e 	eorseq	r3, r9, lr, asr #6
 3b8:	4f495047 	svcmi	0x00495047
 3bc:	4e49505f 	mcrmi	0, 2, r5, cr9, cr15, {2}
 3c0:	47003335 	smladxmi	r0, r5, r3, r3
 3c4:	5f4f4950 	svcpl	0x004f4950
 3c8:	344e4950 	strbcc	r4, [lr], #-2384	; 0x950
 3cc:	70670030 	rsbvc	r0, r7, r0, lsr r0
 3d0:	735f6f69 	cmpvc	pc, #420	; 0x1a4
 3d4:	695f7465 	ldmdbvs	pc, {r0, r2, r5, r6, sl, ip, sp, lr}^	; <UNPREDICTABLE>
 3d8:	7475706e 	ldrbtvc	r7, [r5], #-110	; 0x6e
 3dc:	74756200 	ldrbtvc	r6, [r5], #-512	; 0x200
 3e0:	506e6f74 	rsbpl	r6, lr, r4, ror pc
 3e4:	73736572 	cmnvc	r3, #478150656	; 0x1c800000
 3e8:	67006465 	strvs	r6, [r0, -r5, ror #8]
 3ec:	70537465 	subsvc	r7, r3, r5, ror #8
 3f0:	00646565 	rsbeq	r6, r4, r5, ror #10
 3f4:	56746567 	ldrbtpl	r6, [r4], -r7, ror #10
 3f8:	6d756c6f 	ldclvs	12, cr6, [r5, #-444]!	; 0xfffffe44
 3fc:	65670065 	strbvs	r0, [r7, #-101]!	; 0x65
 400:	64614674 	strbtvs	r4, [r1], #-1652	; 0x674
 404:	70670065 	rsbvc	r0, r7, r5, rrx
 408:	725f6f69 	subsvc	r6, pc, #420	; 0x1a4
 40c:	00646165 	rsbeq	r6, r4, r5, ror #2
 410:	4f495047 	svcmi	0x00495047
 414:	4e49505f 	mcrmi	0, 2, r5, cr9, cr15, {2}
 418:	5249465f 	subpl	r4, r9, #99614720	; 0x5f00000
 41c:	61005453 	tstvs	r0, r3, asr r4
 420:	73756a64 	cmnvc	r5, #100, 20	; 0x64000
 424:	00646574 	rsbeq	r6, r4, r4, ror r5
 428:	3370636d 	cmncc	r0, #-1275068415	; 0xb4000001
 42c:	5f383030 	svcpl	0x00383030
 430:	64616572 	strbtvs	r6, [r1], #-1394	; 0x572
 434:	69706700 	ldmdbvs	r0!, {r8, r9, sl, sp, lr}^
 438:	65735f6f 	ldrbvs	r5, [r3, #-3951]!	; 0xf6f
 43c:	75705f74 	ldrbvc	r5, [r0, #-3956]!	; 0xf74
 440:	70756c6c 	rsbsvc	r6, r5, ip, ror #24
 444:	65707300 	ldrbvs	r7, [r0, #-768]!	; 0x300
 448:	47006465 	strmi	r6, [r0, -r5, ror #8]
 44c:	5f4f4950 	svcpl	0x004f4950
 450:	304e4950 	subcc	r4, lr, r0, asr r9
 454:	49504700 	ldmdbmi	r0, {r8, r9, sl, lr}^
 458:	49505f4f 	ldmdbmi	r0, {r0, r1, r2, r3, r6, r8, r9, sl, fp, ip, lr}^
 45c:	4700314e 	strmi	r3, [r0, -lr, asr #2]
 460:	5f4f4950 	svcpl	0x004f4950
 464:	324e4950 	subcc	r4, lr, #80, 18	; 0x140000
 468:	72657000 	rsbvc	r7, r5, #0
 46c:	65687069 	strbvs	r7, [r8, #-105]!	; 0x69
 470:	736c6172 	cmnvc	ip, #-2147483620	; 0x8000001c
 474:	4700632e 	strmi	r6, [r0, -lr, lsr #6]
 478:	5f4f4950 	svcpl	0x004f4950
 47c:	344e4950 	strbcc	r4, [lr], #-2384	; 0x950
 480:	49504700 	ldmdbmi	r0, {r8, r9, sl, lr}^
 484:	49505f4f 	ldmdbmi	r0, {r0, r1, r2, r3, r6, r8, r9, sl, fp, ip, lr}^
 488:	4700354e 	strmi	r3, [r0, -lr, asr #10]
 48c:	5f4f4950 	svcpl	0x004f4950
 490:	364e4950 			; <UNDEFINED> instruction: 0x364e4950
 494:	49504700 	ldmdbmi	r0, {r8, r9, sl, lr}^
 498:	49505f4f 	ldmdbmi	r0, {r0, r1, r2, r3, r6, r8, r9, sl, fp, ip, lr}^
 49c:	4700334e 	strmi	r3, [r0, -lr, asr #6]
 4a0:	5f4f4950 	svcpl	0x004f4950
 4a4:	384e4950 	stmdacc	lr, {r4, r6, r8, fp, lr}^
 4a8:	49504700 	ldmdbmi	r0, {r8, r9, sl, lr}^
 4ac:	49505f4f 	ldmdbmi	r0, {r0, r1, r2, r3, r6, r8, r9, sl, fp, ip, lr}^
 4b0:	4700394e 	strmi	r3, [r0, -lr, asr #18]
 4b4:	5f4f4950 	svcpl	0x004f4950
 4b8:	324e4950 	subcc	r4, lr, #80, 18	; 0x140000
 4bc:	50470039 	subpl	r0, r7, r9, lsr r0
 4c0:	505f4f49 	subspl	r4, pc, r9, asr #30
 4c4:	33344e49 	teqcc	r4, #1168	; 0x490
 4c8:	49504700 	ldmdbmi	r0, {r8, r9, sl, lr}^
 4cc:	49505f4f 	ldmdbmi	r0, {r0, r1, r2, r3, r6, r8, r9, sl, fp, ip, lr}^
 4d0:	0034344e 	eorseq	r3, r4, lr, asr #8
 4d4:	4f495047 	svcmi	0x00495047
 4d8:	4e49505f 	mcrmi	0, 2, r5, cr9, cr15, {2}
 4dc:	47003534 	smladxmi	r0, r4, r5, r3
 4e0:	5f4f4950 	svcpl	0x004f4950
 4e4:	344e4950 	strbcc	r4, [lr], #-2384	; 0x950
 4e8:	50470036 	subpl	r0, r7, r6, lsr r0
 4ec:	505f4f49 	subspl	r4, pc, r9, asr #30
 4f0:	00374e49 	eorseq	r4, r7, r9, asr #28
 4f4:	4f495047 	svcmi	0x00495047
 4f8:	4e49505f 	mcrmi	0, 2, r5, cr9, cr15, {2}
 4fc:	47003834 	smladxmi	r0, r4, r8, r3
 500:	5f4f4950 	svcpl	0x004f4950
 504:	344e4950 	strbcc	r4, [lr], #-2384	; 0x950
 508:	50470039 	subpl	r0, r7, r9, lsr r0
 50c:	505f4f49 	subspl	r4, pc, r9, asr #30
 510:	4c5f4e49 	mrrcmi	14, 4, r4, pc, cr9	; <UNPREDICTABLE>
 514:	00545341 	subseq	r5, r4, r1, asr #6
 518:	74747562 	ldrbtvc	r7, [r4], #-1378	; 0x562
 51c:	47006e6f 	strmi	r6, [r0, -pc, ror #28]
 520:	5f4f4950 	svcpl	0x004f4950
 524:	324e4950 	subcc	r4, lr, #80, 18	; 0x140000
 528:	50470030 	subpl	r0, r7, r0, lsr r0
 52c:	505f4f49 	subspl	r4, pc, r9, asr #30
 530:	31324e49 	teqcc	r2, r9, asr #28
 534:	49504700 	ldmdbmi	r0, {r8, r9, sl, lr}^
 538:	49505f4f 	ldmdbmi	r0, {r0, r1, r2, r3, r6, r8, r9, sl, fp, ip, lr}^
 53c:	0032324e 	eorseq	r3, r2, lr, asr #4
 540:	4f495047 	svcmi	0x00495047
 544:	4e49505f 	mcrmi	0, 2, r5, cr9, cr15, {2}
 548:	47003332 	smladxmi	r0, r2, r3, r3
 54c:	5f4f4950 	svcpl	0x004f4950
 550:	334e4950 	movtcc	r4, #59728	; 0xe950
 554:	50470030 	subpl	r0, r7, r0, lsr r0
 558:	505f4f49 	subspl	r4, pc, r9, asr #30
 55c:	34324e49 	ldrtcc	r4, [r2], #-3657	; 0xe49
 560:	69707300 	ldmdbvs	r0!, {r8, r9, ip, sp, lr}^
 564:	696e695f 	stmdbvs	lr!, {r0, r1, r2, r3, r4, r6, r8, fp, sp, lr}^
 568:	636d0074 	cmnvs	sp, #116	; 0x74
 56c:	30303370 	eorscc	r3, r0, r0, ror r3
 570:	00632e38 	rsbeq	r2, r3, r8, lsr lr
 574:	69736e75 	ldmdbvs	r3!, {r0, r2, r4, r5, r6, r9, sl, fp, sp, lr}^
 578:	64656e67 	strbtvs	r6, [r5], #-3687	; 0xe67
 57c:	61686320 	cmnvs	r8, r0, lsr #6
 580:	70730072 	rsbsvc	r0, r3, r2, ror r0
 584:	72745f69 	rsbsvc	r5, r4, #420	; 0x1a4
 588:	66736e61 	ldrbtvs	r6, [r3], -r1, ror #28
 58c:	6e007265 	cdpvs	2, 0, cr7, cr0, cr5, {3}
 590:	5f656e69 	svcpl	0x00656e69
 594:	74636166 	strbtvc	r6, [r3], #-358	; 0x166
 598:	6169726f 	cmnvs	r9, pc, ror #4
 59c:	7865006c 	stmdavc	r5!, {r2, r3, r5, r6}^
 5a0:	656e6f70 	strbvs	r6, [lr, #-3952]!	; 0xf70
 5a4:	6e00746e 	cdpvs	4, 0, cr7, cr0, cr14, {3}
 5a8:	745f6d75 	ldrbvc	r6, [pc], #-3445	; 5b0 <_start-0x7a50>
 5ac:	73656d69 	cmnvc	r5, #6720	; 0x1a40
 5b0:	656c6500 	strbvs	r6, [ip, #-1280]!	; 0x500
 5b4:	5f6e6576 	svcpl	0x006e6576
 5b8:	74636166 	strbtvc	r6, [r3], #-358	; 0x166
 5bc:	6169726f 	cmnvs	r9, pc, ror #4
 5c0:	6573006c 	ldrbvs	r0, [r3, #-108]!	; 0x6c
 5c4:	5f6e6576 	svcpl	0x006e6576
 5c8:	74636166 	strbtvc	r6, [r3], #-358	; 0x166
 5cc:	6169726f 	cmnvs	r9, pc, ror #4
 5d0:	6572006c 	ldrbvs	r0, [r2, #-108]!	; 0x6c
 5d4:	746c7573 	strbtvc	r7, [ip], #-1395	; 0x573
 5d8:	76696600 	strbtvc	r6, [r9], -r0, lsl #12
 5dc:	61665f65 	cmnvs	r6, r5, ror #30
 5e0:	726f7463 	rsbvc	r7, pc, #1660944384	; 0x63000000
 5e4:	006c6169 	rsbeq	r6, ip, r9, ror #2
 5e8:	72696874 	rsbvc	r6, r9, #116, 16	; 0x740000
 5ec:	6e656574 	mcrvs	5, 3, r6, cr5, cr4, {3}
 5f0:	6361665f 	cmnvs	r1, #99614720	; 0x5f00000
 5f4:	69726f74 	ldmdbvs	r2!, {r2, r4, r5, r6, r8, r9, sl, fp, sp, lr}^
 5f8:	66006c61 	strvs	r6, [r0], -r1, ror #24
 5fc:	74616f6c 	strbtvc	r6, [r1], #-3948	; 0xf6c
 600:	646f6d5f 	strbtvs	r6, [pc], #-3423	; 608 <_start-0x79f8>
 604:	72687400 	rsbvc	r7, r8, #0, 8
 608:	665f6565 	ldrbvs	r6, [pc], -r5, ror #10
 60c:	6f746361 	svcvs	0x00746361
 610:	6c616972 	stclvs	9, cr6, [r1], #-456	; 0xfffffe38
 614:	776f7000 	strbvc	r7, [pc, -r0]!
 618:	6d007265 	sfmvs	f7, 4, [r0, #-404]	; 0xfffffe6c
 61c:	785f646f 	ldmdavc	pc, {r0, r1, r2, r3, r5, r6, sl, sp, lr}^	; <UNPREDICTABLE>
 620:	616c7000 	cmnvs	ip, r0
 624:	6f735f79 	svcvs	0x00735f79
 628:	7300676e 	movwvc	r6, #1902	; 0x76e
 62c:	2e676e6f 	cdpcs	14, 6, cr6, cr7, cr15, {3}
 630:	6f720063 	svcvs	0x00720063
 634:	2e646e75 	mcrcs	14, 3, r6, cr4, cr5, {3}
 638:	6f720063 	svcvs	0x00720063
 63c:	5f646e75 	svcpl	0x00646e75
 640:	00746e69 	rsbseq	r6, r4, r9, ror #28
 644:	64616572 	strbtvs	r6, [r1], #-1394	; 0x572
 648:	6570735f 	ldrbvs	r7, [r0, #-863]!	; 0x35f
 64c:	6f5f6465 	svcvs	0x005f6465
 650:	7300656e 	movwvc	r6, #1390	; 0x56e
 654:	5f657a69 	svcpl	0x00657a69
 658:	006f7774 	rsbeq	r7, pc, r4, ror r7	; <UNPREDICTABLE>
 65c:	5f656e6f 	svcpl	0x00656e6f
 660:	65746f6e 	ldrbvs	r6, [r4, #-3950]!	; 0xf6e
 664:	6f777400 	svcvs	0x00777400
 668:	746f6e5f 	strbtvc	r6, [pc], #-3679	; 670 <_start-0x7990>
 66c:	6e6f0065 	cdpvs	0, 6, cr0, cr15, cr5, {3}
 670:	6f705f65 	svcvs	0x00705f65
 674:	69730073 	ldmdbvs	r3!, {r0, r1, r4, r5, r6}^
 678:	6f5f657a 	svcvs	0x005f657a
 67c:	7400656e 	strvc	r6, [r0], #-1390	; 0x56e
 680:	6b636172 	blvs	18d8c50 <__bss_end__+0x18cc2f0>
 684:	6f77745f 	svcvs	0x0077745f
 688:	616c7000 	cmnvs	ip, r0
 68c:	6f6e5f79 	svcvs	0x006e5f79
 690:	74006574 	strvc	r6, [r0], #-1396	; 0x574
 694:	746e7275 	strbtvc	r7, [lr], #-629	; 0x275
 698:	656c6261 	strbvs	r6, [ip, #-609]!	; 0x261
 69c:	7400632e 	strvc	r6, [r0], #-814	; 0x32e
 6a0:	6b636172 	blvs	18d8c70 <__bss_end__+0x18cc310>
 6a4:	656e6f5f 	strbvs	r6, [lr, #-3935]!	; 0xf5f
 6a8:	6174735f 	cmnvs	r4, pc, asr r3
 6ac:	00737574 	rsbseq	r7, r3, r4, ror r5
 6b0:	63617274 	cmnvs	r1, #116, 4	; 0x40000007
 6b4:	6e6f5f6b 	cdpvs	15, 6, cr5, cr15, cr11, {3}
 6b8:	65720065 	ldrbvs	r0, [r2, #-101]!	; 0x65
 6bc:	735f6461 	cmpvc	pc, #1627389952	; 0x61000000
 6c0:	64656570 	strbtvs	r6, [r5], #-1392	; 0x570
 6c4:	6f77745f 	svcvs	0x0077745f
 6c8:	756f6300 	strbvc	r6, [pc, #-768]!	; 3d0 <_start-0x7c30>
 6cc:	7265746e 	rsbvc	r7, r5, #1845493760	; 0x6e000000
 6d0:	6f777400 	svcvs	0x00777400
 6d4:	6572705f 	ldrbvs	r7, [r2, #-95]!	; 0x5f
 6d8:	64657373 	strbtvs	r7, [r5], #-883	; 0x373
 6dc:	656e6f00 	strbvs	r6, [lr, #-3840]!	; 0xf00
 6e0:	6572705f 	ldrbvs	r7, [r2, #-95]!	; 0x5f
 6e4:	64657373 	strbtvs	r7, [r5], #-883	; 0x373
 6e8:	61727400 	cmnvs	r2, r0, lsl #8
 6ec:	745f6b63 	ldrbvc	r6, [pc], #-2915	; 6f4 <_start-0x790c>
 6f0:	735f6f77 	cmpvc	pc, #476	; 0x1dc
 6f4:	75746174 	ldrbvc	r6, [r4, #-372]!	; 0x174
 6f8:	77740073 			; <UNDEFINED> instruction: 0x77740073
 6fc:	6f705f6f 	svcvs	0x00705f6f
 700:	72630073 	rsbvc	r0, r3, #115	; 0x73
 704:	6673736f 	ldrbtvs	r7, [r3], -pc, ror #6
 708:	00656461 	rsbeq	r6, r5, r1, ror #8
 70c:	66696873 			; <UNDEFINED> instruction: 0x66696873
 710:	70670074 	rsbvc	r0, r7, r4, ror r0
 714:	775f6f69 	ldrbvc	r6, [pc, -r9, ror #30]
 718:	65746972 	ldrbvs	r6, [r4, #-2418]!	; 0x972
 71c:	554e4700 	strbpl	r4, [lr, #-1792]	; 0x700
 720:	34204320 	strtcc	r4, [r0], #-800	; 0x320
 724:	332e382e 	teqcc	lr, #3014656	; 0x2e0000
 728:	49504700 	ldmdbmi	r0, {r8, r9, sl, lr}^
 72c:	55465f4f 	strbpl	r5, [r6, #-3919]	; 0xf4f
 730:	4f5f434e 	svcmi	0x005f434e
 734:	55505455 	ldrbpl	r5, [r0, #-1109]	; 0x455
 738:	50470054 	subpl	r0, r7, r4, asr r0
 73c:	465f4f49 	ldrbmi	r4, [pc], -r9, asr #30
 740:	5f434e55 	svcpl	0x00434e55
 744:	30544c41 	subscc	r4, r4, r1, asr #24
 748:	6e6f6c00 	cdpvs	12, 6, cr6, cr15, cr0, {0}
 74c:	6f6c2067 	svcvs	0x006c2067
 750:	7520676e 	strvc	r6, [r0, #-1902]!	; 0x76e
 754:	6769736e 	strbvs	r7, [r9, -lr, ror #6]!
 758:	2064656e 	rsbcs	r6, r4, lr, ror #10
 75c:	00746e69 	rsbseq	r6, r4, r9, ror #28
 760:	4f495047 	svcmi	0x00495047
 764:	4e55465f 	mrcmi	6, 2, r4, cr5, cr15, {2}
 768:	4c415f43 	mcrrmi	15, 4, r5, r1, cr3
 76c:	47003254 	smlsdmi	r0, r4, r2, r3
 770:	5f4f4950 	svcpl	0x004f4950
 774:	434e5546 	movtmi	r5, #58694	; 0xe546
 778:	544c415f 	strbpl	r4, [ip], #-351	; 0x15f
 77c:	50470033 	subpl	r0, r7, r3, lsr r0
 780:	465f4f49 	ldrbmi	r4, [pc], -r9, asr #30
 784:	5f434e55 	svcpl	0x00434e55
 788:	34544c41 	ldrbcc	r4, [r4], #-3137	; 0xc41
 78c:	49504700 	ldmdbmi	r0, {r8, r9, sl, lr}^
 790:	55465f4f 	strbpl	r5, [r6, #-3919]	; 0xf4f
 794:	415f434e 	cmpmi	pc, lr, asr #6
 798:	0035544c 	eorseq	r5, r5, ip, asr #8
 79c:	72646461 	rsbvc	r6, r4, #1627389952	; 0x61000000
 7a0:	49504700 	ldmdbmi	r0, {r8, r9, sl, lr}^
 7a4:	55465f4f 	strbpl	r5, [r6, #-3919]	; 0xf4f
 7a8:	495f434e 	ldmdbmi	pc, {r1, r2, r3, r6, r8, r9, lr}^	; <UNPREDICTABLE>
 7ac:	4c41564e 	mcrrmi	6, 4, r5, r1, cr14
 7b0:	67004449 	strvs	r4, [r0, -r9, asr #8]
 7b4:	5f6f6970 	svcpl	0x006f6970
 7b8:	5f746573 	svcpl	0x00746573
 7bc:	7074756f 	rsbsvc	r7, r4, pc, ror #10
 7c0:	66007475 			; <UNDEFINED> instruction: 0x66007475
 7c4:	00636e75 	rsbeq	r6, r3, r5, ror lr
 7c8:	6f697067 	svcvs	0x00697067
 7cc:	7465675f 	strbtvc	r6, [r5], #-1887	; 0x75f
 7d0:	6e75665f 	mrcvs	6, 3, r6, cr5, cr15, {2}
 7d4:	6f697463 	svcvs	0x00697463
 7d8:	5047006e 	subpl	r0, r7, lr, rrx
 7dc:	465f4f49 	ldrbmi	r4, [pc], -r9, asr #30
 7e0:	5f434e55 	svcpl	0x00434e55
 7e4:	31544c41 	cmpcc	r4, r1, asr #24
 7e8:	69706700 	ldmdbvs	r0!, {r8, r9, sl, sp, lr}^
 7ec:	6e695f6f 	cdpvs	15, 6, cr5, cr9, cr15, {3}
 7f0:	67007469 	strvs	r7, [r0, -r9, ror #8]
 7f4:	2e6f6970 	mcrcs	9, 3, r6, cr15, cr0, {3}
 7f8:	50470063 	subpl	r0, r7, r3, rrx
 7fc:	465f4f49 	ldrbmi	r4, [pc], -r9, asr #30
 800:	5f434e55 	svcpl	0x00434e55
 804:	55504e49 	ldrbpl	r4, [r0, #-3657]	; 0xe49
 808:	70670054 	rsbvc	r0, r7, r4, asr r0
 80c:	735f6f69 	cmpvc	pc, #420	; 0x1a4
 810:	665f7465 	ldrbvs	r7, [pc], -r5, ror #8
 814:	74636e75 	strbtvc	r6, [r3], #-3701	; 0xe75
 818:	006e6f69 	rsbeq	r6, lr, r9, ror #30
 81c:	74726175 	ldrbtvc	r6, [r2], #-373	; 0x175
 820:	696e695f 	stmdbvs	lr!, {r0, r1, r2, r3, r4, r6, r8, fp, sp, lr}^
 824:	61770074 	cmnvs	r7, r4, ror r0
 828:	72656b6c 	rsbvc	r6, r5, #108, 22	; 0x1b000
 82c:	64657200 	strbtvs	r7, [r5], #-512	; 0x200
 830:	42656375 	rsbmi	r6, r5, #-738197503	; 0xd4000001
 834:	6e655479 	mcrvs	4, 3, r5, cr5, cr9, {3}
 838:	65776f50 	ldrbvs	r6, [r7, #-3920]!	; 0xf50
 83c:	69770072 	ldmdbvs	r7!, {r1, r4, r5, r6}^
 840:	00687464 	rsbeq	r7, r8, r4, ror #8
 844:	6d726f66 	ldclvs	15, cr6, [r2, #-408]!	; 0xfffffe68
 848:	5f007461 	svcpl	0x00007461
 84c:	5f61765f 	svcpl	0x0061765f
 850:	7473696c 	ldrbtvc	r6, [r3], #-2412	; 0x96c
 854:	746e6900 	strbtvc	r6, [lr], #-2304	; 0x900
 858:	65646f74 	strbvs	r6, [r4, #-3956]!	; 0xf74
 85c:	6e690063 	cdpvs	0, 6, cr0, cr9, cr3, {3}
 860:	626f7474 	rsbvs	r7, pc, #116, 8	; 0x74000000
 864:	76006e69 	strvc	r6, [r0], -r9, ror #28
 868:	72706e73 	rsbsvc	r6, r0, #1840	; 0x730
 86c:	66746e69 	ldrbtvs	r6, [r4], -r9, ror #28
 870:	615f5f00 	cmpvs	pc, r0, lsl #30
 874:	61700070 	cmnvs	r0, r0, ror r0
 878:	756f4364 	strbvc	r4, [pc, #-868]!	; 51c <_start-0x7ae4>
 87c:	6f00746e 	svcvs	0x0000746e
 880:	00676972 	rsbeq	r6, r7, r2, ror r9
 884:	6e697270 	mcrvs	2, 3, r7, cr9, cr0, {3}
 888:	695f6674 	ldmdbvs	pc, {r2, r4, r5, r6, r9, sl, sp, lr}^	; <UNPREDICTABLE>
 88c:	0074696e 	rsbseq	r6, r4, lr, ror #18
 890:	654e7369 	strbvs	r7, [lr, #-873]	; 0x369
 894:	69746167 	ldmdbvs	r4!, {r0, r1, r2, r5, r6, r8, sp, lr}^
 898:	74006576 	strvc	r6, [r0], #-1398	; 0x576
 89c:	57657572 			; <UNDEFINED> instruction: 0x57657572
 8a0:	68746469 	ldmdavs	r4!, {r0, r3, r5, r6, sl, sp, lr}^
 8a4:	69727000 	ldmdbvs	r2!, {ip, sp, lr}^
 8a8:	2e66746e 	cdpcs	4, 6, cr7, cr6, cr14, {3}
 8ac:	5f5f0063 	svcpl	0x005f0063
 8b0:	63756e67 	cmnvs	r5, #1648	; 0x670
 8b4:	5f61765f 	svcpl	0x0061765f
 8b8:	7473696c 	ldrbtvc	r6, [r3], #-2412	; 0x96c
 8bc:	72617500 	rsbvc	r7, r1, #0, 10
 8c0:	75705f74 	ldrbvc	r5, [r0, #-3956]!	; 0xf74
 8c4:	64006374 	strvs	r6, [r0], #-884	; 0x374
 8c8:	74696769 	strbtvc	r6, [r9], #-1897	; 0x769
 8cc:	74756f00 	ldrbtvc	r6, [r5], #-3840	; 0xf00
 8d0:	65646e49 	strbvs	r6, [r4, #-3657]!	; 0xe49
 8d4:	6e690078 	mcrvs	0, 3, r0, cr9, cr8, {3}
 8d8:	686f7474 	stmdavs	pc!, {r2, r4, r5, r6, sl, ip, sp, lr}^	; <UNPREDICTABLE>
 8dc:	74007865 	strvc	r7, [r0], #-2149	; 0x865
 8e0:	72656d69 	rsbvc	r6, r5, #6720	; 0x1a40
 8e4:	7465675f 	strbtvc	r6, [r5], #-1887	; 0x75f
 8e8:	6d69745f 	cfstrdvs	mvd7, [r9, #-380]!	; 0xfffffe84
 8ec:	6e750065 	cdpvs	0, 7, cr0, cr5, cr5, {3}
 8f0:	5f6c6974 	svcpl	0x006c6974
 8f4:	74007375 	strvc	r7, [r0], #-885	; 0x375
 8f8:	72656d69 	rsbvc	r6, r5, #6720	; 0x1a40
 8fc:	696e695f 	stmdbvs	lr!, {r0, r1, r2, r3, r4, r6, r8, fp, sp, lr}^
 900:	73750074 	cmnvc	r5, #116	; 0x74
 904:	74006365 	strvc	r6, [r0], #-869	; 0x365
 908:	72656d69 	rsbvc	r6, r5, #6720	; 0x1a40
 90c:	5300632e 	movwpl	r6, #814	; 0x32e
 910:	49545359 	ldmdbmi	r4, {r0, r3, r4, r6, r8, r9, ip, lr}^
 914:	4352454d 	cmpmi	r2, #322961408	; 0x13400000
 918:	64004f4c 	strvs	r4, [r0], #-3916	; 0xf4c
 91c:	79616c65 	stmdbvc	r1!, {r0, r2, r5, r6, sl, fp, sp, lr}^
 920:	6c656400 	cfstrdvs	mvd6, [r5], #-0
 924:	6d5f7961 	ldclvs	9, cr7, [pc, #-388]	; 7a8 <_start-0x7858>
 928:	74730073 	ldrbtvc	r0, [r3], #-115	; 0x73
 92c:	64007461 	strvs	r7, [r0], #-1121	; 0x461
 930:	00617461 	rsbeq	r7, r1, r1, ror #8
 934:	74726175 	ldrbtvc	r6, [r2], #-373	; 0x175
 938:	7500632e 	strvc	r6, [r0, #-814]	; 0x32e
 93c:	5f747261 	svcpl	0x00747261
 940:	73756c66 	cmnvc	r5, #26112	; 0x6600
 944:	61750068 	cmnvs	r5, r8, rrx
 948:	675f7472 			; <UNDEFINED> instruction: 0x675f7472
 94c:	00637465 	rsbeq	r7, r3, r5, ror #8
 950:	64756162 	ldrbtvs	r6, [r5], #-354	; 0x162
 954:	746e6300 	strbtvc	r6, [lr], #-768	; 0x300
 958:	6373006c 	cmnvs	r3, #108	; 0x6c
 95c:	63746172 	cmnvs	r4, #-2147483620	; 0x8000001c
 960:	61750068 	cmnvs	r5, r8, rrx
 964:	55007472 	strpl	r7, [r0, #-1138]	; 0x472
 968:	00545241 	subseq	r5, r4, r1, asr #4
 96c:	6f697067 	svcvs	0x00697067
 970:	72747865 	rsbsvc	r7, r4, #6619136	; 0x650000
 974:	00632e61 	rsbeq	r2, r3, r1, ror #28
 978:	5f676572 	svcpl	0x00676572
 97c:	00647570 	rsbeq	r7, r4, r0, ror r5
 980:	4f495047 	svcmi	0x00495047
 984:	4455505f 	ldrbmi	r5, [r5], #-95	; 0x5f
 988:	4c55505f 	mrrcmi	0, 5, r5, r5, cr15	; <UNPREDICTABLE>
 98c:	0050554c 	subseq	r5, r0, ip, asr #10
 990:	4f495047 	svcmi	0x00495047
 994:	4455505f 	ldrbmi	r5, [r5], #-95	; 0x5f
 998:	4c55505f 	mrrcmi	0, 5, r5, r5, cr15	; <UNPREDICTABLE>
 99c:	574f444c 	strbpl	r4, [pc, -ip, asr #8]
 9a0:	5047004e 	subpl	r0, r7, lr, asr #32
 9a4:	505f4f49 	subspl	r4, pc, r9, asr #30
 9a8:	445f4455 	ldrbmi	r4, [pc], #-1109	; 9b0 <_start-0x7650>
 9ac:	42415349 	submi	r5, r1, #603979777	; 0x24000001
 9b0:	7200454c 	andvc	r4, r0, #76, 10	; 0x13000000
 9b4:	635f6765 	cmpvs	pc, #26476544	; 0x1940000
 9b8:	67006b6c 	strvs	r6, [r0, -ip, ror #22]
 9bc:	5f6f6970 	svcpl	0x006f6970
 9c0:	5f746573 	svcpl	0x00746573
 9c4:	6c6c7570 	cfstr64vs	mvdx7, [ip], #-448	; 0xfffffe40
 9c8:	6e776f64 	cdpvs	15, 7, cr6, cr7, cr4, {3}
 9cc:	69706700 	ldmdbvs	r0!, {r8, r9, sl, sp, lr}^
 9d0:	65735f6f 	ldrbvs	r5, [r3, #-3951]!	; 0xf6f
 9d4:	75705f74 	ldrbvc	r5, [r0, #-3956]!	; 0xf74
 9d8:	70730064 	rsbsvc	r0, r3, r4, rrx
 9dc:	00632e69 	rsbeq	r2, r3, r9, ror #28
 9e0:	70696863 	rsbvc	r6, r9, r3, ror #16
 9e4:	6c65735f 	stclvs	3, cr7, [r5], #-380	; 0xfffffe84
 9e8:	00746365 	rsbseq	r6, r4, r5, ror #6
 9ec:	6e656c64 	cdpvs	12, 6, cr6, cr5, cr4, {3}
 9f0:	66696600 	strbtvs	r6, [r9], -r0, lsl #12
 9f4:	746c006f 	strbtvc	r0, [ip], #-111	; 0x6f
 9f8:	6300686f 	movwvs	r6, #2159	; 0x86f
 9fc:	6b636f6c 	blvs	18dc7b4 <__bss_end__+0x18cfe54>
 a00:	7669645f 			; <UNDEFINED> instruction: 0x7669645f
 a04:	72656469 	rsbvc	r6, r5, #1761607680	; 0x69000000
	...

Disassembly of section .comment:

00000000 <.comment>:
   0:	3a434347 	bcc	10d0d24 <__bss_end__+0x10c43c4>
   4:	4e472820 	cdpmi	8, 4, cr2, cr7, cr0, {1}
   8:	34202955 	strtcc	r2, [r0], #-2389	; 0x955
   c:	332e382e 	teqcc	lr, #3014656	; 0x2e0000
	...

Disassembly of section .ARM.attributes:

00000000 <.ARM.attributes>:
   0:	00002841 	andeq	r2, r0, r1, asr #16
   4:	61656100 	cmnvs	r5, r0, lsl #2
   8:	01006962 	tsteq	r0, r2, ror #18
   c:	0000001e 	andeq	r0, r0, lr, lsl r0
  10:	06003605 	streq	r3, [r0], -r5, lsl #12
  14:	09010806 	stmdbeq	r1, {r1, r2, fp}
  18:	14041201 	strne	r1, [r4], #-513	; 0x201
  1c:	17011501 	strne	r1, [r1, -r1, lsl #10]
  20:	1a011803 	bne	46034 <__bss_end__+0x396d4>
  24:	22011e01 	andcs	r1, r1, #1, 28
  28:	Address 0x0000000000000028 is out of bounds.


Disassembly of section .debug_frame:

00000000 <.debug_frame>:
   0:	0000000c 	andeq	r0, r0, ip
   4:	ffffffff 			; <UNDEFINED> instruction: 0xffffffff
   8:	7c020001 	stcvc	0, cr0, [r2], {1}
   c:	000d0c0e 	andeq	r0, sp, lr, lsl #24
  10:	00000014 	andeq	r0, r0, r4, lsl r0
  14:	00000000 	andeq	r0, r0, r0
  18:	00008010 	andeq	r8, r0, r0, lsl r0
  1c:	00000030 	andeq	r0, r0, r0, lsr r0
  20:	83080e42 	movwhi	r0, #36418	; 0x8e42
  24:	00018e02 	andeq	r8, r1, r2, lsl #28
  28:	0000000c 	andeq	r0, r0, ip
  2c:	ffffffff 			; <UNDEFINED> instruction: 0xffffffff
  30:	7c020001 	stcvc	0, cr0, [r2], {1}
  34:	000d0c0e 	andeq	r0, sp, lr, lsl #24
  38:	00000014 	andeq	r0, r0, r4, lsl r0
  3c:	00000028 	andeq	r0, r0, r8, lsr #32
  40:	00008040 	andeq	r8, r0, r0, asr #32
  44:	00000038 	andeq	r0, r0, r8, lsr r0
  48:	83080e42 	movwhi	r0, #36418	; 0x8e42
  4c:	00018e02 	andeq	r8, r1, r2, lsl #28
  50:	0000000c 	andeq	r0, r0, ip
  54:	ffffffff 			; <UNDEFINED> instruction: 0xffffffff
  58:	7c020001 	stcvc	0, cr0, [r2], {1}
  5c:	000d0c0e 	andeq	r0, sp, lr, lsl #24
  60:	00000018 	andeq	r0, r0, r8, lsl r0
  64:	00000050 	andeq	r0, r0, r0, asr r0
  68:	00008078 	andeq	r8, r0, r8, ror r0
  6c:	0000008c 	andeq	r0, r0, ip, lsl #1
  70:	83100e42 	tsthi	r0, #1056	; 0x420
  74:	85038404 	strhi	r8, [r3, #-1028]	; 0x404
  78:	00018e02 	andeq	r8, r1, r2, lsl #28
  7c:	00000024 	andeq	r0, r0, r4, lsr #32
  80:	00000050 	andeq	r0, r0, r0, asr r0
  84:	00008104 	andeq	r8, r0, r4, lsl #2
  88:	00000144 	andeq	r0, r0, r4, asr #2
  8c:	84240e42 	strthi	r0, [r4], #-3650	; 0xe42
  90:	86088509 	strhi	r8, [r8], -r9, lsl #10
  94:	88068707 	stmdahi	r6, {r0, r1, r2, r8, r9, sl, pc}
  98:	8a048905 	bhi	1224b4 <__bss_end__+0x115b54>
  9c:	8e028b03 	vmlahi.f64	d8, d2, d3
  a0:	380e4201 	stmdacc	lr, {r0, r9, lr}
  a4:	00000014 	andeq	r0, r0, r4, lsl r0
  a8:	00000050 	andeq	r0, r0, r0, asr r0
  ac:	00008248 	andeq	r8, r0, r8, asr #4
  b0:	000000fc 	strdeq	r0, [r0], -ip
  b4:	84080e42 	strhi	r0, [r8], #-3650	; 0xe42
  b8:	00018e02 	andeq	r8, r1, r2, lsl #28
  bc:	0000000c 	andeq	r0, r0, ip
  c0:	00000050 	andeq	r0, r0, r0, asr r0
  c4:	00008344 	andeq	r8, r0, r4, asr #6
  c8:	00000004 	andeq	r0, r0, r4
  cc:	0000000c 	andeq	r0, r0, ip
  d0:	ffffffff 			; <UNDEFINED> instruction: 0xffffffff
  d4:	7c020001 	stcvc	0, cr0, [r2], {1}
  d8:	000d0c0e 	andeq	r0, sp, lr, lsl #24
  dc:	0000000c 	andeq	r0, r0, ip
  e0:	000000cc 	andeq	r0, r0, ip, asr #1
  e4:	00008348 	andeq	r8, r0, r8, asr #6
  e8:	00000020 	andeq	r0, r0, r0, lsr #32
  ec:	0000000c 	andeq	r0, r0, ip
  f0:	ffffffff 			; <UNDEFINED> instruction: 0xffffffff
  f4:	7c020001 	stcvc	0, cr0, [r2], {1}
  f8:	000d0c0e 	andeq	r0, sp, lr, lsl #24
  fc:	00000014 	andeq	r0, r0, r4, lsl r0
 100:	000000ec 	andeq	r0, r0, ip, ror #1
 104:	00008368 	andeq	r8, r0, r8, ror #6
 108:	00000030 	andeq	r0, r0, r0, lsr r0
 10c:	83080e42 	movwhi	r0, #36418	; 0x8e42
 110:	00018e02 	andeq	r8, r1, r2, lsl #28
 114:	00000014 	andeq	r0, r0, r4, lsl r0
 118:	000000ec 	andeq	r0, r0, ip, ror #1
 11c:	00008398 	muleq	r0, r8, r3
 120:	00000010 	andeq	r0, r0, r0, lsl r0
 124:	83080e42 	movwhi	r0, #36418	; 0x8e42
 128:	00018e02 	andeq	r8, r1, r2, lsl #28
 12c:	00000014 	andeq	r0, r0, r4, lsl r0
 130:	000000ec 	andeq	r0, r0, ip, ror #1
 134:	000083a8 	andeq	r8, r0, r8, lsr #7
 138:	0000003c 	andeq	r0, r0, ip, lsr r0
 13c:	83080e42 	movwhi	r0, #36418	; 0x8e42
 140:	00018e02 	andeq	r8, r1, r2, lsl #28
 144:	00000014 	andeq	r0, r0, r4, lsl r0
 148:	000000ec 	andeq	r0, r0, ip, ror #1
 14c:	000083e4 	andeq	r8, r0, r4, ror #7
 150:	00000090 	muleq	r0, r0, r0
 154:	83080e42 	movwhi	r0, #36418	; 0x8e42
 158:	00018e02 	andeq	r8, r1, r2, lsl #28
 15c:	00000014 	andeq	r0, r0, r4, lsl r0
 160:	000000ec 	andeq	r0, r0, ip, ror #1
 164:	00008474 	andeq	r8, r0, r4, ror r4
 168:	0000003c 	andeq	r0, r0, ip, lsr r0
 16c:	83080e42 	movwhi	r0, #36418	; 0x8e42
 170:	00018e02 	andeq	r8, r1, r2, lsl #28
 174:	0000000c 	andeq	r0, r0, ip
 178:	ffffffff 			; <UNDEFINED> instruction: 0xffffffff
 17c:	7c020001 	stcvc	0, cr0, [r2], {1}
 180:	000d0c0e 	andeq	r0, sp, lr, lsl #24
 184:	00000014 	andeq	r0, r0, r4, lsl r0
 188:	00000174 	andeq	r0, r0, r4, ror r1
 18c:	000084b0 			; <UNDEFINED> instruction: 0x000084b0
 190:	00000018 	andeq	r0, r0, r8, lsl r0
 194:	83080e42 	movwhi	r0, #36418	; 0x8e42
 198:	00018e02 	andeq	r8, r1, r2, lsl #28
 19c:	00000014 	andeq	r0, r0, r4, lsl r0
 1a0:	00000174 	andeq	r0, r0, r4, ror r1
 1a4:	000084c8 	andeq	r8, r0, r8, asr #9
 1a8:	00000054 	andeq	r0, r0, r4, asr r0
 1ac:	8e040e42 	cdphi	14, 0, cr0, cr4, cr2, {2}
 1b0:	100e4201 	andne	r4, lr, r1, lsl #4
 1b4:	0000000c 	andeq	r0, r0, ip
 1b8:	ffffffff 			; <UNDEFINED> instruction: 0xffffffff
 1bc:	7c020001 	stcvc	0, cr0, [r2], {1}
 1c0:	000d0c0e 	andeq	r0, sp, lr, lsl #24
 1c4:	00000020 	andeq	r0, r0, r0, lsr #32
 1c8:	000001b4 			; <UNDEFINED> instruction: 0x000001b4
 1cc:	00008520 	andeq	r8, r0, r0, lsr #10
 1d0:	00000074 	andeq	r0, r0, r4, ror r0
 1d4:	84200e42 	strthi	r0, [r0], #-3650	; 0xe42
 1d8:	86078508 	strhi	r8, [r7], -r8, lsl #10
 1dc:	88058706 	stmdahi	r5, {r1, r2, r8, r9, sl, pc}
 1e0:	8a038904 	bhi	e25f8 <__bss_end__+0xd5c98>
 1e4:	00018e02 	andeq	r8, r1, r2, lsl #28
 1e8:	0000001c 	andeq	r0, r0, ip, lsl r0
 1ec:	000001b4 			; <UNDEFINED> instruction: 0x000001b4
 1f0:	00008594 	muleq	r0, r4, r5
 1f4:	00000090 	muleq	r0, r0, r0
 1f8:	83180e42 	tsthi	r8, #1056	; 0x420
 1fc:	85058406 	strhi	r8, [r5, #-1030]	; 0x406
 200:	87038604 	strhi	r8, [r3, -r4, lsl #12]
 204:	00018e02 	andeq	r8, r1, r2, lsl #28
 208:	0000001c 	andeq	r0, r0, ip, lsl r0
 20c:	000001b4 			; <UNDEFINED> instruction: 0x000001b4
 210:	00008624 	andeq	r8, r0, r4, lsr #12
 214:	0000019c 	muleq	r0, ip, r1
 218:	83180e42 	tsthi	r8, #1056	; 0x420
 21c:	85058406 	strhi	r8, [r5, #-1030]	; 0x406
 220:	87038604 	strhi	r8, [r3, -r4, lsl #12]
 224:	00018e02 	andeq	r8, r1, r2, lsl #28
 228:	0000000c 	andeq	r0, r0, ip
 22c:	ffffffff 			; <UNDEFINED> instruction: 0xffffffff
 230:	7c020001 	stcvc	0, cr0, [r2], {1}
 234:	000d0c0e 	andeq	r0, sp, lr, lsl #24
 238:	0000000c 	andeq	r0, r0, ip
 23c:	00000228 	andeq	r0, r0, r8, lsr #4
 240:	000087c0 	andeq	r8, r0, r0, asr #15
 244:	00000018 	andeq	r0, r0, r8, lsl r0
 248:	0000000c 	andeq	r0, r0, ip
 24c:	ffffffff 			; <UNDEFINED> instruction: 0xffffffff
 250:	7c020001 	stcvc	0, cr0, [r2], {1}
 254:	000d0c0e 	andeq	r0, sp, lr, lsl #24
 258:	00000018 	andeq	r0, r0, r8, lsl r0
 25c:	00000248 	andeq	r0, r0, r8, asr #4
 260:	000087d8 	ldrdeq	r8, [r0], -r8	; <UNPREDICTABLE>
 264:	00000068 	andeq	r0, r0, r8, rrx
 268:	84100e42 	ldrhi	r0, [r0], #-3650	; 0xe42
 26c:	86038504 	strhi	r8, [r3], -r4, lsl #10
 270:	00018e02 	andeq	r8, r1, r2, lsl #28
 274:	0000000c 	andeq	r0, r0, ip
 278:	ffffffff 			; <UNDEFINED> instruction: 0xffffffff
 27c:	7c020001 	stcvc	0, cr0, [r2], {1}
 280:	000d0c0e 	andeq	r0, sp, lr, lsl #24
 284:	00000024 	andeq	r0, r0, r4, lsr #32
 288:	00000274 	andeq	r0, r0, r4, ror r2
 28c:	00008840 	andeq	r8, r0, r0, asr #16
 290:	00000368 	andeq	r0, r0, r8, ror #6
 294:	84240e42 	strthi	r0, [r4], #-3650	; 0xe42
 298:	86088509 	strhi	r8, [r8], -r9, lsl #10
 29c:	88068707 	stmdahi	r6, {r0, r1, r2, r8, r9, sl, pc}
 2a0:	8a048905 	bhi	1226bc <__bss_end__+0x115d5c>
 2a4:	8e028b03 	vmlahi.f64	d8, d2, d3
 2a8:	400e4201 	andmi	r4, lr, r1, lsl #4
 2ac:	0000000c 	andeq	r0, r0, ip
 2b0:	ffffffff 			; <UNDEFINED> instruction: 0xffffffff
 2b4:	7c020001 	stcvc	0, cr0, [r2], {1}
 2b8:	000d0c0e 	andeq	r0, sp, lr, lsl #24
 2bc:	0000001c 	andeq	r0, r0, ip, lsl r0
 2c0:	000002ac 	andeq	r0, r0, ip, lsr #5
 2c4:	00008bd8 	ldrdeq	r8, [r0], -r8	; <UNPREDICTABLE>
 2c8:	00000010 	andeq	r0, r0, r0, lsl r0
 2cc:	420c0d42 	andmi	r0, ip, #4224	; 0x1080
 2d0:	038d048b 	orreq	r0, sp, #-1962934272	; 0x8b000000
 2d4:	0c42028e 	sfmeq	f0, 2, [r2], {142}	; 0x8e
 2d8:	0000040b 	andeq	r0, r0, fp, lsl #8
 2dc:	0000001c 	andeq	r0, r0, ip, lsl r0
 2e0:	000002ac 	andeq	r0, r0, ip, lsr #5
 2e4:	00008be8 	andeq	r8, r0, r8, ror #23
 2e8:	00000064 	andeq	r0, r0, r4, rrx
 2ec:	420c0d42 	andmi	r0, ip, #4224	; 0x1080
 2f0:	048b0584 	streq	r0, [fp], #1412	; 0x584
 2f4:	028e038d 	addeq	r0, lr, #872415234	; 0x34000002
 2f8:	040b0c42 	streq	r0, [fp], #-3138	; 0xc42
 2fc:	0000001c 	andeq	r0, r0, ip, lsl r0
 300:	000002ac 	andeq	r0, r0, ip, lsr #5
 304:	00008c4c 	andeq	r8, r0, ip, asr #24
 308:	00000058 	andeq	r0, r0, r8, asr r0
 30c:	420c0d42 	andmi	r0, ip, #4224	; 0x1080
 310:	038d048b 	orreq	r0, sp, #-1962934272	; 0x8b000000
 314:	0c42028e 	sfmeq	f0, 2, [r2], {142}	; 0x8e
 318:	0000040b 	andeq	r0, r0, fp, lsl #8
 31c:	0000001c 	andeq	r0, r0, ip, lsl r0
 320:	000002ac 	andeq	r0, r0, ip, lsr #5
 324:	00008ca4 	andeq	r8, r0, r4, lsr #25
 328:	00000018 	andeq	r0, r0, r8, lsl r0
 32c:	420c0d42 	andmi	r0, ip, #4224	; 0x1080
 330:	038d048b 	orreq	r0, sp, #-1962934272	; 0x8b000000
 334:	0c42028e 	sfmeq	f0, 2, [r2], {142}	; 0x8e
 338:	0000040b 	andeq	r0, r0, fp, lsl #8
 33c:	0000001c 	andeq	r0, r0, ip, lsl r0
 340:	000002ac 	andeq	r0, r0, ip, lsr #5
 344:	00008cbc 			; <UNDEFINED> instruction: 0x00008cbc
 348:	00000018 	andeq	r0, r0, r8, lsl r0
 34c:	420c0d42 	andmi	r0, ip, #4224	; 0x1080
 350:	038d048b 	orreq	r0, sp, #-1962934272	; 0x8b000000
 354:	0c42028e 	sfmeq	f0, 2, [r2], {142}	; 0x8e
 358:	0000040b 	andeq	r0, r0, fp, lsl #8
 35c:	0000001c 	andeq	r0, r0, ip, lsl r0
 360:	000002ac 	andeq	r0, r0, ip, lsr #5
 364:	00008cd4 	ldrdeq	r8, [r0], -r4
 368:	00000060 	andeq	r0, r0, r0, rrx
 36c:	420c0d42 	andmi	r0, ip, #4224	; 0x1080
 370:	038d048b 	orreq	r0, sp, #-1962934272	; 0x8b000000
 374:	0c42028e 	sfmeq	f0, 2, [r2], {142}	; 0x8e
 378:	0000040b 	andeq	r0, r0, fp, lsl #8
 37c:	0000001c 	andeq	r0, r0, ip, lsl r0
 380:	000002ac 	andeq	r0, r0, ip, lsr #5
 384:	00008d34 	andeq	r8, r0, r4, lsr sp
 388:	00000048 	andeq	r0, r0, r8, asr #32
 38c:	420c0d42 	andmi	r0, ip, #4224	; 0x1080
 390:	038d048b 	orreq	r0, sp, #-1962934272	; 0x8b000000
 394:	0c42028e 	sfmeq	f0, 2, [r2], {142}	; 0x8e
 398:	0000040b 	andeq	r0, r0, fp, lsl #8
 39c:	0000000c 	andeq	r0, r0, ip
 3a0:	ffffffff 			; <UNDEFINED> instruction: 0xffffffff
 3a4:	7c020001 	stcvc	0, cr0, [r2], {1}
 3a8:	000d0c0e 	andeq	r0, sp, lr, lsl #24
 3ac:	0000001c 	andeq	r0, r0, ip, lsl r0
 3b0:	0000039c 	muleq	r0, ip, r3
 3b4:	00008d7c 	andeq	r8, r0, ip, ror sp
 3b8:	00000014 	andeq	r0, r0, r4, lsl r0
 3bc:	420c0d42 	andmi	r0, ip, #4224	; 0x1080
 3c0:	038d048b 	orreq	r0, sp, #-1962934272	; 0x8b000000
 3c4:	0c42028e 	sfmeq	f0, 2, [r2], {142}	; 0x8e
 3c8:	0000040b 	andeq	r0, r0, fp, lsl #8
 3cc:	0000001c 	andeq	r0, r0, ip, lsl r0
 3d0:	0000039c 	muleq	r0, ip, r3
 3d4:	00008d90 	muleq	r0, r0, sp
 3d8:	00000038 	andeq	r0, r0, r8, lsr r0
 3dc:	420c0d42 	andmi	r0, ip, #4224	; 0x1080
 3e0:	048b0584 	streq	r0, [fp], #1412	; 0x584
 3e4:	028e038d 	addeq	r0, lr, #872415234	; 0x34000002
 3e8:	040b0c42 	streq	r0, [fp], #-3138	; 0xc42
 3ec:	00000024 	andeq	r0, r0, r4, lsr #32
 3f0:	0000039c 	muleq	r0, ip, r3
 3f4:	00008dc8 	andeq	r8, r0, r8, asr #27
 3f8:	000000c8 	andeq	r0, r0, r8, asr #1
 3fc:	420c0d42 	andmi	r0, ip, #4224	; 0x1080
 400:	07850884 	streq	r0, [r5, r4, lsl #17]
 404:	05870686 	streq	r0, [r7, #1670]	; 0x686
 408:	038d048b 	orreq	r0, sp, #-1962934272	; 0x8b000000
 40c:	0c42028e 	sfmeq	f0, 2, [r2], {142}	; 0x8e
 410:	0000040b 	andeq	r0, r0, fp, lsl #8
 414:	00000024 	andeq	r0, r0, r4, lsr #32
 418:	0000039c 	muleq	r0, ip, r3
 41c:	00008e90 	muleq	r0, r0, lr
 420:	000000d8 	ldrdeq	r0, [r0], -r8
 424:	420c0d42 	andmi	r0, ip, #4224	; 0x1080
 428:	07850884 	streq	r0, [r5, r4, lsl #17]
 42c:	05870686 	streq	r0, [r7, #1670]	; 0x686
 430:	038d048b 	orreq	r0, sp, #-1962934272	; 0x8b000000
 434:	0c42028e 	sfmeq	f0, 2, [r2], {142}	; 0x8e
 438:	0000040b 	andeq	r0, r0, fp, lsl #8
 43c:	00000028 	andeq	r0, r0, r8, lsr #32
 440:	0000039c 	muleq	r0, ip, r3
 444:	00008f68 	andeq	r8, r0, r8, ror #30
 448:	0000014c 	andeq	r0, r0, ip, asr #2
 44c:	420c0d42 	andmi	r0, ip, #4224	; 0x1080
 450:	0a850b84 	beq	fe143268 <__bss_end__+0xfe136908>
 454:	08870986 	stmeq	r7, {r1, r2, r7, r8, fp}
 458:	06890788 	streq	r0, [r9], r8, lsl #15
 45c:	048b058a 	streq	r0, [fp], #1418	; 0x58a
 460:	028e038d 	addeq	r0, lr, #872415234	; 0x34000002
 464:	040b0c42 	streq	r0, [fp], #-3138	; 0xc42
 468:	0000002c 	andeq	r0, r0, ip, lsr #32
 46c:	0000039c 	muleq	r0, ip, r3
 470:	000090b4 	strheq	r9, [r0], -r4
 474:	000001e0 	andeq	r0, r0, r0, ror #3
 478:	420c0d42 	andmi	r0, ip, #4224	; 0x1080
 47c:	0b840c83 	bleq	fe103690 <__bss_end__+0xfe0f6d30>
 480:	09860a85 	stmibeq	r6, {r0, r2, r7, r9, fp}
 484:	07880887 	streq	r0, [r8, r7, lsl #17]
 488:	058a0689 	streq	r0, [sl, #1673]	; 0x689
 48c:	038d048b 	orreq	r0, sp, #-1962934272	; 0x8b000000
 490:	0c42028e 	sfmeq	f0, 2, [r2], {142}	; 0x8e
 494:	0000040b 	andeq	r0, r0, fp, lsl #8
 498:	00000020 	andeq	r0, r0, r0, lsr #32
 49c:	0000039c 	muleq	r0, ip, r3
 4a0:	00009294 	muleq	r0, r4, r2
 4a4:	0000002c 	andeq	r0, r0, ip, lsr #32
 4a8:	440c0d42 	strmi	r0, [ip], #-3394	; 0xd42
 4ac:	01830282 	orreq	r0, r3, r2, lsl #5
 4b0:	058d068b 	streq	r0, [sp, #1675]	; 0x68b
 4b4:	0c42048e 	cfstrdeq	mvd0, [r2], {142}	; 0x8e
 4b8:	00000c0b 	andeq	r0, r0, fp, lsl #24
 4bc:	00000028 	andeq	r0, r0, r8, lsr #32
 4c0:	0000039c 	muleq	r0, ip, r3
 4c4:	000092c0 	andeq	r9, r0, r0, asr #5
 4c8:	00000068 	andeq	r0, r0, r8, rrx
 4cc:	440c0d42 	strmi	r0, [ip], #-3394	; 0xd42
 4d0:	03810480 	orreq	r0, r1, #128, 8	; 0x80000000
 4d4:	01830282 	orreq	r0, r3, r2, lsl #5
 4d8:	09850a84 	stmibeq	r5, {r2, r7, r9, fp}
 4dc:	078d088b 	streq	r0, [sp, fp, lsl #17]
 4e0:	0c42068e 	mcrreq	6, 8, r0, r2, cr14
 4e4:	0000140b 	andeq	r1, r0, fp, lsl #8
 4e8:	0000000c 	andeq	r0, r0, ip
 4ec:	ffffffff 			; <UNDEFINED> instruction: 0xffffffff
 4f0:	7c020001 	stcvc	0, cr0, [r2], {1}
 4f4:	000d0c0e 	andeq	r0, sp, lr, lsl #24
 4f8:	0000001c 	andeq	r0, r0, ip, lsl r0
 4fc:	000004e8 	andeq	r0, r0, r8, ror #9
 500:	00009328 	andeq	r9, r0, r8, lsr #6
 504:	00000010 	andeq	r0, r0, r0, lsl r0
 508:	420c0d42 	andmi	r0, ip, #4224	; 0x1080
 50c:	038d048b 	orreq	r0, sp, #-1962934272	; 0x8b000000
 510:	0c42028e 	sfmeq	f0, 2, [r2], {142}	; 0x8e
 514:	0000040b 	andeq	r0, r0, fp, lsl #8
 518:	0000001c 	andeq	r0, r0, ip, lsl r0
 51c:	000004e8 	andeq	r0, r0, r8, ror #9
 520:	00009338 	andeq	r9, r0, r8, lsr r3
 524:	0000001c 	andeq	r0, r0, ip, lsl r0
 528:	420c0d42 	andmi	r0, ip, #4224	; 0x1080
 52c:	038d048b 	orreq	r0, sp, #-1962934272	; 0x8b000000
 530:	0c42028e 	sfmeq	f0, 2, [r2], {142}	; 0x8e
 534:	0000040b 	andeq	r0, r0, fp, lsl #8
 538:	00000020 	andeq	r0, r0, r0, lsr #32
 53c:	000004e8 	andeq	r0, r0, r8, ror #9
 540:	00009354 	andeq	r9, r0, r4, asr r3
 544:	0000002c 	andeq	r0, r0, ip, lsr #32
 548:	420c0d42 	andmi	r0, ip, #4224	; 0x1080
 54c:	05850684 	streq	r0, [r5, #1668]	; 0x684
 550:	038d048b 	orreq	r0, sp, #-1962934272	; 0x8b000000
 554:	0c42028e 	sfmeq	f0, 2, [r2], {142}	; 0x8e
 558:	0000040b 	andeq	r0, r0, fp, lsl #8
 55c:	00000024 	andeq	r0, r0, r4, lsr #32
 560:	000004e8 	andeq	r0, r0, r8, ror #9
 564:	00009380 	andeq	r9, r0, r0, lsl #7
 568:	00000034 	andeq	r0, r0, r4, lsr r0
 56c:	420c0d42 	andmi	r0, ip, #4224	; 0x1080
 570:	07840883 	streq	r0, [r4, r3, lsl #17]
 574:	05860685 	streq	r0, [r6, #1669]	; 0x685
 578:	038d048b 	orreq	r0, sp, #-1962934272	; 0x8b000000
 57c:	0c42028e 	sfmeq	f0, 2, [r2], {142}	; 0x8e
 580:	0000040b 	andeq	r0, r0, fp, lsl #8
 584:	00000024 	andeq	r0, r0, r4, lsr #32
 588:	000004e8 	andeq	r0, r0, r8, ror #9
 58c:	000093b4 			; <UNDEFINED> instruction: 0x000093b4
 590:	00000034 	andeq	r0, r0, r4, lsr r0
 594:	420c0d42 	andmi	r0, ip, #4224	; 0x1080
 598:	07840883 	streq	r0, [r4, r3, lsl #17]
 59c:	05860685 	streq	r0, [r6, #1669]	; 0x685
 5a0:	038d048b 	orreq	r0, sp, #-1962934272	; 0x8b000000
 5a4:	0c42028e 	sfmeq	f0, 2, [r2], {142}	; 0x8e
 5a8:	0000040b 	andeq	r0, r0, fp, lsl #8
 5ac:	00000020 	andeq	r0, r0, r0, lsr #32
 5b0:	000004e8 	andeq	r0, r0, r8, ror #9
 5b4:	000093e8 	andeq	r9, r0, r8, ror #7
 5b8:	00000020 	andeq	r0, r0, r0, lsr #32
 5bc:	420c0d42 	andmi	r0, ip, #4224	; 0x1080
 5c0:	05840683 	streq	r0, [r4, #1667]	; 0x683
 5c4:	038d048b 	orreq	r0, sp, #-1962934272	; 0x8b000000
 5c8:	0c42028e 	sfmeq	f0, 2, [r2], {142}	; 0x8e
 5cc:	0000040b 	andeq	r0, r0, fp, lsl #8
 5d0:	0000000c 	andeq	r0, r0, ip
 5d4:	ffffffff 			; <UNDEFINED> instruction: 0xffffffff
 5d8:	7c020001 	stcvc	0, cr0, [r2], {1}
 5dc:	000d0c0e 	andeq	r0, sp, lr, lsl #24
 5e0:	00000020 	andeq	r0, r0, r0, lsr #32
 5e4:	000005d0 	ldrdeq	r0, [r0], -r0	; <UNPREDICTABLE>
 5e8:	00009408 	andeq	r9, r0, r8, lsl #8
 5ec:	00000068 	andeq	r0, r0, r8, rrx
 5f0:	420c0d42 	andmi	r0, ip, #4224	; 0x1080
 5f4:	05850684 	streq	r0, [r5, #1668]	; 0x684
 5f8:	038d048b 	orreq	r0, sp, #-1962934272	; 0x8b000000
 5fc:	0c42028e 	sfmeq	f0, 2, [r2], {142}	; 0x8e
 600:	0000040b 	andeq	r0, r0, fp, lsl #8
 604:	0000001c 	andeq	r0, r0, ip, lsl r0
 608:	000005d0 	ldrdeq	r0, [r0], -r0	; <UNPREDICTABLE>
 60c:	00009470 	andeq	r9, r0, r0, ror r4
 610:	00000030 	andeq	r0, r0, r0, lsr r0
 614:	420c0d42 	andmi	r0, ip, #4224	; 0x1080
 618:	038d048b 	orreq	r0, sp, #-1962934272	; 0x8b000000
 61c:	0c42028e 	sfmeq	f0, 2, [r2], {142}	; 0x8e
 620:	0000040b 	andeq	r0, r0, fp, lsl #8
 624:	00000020 	andeq	r0, r0, r0, lsr #32
 628:	000005d0 	ldrdeq	r0, [r0], -r0	; <UNPREDICTABLE>
 62c:	000094a0 	andeq	r9, r0, r0, lsr #9
 630:	00000040 	andeq	r0, r0, r0, asr #32
 634:	420c0d42 	andmi	r0, ip, #4224	; 0x1080
 638:	05840683 	streq	r0, [r4, #1667]	; 0x683
 63c:	038d048b 	orreq	r0, sp, #-1962934272	; 0x8b000000
 640:	0c42028e 	sfmeq	f0, 2, [r2], {142}	; 0x8e
 644:	0000040b 	andeq	r0, r0, fp, lsl #8
 648:	0000001c 	andeq	r0, r0, ip, lsl r0
 64c:	000005d0 	ldrdeq	r0, [r0], -r0	; <UNPREDICTABLE>
 650:	000094e0 	andeq	r9, r0, r0, ror #9
 654:	00000024 	andeq	r0, r0, r4, lsr #32
 658:	420c0d42 	andmi	r0, ip, #4224	; 0x1080
 65c:	038d048b 	orreq	r0, sp, #-1962934272	; 0x8b000000
 660:	0c42028e 	sfmeq	f0, 2, [r2], {142}	; 0x8e
 664:	0000040b 	andeq	r0, r0, fp, lsl #8
 668:	0000000c 	andeq	r0, r0, ip
 66c:	ffffffff 			; <UNDEFINED> instruction: 0xffffffff
 670:	7c020001 	stcvc	0, cr0, [r2], {1}
 674:	000d0c0e 	andeq	r0, sp, lr, lsl #24
 678:	00000020 	andeq	r0, r0, r0, lsr #32
 67c:	00000668 	andeq	r0, r0, r8, ror #12
 680:	00009504 	andeq	r9, r0, r4, lsl #10
 684:	00000068 	andeq	r0, r0, r8, rrx
 688:	420c0d42 	andmi	r0, ip, #4224	; 0x1080
 68c:	05850684 	streq	r0, [r5, #1668]	; 0x684
 690:	038d048b 	orreq	r0, sp, #-1962934272	; 0x8b000000
 694:	0c42028e 	sfmeq	f0, 2, [r2], {142}	; 0x8e
 698:	0000040b 	andeq	r0, r0, fp, lsl #8
 69c:	0000001c 	andeq	r0, r0, ip, lsl r0
 6a0:	00000668 	andeq	r0, r0, r8, ror #12
 6a4:	0000956c 	andeq	r9, r0, ip, ror #10
 6a8:	00000020 	andeq	r0, r0, r0, lsr #32
 6ac:	420c0d42 	andmi	r0, ip, #4224	; 0x1080
 6b0:	038d048b 	orreq	r0, sp, #-1962934272	; 0x8b000000
 6b4:	0c42028e 	sfmeq	f0, 2, [r2], {142}	; 0x8e
 6b8:	0000040b 	andeq	r0, r0, fp, lsl #8
 6bc:	0000001c 	andeq	r0, r0, ip, lsl r0
 6c0:	00000668 	andeq	r0, r0, r8, ror #12
 6c4:	0000958c 	andeq	r9, r0, ip, lsl #11
 6c8:	00000018 	andeq	r0, r0, r8, lsl r0
 6cc:	420c0d42 	andmi	r0, ip, #4224	; 0x1080
 6d0:	038d048b 	orreq	r0, sp, #-1962934272	; 0x8b000000
 6d4:	0c42028e 	sfmeq	f0, 2, [r2], {142}	; 0x8e
 6d8:	0000040b 	andeq	r0, r0, fp, lsl #8
 6dc:	0000000c 	andeq	r0, r0, ip
 6e0:	ffffffff 			; <UNDEFINED> instruction: 0xffffffff
 6e4:	7c020001 	stcvc	0, cr0, [r2], {1}
 6e8:	000d0c0e 	andeq	r0, sp, lr, lsl #24
 6ec:	00000020 	andeq	r0, r0, r0, lsr #32
 6f0:	000006dc 	ldrdeq	r0, [r0], -ip
 6f4:	000095a4 	andeq	r9, r0, r4, lsr #11
 6f8:	000000bc 	strheq	r0, [r0], -ip
 6fc:	420c0d42 	andmi	r0, ip, #4224	; 0x1080
 700:	05850684 	streq	r0, [r5, #1668]	; 0x684
 704:	038d048b 	orreq	r0, sp, #-1962934272	; 0x8b000000
 708:	0c42028e 	sfmeq	f0, 2, [r2], {142}	; 0x8e
 70c:	0000040b 	andeq	r0, r0, fp, lsl #8
 710:	00000020 	andeq	r0, r0, r0, lsr #32
 714:	000006dc 	ldrdeq	r0, [r0], -ip
 718:	00009660 	andeq	r9, r0, r0, ror #12
 71c:	00000090 	muleq	r0, r0, r0
 720:	420c0d42 	andmi	r0, ip, #4224	; 0x1080
 724:	06850784 	streq	r0, [r5], r4, lsl #15
 728:	048b0586 	streq	r0, [fp], #1414	; 0x586
 72c:	028e038d 	addeq	r0, lr, #872415234	; 0x34000002
 730:	040b0c42 	streq	r0, [fp], #-3138	; 0xc42
 734:	0000000c 	andeq	r0, r0, ip
 738:	ffffffff 			; <UNDEFINED> instruction: 0xffffffff
 73c:	7c010001 	stcvc	0, cr0, [r1], {1}
 740:	000d0c0e 	andeq	r0, sp, lr, lsl #24
 744:	0000000c 	andeq	r0, r0, ip
 748:	00000734 	andeq	r0, r0, r4, lsr r7
 74c:	000096f0 	strdeq	r9, [r0], -r0
 750:	000000f4 	strdeq	r0, [r0], -r4
 754:	0000000c 	andeq	r0, r0, ip
 758:	ffffffff 			; <UNDEFINED> instruction: 0xffffffff
 75c:	7c010001 	stcvc	0, cr0, [r1], {1}
 760:	000d0c0e 	andeq	r0, sp, lr, lsl #24
 764:	0000000c 	andeq	r0, r0, ip
 768:	00000754 	andeq	r0, r0, r4, asr r7
 76c:	00009804 	andeq	r9, r0, r4, lsl #16
 770:	00000128 	andeq	r0, r0, r8, lsr #2

Disassembly of section .debug_loc:

00000000 <.debug_loc>:
       0:	00000014 	andeq	r0, r0, r4, lsl r0
       4:	0000001c 	andeq	r0, r0, ip, lsl r0
       8:	04730003 	ldrbteq	r0, [r3], #-3
       c:	00001c9f 	muleq	r0, pc, ip	; <UNPREDICTABLE>
      10:	00002700 	andeq	r2, r0, r0, lsl #14
      14:	53000100 	movwpl	r0, #256	; 0x100
	...
      24:	00000008 	andeq	r0, r0, r8
      28:	08500001 	ldmdaeq	r0, {r0}^
      2c:	78000000 	stmdavc	r0, {}	; <UNPREDICTABLE>
      30:	01000000 	mrseq	r0, (UNDEF: 0)
      34:	00785400 	rsbseq	r5, r8, r0, lsl #8
      38:	008c0000 	addeq	r0, ip, r0
      3c:	00060000 	andeq	r0, r6, r0
      40:	3c5001f3 	ldfcce	f0, [r0], {243}	; 0xf3
      44:	00009f24 	andeq	r9, r0, r4, lsr #30
      48:	00000000 	andeq	r0, r0, r0
      4c:	00180000 	andseq	r0, r8, r0
      50:	001c0000 	andseq	r0, ip, r0
      54:	00010000 	andeq	r0, r1, r0
      58:	00001c50 	andeq	r1, r0, r0, asr ip
      5c:	00007800 	andeq	r7, r0, r0, lsl #16
      60:	55000100 	strpl	r0, [r0, #-256]	; 0x100
	...
      6c:	00000020 	andeq	r0, r0, r0, lsr #32
      70:	00000024 	andeq	r0, r0, r4, lsr #32
      74:	80700005 	rsbshi	r0, r0, r5
      78:	249f03f0 	ldrcs	r0, [pc], #1008	; 80 <_start-0x7f80>
      7c:	2b000000 	blcs	84 <_start-0x7f7c>
      80:	01000000 	mrseq	r0, (UNDEF: 0)
      84:	002b5000 	eoreq	r5, fp, r0
      88:	002c0000 	eoreq	r0, ip, r0
      8c:	000c0000 	andeq	r0, ip, r0
      90:	24f8000c 	ldrbtcs	r0, [r8], #12
      94:	74007501 	strvc	r7, [r0], #-1281	; 0x501
      98:	9f1c1e00 	svcls	0x001c1e00
      9c:	0000002c 	andeq	r0, r0, ip, lsr #32
      a0:	00000058 	andeq	r0, r0, r8, asr r0
      a4:	68500001 	ldmdavs	r0, {r0}^
      a8:	6c000000 	stcvs	0, cr0, [r0], {-0}
      ac:	01000000 	mrseq	r0, (UNDEF: 0)
      b0:	00705000 	rsbseq	r5, r0, r0
      b4:	00740000 	rsbseq	r0, r4, r0
      b8:	00010000 	andeq	r0, r1, r0
      bc:	00000050 	andeq	r0, r0, r0, asr r0
      c0:	00000000 	andeq	r0, r0, r0
      c4:	00008c00 	andeq	r8, r0, r0, lsl #24
      c8:	00009b00 	andeq	r9, r0, r0, lsl #22
      cc:	50000100 	andpl	r0, r0, r0, lsl #2
      d0:	0000009b 	muleq	r0, fp, r0
      d4:	000001d0 	ldrdeq	r0, [r0], -r0	; <UNPREDICTABLE>
      d8:	01f30004 	mvnseq	r0, r4
      dc:	00009f50 	andeq	r9, r0, r0, asr pc
      e0:	00000000 	andeq	r0, r0, r0
      e4:	008c0000 	addeq	r0, ip, r0
      e8:	009b0000 	addseq	r0, fp, r0
      ec:	00010000 	andeq	r0, r1, r0
      f0:	00009b51 	andeq	r9, r0, r1, asr fp
      f4:	0001d000 	andeq	sp, r1, r0
      f8:	91000200 	mrsls	r0, R8_usr
      fc:	0000004c 	andeq	r0, r0, ip, asr #32
     100:	00000000 	andeq	r0, r0, r0
     104:	0000c400 	andeq	ip, r0, r0, lsl #8
     108:	0000d400 	andeq	sp, r0, r0, lsl #8
     10c:	50000600 	andpl	r0, r0, r0, lsl #12
     110:	93510493 	cmpls	r1, #-1828716544	; 0x93000000
     114:	0000d404 	andeq	sp, r0, r4, lsl #8
     118:	0001ac00 	andeq	sl, r1, r0, lsl #24
     11c:	7d000200 	sfmvc	f0, 4, [r0, #-0]
     120:	0001ac00 	andeq	sl, r1, r0, lsl #24
     124:	0001d000 	andeq	sp, r1, r0
     128:	91000200 	mrsls	r0, R8_usr
     12c:	00000040 	andeq	r0, r0, r0, asr #32
     130:	00000000 	andeq	r0, r0, r0
     134:	0000c400 	andeq	ip, r0, r0, lsl #8
     138:	0000d400 	andeq	sp, r0, r0, lsl #8
     13c:	30000200 	andcc	r0, r0, r0, lsl #4
     140:	0000d49f 	muleq	r0, pc, r4	; <UNPREDICTABLE>
     144:	0001b000 	andeq	fp, r1, r0
     148:	56000100 	strpl	r0, [r0], -r0, lsl #2
	...
     154:	000000dc 	ldrdeq	r0, [r0], -ip
     158:	000001a0 	andeq	r0, r0, r0, lsr #3
     15c:	00590001 	subseq	r0, r9, r1
     160:	00000000 	andeq	r0, r0, r0
     164:	fc000000 	stc2	0, cr0, [r0], {-0}
     168:	18000001 	stmdane	r0, {r0}
     16c:	02000002 	andeq	r0, r0, #2
     170:	189f3000 	ldmne	pc, {ip, sp}	; <UNPREDICTABLE>
     174:	53000002 	movwpl	r0, #2
     178:	01000002 	tsteq	r0, r2
     17c:	00005300 	andeq	r5, r0, r0, lsl #6
	...
     188:	00080000 	andeq	r0, r8, r0
     18c:	00020000 	andeq	r0, r2, r0
     190:	00089f30 	andeq	r9, r8, r0, lsr pc
     194:	00200000 	eoreq	r0, r0, r0
     198:	00010000 	andeq	r0, r1, r0
     19c:	00000053 	andeq	r0, r0, r3, asr r0
     1a0:	00000000 	andeq	r0, r0, r0
     1a4:	00003000 	andeq	r3, r0, r0
     1a8:	00003700 	andeq	r3, r0, r0, lsl #14
     1ac:	50000100 	andpl	r0, r0, r0, lsl #2
     1b0:	00000037 	andeq	r0, r0, r7, lsr r0
     1b4:	00000040 	andeq	r0, r0, r0, asr #32
     1b8:	01f30004 	mvnseq	r0, r4
     1bc:	00009f50 	andeq	r9, r0, r0, asr pc
     1c0:	00000000 	andeq	r0, r0, r0
     1c4:	008c0000 	addeq	r0, ip, r0
     1c8:	00970000 	addseq	r0, r7, r0
     1cc:	00060000 	andeq	r0, r6, r0
     1d0:	51049350 	tstpl	r4, r0, asr r3
     1d4:	00000493 	muleq	r0, r3, r4
     1d8:	00000000 	andeq	r0, r0, r0
     1dc:	00a80000 	adceq	r0, r8, r0
     1e0:	00d40000 	sbcseq	r0, r4, r0
     1e4:	00010000 	andeq	r0, r1, r0
     1e8:	0000d850 	andeq	sp, r0, r0, asr r8
     1ec:	0000dc00 	andeq	sp, r0, r0, lsl #24
     1f0:	50000100 	andpl	r0, r0, r0, lsl #2
     1f4:	000000e0 	andeq	r0, r0, r0, ror #1
     1f8:	000000e4 	andeq	r0, r0, r4, ror #1
     1fc:	e8500001 	ldmda	r0, {r0}^
     200:	ec000000 	stc	0, cr0, [r0], {-0}
     204:	01000000 	mrseq	r0, (UNDEF: 0)
     208:	00f05000 	rscseq	r5, r0, r0
     20c:	00f40000 	rscseq	r0, r4, r0
     210:	00010000 	andeq	r0, r1, r0
     214:	0000f850 	andeq	pc, r0, r0, asr r8	; <UNPREDICTABLE>
     218:	0000fc00 	andeq	pc, r0, r0, lsl #24
     21c:	50000100 	andpl	r0, r0, r0, lsl #2
	...
     228:	0000010c 	andeq	r0, r0, ip, lsl #2
     22c:	00000113 	andeq	r0, r0, r3, lsl r1
     230:	13500001 	cmpne	r0, #1
     234:	48000001 	stmdami	r0, {r0}
     238:	04000001 	streq	r0, [r0], #-1
     23c:	5001f300 	andpl	pc, r1, r0, lsl #6
     240:	0000009f 	muleq	r0, pc, r0	; <UNPREDICTABLE>
     244:	00000000 	andeq	r0, r0, r0
     248:	00011800 	andeq	r1, r1, r0, lsl #16
     24c:	00012300 	andeq	r2, r1, r0, lsl #6
     250:	50000600 	andpl	r0, r0, r0, lsl #12
     254:	93510493 	cmpls	r1, #-1828716544	; 0x93000000
     258:	00000004 	andeq	r0, r0, r4
     25c:	00000000 	andeq	r0, r0, r0
     260:	00013400 	andeq	r3, r1, r0, lsl #8
     264:	00013800 	andeq	r3, r1, r0, lsl #16
     268:	70000300 	andvc	r0, r0, r0, lsl #6
     26c:	01389f01 	teqeq	r8, r1, lsl #30
     270:	01480000 	mrseq	r0, (UNDEF: 72)
     274:	00010000 	andeq	r0, r1, r0
     278:	00000050 	andeq	r0, r0, r0, asr r0
     27c:	00000000 	andeq	r0, r0, r0
     280:	00001800 	andeq	r1, r0, r0, lsl #16
     284:	00002c00 	andeq	r2, r0, r0, lsl #24
     288:	50000100 	andpl	r0, r0, r0, lsl #2
     28c:	0000002c 	andeq	r0, r0, ip, lsr #32
     290:	0000006c 	andeq	r0, r0, ip, rrx
     294:	01f30004 	mvnseq	r0, r4
     298:	00009f50 	andeq	r9, r0, r0, asr pc
	...
     2a4:	00240000 	eoreq	r0, r4, r0
     2a8:	00060000 	andeq	r0, r6, r0
     2ac:	51049350 	tstpl	r4, r0, asr r3
     2b0:	00240493 	mlaeq	r4, r3, r4, r0
     2b4:	00740000 	rsbseq	r0, r4, r0
     2b8:	00060000 	andeq	r0, r6, r0
     2bc:	00f503f3 	ldrshteq	r0, [r5], #51	; 0x33
     2c0:	00009f25 	andeq	r9, r0, r5, lsr #30
	...
     2cc:	00240000 	eoreq	r0, r4, r0
     2d0:	00060000 	andeq	r0, r6, r0
     2d4:	53049352 	movwpl	r9, #17234	; 0x4352
     2d8:	00240493 	mlaeq	r4, r3, r4, r0
     2dc:	00740000 	rsbseq	r0, r4, r0
     2e0:	00060000 	andeq	r0, r6, r0
     2e4:	02f503f3 	rscseq	r0, r5, #-872415229	; 0xcc000003
     2e8:	00009f25 	andeq	r9, r0, r5, lsr #30
     2ec:	00000000 	andeq	r0, r0, r0
     2f0:	00140000 	andseq	r0, r4, r0
     2f4:	00240000 	eoreq	r0, r4, r0
     2f8:	000a0000 	andeq	r0, sl, r0
     2fc:	0000089e 	muleq	r0, lr, r8
     300:	00000000 	andeq	r0, r0, r0
     304:	00243ff0 	strdeq	r3, [r4], -r0	; <UNPREDICTABLE>
     308:	003c0000 	eorseq	r0, ip, r0
     30c:	00060000 	andeq	r0, r6, r0
     310:	55049354 	strpl	r9, [r4, #-852]	; 0x354
     314:	00400493 	umaaleq	r0, r0, r3, r4
     318:	006c0000 	rsbeq	r0, ip, r0
     31c:	00060000 	andeq	r0, r6, r0
     320:	55049354 	strpl	r9, [r4, #-852]	; 0x354
     324:	00000493 	muleq	r0, r3, r4
     328:	00000000 	andeq	r0, r0, r0
     32c:	00140000 	andseq	r0, r4, r0
     330:	00240000 	eoreq	r0, r4, r0
     334:	00020000 	andeq	r0, r2, r0
     338:	00249f30 	eoreq	r9, r4, r0, lsr pc
     33c:	006c0000 	rsbeq	r0, ip, r0
     340:	00010000 	andeq	r0, r1, r0
     344:	0000005a 	andeq	r0, r0, sl, asr r0
     348:	00000000 	andeq	r0, r0, r0
     34c:	00007400 	andeq	r7, r0, r0, lsl #8
     350:	00008b00 	andeq	r8, r0, r0, lsl #22
     354:	50000600 	andpl	r0, r0, r0, lsl #12
     358:	93510493 	cmpls	r1, #-1828716544	; 0x93000000
     35c:	00008b04 	andeq	r8, r0, r4, lsl #22
     360:	00010400 	andeq	r0, r1, r0, lsl #8
     364:	f3000600 	vmax.u8	d0, d0, d0
     368:	2500f503 	strcs	pc, [r0, #-1283]	; 0x503
     36c:	0000009f 	muleq	r0, pc, r0	; <UNPREDICTABLE>
     370:	00000000 	andeq	r0, r0, r0
     374:	00007400 	andeq	r7, r0, r0, lsl #8
     378:	00008b00 	andeq	r8, r0, r0, lsl #22
     37c:	52000600 	andpl	r0, r0, #0, 12
     380:	93530493 	cmpls	r3, #-1828716544	; 0x93000000
     384:	00008b04 	andeq	r8, r0, r4, lsl #22
     388:	00010400 	andeq	r0, r1, r0, lsl #8
     38c:	f3000600 	vmax.u8	d0, d0, d0
     390:	2502f503 	strcs	pc, [r2, #-1283]	; 0x503
     394:	0000009f 	muleq	r0, pc, r0	; <UNPREDICTABLE>
     398:	00000000 	andeq	r0, r0, r0
     39c:	00009000 	andeq	r9, r0, r0
     3a0:	00009b00 	andeq	r9, r0, r0, lsl #22
     3a4:	50000100 	andpl	r0, r0, r0, lsl #2
     3a8:	000000c8 	andeq	r0, r0, r8, asr #1
     3ac:	000000cb 	andeq	r0, r0, fp, asr #1
     3b0:	00500001 	subseq	r0, r0, r1
     3b4:	00000000 	andeq	r0, r0, r0
     3b8:	04000000 	streq	r0, [r0], #-0
     3bc:	13000001 	movwne	r0, #1
     3c0:	06000001 	streq	r0, [r0], -r1
     3c4:	04935000 	ldreq	r5, [r3], #0
     3c8:	13049351 	movwne	r9, #17233	; 0x4351
     3cc:	a0000001 	andge	r0, r0, r1
     3d0:	06000002 	streq	r0, [r0], -r2
     3d4:	f503f300 			; <UNDEFINED> instruction: 0xf503f300
     3d8:	009f2500 	addseq	r2, pc, r0, lsl #10
     3dc:	00000000 	andeq	r0, r0, r0
     3e0:	1c000000 	stcne	0, cr0, [r0], {-0}
     3e4:	60000001 	andvs	r0, r0, r1
     3e8:	06000002 	streq	r0, [r0], -r2
     3ec:	04935400 	ldreq	r5, [r3], #1024	; 0x400
     3f0:	00049355 	andeq	r9, r4, r5, asr r3
     3f4:	00000000 	andeq	r0, r0, r0
     3f8:	1c000000 	stcne	0, cr0, [r0], {-0}
     3fc:	50000001 	andpl	r0, r0, r1
     400:	06000001 	streq	r0, [r0], -r1
     404:	04935400 	ldreq	r5, [r3], #1024	; 0x400
     408:	50049355 	andpl	r9, r4, r5, asr r3
     40c:	80000001 	andhi	r0, r0, r1
     410:	06000001 	streq	r0, [r0], -r1
     414:	04935600 	ldreq	r5, [r3], #1536	; 0x600
     418:	84049357 	strhi	r9, [r4], #-855	; 0x357
     41c:	bc000001 	stclt	0, cr0, [r0], {1}
     420:	06000001 	streq	r0, [r0], -r1
     424:	04935600 	ldreq	r5, [r3], #1536	; 0x600
     428:	c0049357 	andgt	r9, r4, r7, asr r3
     42c:	f0000001 			; <UNDEFINED> instruction: 0xf0000001
     430:	06000001 	streq	r0, [r0], -r1
     434:	04935600 	ldreq	r5, [r3], #1536	; 0x600
     438:	f4049357 	vst2.16	{d9-d12}, [r4 :64], r7
     43c:	2c000001 	stccs	0, cr0, [r0], {1}
     440:	06000002 	streq	r0, [r0], -r2
     444:	04935600 	ldreq	r5, [r3], #1536	; 0x600
     448:	30049357 	andcc	r9, r4, r7, asr r3
     44c:	5c000002 	stcpl	0, cr0, [r0], {2}
     450:	06000002 	streq	r0, [r0], -r2
     454:	04935600 	ldreq	r5, [r3], #1536	; 0x600
     458:	5c049357 	stcpl	3, cr9, [r4], {87}	; 0x57
     45c:	a0000002 	andge	r0, r0, r2
     460:	06000002 	streq	r0, [r0], -r2
     464:	04935000 	ldreq	r5, [r3], #0
     468:	00049351 	andeq	r9, r4, r1, asr r3
	...
     474:	08000000 	stmdaeq	r0, {}	; <UNPREDICTABLE>
     478:	02000000 	andeq	r0, r0, #0
     47c:	089f3000 	ldmeq	pc, {ip, sp}	; <UNPREDICTABLE>
     480:	18000000 	stmdane	r0, {}	; <UNPREDICTABLE>
     484:	01000000 	mrseq	r0, (UNDEF: 0)
     488:	00005300 	andeq	r5, r0, r0, lsl #6
	...
     494:	000f0000 	andeq	r0, pc, r0
     498:	00060000 	andeq	r0, r6, r0
     49c:	51049350 	tstpl	r4, r0, asr r3
     4a0:	000f0493 	muleq	pc, r3, r4	; <UNPREDICTABLE>
     4a4:	00680000 	rsbeq	r0, r8, r0
     4a8:	00060000 	andeq	r0, r6, r0
     4ac:	00f503f3 	ldrshteq	r0, [r5], #51	; 0x33
     4b0:	00009f25 	andeq	r9, r0, r5, lsr #30
	...
     4bc:	001c0000 	andseq	r0, ip, r0
     4c0:	00010000 	andeq	r0, r1, r0
     4c4:	00001c50 	andeq	r1, r0, r0, asr ip
     4c8:	00036800 	andeq	r6, r3, r0, lsl #16
     4cc:	5b000100 	blpl	8d4 <_start-0x772c>
	...
     4dc:	00000040 	andeq	r0, r0, r0, asr #32
     4e0:	40510001 	subsmi	r0, r1, r1
     4e4:	68000000 	stmdavs	r0, {}	; <UNPREDICTABLE>
     4e8:	02000003 	andeq	r0, r0, #3
     4ec:	00489100 	subeq	r9, r8, r0, lsl #2
	...
     4f8:	40000000 	andmi	r0, r0, r0
     4fc:	01000000 	mrseq	r0, (UNDEF: 0)
     500:	00405200 	subeq	r5, r0, r0, lsl #4
     504:	03680000 	cmneq	r8, #0
     508:	00010000 	andeq	r0, r1, r0
     50c:	0000005a 	andeq	r0, r0, sl, asr r0
	...
     518:	00004000 	andeq	r4, r0, r0
     51c:	53000100 	movwpl	r0, #256	; 0x100
     520:	00000040 	andeq	r0, r0, r0, asr #32
     524:	00000368 	andeq	r0, r0, r8, ror #6
     528:	4c910002 	ldcmi	0, cr0, [r1], {2}
	...
     534:	00000018 	andeq	r0, r0, r8, lsl r0
     538:	00000040 	andeq	r0, r0, r0, asr #32
     53c:	9f300002 	svcls	0x00300002
     540:	00000040 	andeq	r0, r0, r0, asr #32
     544:	000002e0 	andeq	r0, r0, r0, ror #5
     548:	e0580001 	subs	r0, r8, r1
     54c:	e4000002 	str	r0, [r0], #-2
     550:	03000002 	movweq	r0, #2
     554:	9f017800 	svcls	0x00017800
     558:	000002e4 	andeq	r0, r0, r4, ror #5
     55c:	000002eb 	andeq	r0, r0, fp, ror #5
     560:	eb500001 	bl	140056c <__bss_end__+0x13f3c0c>
     564:	f0000002 			; <UNDEFINED> instruction: 0xf0000002
     568:	03000002 	movweq	r0, #2
     56c:	9f017800 	svcls	0x00017800
     570:	000002f0 	strdeq	r0, [r0], -r0	; <UNPREDICTABLE>
     574:	000002f4 	strdeq	r0, [r0], -r4
     578:	f4510001 			; <UNDEFINED> instruction: 0xf4510001
     57c:	68000002 	stmdavs	r0, {r1}
     580:	01000003 	tsteq	r0, r3
     584:	00005800 	andeq	r5, r0, r0, lsl #16
     588:	00000000 	andeq	r0, r0, r0
     58c:	00180000 	andseq	r0, r8, r0
     590:	00400000 	subeq	r0, r0, r0
     594:	00020000 	andeq	r0, r2, r0
     598:	00409f30 	subeq	r9, r0, r0, lsr pc
     59c:	031c0000 	tsteq	ip, #0
     5a0:	00010000 	andeq	r0, r1, r0
     5a4:	00031c59 	andeq	r1, r3, r9, asr ip
     5a8:	00032000 	andeq	r2, r3, r0
     5ac:	79000300 	stmdbvc	r0, {r8, r9}
     5b0:	03209f01 	teqeq	r0, #1, 30
     5b4:	03270000 	teqeq	r7, #0
     5b8:	00010000 	andeq	r0, r1, r0
     5bc:	00032750 	andeq	r2, r3, r0, asr r7
     5c0:	00032c00 	andeq	r2, r3, r0, lsl #24
     5c4:	79000300 	stmdbvc	r0, {r8, r9}
     5c8:	032c9f01 	teqeq	ip, #1, 30
     5cc:	03300000 	teqeq	r0, #0
     5d0:	00010000 	andeq	r0, r1, r0
     5d4:	00033051 	andeq	r3, r3, r1, asr r0
     5d8:	00036800 	andeq	r6, r3, r0, lsl #16
     5dc:	59000100 	stmdbpl	r0, {r8}
	...
     5e8:	00000018 	andeq	r0, r0, r8, lsl r0
     5ec:	00000040 	andeq	r0, r0, r0, asr #32
     5f0:	9f300002 	svcls	0x00300002
     5f4:	00000040 	andeq	r0, r0, r0, asr #32
     5f8:	000002f0 	strdeq	r0, [r0], -r0	; <UNPREDICTABLE>
     5fc:	f0560001 			; <UNDEFINED> instruction: 0xf0560001
     600:	f4000002 	vst4.8	{d0-d3}, [r0], r2
     604:	02000002 	andeq	r0, r0, #2
     608:	f49f3000 			; <UNDEFINED> instruction: 0xf49f3000
     60c:	68000002 	stmdavs	r0, {r1}
     610:	01000003 	tsteq	r0, r3
     614:	00005600 	andeq	r5, r0, r0, lsl #12
     618:	00000000 	andeq	r0, r0, r0
     61c:	00180000 	andseq	r0, r8, r0
     620:	00400000 	subeq	r0, r0, r0
     624:	00020000 	andeq	r0, r2, r0
     628:	00409f30 	subeq	r9, r0, r0, lsr pc
     62c:	032c0000 	teqeq	ip, #0
     630:	00010000 	andeq	r0, r1, r0
     634:	00032c57 	andeq	r2, r3, r7, asr ip
     638:	00033000 	andeq	r3, r3, r0
     63c:	30000200 	andcc	r0, r0, r0, lsl #4
     640:	0003309f 	muleq	r3, pc, r0	; <UNPREDICTABLE>
     644:	00036800 	andeq	r6, r3, r0, lsl #16
     648:	57000100 	strpl	r0, [r0, -r0, lsl #2]
	...
     654:	00000018 	andeq	r0, r0, r8, lsl r0
     658:	00000040 	andeq	r0, r0, r0, asr #32
     65c:	9f300002 	svcls	0x00300002
     660:	00000040 	andeq	r0, r0, r0, asr #32
     664:	0000008c 	andeq	r0, r0, ip, lsl #1
     668:	90540001 	subsls	r0, r4, r1
     66c:	9c000000 	stcls	0, cr0, [r0], {-0}
     670:	01000000 	mrseq	r0, (UNDEF: 0)
     674:	00a05400 	adceq	r5, r0, r0, lsl #8
     678:	00ac0000 	adceq	r0, ip, r0
     67c:	00010000 	andeq	r0, r1, r0
     680:	0000b054 	andeq	fp, r0, r4, asr r0
     684:	0000bc00 	andeq	fp, r0, r0, lsl #24
     688:	54000100 	strpl	r0, [r0], #-256	; 0x100
     68c:	000000c0 	andeq	r0, r0, r0, asr #1
     690:	000000cc 	andeq	r0, r0, ip, asr #1
     694:	d0540001 	subsle	r0, r4, r1
     698:	68000000 	stmdavs	r0, {}	; <UNPREDICTABLE>
     69c:	01000003 	tsteq	r0, r3
     6a0:	00005400 	andeq	r5, r0, r0, lsl #8
     6a4:	00000000 	andeq	r0, r0, r0
     6a8:	00180000 	andseq	r0, r8, r0
     6ac:	00400000 	subeq	r0, r0, r0
     6b0:	00020000 	andeq	r0, r2, r0
     6b4:	00409f30 	subeq	r9, r0, r0, lsr pc
     6b8:	00880000 	addeq	r0, r8, r0
     6bc:	00020000 	andeq	r0, r2, r0
     6c0:	00904491 	umullseq	r4, r0, r1, r4
     6c4:	00980000 	addseq	r0, r8, r0
     6c8:	00020000 	andeq	r0, r2, r0
     6cc:	00a04491 	umlaleq	r4, r0, r1, r4
     6d0:	00a80000 	adceq	r0, r8, r0
     6d4:	00020000 	andeq	r0, r2, r0
     6d8:	00b04491 	umlalseq	r4, r0, r1, r4
     6dc:	00b80000 	adcseq	r0, r8, r0
     6e0:	00020000 	andeq	r0, r2, r0
     6e4:	00c04491 	smulleq	r4, r0, r1, r4
     6e8:	00c80000 	sbceq	r0, r8, r0
     6ec:	00020000 	andeq	r0, r2, r0
     6f0:	00d04491 	smullseq	r4, r0, r1, r4
     6f4:	00d80000 	sbcseq	r0, r8, r0
     6f8:	00020000 	andeq	r0, r2, r0
     6fc:	00dc4491 	smullseq	r4, ip, r1, r4
     700:	03680000 	cmneq	r8, #0
     704:	00020000 	andeq	r0, r2, r0
     708:	00004491 	muleq	r0, r1, r4
     70c:	00000000 	andeq	r0, r0, r0
     710:	00180000 	andseq	r0, r8, r0
     714:	00400000 	subeq	r0, r0, r0
     718:	00020000 	andeq	r0, r2, r0
     71c:	00409f30 	subeq	r9, r0, r0, lsr pc
     720:	03680000 	cmneq	r8, #0
     724:	00020000 	andeq	r0, r2, r0
     728:	0000007d 	andeq	r0, r0, sp, ror r0
     72c:	00000000 	andeq	r0, r0, r0
     730:	00180000 	andseq	r0, r8, r0
     734:	00400000 	subeq	r0, r0, r0
     738:	00020000 	andeq	r0, r2, r0
     73c:	00409f30 	subeq	r9, r0, r0, lsr pc
     740:	01680000 	cmneq	r8, r0
     744:	00020000 	andeq	r0, r2, r0
     748:	016c4091 			; <UNDEFINED> instruction: 0x016c4091
     74c:	01740000 	cmneq	r4, r0
     750:	00020000 	andeq	r0, r2, r0
     754:	01784091 			; <UNDEFINED> instruction: 0x01784091
     758:	01800000 	orreq	r0, r0, r0
     75c:	00020000 	andeq	r0, r2, r0
     760:	01844091 			; <UNDEFINED> instruction: 0x01844091
     764:	018c0000 	orreq	r0, ip, r0
     768:	00020000 	andeq	r0, r2, r0
     76c:	01904091 			; <UNDEFINED> instruction: 0x01904091
     770:	01980000 	orrseq	r0, r8, r0
     774:	00020000 	andeq	r0, r2, r0
     778:	019c4091 			; <UNDEFINED> instruction: 0x019c4091
     77c:	01a40000 			; <UNDEFINED> instruction: 0x01a40000
     780:	00020000 	andeq	r0, r2, r0
     784:	01a84091 			; <UNDEFINED> instruction: 0x01a84091
     788:	01b00000 	movseq	r0, r0
     78c:	00020000 	andeq	r0, r2, r0
     790:	01b44091 			; <UNDEFINED> instruction: 0x01b44091
     794:	01bc0000 			; <UNDEFINED> instruction: 0x01bc0000
     798:	00020000 	andeq	r0, r2, r0
     79c:	01c04091 			; <UNDEFINED> instruction: 0x01c04091
     7a0:	01c80000 	biceq	r0, r8, r0
     7a4:	00020000 	andeq	r0, r2, r0
     7a8:	01cc4091 			; <UNDEFINED> instruction: 0x01cc4091
     7ac:	03680000 	cmneq	r8, #0
     7b0:	00020000 	andeq	r0, r2, r0
     7b4:	00004091 	muleq	r0, r1, r0
     7b8:	00000000 	andeq	r0, r0, r0
     7bc:	00180000 	andseq	r0, r8, r0
     7c0:	00400000 	subeq	r0, r0, r0
     7c4:	00020000 	andeq	r0, r2, r0
     7c8:	00409f30 	subeq	r9, r0, r0, lsr pc
     7cc:	024c0000 	subeq	r0, ip, #0
     7d0:	00030000 	andeq	r0, r3, r0
     7d4:	507fbc91 			; <UNDEFINED> instruction: 0x507fbc91
     7d8:	58000002 	stmdapl	r0, {r1}
     7dc:	03000002 	movweq	r0, #2
     7e0:	7fbc9100 	svcvc	0x00bc9100
     7e4:	0000025c 	andeq	r0, r0, ip, asr r2
     7e8:	00000264 	andeq	r0, r0, r4, ror #4
     7ec:	bc910003 	ldclt	0, cr0, [r1], {3}
     7f0:	0002687f 	andeq	r6, r2, pc, ror r8
     7f4:	00027000 	andeq	r7, r2, r0
     7f8:	91000300 	mrsls	r0, LR_irq
     7fc:	02747fbc 	rsbseq	r7, r4, #188, 30	; 0x2f0
     800:	027c0000 	rsbseq	r0, ip, #0
     804:	00030000 	andeq	r0, r3, r0
     808:	807fbc91 			; <UNDEFINED> instruction: 0x807fbc91
     80c:	88000002 	stmdahi	r0, {r1}
     810:	03000002 	movweq	r0, #2
     814:	7fbc9100 	svcvc	0x00bc9100
     818:	0000028c 	andeq	r0, r0, ip, lsl #5
     81c:	00000294 	muleq	r0, r4, r2
     820:	bc910003 	ldclt	0, cr0, [r1], {3}
     824:	0002987f 	andeq	r9, r2, pc, ror r8
     828:	0002a000 	andeq	sl, r2, r0
     82c:	91000300 	mrsls	r0, LR_irq
     830:	02a47fbc 	adceq	r7, r4, #188, 30	; 0x2f0
     834:	02ac0000 	adceq	r0, ip, #0
     838:	00030000 	andeq	r0, r3, r0
     83c:	b07fbc91 			; <UNDEFINED> instruction: 0xb07fbc91
     840:	68000002 	stmdavs	r0, {r1}
     844:	03000003 	movweq	r0, #3
     848:	7fbc9100 	svcvc	0x00bc9100
	...
     854:	000002bc 			; <UNDEFINED> instruction: 0x000002bc
     858:	000002cc 	andeq	r0, r0, ip, asr #5
     85c:	9f300002 	svcls	0x00300002
     860:	000002cc 	andeq	r0, r0, ip, asr #5
     864:	00000368 	andeq	r0, r0, r8, ror #6
     868:	00550001 	subseq	r0, r5, r1
     86c:	00000000 	andeq	r0, r0, r0
     870:	50000000 	andpl	r0, r0, r0
     874:	84000000 	strhi	r0, [r0], #-0
     878:	01000000 	mrseq	r0, (UNDEF: 0)
     87c:	00905000 	addseq	r5, r0, r0
     880:	00b40000 	adcseq	r0, r4, r0
     884:	00010000 	andeq	r0, r1, r0
     888:	0000c050 	andeq	ip, r0, r0, asr r0
     88c:	0000dc00 	andeq	sp, r0, r0, lsl #24
     890:	50000100 	andpl	r0, r0, r0, lsl #2
	...
     89c:	00000100 	andeq	r0, r0, r0, lsl #2
     8a0:	00000170 	andeq	r0, r0, r0, ror r1
     8a4:	78500001 	ldmdavc	r0, {r0}^
     8a8:	94000001 	strls	r0, [r0], #-1
     8ac:	01000001 	tsteq	r0, r1
     8b0:	019c5000 	orrseq	r5, ip, r0
     8b4:	01b80000 			; <UNDEFINED> instruction: 0x01b80000
     8b8:	00010000 	andeq	r0, r1, r0
     8bc:	0001c050 	andeq	ip, r1, r0, asr r0
     8c0:	0001d400 	andeq	sp, r1, r0, lsl #8
     8c4:	50000100 	andpl	r0, r0, r0, lsl #2
	...
     8d0:	000001e4 	andeq	r0, r0, r4, ror #3
     8d4:	00000254 	andeq	r0, r0, r4, asr r2
     8d8:	5c500001 	mrrcpl	0, 0, r0, r0, cr1	; <UNPREDICTABLE>
     8dc:	78000002 	stmdavc	r0, {r1}
     8e0:	01000002 	tsteq	r0, r2
     8e4:	02805000 	addeq	r5, r0, #0
     8e8:	029c0000 	addseq	r0, ip, #0
     8ec:	00010000 	andeq	r0, r1, r0
     8f0:	0002a450 	andeq	sl, r2, r0, asr r4
     8f4:	0002b800 	andeq	fp, r2, r0, lsl #16
     8f8:	50000100 	andpl	r0, r0, r0, lsl #2
	...
     904:	00008be8 	andeq	r8, r0, r8, ror #23
     908:	00008c3c 	andeq	r8, r0, ip, lsr ip
     90c:	3c510001 	mrrccc	0, 0, r0, r1, cr1
     910:	4c00008c 	stcmi	0, cr0, [r0], {140}	; 0x8c
     914:	0400008c 	streq	r0, [r0], #-140	; 0x8c
     918:	5101f300 	mrspl	pc, SP_irq	; <UNPREDICTABLE>
     91c:	0000009f 	muleq	r0, pc, r0	; <UNPREDICTABLE>
     920:	00000000 	andeq	r0, r0, r0
     924:	008c2000 	addeq	r2, ip, r0
     928:	008c3800 	addeq	r3, ip, r0, lsl #16
     92c:	54000100 	strpl	r0, [r0], #-256	; 0x100
     930:	00008c38 	andeq	r8, r0, r8, lsr ip
     934:	00008c40 	andeq	r8, r0, r0, asr #24
     938:	40530001 	subsmi	r0, r3, r1
     93c:	4c00008c 	stcmi	0, cr0, [r0], {140}	; 0x8c
     940:	0100008c 	smlabbeq	r0, ip, r0, r0
     944:	00005200 	andeq	r5, r0, r0, lsl #4
     948:	00000000 	andeq	r0, r0, r0
     94c:	8c300000 	ldchi	0, cr0, [r0], #-0
     950:	8c400000 	marhi	acc0, r0, r0
     954:	00010000 	andeq	r0, r1, r0
     958:	008c4052 	addeq	r4, ip, r2, asr r0
     95c:	008c4c00 	addeq	r4, ip, r0, lsl #24
     960:	70002500 	andvc	r2, r0, r0, lsl #10
     964:	f7007000 			; <UNDEFINED> instruction: 0xf7007000
     968:	f423f72a 	vld1.8	{d15}, [r3 :128], sl
     96c:	cccd0823 	stclgt	8, cr0, [sp], {35}	; 0x23
     970:	0000cccc 	andeq	ip, r0, ip, asr #25
     974:	081e0000 	ldmdaeq	lr, {}	; <UNPREDICTABLE>
     978:	2523f720 	strcs	pc, [r3, #-1824]!	; 0x720
     97c:	25332af7 	ldrcs	r2, [r3, #-2807]!	; 0xaf7
     980:	24311e35 	ldrtcs	r1, [r1], #-3637	; 0xe35
     984:	9f1e331c 	svcls	0x001e331c
	...
     990:	00008c4c 	andeq	r8, r0, ip, asr #24
     994:	00008c90 	muleq	r0, r0, ip
     998:	90500001 	subsls	r0, r0, r1
     99c:	9800008c 	stmdals	r0, {r2, r3, r7}
     9a0:	0400008c 	streq	r0, [r0], #-140	; 0x8c
     9a4:	5001f300 	andpl	pc, r1, r0, lsl #6
     9a8:	008c989f 	umulleq	r9, ip, pc, r8	; <UNPREDICTABLE>
     9ac:	008c9c00 	addeq	r9, ip, r0, lsl #24
     9b0:	50000100 	andpl	r0, r0, r0, lsl #2
     9b4:	00008c9c 	muleq	r0, ip, ip
     9b8:	00008ca4 	andeq	r8, r0, r4, lsr #25
     9bc:	01f30004 	mvnseq	r0, r4
     9c0:	00009f50 	andeq	r9, r0, r0, asr pc
     9c4:	00000000 	andeq	r0, r0, r0
     9c8:	8c780000 	ldclhi	0, cr0, [r8], #-0
     9cc:	8c880000 	stchi	0, cr0, [r8], {0}
     9d0:	00010000 	andeq	r0, r1, r0
     9d4:	008c8852 	addeq	r8, ip, r2, asr r8
     9d8:	008c9000 	addeq	r9, ip, r0
     9dc:	70002300 	andvc	r2, r0, r0, lsl #6
     9e0:	f72af700 			; <UNDEFINED> instruction: 0xf72af700
     9e4:	0823f423 	stmdaeq	r3!, {r0, r1, r5, sl, ip, sp, lr, pc}
     9e8:	cccccccd 	stclgt	12, cr12, [ip], {205}	; 0xcd
     9ec:	00000000 	andeq	r0, r0, r0
     9f0:	f720081e 			; <UNDEFINED> instruction: 0xf720081e
     9f4:	2af72523 	bcs	ffdc9e88 <__bss_end__+0xffdbd528>
     9f8:	80232533 	eorhi	r2, r3, r3, lsr r5
     9fc:	3240a080 	subcc	sl, r0, #128	; 0x80
     a00:	8c909f24 	ldchi	15, cr9, [r0], {36}	; 0x24
     a04:	8c980000 	ldchi	0, cr0, [r8], {0}
     a08:	00240000 	eoreq	r0, r4, r0
     a0c:	f75001f3 			; <UNDEFINED> instruction: 0xf75001f3
     a10:	f423f72a 	vld1.8	{d15}, [r3 :128], sl
     a14:	cccd0823 	stclgt	8, cr0, [sp], {35}	; 0x23
     a18:	0000cccc 	andeq	ip, r0, ip, asr #25
     a1c:	081e0000 	ldmdaeq	lr, {}	; <UNPREDICTABLE>
     a20:	2523f720 	strcs	pc, [r3, #-1824]!	; 0x720
     a24:	25332af7 	ldrcs	r2, [r3, #-2807]!	; 0xaf7
     a28:	a0808023 	addge	r8, r0, r3, lsr #32
     a2c:	9f243240 	svcls	0x00243240
	...
     a38:	00008c7c 	andeq	r8, r0, ip, ror ip
     a3c:	00008c98 	muleq	r0, r8, ip
     a40:	00510001 	subseq	r0, r1, r1
     a44:	00000000 	andeq	r0, r0, r0
     a48:	8c000000 	stchi	0, cr0, [r0], {-0}
     a4c:	9800008c 	stmdals	r0, {r2, r3, r7}
     a50:	0100008c 	smlabbeq	r0, ip, r0, r0
     a54:	00005200 	andeq	r5, r0, r0, lsl #4
     a58:	00000000 	andeq	r0, r0, r0
     a5c:	8ca40000 	stchi	0, cr0, [r4]
     a60:	8cb70000 	ldchi	0, cr0, [r7]
     a64:	00010000 	andeq	r0, r1, r0
     a68:	008cb750 	addeq	fp, ip, r0, asr r7
     a6c:	008cbc00 	addeq	fp, ip, r0, lsl #24
     a70:	f3000400 	vshl.u8	d0, d0, d0
     a74:	009f5001 	addseq	r5, pc, r1
     a78:	00000000 	andeq	r0, r0, r0
     a7c:	bc000000 	stclt	0, cr0, [r0], {-0}
     a80:	cf00008c 	svcgt	0x0000008c
     a84:	0100008c 	smlabbeq	r0, ip, r0, r0
     a88:	8ccf5000 	stclhi	0, cr5, [pc], {0}
     a8c:	8cd40000 	ldclhi	0, cr0, [r4], {0}
     a90:	00040000 	andeq	r0, r4, r0
     a94:	9f5001f3 	svcls	0x005001f3
	...
     aa0:	00008cd4 	ldrdeq	r8, [r0], -r4
     aa4:	00008cfc 	strdeq	r8, [r0], -ip
     aa8:	fc500001 	mrrc2	0, 0, r0, r0, cr1	; <UNPREDICTABLE>
     aac:	1000008c 	andne	r0, r0, ip, lsl #1
     ab0:	0400008d 	streq	r0, [r0], #-141	; 0x8d
     ab4:	5001f300 	andpl	pc, r1, r0, lsl #6
     ab8:	008d109f 	umulleq	r1, sp, pc, r0	; <UNPREDICTABLE>
     abc:	008d1800 	addeq	r1, sp, r0, lsl #16
     ac0:	50000100 	andpl	r0, r0, r0, lsl #2
     ac4:	00008d18 	andeq	r8, r0, r8, lsl sp
     ac8:	00008d34 	andeq	r8, r0, r4, lsr sp
     acc:	01f30004 	mvnseq	r0, r4
     ad0:	00009f50 	andeq	r9, r0, r0, asr pc
     ad4:	00000000 	andeq	r0, r0, r0
     ad8:	8cec0000 	stclhi	0, cr0, [ip]
     adc:	8d080000 	stchi	0, cr0, [r8, #-0]
     ae0:	00010000 	andeq	r0, r1, r0
     ae4:	008d0853 	addeq	r0, sp, r3, asr r8
     ae8:	008d1000 	addeq	r1, sp, r0
     aec:	f3000600 	vmax.u8	d0, d0, d0
     af0:	1a4f5001 	bne	13d4afc <__bss_end__+0x13c819c>
     af4:	008d109f 	umulleq	r1, sp, pc, r0	; <UNPREDICTABLE>
     af8:	008d2400 	addeq	r2, sp, r0, lsl #8
     afc:	53000100 	movwpl	r0, #256	; 0x100
     b00:	00008d24 	andeq	r8, r0, r4, lsr #26
     b04:	00008d34 	andeq	r8, r0, r4, lsr sp
     b08:	01f30006 	mvnseq	r0, r6
     b0c:	9f1a4f50 	svcls	0x001a4f50
	...
     b18:	00008d00 	andeq	r8, r0, r0, lsl #26
     b1c:	00008d10 	andeq	r8, r0, r0, lsl sp
     b20:	00500001 	subseq	r0, r0, r1
     b24:	00000000 	andeq	r0, r0, r0
     b28:	34000000 	strcc	r0, [r0], #-0
     b2c:	5c00008d 	stcpl	0, cr0, [r0], {141}	; 0x8d
     b30:	0100008d 	smlabbeq	r0, sp, r0, r0
     b34:	8d5c5000 	ldclhi	0, cr5, [ip, #-0]
     b38:	8d700000 	ldclhi	0, cr0, [r0, #-0]
     b3c:	00040000 	andeq	r0, r4, r0
     b40:	9f5001f3 	svcls	0x005001f3
     b44:	00008d70 	andeq	r8, r0, r0, ror sp
     b48:	00008d74 	andeq	r8, r0, r4, ror sp
     b4c:	74500001 	ldrbvc	r0, [r0], #-1
     b50:	7c00008d 	stcvc	0, cr0, [r0], {141}	; 0x8d
     b54:	0400008d 	streq	r0, [r0], #-141	; 0x8d
     b58:	5001f300 	andpl	pc, r1, r0, lsl #6
     b5c:	0000009f 	muleq	r0, pc, r0	; <UNPREDICTABLE>
     b60:	00000000 	andeq	r0, r0, r0
     b64:	008d5400 	addeq	r5, sp, r0, lsl #8
     b68:	008d5800 	addeq	r5, sp, r0, lsl #16
     b6c:	53000100 	movwpl	r0, #256	; 0x100
     b70:	00008d58 	andeq	r8, r0, r8, asr sp
     b74:	00008d5c 	andeq	r8, r0, ip, asr sp
     b78:	0070000c 	rsbseq	r0, r0, ip
     b7c:	8d232535 	cfstr32hi	mvfx2, [r3, #-212]!	; 0xffffff2c
     b80:	3240a080 	subcc	sl, r0, #128	; 0x80
     b84:	8d5c9f24 	ldclhi	15, cr9, [ip, #-144]	; 0xffffff70
     b88:	8d700000 	ldclhi	0, cr0, [r0, #-0]
     b8c:	000d0000 	andeq	r0, sp, r0
     b90:	355001f3 	ldrbcc	r0, [r0, #-499]	; 0x1f3
     b94:	808d2325 	addhi	r2, sp, r5, lsr #6
     b98:	243240a0 	ldrtcs	r4, [r2], #-160	; 0xa0
     b9c:	0000009f 	muleq	r0, pc, r0	; <UNPREDICTABLE>
     ba0:	00000000 	andeq	r0, r0, r0
     ba4:	008d5800 	addeq	r5, sp, r0, lsl #16
     ba8:	008d7000 	addeq	r7, sp, r0
     bac:	53000100 	movwpl	r0, #256	; 0x100
	...
     bb8:	00008d5c 	andeq	r8, r0, ip, asr sp
     bbc:	00008d6c 	andeq	r8, r0, ip, ror #26
     bc0:	6c500001 	mrrcvs	0, 0, r0, r0, cr1	; <UNPREDICTABLE>
     bc4:	7000008d 	andvc	r0, r0, sp, lsl #1
     bc8:	0600008d 	streq	r0, [r0], -sp, lsl #1
     bcc:	5001f300 	andpl	pc, r1, r0, lsl #6
     bd0:	009f1a4f 	addseq	r1, pc, pc, asr #20
     bd4:	00000000 	andeq	r0, r0, r0
     bd8:	90000000 	andls	r0, r0, r0
     bdc:	b000008d 	andlt	r0, r0, sp, lsl #1
     be0:	0100008d 	smlabbeq	r0, sp, r0, r0
     be4:	8db45000 	ldchi	0, cr5, [r4]
     be8:	8dc80000 	stclhi	0, cr0, [r8]
     bec:	00010000 	andeq	r0, r1, r0
     bf0:	00000050 	andeq	r0, r0, r0, asr r0
     bf4:	00000000 	andeq	r0, r0, r0
     bf8:	008d9c00 	addeq	r9, sp, r0, lsl #24
     bfc:	008da800 	addeq	sl, sp, r0, lsl #16
     c00:	30000200 	andcc	r0, r0, r0, lsl #4
     c04:	008da89f 	umulleq	sl, sp, pc, r8	; <UNPREDICTABLE>
     c08:	008dc800 	addeq	ip, sp, r0, lsl #16
     c0c:	53000100 	movwpl	r0, #256	; 0x100
	...
     c18:	00008dc8 	andeq	r8, r0, r8, asr #27
     c1c:	00008e0c 	andeq	r8, r0, ip, lsl #28
     c20:	0c500001 	mrrceq	0, 0, r0, r0, cr1	; <UNPREDICTABLE>
     c24:	9000008e 	andls	r0, r0, lr, lsl #1
     c28:	0100008e 	smlabbeq	r0, lr, r0, r0
     c2c:	00005500 	andeq	r5, r0, r0, lsl #10
     c30:	00000000 	andeq	r0, r0, r0
     c34:	8dc80000 	stclhi	0, cr0, [r8]
     c38:	8e840000 	cdphi	0, 8, cr0, cr4, cr0, {0}
     c3c:	00010000 	andeq	r0, r1, r0
     c40:	008e8451 	addeq	r8, lr, r1, asr r4
     c44:	008e9000 	addeq	r9, lr, r0
     c48:	74000300 	strvc	r0, [r0], #-768	; 0x300
     c4c:	00009f01 	andeq	r9, r0, r1, lsl #30
     c50:	00000000 	andeq	r0, r0, r0
     c54:	8dc80000 	stclhi	0, cr0, [r8]
     c58:	8e000000 	cdphi	0, 0, cr0, cr0, cr0, {0}
     c5c:	00010000 	andeq	r0, r1, r0
     c60:	008e0053 	addeq	r0, lr, r3, asr r0
     c64:	008e9000 	addeq	r9, lr, r0
     c68:	f3000400 	vshl.u8	d0, d0, d0
     c6c:	009f5301 	addseq	r5, pc, r1, lsl #6
     c70:	00000000 	andeq	r0, r0, r0
     c74:	d8000000 	stmdale	r0, {}	; <UNPREDICTABLE>
     c78:	e400008d 	str	r0, [r0], #-141	; 0x8d
     c7c:	0200008d 	andeq	r0, r0, #141	; 0x8d
     c80:	e49f3000 	ldr	r3, [pc], #0	; c88 <_start-0x7378>
     c84:	9000008d 	andls	r0, r0, sp, lsl #1
     c88:	0100008e 	smlabbeq	r0, lr, r0, r0
     c8c:	00005c00 	andeq	r5, r0, r0, lsl #24
     c90:	00000000 	andeq	r0, r0, r0
     c94:	8dfc0000 	ldclhi	0, cr0, [ip]
     c98:	8e000000 	cdphi	0, 0, cr0, cr0, cr0, {0}
     c9c:	00060000 	andeq	r0, r6, r0
     ca0:	007c0073 	rsbseq	r0, ip, r3, ror r0
     ca4:	8e009f1c 	mcrhi	15, 0, r9, cr0, cr12, {0}
     ca8:	8e340000 	cdphi	0, 3, cr0, cr4, cr0, {0}
     cac:	00010000 	andeq	r0, r1, r0
     cb0:	00000053 	andeq	r0, r0, r3, asr r0
     cb4:	00000000 	andeq	r0, r0, r0
     cb8:	008e0400 	addeq	r0, lr, r0, lsl #8
     cbc:	008e1800 	addeq	r1, lr, r0, lsl #16
     cc0:	30000200 	andcc	r0, r0, r0, lsl #4
     cc4:	008e189f 	umulleq	r1, lr, pc, r8	; <UNPREDICTABLE>
     cc8:	008e9000 	addeq	r9, lr, r0
     ccc:	50000100 	andpl	r0, r0, r0, lsl #2
	...
     cd8:	00008dd8 	ldrdeq	r8, [r0], -r8	; <UNPREDICTABLE>
     cdc:	00008de4 	andeq	r8, r0, r4, ror #27
     ce0:	e4520001 	ldrb	r0, [r2], #-1
     ce4:	0800008d 	stmdaeq	r0, {r0, r2, r3, r7}
     ce8:	0100008e 	smlabbeq	r0, lr, r0, r0
     cec:	00005400 	andeq	r5, r0, r0, lsl #8
     cf0:	00000000 	andeq	r0, r0, r0
     cf4:	8e040000 	cdphi	0, 0, cr0, cr4, cr0, {0}
     cf8:	8e180000 	cdphi	0, 1, cr0, cr8, cr0, {0}
     cfc:	00020000 	andeq	r0, r2, r0
     d00:	8e189f30 	mrchi	15, 0, r9, cr8, cr0, {1}
     d04:	8e380000 	cdphi	0, 3, cr0, cr8, cr0, {0}
     d08:	00010000 	andeq	r0, r1, r0
     d0c:	00000054 	andeq	r0, r0, r4, asr r0
     d10:	00000000 	andeq	r0, r0, r0
     d14:	008e4000 	addeq	r4, lr, r0
     d18:	008e7800 	addeq	r7, lr, r0, lsl #16
     d1c:	53000100 	movwpl	r0, #256	; 0x100
     d20:	00008e80 	andeq	r8, r0, r0, lsl #29
     d24:	00008e88 	andeq	r8, r0, r8, lsl #29
     d28:	00530001 	subseq	r0, r3, r1
     d2c:	00000000 	andeq	r0, r0, r0
     d30:	90000000 	andls	r0, r0, r0
     d34:	d400008e 	strle	r0, [r0], #-142	; 0x8e
     d38:	0100008e 	smlabbeq	r0, lr, r0, r0
     d3c:	8ed45000 	cdphi	0, 13, cr5, cr4, cr0, {0}
     d40:	8f680000 	svchi	0x00680000
     d44:	00010000 	andeq	r0, r1, r0
     d48:	00000055 	andeq	r0, r0, r5, asr r0
     d4c:	00000000 	andeq	r0, r0, r0
     d50:	008e9000 	addeq	r9, lr, r0
     d54:	008f5c00 	addeq	r5, pc, r0, lsl #24
     d58:	51000100 	mrspl	r0, (UNDEF: 16)
     d5c:	00008f5c 	andeq	r8, r0, ip, asr pc
     d60:	00008f68 	andeq	r8, r0, r8, ror #30
     d64:	01760003 	cmneq	r6, r3
     d68:	0000009f 	muleq	r0, pc, r0	; <UNPREDICTABLE>
     d6c:	00000000 	andeq	r0, r0, r0
     d70:	008e9000 	addeq	r9, lr, r0
     d74:	008ec800 	addeq	ip, lr, r0, lsl #16
     d78:	53000100 	movwpl	r0, #256	; 0x100
     d7c:	00008ec8 	andeq	r8, r0, r8, asr #29
     d80:	00008f68 	andeq	r8, r0, r8, ror #30
     d84:	01f30004 	mvnseq	r0, r4
     d88:	00009f53 	andeq	r9, r0, r3, asr pc
     d8c:	00000000 	andeq	r0, r0, r0
     d90:	8ea00000 	cdphi	0, 10, cr0, cr0, cr0, {0}
     d94:	8eac0000 	cdphi	0, 10, cr0, cr12, cr0, {0}
     d98:	00020000 	andeq	r0, r2, r0
     d9c:	8eac9f30 	mcrhi	15, 5, r9, cr12, cr0, {1}
     da0:	8f680000 	svchi	0x00680000
     da4:	00010000 	andeq	r0, r1, r0
     da8:	0000005c 	andeq	r0, r0, ip, asr r0
     dac:	00000000 	andeq	r0, r0, r0
     db0:	008ec400 	addeq	ip, lr, r0, lsl #8
     db4:	008ec800 	addeq	ip, lr, r0, lsl #16
     db8:	73000600 	movwvc	r0, #1536	; 0x600
     dbc:	1c007c00 	stcne	12, cr7, [r0], {-0}
     dc0:	008ec89f 	umulleq	ip, lr, pc, r8	; <UNPREDICTABLE>
     dc4:	008efc00 	addeq	pc, lr, r0, lsl #24
     dc8:	53000100 	movwpl	r0, #256	; 0x100
	...
     dd4:	00008ecc 	andeq	r8, r0, ip, asr #29
     dd8:	00008ee0 	andeq	r8, r0, r0, ror #29
     ddc:	9f300002 	svcls	0x00300002
     de0:	00008ee0 	andeq	r8, r0, r0, ror #29
     de4:	00008f68 	andeq	r8, r0, r8, ror #30
     de8:	00500001 	subseq	r0, r0, r1
     dec:	00000000 	andeq	r0, r0, r0
     df0:	a0000000 	andge	r0, r0, r0
     df4:	ac00008e 	stcge	0, cr0, [r0], {142}	; 0x8e
     df8:	0100008e 	smlabbeq	r0, lr, r0, r0
     dfc:	8eac5200 	cdphi	2, 10, cr5, cr12, cr0, {0}
     e00:	8ed00000 	cdphi	0, 13, cr0, cr0, cr0, {0}
     e04:	00010000 	andeq	r0, r1, r0
     e08:	00000054 	andeq	r0, r0, r4, asr r0
     e0c:	00000000 	andeq	r0, r0, r0
     e10:	008ecc00 	addeq	ip, lr, r0, lsl #24
     e14:	008ee000 	addeq	lr, lr, r0
     e18:	30000200 	andcc	r0, r0, r0, lsl #4
     e1c:	008ee09f 	umulleq	lr, lr, pc, r0	; <UNPREDICTABLE>
     e20:	008f0800 	addeq	r0, pc, r0, lsl #16
     e24:	54000100 	strpl	r0, [r0], #-256	; 0x100
	...
     e30:	00008f08 	andeq	r8, r0, r8, lsl #30
     e34:	00008f50 	andeq	r8, r0, r0, asr pc
     e38:	58530001 	ldmdapl	r3, {r0}^
     e3c:	6000008f 	andvs	r0, r0, pc, lsl #1
     e40:	0100008f 	smlabbeq	r0, pc, r0, r0	; <UNPREDICTABLE>
     e44:	00005300 	andeq	r5, r0, r0, lsl #6
     e48:	00000000 	andeq	r0, r0, r0
     e4c:	8f200000 	svchi	0x00200000
     e50:	8f280000 	svchi	0x00280000
     e54:	00010000 	andeq	r0, r1, r0
     e58:	008f2854 	addeq	r2, pc, r4, asr r8	; <UNPREDICTABLE>
     e5c:	008f2c00 	addeq	r2, pc, r0, lsl #24
     e60:	74000300 	strvc	r0, [r0], #-768	; 0x300
     e64:	8f2c9f50 	svchi	0x002c9f50
     e68:	8f300000 	svchi	0x00300000
     e6c:	00010000 	andeq	r0, r1, r0
     e70:	008f3054 	addeq	r3, pc, r4, asr r0	; <UNPREDICTABLE>
     e74:	008f3400 	addeq	r3, pc, r0, lsl #8
     e78:	74000400 	strvc	r0, [r0], #-1024	; 0x400
     e7c:	009f7fa9 	addseq	r7, pc, r9, lsr #31
     e80:	00000000 	andeq	r0, r0, r0
     e84:	68000000 	stmdavs	r0, {}	; <UNPREDICTABLE>
     e88:	9c00008f 	stcls	0, cr0, [r0], {143}	; 0x8f
     e8c:	0100008f 	smlabbeq	r0, pc, r0, r0	; <UNPREDICTABLE>
     e90:	8f9c5000 	svchi	0x009c5000
     e94:	90b00000 	adcsls	r0, r0, r0
     e98:	00010000 	andeq	r0, r1, r0
     e9c:	0090b057 	addseq	fp, r0, r7, asr r0
     ea0:	0090b400 	addseq	fp, r0, r0, lsl #8
     ea4:	f3000400 	vshl.u8	d0, d0, d0
     ea8:	009f5001 	addseq	r5, pc, r1
     eac:	00000000 	andeq	r0, r0, r0
     eb0:	68000000 	stmdavs	r0, {}	; <UNPREDICTABLE>
     eb4:	9400008f 	strls	r0, [r0], #-143	; 0x8f
     eb8:	0100008f 	smlabbeq	r0, pc, r0, r0	; <UNPREDICTABLE>
     ebc:	8f945100 	svchi	0x00945100
     ec0:	90b00000 	adcsls	r0, r0, r0
     ec4:	00020000 	andeq	r0, r2, r0
     ec8:	90b0507b 	adcsls	r5, r0, fp, ror r0
     ecc:	90b40000 	adcsls	r0, r4, r0
     ed0:	00020000 	andeq	r0, r2, r0
     ed4:	00004c91 	muleq	r0, r1, ip
     ed8:	00000000 	andeq	r0, r0, r0
     edc:	8f680000 	svchi	0x00680000
     ee0:	8f8c0000 	svchi	0x008c0000
     ee4:	00010000 	andeq	r0, r1, r0
     ee8:	008f8c52 	addeq	r8, pc, r2, asr ip	; <UNPREDICTABLE>
     eec:	0090b000 	addseq	fp, r0, r0
     ef0:	59000100 	stmdbpl	r0, {r8}
	...
     efc:	00008f68 	andeq	r8, r0, r8, ror #30
     f00:	00008fc0 	andeq	r8, r0, r0, asr #31
     f04:	c0530001 	subsgt	r0, r3, r1
     f08:	b400008f 	strlt	r0, [r0], #-143	; 0x8f
     f0c:	04000090 	streq	r0, [r0], #-144	; 0x90
     f10:	5301f300 	movwpl	pc, #4864	; 0x1300	; <UNPREDICTABLE>
     f14:	0000009f 	muleq	r0, pc, r0	; <UNPREDICTABLE>
     f18:	00000000 	andeq	r0, r0, r0
     f1c:	008f8400 	addeq	r8, pc, r0, lsl #8
     f20:	008f9000 	addeq	r9, pc, r0
     f24:	72000500 	andvc	r0, r0, #0, 10
     f28:	9f254f00 	svcls	0x00254f00
     f2c:	00008f90 	muleq	r0, r0, pc	; <UNPREDICTABLE>
     f30:	000090b4 	strheq	r9, [r0], -r4
     f34:	01f30006 	mvnseq	r0, r6
     f38:	9f254f52 	svcls	0x00254f52
	...
     f44:	00008f8c 	andeq	r8, r0, ip, lsl #31
     f48:	00008f9c 	muleq	r0, ip, pc	; <UNPREDICTABLE>
     f4c:	9c560001 	mrrcls	0, 0, r0, r6, cr1
     f50:	2800008f 	stmdacs	r0, {r0, r1, r2, r3, r7}
     f54:	01000090 	swpeq	r0, r0, [r0]	; <UNPREDICTABLE>
     f58:	90285100 	eorls	r5, r8, r0, lsl #2
     f5c:	90b00000 	adcsls	r0, r0, r0
     f60:	00010000 	andeq	r0, r1, r0
     f64:	00000056 	andeq	r0, r0, r6, asr r0
     f68:	00000000 	andeq	r0, r0, r0
     f6c:	008fbc00 	addeq	fp, pc, r0, lsl #24
     f70:	008fc000 	addeq	ip, pc, r0
     f74:	73000600 	movwvc	r0, #1536	; 0x600
     f78:	1c007100 	stfnes	f7, [r0], {-0}
     f7c:	008fc09f 	umulleq	ip, pc, pc, r0	; <UNPREDICTABLE>
     f80:	00903c00 	addseq	r3, r0, r0, lsl #24
     f84:	53000100 	movwpl	r0, #256	; 0x100
	...
     f90:	00008fc4 	andeq	r8, r0, r4, asr #31
     f94:	0000900c 	andeq	r9, r0, ip
     f98:	9f300002 	svcls	0x00300002
     f9c:	0000900c 	andeq	r9, r0, ip
     fa0:	000090b0 	strheq	r9, [r0], -r0
     fa4:	b0540001 	subslt	r0, r4, r1
     fa8:	b4000090 	strlt	r0, [r0], #-144	; 0x90
     fac:	01000090 	swpeq	r0, r0, [r0]	; <UNPREDICTABLE>
     fb0:	00005000 	andeq	r5, r0, r0
     fb4:	00000000 	andeq	r0, r0, r0
     fb8:	8f8c0000 	svchi	0x008c0000
     fbc:	8f9c0000 	svchi	0x009c0000
     fc0:	00010000 	andeq	r0, r1, r0
     fc4:	008f9c59 	addeq	r9, pc, r9, asr ip	; <UNPREDICTABLE>
     fc8:	008fa800 	addeq	sl, pc, r0, lsl #16
     fcc:	52000100 	andpl	r0, r0, #0, 2
     fd0:	00008fac 	andeq	r8, r0, ip, lsr #31
     fd4:	00008fd4 	ldrdeq	r8, [r0], -r4
     fd8:	ec520001 	mrrc	0, 0, r0, r2, cr1
     fdc:	f400008f 	vst4.32	{d0-d3}, [r0]
     fe0:	0100008f 	smlabbeq	r0, pc, r0, r0	; <UNPREDICTABLE>
     fe4:	00005200 	andeq	r5, r0, r0, lsl #4
     fe8:	00000000 	andeq	r0, r0, r0
     fec:	900c0000 	andls	r0, ip, r0
     ff0:	903c0000 	eorsls	r0, ip, r0
     ff4:	00010000 	andeq	r0, r1, r0
     ff8:	00000052 	andeq	r0, r0, r2, asr r0
     ffc:	00000000 	andeq	r0, r0, r0
    1000:	00902800 	addseq	r2, r0, r0, lsl #16
    1004:	00903c00 	addseq	r3, r0, r0, lsl #24
    1008:	30000200 	andcc	r0, r0, r0, lsl #4
    100c:	00903c9f 	umullseq	r3, r0, pc, ip	; <UNPREDICTABLE>
    1010:	0090b000 	addseq	fp, r0, r0
    1014:	55000100 	strpl	r0, [r0, #-256]	; 0x100
	...
    1020:	000090b4 	strheq	r9, [r0], -r4
    1024:	000090e0 	andeq	r9, r0, r0, ror #1
    1028:	e0500001 	subs	r0, r0, r1
    102c:	e8000090 	stmda	r0, {r4, r7}
    1030:	01000090 	swpeq	r0, r0, [r0]	; <UNPREDICTABLE>
    1034:	90e85700 	rscls	r5, r8, r0, lsl #14
    1038:	91040000 	mrsls	r0, (UNDEF: 4)
    103c:	00010000 	andeq	r0, r1, r0
    1040:	00910450 	addseq	r0, r1, r0, asr r4
    1044:	00928c00 	addseq	r8, r2, r0, lsl #24
    1048:	57000100 	strpl	r0, [r0, -r0, lsl #2]
    104c:	0000928c 	andeq	r9, r0, ip, lsl #5
    1050:	00009290 	muleq	r0, r0, r2
    1054:	90500001 	subsls	r0, r0, r1
    1058:	94000092 	strls	r0, [r0], #-146	; 0x92
    105c:	01000092 	swpeq	r0, r2, [r0]	; <UNPREDICTABLE>
    1060:	00005700 	andeq	r5, r0, r0, lsl #14
    1064:	00000000 	andeq	r0, r0, r0
    1068:	90b40000 	adcsls	r0, r4, r0
    106c:	91040000 	mrsls	r0, (UNDEF: 4)
    1070:	00010000 	andeq	r0, r1, r0
    1074:	00910451 	addseq	r0, r1, r1, asr r4
    1078:	00928c00 	addseq	r8, r2, r0, lsl #24
    107c:	58000100 	stmdapl	r0, {r8}
    1080:	0000928c 	andeq	r9, r0, ip, lsl #5
    1084:	00009294 	muleq	r0, r4, r2
    1088:	00510001 	subseq	r0, r1, r1
    108c:	00000000 	andeq	r0, r0, r0
    1090:	b4000000 	strlt	r0, [r0], #-0
    1094:	04000090 	streq	r0, [r0], #-144	; 0x90
    1098:	01000091 	swpeq	r0, r1, [r0]	; <UNPREDICTABLE>
    109c:	91045200 	mrsls	r5, R12_usr
    10a0:	928c0000 	addls	r0, ip, #0
    10a4:	00040000 	andeq	r0, r4, r0
    10a8:	9f5201f3 	svcls	0x005201f3
    10ac:	0000928c 	andeq	r9, r0, ip, lsl #5
    10b0:	00009294 	muleq	r0, r4, r2
    10b4:	00520001 	subseq	r0, r2, r1
    10b8:	00000000 	andeq	r0, r0, r0
    10bc:	b4000000 	strlt	r0, [r0], #-0
    10c0:	f0000090 			; <UNDEFINED> instruction: 0xf0000090
    10c4:	01000090 	swpeq	r0, r0, [r0]	; <UNPREDICTABLE>
    10c8:	90f45300 	rscsls	r5, r4, r0, lsl #6
    10cc:	91040000 	mrsls	r0, (UNDEF: 4)
    10d0:	00010000 	andeq	r0, r1, r0
    10d4:	00927453 	addseq	r7, r2, r3, asr r4
    10d8:	00927c00 	addseq	r7, r2, r0, lsl #24
    10dc:	53000100 	movwpl	r0, #256	; 0x100
    10e0:	0000928c 	andeq	r9, r0, ip, lsl #5
    10e4:	00009294 	muleq	r0, r4, r2
    10e8:	00530001 	subseq	r0, r3, r1
    10ec:	00000000 	andeq	r0, r0, r0
    10f0:	cc000000 	stcgt	0, cr0, [r0], {-0}
    10f4:	04000090 	streq	r0, [r0], #-144	; 0x90
    10f8:	02000091 	andeq	r0, r0, #145	; 0x91
    10fc:	049f3000 	ldreq	r3, [pc], #0	; 1104 <_start-0x6efc>
    1100:	8c000091 	stchi	0, cr0, [r0], {145}	; 0x91
    1104:	01000092 	swpeq	r0, r2, [r0]	; <UNPREDICTABLE>
    1108:	928c5400 	addls	r5, ip, #0, 8
    110c:	92940000 	addsls	r0, r4, #0
    1110:	00020000 	andeq	r0, r2, r0
    1114:	00009f30 	andeq	r9, r0, r0, lsr pc
    1118:	00000000 	andeq	r0, r0, r0
    111c:	90cc0000 	sbcls	r0, ip, r0
    1120:	91040000 	mrsls	r0, (UNDEF: 4)
    1124:	00010000 	andeq	r0, r1, r0
    1128:	00910452 	addseq	r0, r1, r2, asr r4
    112c:	00912c00 	addseq	r2, r1, r0, lsl #24
    1130:	51000100 	mrspl	r0, (UNDEF: 16)
    1134:	0000912c 	andeq	r9, r0, ip, lsr #2
    1138:	00009164 	andeq	r9, r0, r4, ror #2
    113c:	64550001 	ldrbvs	r0, [r5], #-1
    1140:	90000091 	mulls	r0, r1, r0
    1144:	01000091 	swpeq	r0, r1, [r0]	; <UNPREDICTABLE>
    1148:	91905200 	orrsls	r5, r0, r0, lsl #4
    114c:	91980000 	orrsls	r0, r8, r0
    1150:	00010000 	andeq	r0, r1, r0
    1154:	00919855 	addseq	r9, r1, r5, asr r8
    1158:	00919c00 	addseq	r9, r1, r0, lsl #24
    115c:	52000100 	andpl	r0, r0, #0, 2
    1160:	0000919c 	muleq	r0, ip, r1
    1164:	00009274 	andeq	r9, r0, r4, ror r2
    1168:	74550001 	ldrbvc	r0, [r5], #-1
    116c:	78000092 	stmdavc	r0, {r1, r4, r7}
    1170:	01000092 	swpeq	r0, r2, [r0]	; <UNPREDICTABLE>
    1174:	92785200 	rsbsls	r5, r8, #0, 4
    1178:	928c0000 	addls	r0, ip, #0
    117c:	00010000 	andeq	r0, r1, r0
    1180:	00928c51 	addseq	r8, r2, r1, asr ip
    1184:	00929400 	addseq	r9, r2, r0, lsl #8
    1188:	52000100 	andpl	r0, r0, #0, 2
	...
    1194:	00009104 	andeq	r9, r0, r4, lsl #2
    1198:	00009114 	andeq	r9, r0, r4, lsl r1
    119c:	00720002 	rsbseq	r0, r2, r2
    11a0:	00009114 	andeq	r9, r0, r4, lsl r1
    11a4:	00009128 	andeq	r9, r0, r8, lsr #2
    11a8:	28530001 	ldmdacs	r3, {r0}^
    11ac:	30000091 	mulcc	r0, r1, r0
    11b0:	02000091 	andeq	r0, r0, #145	; 0x91
    11b4:	30007200 	andcc	r7, r0, r0, lsl #4
    11b8:	40000091 	mulmi	r0, r1, r0
    11bc:	02000091 	andeq	r0, r0, #145	; 0x91
    11c0:	40017200 	andmi	r7, r1, r0, lsl #4
    11c4:	54000091 	strpl	r0, [r0], #-145	; 0x91
    11c8:	01000091 	swpeq	r0, r1, [r0]	; <UNPREDICTABLE>
    11cc:	91545100 	cmpls	r4, r0, lsl #2
    11d0:	91600000 	cmnls	r0, r0
    11d4:	00020000 	andeq	r0, r2, r0
    11d8:	91680172 	smcls	32786	; 0x8012
    11dc:	918c0000 	orrls	r0, ip, r0
    11e0:	00020000 	andeq	r0, r2, r0
    11e4:	918c0075 	orrls	r0, ip, r5, ror r0
    11e8:	91900000 	orrsls	r0, r0, r0
    11ec:	00020000 	andeq	r0, r2, r0
    11f0:	91907f72 	orrsls	r7, r0, r2, ror pc
    11f4:	91980000 	orrsls	r0, r8, r0
    11f8:	00020000 	andeq	r0, r2, r0
    11fc:	91980172 	orrsls	r0, r8, r2, ror r1
    1200:	919c0000 	orrsls	r0, ip, r0
    1204:	00020000 	andeq	r0, r2, r0
    1208:	919c0075 	orrsls	r0, ip, r5, ror r0
    120c:	92200000 	eorls	r0, r0, #0
    1210:	00010000 	andeq	r0, r1, r0
    1214:	00923051 	addseq	r3, r2, r1, asr r0
    1218:	00924000 	addseq	r4, r2, r0
    121c:	51000100 	mrspl	r0, (UNDEF: 16)
    1220:	00009250 	andeq	r9, r0, r0, asr r2
    1224:	00009260 	andeq	r9, r0, r0, ror #4
    1228:	70510001 	subsvc	r0, r1, r1
    122c:	74000092 	strvc	r0, [r0], #-146	; 0x92
    1230:	01000092 	swpeq	r0, r2, [r0]	; <UNPREDICTABLE>
    1234:	927c5100 	rsbsls	r5, ip, #0, 2
    1238:	928c0000 	addls	r0, ip, #0
    123c:	00020000 	andeq	r0, r2, r0
    1240:	00000072 	andeq	r0, r0, r2, ror r0
    1244:	00000000 	andeq	r0, r0, r0
    1248:	91ac0000 			; <UNDEFINED> instruction: 0x91ac0000
    124c:	91e40000 	mvnls	r0, r0
    1250:	00010000 	andeq	r0, r1, r0
    1254:	00000053 	andeq	r0, r0, r3, asr r0
    1258:	00000000 	andeq	r0, r0, r0
    125c:	00915400 	addseq	r5, r1, r0, lsl #8
    1260:	00916000 	addseq	r6, r1, r0
    1264:	30000200 	andcc	r0, r0, r0, lsl #4
    1268:	0091609f 	umullseq	r6, r1, pc, r0	; <UNPREDICTABLE>
    126c:	00918000 	addseq	r8, r1, r0
    1270:	53000100 	movwpl	r0, #256	; 0x100
    1274:	00009184 	andeq	r9, r0, r4, lsl #3
    1278:	00009190 	muleq	r0, r0, r1
    127c:	90530001 	subsls	r0, r3, r1
    1280:	98000091 	stmdals	r0, {r0, r4, r7}
    1284:	02000091 	andeq	r0, r0, #145	; 0x91
    1288:	989f3000 	ldmls	pc, {ip, sp}	; <UNPREDICTABLE>
    128c:	a8000091 	stmdage	r0, {r0, r4, r7}
    1290:	01000091 	swpeq	r0, r1, [r0]	; <UNPREDICTABLE>
    1294:	91e45300 	mvnls	r5, r0, lsl #6
    1298:	92230000 	eorls	r0, r3, #0
    129c:	00010000 	andeq	r0, r1, r0
    12a0:	00923053 	addseq	r3, r2, r3, asr r0
    12a4:	00924300 	addseq	r4, r2, r0, lsl #6
    12a8:	53000100 	movwpl	r0, #256	; 0x100
    12ac:	00009250 	andeq	r9, r0, r0, asr r2
    12b0:	00009263 	andeq	r9, r0, r3, ror #4
    12b4:	70530001 	subsvc	r0, r3, r1
    12b8:	74000092 	strvc	r0, [r0], #-146	; 0x92
    12bc:	01000092 	swpeq	r0, r2, [r0]	; <UNPREDICTABLE>
    12c0:	00005300 	andeq	r5, r0, r0, lsl #6
    12c4:	00000000 	andeq	r0, r0, r0
    12c8:	917c0000 	cmnls	ip, r0
    12cc:	91900000 	orrsls	r0, r0, r0
    12d0:	00010000 	andeq	r0, r1, r0
    12d4:	00000051 	andeq	r0, r0, r1, asr r0
    12d8:	00000000 	andeq	r0, r0, r0
    12dc:	0091ec00 	addseq	lr, r1, r0, lsl #24
    12e0:	00920c00 	addseq	r0, r2, r0, lsl #24
    12e4:	52000100 	andpl	r0, r0, #0, 2
    12e8:	00009210 	andeq	r9, r0, r0, lsl r2
    12ec:	00009223 	andeq	r9, r0, r3, lsr #4
    12f0:	30520001 	subscc	r0, r2, r1
    12f4:	43000092 	movwmi	r0, #146	; 0x92
    12f8:	01000092 	swpeq	r0, r2, [r0]	; <UNPREDICTABLE>
    12fc:	92505200 	subsls	r5, r0, #0, 4
    1300:	92630000 	rsbls	r0, r3, #0
    1304:	00010000 	andeq	r0, r1, r0
    1308:	00927052 	addseq	r7, r2, r2, asr r0
    130c:	00927400 	addseq	r7, r2, r0, lsl #8
    1310:	52000100 	andpl	r0, r0, #0, 2
	...
    131c:	00009294 	muleq	r0, r4, r2
    1320:	000092b7 			; <UNDEFINED> instruction: 0x000092b7
    1324:	b7500001 	ldrblt	r0, [r0, -r1]
    1328:	c0000092 	mulgt	r0, r2, r0
    132c:	04000092 	streq	r0, [r0], #-146	; 0x92
    1330:	5001f300 	andpl	pc, r1, r0, lsl #6
    1334:	0000009f 	muleq	r0, pc, r0	; <UNPREDICTABLE>
    1338:	00000000 	andeq	r0, r0, r0
    133c:	00929400 	addseq	r9, r2, r0, lsl #8
    1340:	0092b700 	addseq	fp, r2, r0, lsl #14
    1344:	51000100 	mrspl	r0, (UNDEF: 16)
    1348:	000092b7 			; <UNDEFINED> instruction: 0x000092b7
    134c:	000092c0 	andeq	r9, r0, r0, asr #5
    1350:	01f30004 	mvnseq	r0, r4
    1354:	00009f51 	andeq	r9, r0, r1, asr pc
    1358:	00000000 	andeq	r0, r0, r0
    135c:	93040000 	movwls	r0, #16384	; 0x4000
    1360:	93070000 	movwls	r0, #28672	; 0x7000
    1364:	00020000 	andeq	r0, r2, r0
    1368:	93140073 	tstls	r4, #115	; 0x73
    136c:	93280000 	teqls	r8, #0
    1370:	00020000 	andeq	r0, r2, r0
    1374:	00000073 	andeq	r0, r0, r3, ror r0
    1378:	00000000 	andeq	r0, r0, r0
    137c:	92d80000 	sbcsls	r0, r8, #0
    1380:	93040000 	movwls	r0, #16384	; 0x4000
    1384:	00040000 	andeq	r0, r4, r0
    1388:	9f77d891 	svcls	0x0077d891
    138c:	00009304 	andeq	r9, r0, r4, lsl #6
    1390:	0000930c 	andeq	r9, r0, ip, lsl #6
    1394:	0c540001 	mrrceq	0, 0, r0, r4, cr1
    1398:	10000093 	mulne	r0, r3, r0
    139c:	01000093 	swpeq	r0, r3, [r0]	; <UNPREDICTABLE>
    13a0:	93105300 	tstls	r0, #0, 6
    13a4:	93280000 	teqls	r8, #0
    13a8:	00010000 	andeq	r0, r1, r0
    13ac:	00000054 	andeq	r0, r0, r4, asr r0
    13b0:	00000000 	andeq	r0, r0, r0
    13b4:	0092f800 	addseq	pc, r2, r0, lsl #16
    13b8:	00930400 	addseq	r0, r3, r0, lsl #8
    13bc:	50000100 	andpl	r0, r0, r0, lsl #2
    13c0:	00009304 	andeq	r9, r0, r4, lsl #6
    13c4:	00009328 	andeq	r9, r0, r8, lsr #6
    13c8:	00550001 	subseq	r0, r5, r1
    13cc:	00000000 	andeq	r0, r0, r0
    13d0:	54000000 	strpl	r0, [r0], #-0
    13d4:	67000093 			; <UNDEFINED> instruction: 0x67000093
    13d8:	01000093 	swpeq	r0, r3, [r0]	; <UNPREDICTABLE>
    13dc:	93675000 	cmnls	r7, #0
    13e0:	93800000 	orrls	r0, r0, #0
    13e4:	00010000 	andeq	r0, r1, r0
    13e8:	00000055 	andeq	r0, r0, r5, asr r0
    13ec:	00000000 	andeq	r0, r0, r0
    13f0:	00937000 	addseq	r7, r3, r0
    13f4:	00937400 	addseq	r7, r3, r0, lsl #8
    13f8:	50000100 	andpl	r0, r0, r0, lsl #2
	...
    1404:	00009380 	andeq	r9, r0, r0, lsl #7
    1408:	0000939c 	muleq	r0, ip, r3
    140c:	9c500001 	mrrcls	0, 0, r0, r0, cr1	; <UNPREDICTABLE>
    1410:	b4000093 	strlt	r0, [r0], #-147	; 0x93
    1414:	01000093 	swpeq	r0, r3, [r0]	; <UNPREDICTABLE>
    1418:	00005500 	andeq	r5, r0, r0, lsl #10
    141c:	00000000 	andeq	r0, r0, r0
    1420:	93900000 	orrsls	r0, r0, #0
    1424:	939c0000 	orrsls	r0, ip, #0
    1428:	00020000 	andeq	r0, r2, r0
    142c:	939c9f30 	orrsls	r9, ip, #48, 30	; 0xc0
    1430:	93b40000 			; <UNDEFINED> instruction: 0x93b40000
    1434:	00010000 	andeq	r0, r1, r0
    1438:	00000054 	andeq	r0, r0, r4, asr r0
    143c:	00000000 	andeq	r0, r0, r0
    1440:	0093b400 	addseq	fp, r3, r0, lsl #8
    1444:	0093d000 	addseq	sp, r3, r0
    1448:	50000100 	andpl	r0, r0, r0, lsl #2
    144c:	000093d0 	ldrdeq	r9, [r0], -r0
    1450:	000093e8 	andeq	r9, r0, r8, ror #7
    1454:	00550001 	subseq	r0, r5, r1
    1458:	00000000 	andeq	r0, r0, r0
    145c:	c4000000 	strgt	r0, [r0], #-0
    1460:	d0000093 	mulle	r0, r3, r0
    1464:	02000093 	andeq	r0, r0, #147	; 0x93
    1468:	d09f3000 	addsle	r3, pc, r0
    146c:	e8000093 	stmda	r0, {r0, r1, r4, r7}
    1470:	01000093 	swpeq	r0, r3, [r0]	; <UNPREDICTABLE>
    1474:	00005400 	andeq	r5, r0, r0, lsl #8
    1478:	00000000 	andeq	r0, r0, r0
    147c:	93e80000 	mvnls	r0, #0
    1480:	93f80000 	mvnsls	r0, #0
    1484:	00010000 	andeq	r0, r1, r0
    1488:	0093f850 	addseq	pc, r3, r0, asr r8	; <UNPREDICTABLE>
    148c:	00940800 	addseq	r0, r4, r0, lsl #16
    1490:	54000100 	strpl	r0, [r0], #-256	; 0x100
	...
    149c:	000094a0 	andeq	r9, r0, r0, lsr #9
    14a0:	000094bc 			; <UNDEFINED> instruction: 0x000094bc
    14a4:	bc500001 	mrrclt	0, 0, r0, r0, cr1	; <UNPREDICTABLE>
    14a8:	e0000094 	mul	r0, r4, r0
    14ac:	01000094 	swpeq	r0, r4, [r0]	; <UNPREDICTABLE>
    14b0:	00005400 	andeq	r5, r0, r0, lsl #8
    14b4:	00000000 	andeq	r0, r0, r0
    14b8:	95040000 	strls	r0, [r4, #-0]
    14bc:	952c0000 	strls	r0, [ip, #-0]!
    14c0:	00010000 	andeq	r0, r1, r0
    14c4:	00952c50 	addseq	r2, r5, r0, asr ip
    14c8:	00953400 	addseq	r3, r5, r0, lsl #8
    14cc:	54000100 	strpl	r0, [r0], #-256	; 0x100
    14d0:	00009534 	andeq	r9, r0, r4, lsr r5
    14d4:	0000956c 	andeq	r9, r0, ip, ror #10
    14d8:	01f30004 	mvnseq	r0, r4
    14dc:	00009f50 	andeq	r9, r0, r0, asr pc
    14e0:	00000000 	andeq	r0, r0, r0
    14e4:	95040000 	strls	r0, [r4, #-0]
    14e8:	95200000 	strls	r0, [r0, #-0]!
    14ec:	00010000 	andeq	r0, r1, r0
    14f0:	00952051 	addseq	r2, r5, r1, asr r0
    14f4:	00956c00 	addseq	r6, r5, r0, lsl #24
    14f8:	f3000400 	vshl.u8	d0, d0, d0
    14fc:	009f5101 	addseq	r5, pc, r1, lsl #2
    1500:	00000000 	andeq	r0, r0, r0
    1504:	6c000000 	stcvs	0, cr0, [r0], {-0}
    1508:	87000095 			; <UNDEFINED> instruction: 0x87000095
    150c:	01000095 	swpeq	r0, r5, [r0]	; <UNPREDICTABLE>
    1510:	95875000 	strls	r5, [r7]
    1514:	958c0000 	strls	r0, [ip]
    1518:	00040000 	andeq	r0, r4, r0
    151c:	9f5001f3 	svcls	0x005001f3
	...
    1528:	0000958c 	andeq	r9, r0, ip, lsl #11
    152c:	0000959f 	muleq	r0, pc, r5	; <UNPREDICTABLE>
    1530:	9f500001 	svcls	0x00500001
    1534:	a4000095 	strge	r0, [r0], #-149	; 0x95
    1538:	04000095 	streq	r0, [r0], #-149	; 0x95
    153c:	5001f300 	andpl	pc, r1, r0, lsl #6
    1540:	0000009f 	muleq	r0, pc, r0	; <UNPREDICTABLE>
    1544:	00000000 	andeq	r0, r0, r0
    1548:	0095a400 	addseq	sl, r5, r0, lsl #8
    154c:	0095bc00 	addseq	fp, r5, r0, lsl #24
    1550:	50000100 	andpl	r0, r0, r0, lsl #2
    1554:	000095bc 			; <UNDEFINED> instruction: 0x000095bc
    1558:	00009660 	andeq	r9, r0, r0, ror #12
    155c:	00540001 	subseq	r0, r4, r1
    1560:	00000000 	andeq	r0, r0, r0
    1564:	a4000000 	strge	r0, [r0], #-0
    1568:	c0000095 	mulgt	r0, r5, r0
    156c:	01000095 	swpeq	r0, r5, [r0]	; <UNPREDICTABLE>
    1570:	95c05100 	strbls	r5, [r0, #256]	; 0x100
    1574:	96600000 	strbtls	r0, [r0], -r0
    1578:	00010000 	andeq	r0, r1, r0
    157c:	00000055 	andeq	r0, r0, r5, asr r0
    1580:	00000000 	andeq	r0, r0, r0
    1584:	00966000 	addseq	r6, r6, r0
    1588:	0096e000 	addseq	lr, r6, r0
    158c:	52000100 	andpl	r0, r0, #0, 2
    1590:	000096e0 	andeq	r9, r0, r0, ror #13
    1594:	000096f0 	strdeq	r9, [r0], -r0
    1598:	01f30004 	mvnseq	r0, r4
    159c:	00009f52 	andeq	r9, r0, r2, asr pc
    15a0:	00000000 	andeq	r0, r0, r0
    15a4:	96800000 	strls	r0, [r0], r0
    15a8:	968c0000 	strls	r0, [ip], r0
    15ac:	00020000 	andeq	r0, r2, r0
    15b0:	968c9f30 			; <UNDEFINED> instruction: 0x968c9f30
    15b4:	96f00000 	ldrbtls	r0, [r0], r0
    15b8:	00010000 	andeq	r0, r1, r0
    15bc:	00000055 	andeq	r0, r0, r5, asr r0
    15c0:	00000000 	andeq	r0, r0, r0
	...

Disassembly of section .debug_ranges:

00000000 <.debug_ranges>:
   0:	000000c8 	andeq	r0, r0, r8, asr #1
   4:	000000d0 	ldrdeq	r0, [r0], -r0	; <UNPREDICTABLE>
   8:	000000d4 	ldrdeq	r0, [r0], -r4
   c:	000001a0 	andeq	r0, r0, r0, lsr #3
	...
  18:	00000014 	andeq	r0, r0, r4, lsl r0
  1c:	00000018 	andeq	r0, r0, r8, lsl r0
  20:	00000020 	andeq	r0, r0, r0, lsr #32
  24:	00000060 	andeq	r0, r0, r0, rrx
	...
  30:	00008bd8 	ldrdeq	r8, [r0], -r8	; <UNPREDICTABLE>
  34:	00008be8 	andeq	r8, r0, r8, ror #23
  38:	00008be8 	andeq	r8, r0, r8, ror #23
  3c:	00008c4c 	andeq	r8, r0, ip, asr #24
  40:	00008c4c 	andeq	r8, r0, ip, asr #24
  44:	00008ca4 	andeq	r8, r0, r4, lsr #25
  48:	00008ca4 	andeq	r8, r0, r4, lsr #25
  4c:	00008cbc 			; <UNDEFINED> instruction: 0x00008cbc
  50:	00008cbc 			; <UNDEFINED> instruction: 0x00008cbc
  54:	00008cd4 	ldrdeq	r8, [r0], -r4
  58:	00008cd4 	ldrdeq	r8, [r0], -r4
  5c:	00008d34 	andeq	r8, r0, r4, lsr sp
  60:	00008d34 	andeq	r8, r0, r4, lsr sp
  64:	00008d7c 	andeq	r8, r0, ip, ror sp
	...
  70:	00008dd8 	ldrdeq	r8, [r0], -r8	; <UNPREDICTABLE>
  74:	00008ddc 	ldrdeq	r8, [r0], -ip
  78:	00008de0 	andeq	r8, r0, r0, ror #27
  7c:	00008df4 	strdeq	r8, [r0], -r4
	...
  88:	00008e04 	andeq	r8, r0, r4, lsl #28
  8c:	00008e08 	andeq	r8, r0, r8, lsl #28
  90:	00008e0c 	andeq	r8, r0, ip, lsl #28
  94:	00008e34 	andeq	r8, r0, r4, lsr lr
	...
  a0:	00008ea0 	andeq	r8, r0, r0, lsr #29
  a4:	00008ea4 	andeq	r8, r0, r4, lsr #29
  a8:	00008ea8 	andeq	r8, r0, r8, lsr #29
  ac:	00008ebc 			; <UNDEFINED> instruction: 0x00008ebc
	...
  b8:	00008ecc 	andeq	r8, r0, ip, asr #29
  bc:	00008ed0 	ldrdeq	r8, [r0], -r0
  c0:	00008ed4 	ldrdeq	r8, [r0], -r4
  c4:	00008efc 	strdeq	r8, [r0], -ip
	...
  d0:	00008f00 	andeq	r8, r0, r0, lsl #30
  d4:	00008f08 	andeq	r8, r0, r8, lsl #30
  d8:	00008f10 	andeq	r8, r0, r0, lsl pc
  dc:	00008f34 	andeq	r8, r0, r4, lsr pc
	...
  e8:	00008f8c 	andeq	r8, r0, ip, lsl #31
  ec:	00008f90 	muleq	r0, r0, pc	; <UNPREDICTABLE>
  f0:	00008f94 	muleq	r0, r4, pc	; <UNPREDICTABLE>
  f4:	00008fb4 			; <UNDEFINED> instruction: 0x00008fb4
	...
 100:	00008d7c 	andeq	r8, r0, ip, ror sp
 104:	00008d90 	muleq	r0, r0, sp
 108:	00008d90 	muleq	r0, r0, sp
 10c:	00008dc8 	andeq	r8, r0, r8, asr #27
 110:	00008dc8 	andeq	r8, r0, r8, asr #27
 114:	00008e90 	muleq	r0, r0, lr
 118:	00008e90 	muleq	r0, r0, lr
 11c:	00008f68 	andeq	r8, r0, r8, ror #30
 120:	00008f68 	andeq	r8, r0, r8, ror #30
 124:	000090b4 	strheq	r9, [r0], -r4
 128:	000090b4 	strheq	r9, [r0], -r4
 12c:	00009294 	muleq	r0, r4, r2
 130:	00009294 	muleq	r0, r4, r2
 134:	000092c0 	andeq	r9, r0, r0, asr #5
 138:	000092c0 	andeq	r9, r0, r0, asr #5
 13c:	00009328 	andeq	r9, r0, r8, lsr #6
	...
 148:	00009328 	andeq	r9, r0, r8, lsr #6
 14c:	00009338 	andeq	r9, r0, r8, lsr r3
 150:	00009338 	andeq	r9, r0, r8, lsr r3
 154:	00009354 	andeq	r9, r0, r4, asr r3
 158:	00009354 	andeq	r9, r0, r4, asr r3
 15c:	00009380 	andeq	r9, r0, r0, lsl #7
 160:	00009380 	andeq	r9, r0, r0, lsl #7
 164:	000093b4 			; <UNDEFINED> instruction: 0x000093b4
 168:	000093b4 			; <UNDEFINED> instruction: 0x000093b4
 16c:	000093e8 	andeq	r9, r0, r8, ror #7
 170:	000093e8 	andeq	r9, r0, r8, ror #7
 174:	00009408 	andeq	r9, r0, r8, lsl #8
	...
 180:	00009408 	andeq	r9, r0, r8, lsl #8
 184:	00009470 	andeq	r9, r0, r0, ror r4
 188:	00009470 	andeq	r9, r0, r0, ror r4
 18c:	000094a0 	andeq	r9, r0, r0, lsr #9
 190:	000094a0 	andeq	r9, r0, r0, lsr #9
 194:	000094e0 	andeq	r9, r0, r0, ror #9
 198:	000094e0 	andeq	r9, r0, r0, ror #9
 19c:	00009504 	andeq	r9, r0, r4, lsl #10
	...
 1a8:	00009504 	andeq	r9, r0, r4, lsl #10
 1ac:	0000956c 	andeq	r9, r0, ip, ror #10
 1b0:	0000956c 	andeq	r9, r0, ip, ror #10
 1b4:	0000958c 	andeq	r9, r0, ip, lsl #11
 1b8:	0000958c 	andeq	r9, r0, ip, lsl #11
 1bc:	000095a4 	andeq	r9, r0, r4, lsr #11
	...
 1c8:	000095a4 	andeq	r9, r0, r4, lsr #11
 1cc:	00009660 	andeq	r9, r0, r0, ror #12
 1d0:	00009660 	andeq	r9, r0, r0, ror #12
 1d4:	000096f0 	strdeq	r9, [r0], -r0
	...
