
pwm-sine.elf:     file format elf32-littlearm


Disassembly of section .text:

00008000 <_start>:
    8000:	e3a0d302 	mov	sp, #134217728	; 0x8000000
    8004:	e3a0b000 	mov	fp, #0
    8008:	eb00004d 	bl	8144 <_cstart>

0000800c <hang>:
    800c:	eafffffe 	b	800c <hang>

00008010 <main>:
    8010:	e92d41f0 	push	{r4, r5, r6, r7, r8, lr}
    8014:	e24dd028 	sub	sp, sp, #40	; 0x28
    8018:	eb0000c3 	bl	832c <audio_init>
    801c:	e59f311c 	ldr	r3, [pc, #284]	; 8140 <main+0x130>
    8020:	e28d8020 	add	r8, sp, #32
    8024:	e8930003 	ldm	r3, {r0, r1}
    8028:	e8880003 	stm	r8, {r0, r1}
    802c:	e28d7018 	add	r7, sp, #24
    8030:	e2832008 	add	r2, r3, #8
    8034:	e8920003 	ldm	r2, {r0, r1}
    8038:	e8870003 	stm	r7, {r0, r1}
    803c:	e28d6010 	add	r6, sp, #16
    8040:	e2832010 	add	r2, r3, #16
    8044:	e8920003 	ldm	r2, {r0, r1}
    8048:	e8860003 	stm	r6, {r0, r1}
    804c:	e28d5008 	add	r5, sp, #8
    8050:	e2832018 	add	r2, r3, #24
    8054:	e8920003 	ldm	r2, {r0, r1}
    8058:	e8850003 	stm	r5, {r0, r1}
    805c:	e2833020 	add	r3, r3, #32
    8060:	e8930003 	ldm	r3, {r0, r1}
    8064:	e88d0003 	stm	sp, {r0, r1}
    8068:	e3a00001 	mov	r0, #1
    806c:	e8980006 	ldm	r8, {r1, r2}
    8070:	eb000064 	bl	8208 <audio_send_tone>
    8074:	e3a00001 	mov	r0, #1
    8078:	e8970006 	ldm	r7, {r1, r2}
    807c:	eb000061 	bl	8208 <audio_send_tone>
    8080:	e3a00001 	mov	r0, #1
    8084:	e8960006 	ldm	r6, {r1, r2}
    8088:	eb00005e 	bl	8208 <audio_send_tone>
    808c:	e3a00001 	mov	r0, #1
    8090:	e8980006 	ldm	r8, {r1, r2}
    8094:	eb00005b 	bl	8208 <audio_send_tone>
    8098:	e3a00001 	mov	r0, #1
    809c:	e8970006 	ldm	r7, {r1, r2}
    80a0:	eb000058 	bl	8208 <audio_send_tone>
    80a4:	e3a00001 	mov	r0, #1
    80a8:	e8960006 	ldm	r6, {r1, r2}
    80ac:	eb000055 	bl	8208 <audio_send_tone>
    80b0:	e3a00001 	mov	r0, #1
    80b4:	e8950006 	ldm	r5, {r1, r2}
    80b8:	eb000052 	bl	8208 <audio_send_tone>
    80bc:	e3a00001 	mov	r0, #1
    80c0:	e8950006 	ldm	r5, {r1, r2}
    80c4:	eb00004f 	bl	8208 <audio_send_tone>
    80c8:	e3a00001 	mov	r0, #1
    80cc:	e8950006 	ldm	r5, {r1, r2}
    80d0:	eb00004c 	bl	8208 <audio_send_tone>
    80d4:	e3a00001 	mov	r0, #1
    80d8:	e8950006 	ldm	r5, {r1, r2}
    80dc:	eb000049 	bl	8208 <audio_send_tone>
    80e0:	e3a00001 	mov	r0, #1
    80e4:	e89d0006 	ldm	sp, {r1, r2}
    80e8:	eb000046 	bl	8208 <audio_send_tone>
    80ec:	e3a00001 	mov	r0, #1
    80f0:	e89d0006 	ldm	sp, {r1, r2}
    80f4:	eb000043 	bl	8208 <audio_send_tone>
    80f8:	e3a00001 	mov	r0, #1
    80fc:	e89d0006 	ldm	sp, {r1, r2}
    8100:	eb000040 	bl	8208 <audio_send_tone>
    8104:	e3a00001 	mov	r0, #1
    8108:	e89d0006 	ldm	sp, {r1, r2}
    810c:	eb00003d 	bl	8208 <audio_send_tone>
    8110:	e3a00001 	mov	r0, #1
    8114:	e8980006 	ldm	r8, {r1, r2}
    8118:	eb00003a 	bl	8208 <audio_send_tone>
    811c:	e3a00001 	mov	r0, #1
    8120:	e8970006 	ldm	r7, {r1, r2}
    8124:	eb000037 	bl	8208 <audio_send_tone>
    8128:	e3a00001 	mov	r0, #1
    812c:	e8960006 	ldm	r6, {r1, r2}
    8130:	eb000034 	bl	8208 <audio_send_tone>
    8134:	e28dd028 	add	sp, sp, #40	; 0x28
    8138:	e8bd41f0 	pop	{r4, r5, r6, r7, r8, lr}
    813c:	e12fff1e 	bx	lr
    8140:	00008fe8 	andeq	r8, r0, r8, ror #31

00008144 <_cstart>:
    8144:	e92d4008 	push	{r3, lr}
    8148:	e59f3024 	ldr	r3, [pc, #36]	; 8174 <_cstart+0x30>
    814c:	e59f2024 	ldr	r2, [pc, #36]	; 8178 <_cstart+0x34>
    8150:	e3a01000 	mov	r1, #0
    8154:	ea000001 	b	8160 <_cstart+0x1c>
    8158:	e5831000 	str	r1, [r3]
    815c:	e2833004 	add	r3, r3, #4
    8160:	e1530002 	cmp	r3, r2
    8164:	3afffffb 	bcc	8158 <_cstart+0x14>
    8168:	ebffffa8 	bl	8010 <main>
    816c:	e8bd4008 	pop	{r3, lr}
    8170:	e12fff1e 	bx	lr
    8174:	00009014 	andeq	r9, r0, r4, lsl r0
    8178:	00009318 	andeq	r9, r0, r8, lsl r3

0000817c <audio_set_clock>:
    817c:	e92d4038 	push	{r3, r4, r5, lr}
    8180:	e1a04600 	lsl	r4, r0, #12
    8184:	e59f006c 	ldr	r0, [pc, #108]	; 81f8 <audio_set_clock+0x7c>
    8188:	e1a01004 	mov	r1, r4
    818c:	eb00030b 	bl	8dc0 <__aeabi_uidiv>
    8190:	e1a05000 	mov	r5, r0
    8194:	e0000495 	mul	r0, r5, r4
    8198:	e2600749 	rsb	r0, r0, #19136512	; 0x1240000
    819c:	e2800b3e 	add	r0, r0, #63488	; 0xf800
    81a0:	e1a01624 	lsr	r1, r4, #12
    81a4:	eb000305 	bl	8dc0 <__aeabi_uidiv>
    81a8:	e2452001 	sub	r2, r5, #1
    81ac:	e59f3048 	ldr	r3, [pc, #72]	; 81fc <audio_set_clock+0x80>
    81b0:	e1520003 	cmp	r2, r3
    81b4:	8a00000a 	bhi	81e4 <audio_set_clock+0x68>
    81b8:	e3500a01 	cmp	r0, #4096	; 0x1000
    81bc:	2a00000a 	bcs	81ec <audio_set_clock+0x70>
    81c0:	e59f3038 	ldr	r3, [pc, #56]	; 8200 <audio_set_clock+0x84>
    81c4:	e5933000 	ldr	r3, [r3]
    81c8:	e59f2034 	ldr	r2, [pc, #52]	; 8204 <audio_set_clock+0x88>
    81cc:	e58320a0 	str	r2, [r3, #160]	; 0xa0
    81d0:	e1800605 	orr	r0, r0, r5, lsl #12
    81d4:	e380045a 	orr	r0, r0, #1509949440	; 0x5a000000
    81d8:	e58300a4 	str	r0, [r3, #164]	; 0xa4
    81dc:	e3a00001 	mov	r0, #1
    81e0:	ea000002 	b	81f0 <audio_set_clock+0x74>
    81e4:	e3a00000 	mov	r0, #0
    81e8:	ea000000 	b	81f0 <audio_set_clock+0x74>
    81ec:	e3a00000 	mov	r0, #0
    81f0:	e8bd4038 	pop	{r3, r4, r5, lr}
    81f4:	e12fff1e 	bx	lr
    81f8:	0124f800 	msreq	CPSR_s, r0, lsl #16
    81fc:	00000ffe 	strdeq	r0, [r0], -lr
    8200:	00008ed8 	ldrdeq	r8, [r0], -r8	; <UNPREDICTABLE>
    8204:	5a000020 	bpl	828c <audio_send_tone+0x84>

00008208 <audio_send_tone>:
    8208:	e92d4070 	push	{r4, r5, r6, lr}
    820c:	e24dd008 	sub	sp, sp, #8
    8210:	e28d3008 	add	r3, sp, #8
    8214:	e9030006 	stmdb	r3, {r1, r2}
    8218:	e3500003 	cmp	r0, #3
    821c:	0a000005 	beq	8238 <audio_send_tone+0x30>
    8220:	e3500001 	cmp	r0, #1
    8224:	0a000005 	beq	8240 <audio_send_tone+0x38>
    8228:	e3500002 	cmp	r0, #2
    822c:	1a000005 	bne	8248 <audio_send_tone+0x40>
    8230:	e59f40d8 	ldr	r4, [pc, #216]	; 8310 <audio_send_tone+0x108>
    8234:	ea000004 	b	824c <audio_send_tone+0x44>
    8238:	e59f40d4 	ldr	r4, [pc, #212]	; 8314 <audio_send_tone+0x10c>
    823c:	ea000002 	b	824c <audio_send_tone+0x44>
    8240:	e59f40d0 	ldr	r4, [pc, #208]	; 8318 <audio_send_tone+0x110>
    8244:	ea000000 	b	824c <audio_send_tone+0x44>
    8248:	e59f40cc 	ldr	r4, [pc, #204]	; 831c <audio_send_tone+0x114>
    824c:	e1dd00b0 	ldrh	r0, [sp]
    8250:	ebffffc9 	bl	817c <audio_set_clock>
    8254:	e3500000 	cmp	r0, #0
    8258:	0a000029 	beq	8304 <audio_send_tone+0xfc>
    825c:	e59f60bc 	ldr	r6, [pc, #188]	; 8320 <audio_send_tone+0x118>
    8260:	e5963000 	ldr	r3, [r6]
    8264:	e59f20b8 	ldr	r2, [pc, #184]	; 8324 <audio_send_tone+0x11c>
    8268:	e58320a0 	str	r2, [r3, #160]	; 0xa0
    826c:	e3a00e7d 	mov	r0, #2000	; 0x7d0
    8270:	eb0000d3 	bl	85c4 <delay_us>
    8274:	e5963108 	ldr	r3, [r6, #264]	; 0x108
    8278:	e3a05000 	mov	r5, #0
    827c:	e5835000 	str	r5, [r3]
    8280:	e3a00e7d 	mov	r0, #2000	; 0x7d0
    8284:	eb0000ce 	bl	85c4 <delay_us>
    8288:	e5963108 	ldr	r3, [r6, #264]	; 0x108
    828c:	e3a02080 	mov	r2, #128	; 0x80
    8290:	e5832010 	str	r2, [r3, #16]
    8294:	e5832020 	str	r2, [r3, #32]
    8298:	e59f2088 	ldr	r2, [pc, #136]	; 8328 <audio_send_tone+0x120>
    829c:	e5832000 	str	r2, [r3]
    82a0:	e3a00e7d 	mov	r0, #2000	; 0x7d0
    82a4:	eb0000c6 	bl	85c4 <delay_us>
    82a8:	e1a03005 	mov	r3, r5
    82ac:	e1a00005 	mov	r0, r5
    82b0:	e1a05006 	mov	r5, r6
    82b4:	e3a0603c 	mov	r6, #60	; 0x3c
    82b8:	ea00000e 	b	82f8 <audio_send_tone+0xf0>
    82bc:	e5952108 	ldr	r2, [r5, #264]	; 0x108
    82c0:	e5921004 	ldr	r1, [r2, #4]
    82c4:	e3110001 	tst	r1, #1
    82c8:	1a000007 	bne	82ec <audio_send_tone+0xe4>
    82cc:	e794c100 	ldr	ip, [r4, r0, lsl #2]
    82d0:	e582c018 	str	ip, [r2, #24]
    82d4:	e2800001 	add	r0, r0, #1
    82d8:	e1a0cfc0 	asr	ip, r0, #31
    82dc:	e1a0cd2c 	lsr	ip, ip, #26
    82e0:	e080000c 	add	r0, r0, ip
    82e4:	e200003f 	and	r0, r0, #63	; 0x3f
    82e8:	e06c0000 	rsb	r0, ip, r0
    82ec:	e311003c 	tst	r1, #60	; 0x3c
    82f0:	15826004 	strne	r6, [r2, #4]
    82f4:	e2833001 	add	r3, r3, #1
    82f8:	e59d2004 	ldr	r2, [sp, #4]
    82fc:	e1530002 	cmp	r3, r2
    8300:	3affffed 	bcc	82bc <audio_send_tone+0xb4>
    8304:	e28dd008 	add	sp, sp, #8
    8308:	e8bd4070 	pop	{r4, r5, r6, lr}
    830c:	e12fff1e 	bx	lr
    8310:	00009114 	andeq	r9, r0, r4, lsl r1
    8314:	00009214 	andeq	r9, r0, r4, lsl r2
    8318:	00008edc 	ldrdeq	r8, [r0], -ip
    831c:	00009014 	andeq	r9, r0, r4, lsl r0
    8320:	00008ed8 	ldrdeq	r8, [r0], -r8	; <UNPREDICTABLE>
    8324:	5a000611 	bpl	9b70 <__bss_end__+0x858>
    8328:	00002161 	andeq	r2, r0, r1, ror #2

0000832c <audio_init>:
    832c:	e92d4038 	push	{r3, r4, r5, lr}
    8330:	e59f3078 	ldr	r3, [pc, #120]	; 83b0 <audio_init+0x84>
    8334:	e593310c 	ldr	r3, [r3, #268]	; 0x10c
    8338:	e5932010 	ldr	r2, [r3, #16]
    833c:	e3822004 	orr	r2, r2, #4
    8340:	e5832010 	str	r2, [r3, #16]
    8344:	e5932010 	ldr	r2, [r3, #16]
    8348:	e3822802 	orr	r2, r2, #131072	; 0x20000
    834c:	e5832010 	str	r2, [r3, #16]
    8350:	e3a00e7d 	mov	r0, #2000	; 0x7d0
    8354:	eb00009a 	bl	85c4 <delay_us>
    8358:	e3a03000 	mov	r3, #0
    835c:	e3a05040 	mov	r5, #64	; 0x40
    8360:	e1a04003 	mov	r4, r3
    8364:	e59fc048 	ldr	ip, [pc, #72]	; 83b4 <audio_init+0x88>
    8368:	e59f0048 	ldr	r0, [pc, #72]	; 83b8 <audio_init+0x8c>
    836c:	e59f1048 	ldr	r1, [pc, #72]	; 83bc <audio_init+0x90>
    8370:	ea00000a 	b	83a0 <audio_init+0x74>
    8374:	e353001f 	cmp	r3, #31
    8378:	d1a02004 	movle	r2, r4
    837c:	c1a02005 	movgt	r2, r5
    8380:	e78c2103 	str	r2, [ip, r3, lsl #2]
    8384:	e353001f 	cmp	r3, #31
    8388:	d1a02083 	lslle	r2, r3, #1
    838c:	c2632040 	rsbgt	r2, r3, #64	; 0x40
    8390:	c1a02082 	lslgt	r2, r2, #1
    8394:	e7802103 	str	r2, [r0, r3, lsl #2]
    8398:	e7813103 	str	r3, [r1, r3, lsl #2]
    839c:	e2833001 	add	r3, r3, #1
    83a0:	e353003f 	cmp	r3, #63	; 0x3f
    83a4:	dafffff2 	ble	8374 <audio_init+0x48>
    83a8:	e8bd4038 	pop	{r3, r4, r5, lr}
    83ac:	e12fff1e 	bx	lr
    83b0:	00008ed8 	ldrdeq	r8, [r0], -r8	; <UNPREDICTABLE>
    83b4:	00009014 	andeq	r9, r0, r4, lsl r0
    83b8:	00009214 	andeq	r9, r0, r4, lsl r2
    83bc:	00009114 	andeq	r9, r0, r4, lsl r1

000083c0 <audio_send_1kHz>:
    83c0:	e12fff1e 	bx	lr

000083c4 <PUT32>:
    83c4:	e5801000 	str	r1, [r0]
    83c8:	e12fff1e 	bx	lr

000083cc <PUT16>:
    83cc:	e1c010b0 	strh	r1, [r0]
    83d0:	e12fff1e 	bx	lr

000083d4 <PUT8>:
    83d4:	e5c01000 	strb	r1, [r0]
    83d8:	e12fff1e 	bx	lr

000083dc <GET32>:
    83dc:	e5900000 	ldr	r0, [r0]
    83e0:	e12fff1e 	bx	lr

000083e4 <GET16>:
    83e4:	e1d000b0 	ldrh	r0, [r0]
    83e8:	e12fff1e 	bx	lr

000083ec <GET8>:
    83ec:	e5d00000 	ldrb	r0, [r0]
    83f0:	e12fff1e 	bx	lr

000083f4 <gpio_init>:
    83f4:	e1a0c00d 	mov	ip, sp
    83f8:	e92dd800 	push	{fp, ip, lr, pc}
    83fc:	e24cb004 	sub	fp, ip, #4
    8400:	e89da800 	ldm	sp, {fp, sp, pc}

00008404 <gpio_set_function>:
    8404:	e1a0c00d 	mov	ip, sp
    8408:	e92dd810 	push	{r4, fp, ip, lr, pc}
    840c:	e24cb004 	sub	fp, ip, #4
    8410:	e3500035 	cmp	r0, #53	; 0x35
    8414:	889da810 	ldmhi	sp, {r4, fp, sp, pc}
    8418:	e3510007 	cmp	r1, #7
    841c:	889da810 	ldmhi	sp, {r4, fp, sp, pc}
    8420:	e59f303c 	ldr	r3, [pc, #60]	; 8464 <gpio_set_function+0x60>
    8424:	e0832093 	umull	r2, r3, r3, r0
    8428:	e1a031a3 	lsr	r3, r3, #3
    842c:	e283c302 	add	ip, r3, #134217728	; 0x8000000
    8430:	e28cc702 	add	ip, ip, #524288	; 0x80000
    8434:	e1a0c10c 	lsl	ip, ip, #2
    8438:	e59c4000 	ldr	r4, [ip]
    843c:	e0833103 	add	r3, r3, r3, lsl #2
    8440:	e1a03083 	lsl	r3, r3, #1
    8444:	e0632000 	rsb	r2, r3, r0
    8448:	e0822082 	add	r2, r2, r2, lsl #1
    844c:	e3a03007 	mov	r3, #7
    8450:	e1c43213 	bic	r3, r4, r3, lsl r2
    8454:	e2011007 	and	r1, r1, #7
    8458:	e1832211 	orr	r2, r3, r1, lsl r2
    845c:	e58c2000 	str	r2, [ip]
    8460:	e89da810 	ldm	sp, {r4, fp, sp, pc}
    8464:	cccccccd 	stclgt	12, cr12, [ip], {205}	; 0xcd

00008468 <gpio_get_function>:
    8468:	e1a0c00d 	mov	ip, sp
    846c:	e92dd800 	push	{fp, ip, lr, pc}
    8470:	e24cb004 	sub	fp, ip, #4
    8474:	e3500035 	cmp	r0, #53	; 0x35
    8478:	8a00000d 	bhi	84b4 <gpio_get_function+0x4c>
    847c:	e59f3038 	ldr	r3, [pc, #56]	; 84bc <gpio_get_function+0x54>
    8480:	e0832093 	umull	r2, r3, r3, r0
    8484:	e1a031a3 	lsr	r3, r3, #3
    8488:	e2832302 	add	r2, r3, #134217728	; 0x8000000
    848c:	e2822702 	add	r2, r2, #524288	; 0x80000
    8490:	e1a02102 	lsl	r2, r2, #2
    8494:	e5921000 	ldr	r1, [r2]
    8498:	e0833103 	add	r3, r3, r3, lsl #2
    849c:	e1a03083 	lsl	r3, r3, #1
    84a0:	e0632000 	rsb	r2, r3, r0
    84a4:	e0822082 	add	r2, r2, r2, lsl #1
    84a8:	e1a00231 	lsr	r0, r1, r2
    84ac:	e2000007 	and	r0, r0, #7
    84b0:	e89da800 	ldm	sp, {fp, sp, pc}
    84b4:	e3a00000 	mov	r0, #0
    84b8:	e89da800 	ldm	sp, {fp, sp, pc}
    84bc:	cccccccd 	stclgt	12, cr12, [ip], {205}	; 0xcd

000084c0 <gpio_set_input>:
    84c0:	e1a0c00d 	mov	ip, sp
    84c4:	e92dd800 	push	{fp, ip, lr, pc}
    84c8:	e24cb004 	sub	fp, ip, #4
    84cc:	e3a01000 	mov	r1, #0
    84d0:	ebffffcb 	bl	8404 <gpio_set_function>
    84d4:	e89da800 	ldm	sp, {fp, sp, pc}

000084d8 <gpio_set_output>:
    84d8:	e1a0c00d 	mov	ip, sp
    84dc:	e92dd800 	push	{fp, ip, lr, pc}
    84e0:	e24cb004 	sub	fp, ip, #4
    84e4:	e3a01001 	mov	r1, #1
    84e8:	ebffffc5 	bl	8404 <gpio_set_function>
    84ec:	e89da800 	ldm	sp, {fp, sp, pc}

000084f0 <gpio_write>:
    84f0:	e1a0c00d 	mov	ip, sp
    84f4:	e92dd800 	push	{fp, ip, lr, pc}
    84f8:	e24cb004 	sub	fp, ip, #4
    84fc:	e3500035 	cmp	r0, #53	; 0x35
    8500:	889da800 	ldmhi	sp, {fp, sp, pc}
    8504:	e200301f 	and	r3, r0, #31
    8508:	e3510000 	cmp	r1, #0
    850c:	0a000006 	beq	852c <gpio_write+0x3c>
    8510:	e59f2030 	ldr	r2, [pc, #48]	; 8548 <gpio_write+0x58>
    8514:	e08202a0 	add	r0, r2, r0, lsr #5
    8518:	e1a00100 	lsl	r0, r0, #2
    851c:	e3a02001 	mov	r2, #1
    8520:	e1a03312 	lsl	r3, r2, r3
    8524:	e5803000 	str	r3, [r0]
    8528:	e89da800 	ldm	sp, {fp, sp, pc}
    852c:	e59f2018 	ldr	r2, [pc, #24]	; 854c <gpio_write+0x5c>
    8530:	e08202a0 	add	r0, r2, r0, lsr #5
    8534:	e1a00100 	lsl	r0, r0, #2
    8538:	e3a02001 	mov	r2, #1
    853c:	e1a03312 	lsl	r3, r2, r3
    8540:	e5803000 	str	r3, [r0]
    8544:	e89da800 	ldm	sp, {fp, sp, pc}
    8548:	08080007 	stmdaeq	r8, {r0, r1, r2}
    854c:	0808000a 	stmdaeq	r8, {r1, r3}

00008550 <gpio_read>:
    8550:	e1a0c00d 	mov	ip, sp
    8554:	e92dd800 	push	{fp, ip, lr, pc}
    8558:	e24cb004 	sub	fp, ip, #4
    855c:	e3500035 	cmp	r0, #53	; 0x35
    8560:	8a000009 	bhi	858c <gpio_read+0x3c>
    8564:	e59f3028 	ldr	r3, [pc, #40]	; 8594 <gpio_read+0x44>
    8568:	e08332a0 	add	r3, r3, r0, lsr #5
    856c:	e1a03103 	lsl	r3, r3, #2
    8570:	e5933000 	ldr	r3, [r3]
    8574:	e200001f 	and	r0, r0, #31
    8578:	e3a02001 	mov	r2, #1
    857c:	e0132012 	ands	r2, r3, r2, lsl r0
    8580:	03a00000 	moveq	r0, #0
    8584:	13a00001 	movne	r0, #1
    8588:	e89da800 	ldm	sp, {fp, sp, pc}
    858c:	e3a00000 	mov	r0, #0
    8590:	e89da800 	ldm	sp, {fp, sp, pc}
    8594:	0808000d 	stmdaeq	r8, {r0, r2, r3}

00008598 <timer_init>:
    8598:	e1a0c00d 	mov	ip, sp
    859c:	e92dd800 	push	{fp, ip, lr, pc}
    85a0:	e24cb004 	sub	fp, ip, #4
    85a4:	e89da800 	ldm	sp, {fp, sp, pc}

000085a8 <timer_get_time>:
    85a8:	e1a0c00d 	mov	ip, sp
    85ac:	e92dd800 	push	{fp, ip, lr, pc}
    85b0:	e24cb004 	sub	fp, ip, #4
    85b4:	e59f3004 	ldr	r3, [pc, #4]	; 85c0 <timer_get_time+0x18>
    85b8:	e5930004 	ldr	r0, [r3, #4]
    85bc:	e89da800 	ldm	sp, {fp, sp, pc}
    85c0:	20003000 	andcs	r3, r0, r0

000085c4 <delay_us>:
    85c4:	e1a0c00d 	mov	ip, sp
    85c8:	e92dd830 	push	{r4, r5, fp, ip, lr, pc}
    85cc:	e24cb004 	sub	fp, ip, #4
    85d0:	e1a05000 	mov	r5, r0
    85d4:	ebfffff3 	bl	85a8 <timer_get_time>
    85d8:	e1a04000 	mov	r4, r0
    85dc:	ebfffff1 	bl	85a8 <timer_get_time>
    85e0:	e0640000 	rsb	r0, r4, r0
    85e4:	e1500005 	cmp	r0, r5
    85e8:	3afffffb 	bcc	85dc <delay_us+0x18>
    85ec:	e89da830 	ldm	sp, {r4, r5, fp, sp, pc}

000085f0 <delay_ms>:
    85f0:	e1a0c00d 	mov	ip, sp
    85f4:	e92dd878 	push	{r3, r4, r5, r6, fp, ip, lr, pc}
    85f8:	e24cb004 	sub	fp, ip, #4
    85fc:	e1a05000 	mov	r5, r0
    8600:	e3a04000 	mov	r4, #0
    8604:	e3a06ffa 	mov	r6, #1000	; 0x3e8
    8608:	ea000002 	b	8618 <delay_ms+0x28>
    860c:	e1a00006 	mov	r0, r6
    8610:	ebffffeb 	bl	85c4 <delay_us>
    8614:	e2844001 	add	r4, r4, #1
    8618:	e1540005 	cmp	r4, r5
    861c:	3afffffa 	bcc	860c <delay_ms+0x1c>
    8620:	e89da878 	ldm	sp, {r3, r4, r5, r6, fp, sp, pc}

00008624 <delay>:
    8624:	e1a0c00d 	mov	ip, sp
    8628:	e92dd878 	push	{r3, r4, r5, r6, fp, ip, lr, pc}
    862c:	e24cb004 	sub	fp, ip, #4
    8630:	e1a05000 	mov	r5, r0
    8634:	e3a04000 	mov	r4, #0
    8638:	e3a06ffa 	mov	r6, #1000	; 0x3e8
    863c:	ea000002 	b	864c <delay+0x28>
    8640:	e1a00006 	mov	r0, r6
    8644:	ebffffe9 	bl	85f0 <delay_ms>
    8648:	e2844001 	add	r4, r4, #1
    864c:	e1540005 	cmp	r4, r5
    8650:	3afffffa 	bcc	8640 <delay+0x1c>
    8654:	e89da878 	ldm	sp, {r3, r4, r5, r6, fp, sp, pc}

00008658 <until_us>:
    8658:	e1a0c00d 	mov	ip, sp
    865c:	e92dd818 	push	{r3, r4, fp, ip, lr, pc}
    8660:	e24cb004 	sub	fp, ip, #4
    8664:	e1a04000 	mov	r4, r0
    8668:	ebffffce 	bl	85a8 <timer_get_time>
    866c:	e1500004 	cmp	r0, r4
    8670:	1afffffc 	bne	8668 <until_us+0x10>
    8674:	e89da818 	ldm	sp, {r3, r4, fp, sp, pc}

00008678 <printf_init>:
    8678:	e1a0c00d 	mov	ip, sp
    867c:	e92dd800 	push	{fp, ip, lr, pc}
    8680:	e24cb004 	sub	fp, ip, #4
    8684:	eb000166 	bl	8c24 <uart_init>
    8688:	e89da800 	ldm	sp, {fp, sp, pc}

0000868c <reduceByTenPower>:
    868c:	e1a0c00d 	mov	ip, sp
    8690:	e92dd810 	push	{r4, fp, ip, lr, pc}
    8694:	e24cb004 	sub	fp, ip, #4
    8698:	e3a03000 	mov	r3, #0
    869c:	e59fc01c 	ldr	ip, [pc, #28]	; 86c0 <reduceByTenPower+0x34>
    86a0:	ea000003 	b	86b4 <reduceByTenPower+0x28>
    86a4:	e0c2409c 	smull	r4, r2, ip, r0
    86a8:	e1a00fc0 	asr	r0, r0, #31
    86ac:	e0600142 	rsb	r0, r0, r2, asr #2
    86b0:	e2833001 	add	r3, r3, #1
    86b4:	e1530001 	cmp	r3, r1
    86b8:	bafffff9 	blt	86a4 <reduceByTenPower+0x18>
    86bc:	e89da810 	ldm	sp, {r4, fp, sp, pc}
    86c0:	66666667 	strbtvs	r6, [r6], -r7, ror #12

000086c4 <inttobin>:
    86c4:	e1a0c00d 	mov	ip, sp
    86c8:	e92dd8f0 	push	{r4, r5, r6, r7, fp, ip, lr, pc}
    86cc:	e24cb004 	sub	fp, ip, #4
    86d0:	e1a05000 	mov	r5, r0
    86d4:	e1a04002 	mov	r4, r2
    86d8:	e3a0c000 	mov	ip, #0
    86dc:	ea000001 	b	86e8 <inttobin+0x24>
    86e0:	e28cc001 	add	ip, ip, #1
    86e4:	e1a040a4 	lsr	r4, r4, #1
    86e8:	e3540000 	cmp	r4, #0
    86ec:	1afffffb 	bne	86e0 <inttobin+0x1c>
    86f0:	e35c0000 	cmp	ip, #0
    86f4:	03a0c001 	moveq	ip, #1
    86f8:	e053300c 	subs	r3, r3, ip
    86fc:	43a03000 	movmi	r3, #0
    8700:	e3a04000 	mov	r4, #0
    8704:	e1a00004 	mov	r0, r4
    8708:	e2416001 	sub	r6, r1, #1
    870c:	e3a07030 	mov	r7, #48	; 0x30
    8710:	ea000003 	b	8724 <inttobin+0x60>
    8714:	e1560000 	cmp	r6, r0
    8718:	c7c57000 	strbgt	r7, [r5, r0]
    871c:	e2844001 	add	r4, r4, #1
    8720:	e2800001 	add	r0, r0, #1
    8724:	e1540003 	cmp	r4, r3
    8728:	bafffff9 	blt	8714 <inttobin+0x50>
    872c:	e3a03000 	mov	r3, #0
    8730:	e2414001 	sub	r4, r1, #1
    8734:	e24c7001 	sub	r7, ip, #1
    8738:	ea000008 	b	8760 <inttobin+0x9c>
    873c:	e1540000 	cmp	r4, r0
    8740:	da000004 	ble	8758 <inttobin+0x94>
    8744:	e0636007 	rsb	r6, r3, r7
    8748:	e1a06632 	lsr	r6, r2, r6
    874c:	e2066001 	and	r6, r6, #1
    8750:	e2866030 	add	r6, r6, #48	; 0x30
    8754:	e7c56000 	strb	r6, [r5, r0]
    8758:	e2833001 	add	r3, r3, #1
    875c:	e2800001 	add	r0, r0, #1
    8760:	e153000c 	cmp	r3, ip
    8764:	bafffff4 	blt	873c <inttobin+0x78>
    8768:	e1500001 	cmp	r0, r1
    876c:	aa000002 	bge	877c <inttobin+0xb8>
    8770:	e3a03000 	mov	r3, #0
    8774:	e7c53000 	strb	r3, [r5, r0]
    8778:	e89da8f0 	ldm	sp, {r4, r5, r6, r7, fp, sp, pc}
    877c:	e2411001 	sub	r1, r1, #1
    8780:	e3a03000 	mov	r3, #0
    8784:	e7c53001 	strb	r3, [r5, r1]
    8788:	e89da8f0 	ldm	sp, {r4, r5, r6, r7, fp, sp, pc}

0000878c <inttohex>:
    878c:	e1a0c00d 	mov	ip, sp
    8790:	e92dd8f0 	push	{r4, r5, r6, r7, fp, ip, lr, pc}
    8794:	e24cb004 	sub	fp, ip, #4
    8798:	e1a05000 	mov	r5, r0
    879c:	e1a04002 	mov	r4, r2
    87a0:	e3a0c000 	mov	ip, #0
    87a4:	ea000001 	b	87b0 <inttohex+0x24>
    87a8:	e28cc001 	add	ip, ip, #1
    87ac:	e1a04224 	lsr	r4, r4, #4
    87b0:	e3540000 	cmp	r4, #0
    87b4:	1afffffb 	bne	87a8 <inttohex+0x1c>
    87b8:	e35c0000 	cmp	ip, #0
    87bc:	03a0c001 	moveq	ip, #1
    87c0:	e053300c 	subs	r3, r3, ip
    87c4:	43a03000 	movmi	r3, #0
    87c8:	e3a04000 	mov	r4, #0
    87cc:	e1a00004 	mov	r0, r4
    87d0:	e2416001 	sub	r6, r1, #1
    87d4:	e3a07030 	mov	r7, #48	; 0x30
    87d8:	ea000003 	b	87ec <inttohex+0x60>
    87dc:	e1560000 	cmp	r6, r0
    87e0:	c7c57000 	strbgt	r7, [r5, r0]
    87e4:	e2844001 	add	r4, r4, #1
    87e8:	e2800001 	add	r0, r0, #1
    87ec:	e1540003 	cmp	r4, r3
    87f0:	bafffff9 	blt	87dc <inttohex+0x50>
    87f4:	e3a03000 	mov	r3, #0
    87f8:	e2416001 	sub	r6, r1, #1
    87fc:	e24c7001 	sub	r7, ip, #1
    8800:	ea00000c 	b	8838 <inttohex+0xac>
    8804:	e1560000 	cmp	r6, r0
    8808:	da000008 	ble	8830 <inttohex+0xa4>
    880c:	e0634007 	rsb	r4, r3, r7
    8810:	e1a04104 	lsl	r4, r4, #2
    8814:	e1a04432 	lsr	r4, r2, r4
    8818:	e204400f 	and	r4, r4, #15
    881c:	e3540009 	cmp	r4, #9
    8820:	d2844030 	addle	r4, r4, #48	; 0x30
    8824:	d7c54000 	strble	r4, [r5, r0]
    8828:	c2844057 	addgt	r4, r4, #87	; 0x57
    882c:	c7c54000 	strbgt	r4, [r5, r0]
    8830:	e2833001 	add	r3, r3, #1
    8834:	e2800001 	add	r0, r0, #1
    8838:	e153000c 	cmp	r3, ip
    883c:	bafffff0 	blt	8804 <inttohex+0x78>
    8840:	e1500001 	cmp	r0, r1
    8844:	aa000002 	bge	8854 <inttohex+0xc8>
    8848:	e3a03000 	mov	r3, #0
    884c:	e7c53000 	strb	r3, [r5, r0]
    8850:	e89da8f0 	ldm	sp, {r4, r5, r6, r7, fp, sp, pc}
    8854:	e2411001 	sub	r1, r1, #1
    8858:	e3a03000 	mov	r3, #0
    885c:	e7c53001 	strb	r3, [r5, r1]
    8860:	e89da8f0 	ldm	sp, {r4, r5, r6, r7, fp, sp, pc}

00008864 <inttodec>:
    8864:	e1a0c00d 	mov	ip, sp
    8868:	e92ddff0 	push	{r4, r5, r6, r7, r8, r9, sl, fp, ip, lr, pc}
    886c:	e24cb004 	sub	fp, ip, #4
    8870:	e24dd00c 	sub	sp, sp, #12
    8874:	e1a07000 	mov	r7, r0
    8878:	e50b1030 	str	r1, [fp, #-48]	; 0x30
    887c:	e1a09002 	mov	r9, r2
    8880:	e1b06fa2 	lsrs	r6, r2, #31
    8884:	12629000 	rsbne	r9, r2, #0
    8888:	e1a02009 	mov	r2, r9
    888c:	e1a01006 	mov	r1, r6
    8890:	e59fc114 	ldr	ip, [pc, #276]	; 89ac <inttodec+0x148>
    8894:	ea000003 	b	88a8 <inttodec+0x44>
    8898:	e2811001 	add	r1, r1, #1
    889c:	e0c0429c 	smull	r4, r0, ip, r2
    88a0:	e1a02fc2 	asr	r2, r2, #31
    88a4:	e0622140 	rsb	r2, r2, r0, asr #2
    88a8:	e3520000 	cmp	r2, #0
    88ac:	1afffff9 	bne	8898 <inttodec+0x34>
    88b0:	e3510000 	cmp	r1, #0
    88b4:	03a01001 	moveq	r1, #1
    88b8:	e0533001 	subs	r3, r3, r1
    88bc:	43a03000 	movmi	r3, #0
    88c0:	e3560000 	cmp	r6, #0
    88c4:	0a000007 	beq	88e8 <inttodec+0x84>
    88c8:	e51b4030 	ldr	r4, [fp, #-48]	; 0x30
    88cc:	e2442001 	sub	r2, r4, #1
    88d0:	e3520000 	cmp	r2, #0
    88d4:	da000005 	ble	88f0 <inttodec+0x8c>
    88d8:	e3a0202d 	mov	r2, #45	; 0x2d
    88dc:	e5c72000 	strb	r2, [r7]
    88e0:	e3a04001 	mov	r4, #1
    88e4:	ea000002 	b	88f4 <inttodec+0x90>
    88e8:	e3a04000 	mov	r4, #0
    88ec:	ea000000 	b	88f4 <inttodec+0x90>
    88f0:	e3a04001 	mov	r4, #1
    88f4:	e3a02000 	mov	r2, #0
    88f8:	e51bc030 	ldr	ip, [fp, #-48]	; 0x30
    88fc:	e24c0001 	sub	r0, ip, #1
    8900:	e3a0c030 	mov	ip, #48	; 0x30
    8904:	ea000003 	b	8918 <inttodec+0xb4>
    8908:	e1500004 	cmp	r0, r4
    890c:	c7c7c004 	strbgt	ip, [r7, r4]
    8910:	e2822001 	add	r2, r2, #1
    8914:	e2844001 	add	r4, r4, #1
    8918:	e1520003 	cmp	r2, r3
    891c:	bafffff9 	blt	8908 <inttodec+0xa4>
    8920:	e0666001 	rsb	r6, r6, r1
    8924:	e3a05000 	mov	r5, #0
    8928:	e51b0030 	ldr	r0, [fp, #-48]	; 0x30
    892c:	e2408001 	sub	r8, r0, #1
    8930:	e246a001 	sub	sl, r6, #1
    8934:	ea00000f 	b	8978 <inttodec+0x114>
    8938:	e1580004 	cmp	r8, r4
    893c:	da00000b 	ble	8970 <inttodec+0x10c>
    8940:	e1a00009 	mov	r0, r9
    8944:	e065100a 	rsb	r1, r5, sl
    8948:	ebffff4f 	bl	868c <reduceByTenPower>
    894c:	e59f3058 	ldr	r3, [pc, #88]	; 89ac <inttodec+0x148>
    8950:	e0c23093 	smull	r3, r2, r3, r0
    8954:	e1a03fc0 	asr	r3, r0, #31
    8958:	e0633142 	rsb	r3, r3, r2, asr #2
    895c:	e0833103 	add	r3, r3, r3, lsl #2
    8960:	e1a03083 	lsl	r3, r3, #1
    8964:	e0633000 	rsb	r3, r3, r0
    8968:	e2833030 	add	r3, r3, #48	; 0x30
    896c:	e7c73004 	strb	r3, [r7, r4]
    8970:	e2855001 	add	r5, r5, #1
    8974:	e2844001 	add	r4, r4, #1
    8978:	e1550006 	cmp	r5, r6
    897c:	baffffed 	blt	8938 <inttodec+0xd4>
    8980:	e51bc030 	ldr	ip, [fp, #-48]	; 0x30
    8984:	e154000c 	cmp	r4, ip
    8988:	b3a03000 	movlt	r3, #0
    898c:	b7c73004 	strblt	r3, [r7, r4]
    8990:	a51b0030 	ldrge	r0, [fp, #-48]	; 0x30
    8994:	a2403001 	subge	r3, r0, #1
    8998:	a3a02000 	movge	r2, #0
    899c:	a7c72003 	strbge	r2, [r7, r3]
    89a0:	e1a00004 	mov	r0, r4
    89a4:	e24bd028 	sub	sp, fp, #40	; 0x28
    89a8:	e89daff0 	ldm	sp, {r4, r5, r6, r7, r8, r9, sl, fp, sp, pc}
    89ac:	66666667 	strbtvs	r6, [r6], -r7, ror #12

000089b0 <vsnprintf>:
    89b0:	e1a0c00d 	mov	ip, sp
    89b4:	e92ddff8 	push	{r3, r4, r5, r6, r7, r8, r9, sl, fp, ip, lr, pc}
    89b8:	e24cb004 	sub	fp, ip, #4
    89bc:	e1a07000 	mov	r7, r0
    89c0:	e1a08001 	mov	r8, r1
    89c4:	e1a0a003 	mov	sl, r3
    89c8:	e3520000 	cmp	r2, #0
    89cc:	1a000004 	bne	89e4 <vsnprintf+0x34>
    89d0:	e3510000 	cmp	r1, #0
    89d4:	da00006b 	ble	8b88 <vsnprintf+0x1d8>
    89d8:	e3a00000 	mov	r0, #0
    89dc:	e5c70000 	strb	r0, [r7]
    89e0:	e89daff8 	ldm	sp, {r3, r4, r5, r6, r7, r8, r9, sl, fp, sp, pc}
    89e4:	e3510000 	cmp	r1, #0
    89e8:	c3a03000 	movgt	r3, #0
    89ec:	c5c03000 	strbgt	r3, [r0]
    89f0:	e3a04000 	mov	r4, #0
    89f4:	e2486001 	sub	r6, r8, #1
    89f8:	e1a09004 	mov	r9, r4
    89fc:	ea00005b 	b	8b70 <vsnprintf+0x1c0>
    8a00:	e3530025 	cmp	r3, #37	; 0x25
    8a04:	0a000006 	beq	8a24 <vsnprintf+0x74>
    8a08:	e1560004 	cmp	r6, r4
    8a0c:	c7c73004 	strbgt	r3, [r7, r4]
    8a10:	e2844001 	add	r4, r4, #1
    8a14:	e1540008 	cmp	r4, r8
    8a18:	b7c79004 	strblt	r9, [r7, r4]
    8a1c:	e1a02001 	mov	r2, r1
    8a20:	ea000052 	b	8b70 <vsnprintf+0x1c0>
    8a24:	e2825002 	add	r5, r2, #2
    8a28:	e5d21001 	ldrb	r1, [r2, #1]
    8a2c:	e3510025 	cmp	r1, #37	; 0x25
    8a30:	1a000006 	bne	8a50 <vsnprintf+0xa0>
    8a34:	e1560004 	cmp	r6, r4
    8a38:	c7c71004 	strbgt	r1, [r7, r4]
    8a3c:	e2844001 	add	r4, r4, #1
    8a40:	e1540008 	cmp	r4, r8
    8a44:	b7c79004 	strblt	r9, [r7, r4]
    8a48:	e1a02005 	mov	r2, r5
    8a4c:	ea000047 	b	8b70 <vsnprintf+0x1c0>
    8a50:	e3510030 	cmp	r1, #48	; 0x30
    8a54:	1a00000c 	bne	8a8c <vsnprintf+0xdc>
    8a58:	e1a03009 	mov	r3, r9
    8a5c:	e2852001 	add	r2, r5, #1
    8a60:	e5d51000 	ldrb	r1, [r5]
    8a64:	e2410030 	sub	r0, r1, #48	; 0x30
    8a68:	e6ef0070 	uxtb	r0, r0
    8a6c:	e3500009 	cmp	r0, #9
    8a70:	8a000007 	bhi	8a94 <vsnprintf+0xe4>
    8a74:	e2411030 	sub	r1, r1, #48	; 0x30
    8a78:	e0833103 	add	r3, r3, r3, lsl #2
    8a7c:	e1a03083 	lsl	r3, r3, #1
    8a80:	e0833001 	add	r3, r3, r1
    8a84:	e1a05002 	mov	r5, r2
    8a88:	eafffff3 	b	8a5c <vsnprintf+0xac>
    8a8c:	e1a03009 	mov	r3, r9
    8a90:	ea000000 	b	8a98 <vsnprintf+0xe8>
    8a94:	e1a05002 	mov	r5, r2
    8a98:	e3510073 	cmp	r1, #115	; 0x73
    8a9c:	1a00000f 	bne	8ae0 <vsnprintf+0x130>
    8aa0:	e59a3000 	ldr	r3, [sl]
    8aa4:	e28aa004 	add	sl, sl, #4
    8aa8:	ea000003 	b	8abc <vsnprintf+0x10c>
    8aac:	e1560004 	cmp	r6, r4
    8ab0:	c7c72004 	strbgt	r2, [r7, r4]
    8ab4:	e2844001 	add	r4, r4, #1
    8ab8:	e2833001 	add	r3, r3, #1
    8abc:	e3530000 	cmp	r3, #0
    8ac0:	0a000002 	beq	8ad0 <vsnprintf+0x120>
    8ac4:	e5d32000 	ldrb	r2, [r3]
    8ac8:	e3520000 	cmp	r2, #0
    8acc:	1afffff6 	bne	8aac <vsnprintf+0xfc>
    8ad0:	e1540008 	cmp	r4, r8
    8ad4:	b7c79004 	strblt	r9, [r7, r4]
    8ad8:	e1a02005 	mov	r2, r5
    8adc:	ea000023 	b	8b70 <vsnprintf+0x1c0>
    8ae0:	e59a2000 	ldr	r2, [sl]
    8ae4:	e28aa004 	add	sl, sl, #4
    8ae8:	e3510063 	cmp	r1, #99	; 0x63
    8aec:	1a000006 	bne	8b0c <vsnprintf+0x15c>
    8af0:	e1560004 	cmp	r6, r4
    8af4:	c7c72004 	strbgt	r2, [r7, r4]
    8af8:	e2844001 	add	r4, r4, #1
    8afc:	e1540008 	cmp	r4, r8
    8b00:	b7c79004 	strblt	r9, [r7, r4]
    8b04:	e1a02005 	mov	r2, r5
    8b08:	ea000018 	b	8b70 <vsnprintf+0x1c0>
    8b0c:	e3510064 	cmp	r1, #100	; 0x64
    8b10:	1a000005 	bne	8b2c <vsnprintf+0x17c>
    8b14:	e0870004 	add	r0, r7, r4
    8b18:	e0641008 	rsb	r1, r4, r8
    8b1c:	ebffff50 	bl	8864 <inttodec>
    8b20:	e0844000 	add	r4, r4, r0
    8b24:	e1a02005 	mov	r2, r5
    8b28:	ea000010 	b	8b70 <vsnprintf+0x1c0>
    8b2c:	e3510078 	cmp	r1, #120	; 0x78
    8b30:	1a000005 	bne	8b4c <vsnprintf+0x19c>
    8b34:	e0870004 	add	r0, r7, r4
    8b38:	e0641008 	rsb	r1, r4, r8
    8b3c:	ebffff12 	bl	878c <inttohex>
    8b40:	e0844000 	add	r4, r4, r0
    8b44:	e1a02005 	mov	r2, r5
    8b48:	ea000008 	b	8b70 <vsnprintf+0x1c0>
    8b4c:	e3510062 	cmp	r1, #98	; 0x62
    8b50:	1a000005 	bne	8b6c <vsnprintf+0x1bc>
    8b54:	e0870004 	add	r0, r7, r4
    8b58:	e0641008 	rsb	r1, r4, r8
    8b5c:	ebfffed8 	bl	86c4 <inttobin>
    8b60:	e0844000 	add	r4, r4, r0
    8b64:	e1a02005 	mov	r2, r5
    8b68:	ea000000 	b	8b70 <vsnprintf+0x1c0>
    8b6c:	e1a02005 	mov	r2, r5
    8b70:	e2821001 	add	r1, r2, #1
    8b74:	e5d23000 	ldrb	r3, [r2]
    8b78:	e3530000 	cmp	r3, #0
    8b7c:	1affff9f 	bne	8a00 <vsnprintf+0x50>
    8b80:	e1a00004 	mov	r0, r4
    8b84:	e89daff8 	ldm	sp, {r3, r4, r5, r6, r7, r8, r9, sl, fp, sp, pc}
    8b88:	e3a00000 	mov	r0, #0
    8b8c:	e89daff8 	ldm	sp, {r3, r4, r5, r6, r7, r8, r9, sl, fp, sp, pc}

00008b90 <snprintf>:
    8b90:	e1a0c00d 	mov	ip, sp
    8b94:	e92d000c 	push	{r2, r3}
    8b98:	e92dd800 	push	{fp, ip, lr, pc}
    8b9c:	e24cb00c 	sub	fp, ip, #12
    8ba0:	e24dd008 	sub	sp, sp, #8
    8ba4:	e28b3008 	add	r3, fp, #8
    8ba8:	e50b3010 	str	r3, [fp, #-16]
    8bac:	e59b2004 	ldr	r2, [fp, #4]
    8bb0:	ebffff7e 	bl	89b0 <vsnprintf>
    8bb4:	e24bd00c 	sub	sp, fp, #12
    8bb8:	e89da800 	ldm	sp, {fp, sp, pc}

00008bbc <printf>:
    8bbc:	e1a0c00d 	mov	ip, sp
    8bc0:	e92d000f 	push	{r0, r1, r2, r3}
    8bc4:	e92dd830 	push	{r4, r5, fp, ip, lr, pc}
    8bc8:	e24cb014 	sub	fp, ip, #20
    8bcc:	e24ddb01 	sub	sp, sp, #1024	; 0x400
    8bd0:	e24dd008 	sub	sp, sp, #8
    8bd4:	e28b3008 	add	r3, fp, #8
    8bd8:	e50b3418 	str	r3, [fp, #-1048]	; 0x418
    8bdc:	e24b0e41 	sub	r0, fp, #1040	; 0x410
    8be0:	e2400004 	sub	r0, r0, #4
    8be4:	e3a01b01 	mov	r1, #1024	; 0x400
    8be8:	e59b2004 	ldr	r2, [fp, #4]
    8bec:	ebffff6f 	bl	89b0 <vsnprintf>
    8bf0:	e1a05000 	mov	r5, r0
    8bf4:	e24b3e41 	sub	r3, fp, #1040	; 0x410
    8bf8:	e2433004 	sub	r3, r3, #4
    8bfc:	ea000001 	b	8c08 <printf+0x4c>
    8c00:	eb00002d 	bl	8cbc <uart_putc>
    8c04:	e1a03004 	mov	r3, r4
    8c08:	e2834001 	add	r4, r3, #1
    8c0c:	e5d30000 	ldrb	r0, [r3]
    8c10:	e3500000 	cmp	r0, #0
    8c14:	1afffff9 	bne	8c00 <printf+0x44>
    8c18:	e1a00005 	mov	r0, r5
    8c1c:	e24bd014 	sub	sp, fp, #20
    8c20:	e89da830 	ldm	sp, {r4, r5, fp, sp, pc}

00008c24 <uart_init>:
    8c24:	e1a0c00d 	mov	ip, sp
    8c28:	e92dd830 	push	{r4, r5, fp, ip, lr, pc}
    8c2c:	e24cb004 	sub	fp, ip, #4
    8c30:	e59f404c 	ldr	r4, [pc, #76]	; 8c84 <uart_init+0x60>
    8c34:	e3a03001 	mov	r3, #1
    8c38:	e5843004 	str	r3, [r4, #4]
    8c3c:	e3a03000 	mov	r3, #0
    8c40:	e5843044 	str	r3, [r4, #68]	; 0x44
    8c44:	e5843060 	str	r3, [r4, #96]	; 0x60
    8c48:	e3a05003 	mov	r5, #3
    8c4c:	e584504c 	str	r5, [r4, #76]	; 0x4c
    8c50:	e5843050 	str	r3, [r4, #80]	; 0x50
    8c54:	e5843044 	str	r3, [r4, #68]	; 0x44
    8c58:	e3a0000e 	mov	r0, #14
    8c5c:	e5840048 	str	r0, [r4, #72]	; 0x48
    8c60:	e59f3020 	ldr	r3, [pc, #32]	; 8c88 <uart_init+0x64>
    8c64:	e5843068 	str	r3, [r4, #104]	; 0x68
    8c68:	e3a01002 	mov	r1, #2
    8c6c:	ebfffde4 	bl	8404 <gpio_set_function>
    8c70:	e3a0000f 	mov	r0, #15
    8c74:	e3a01002 	mov	r1, #2
    8c78:	ebfffde1 	bl	8404 <gpio_set_function>
    8c7c:	e5845060 	str	r5, [r4, #96]	; 0x60
    8c80:	e89da830 	ldm	sp, {r4, r5, fp, sp, pc}
    8c84:	20215000 	eorcs	r5, r1, r0
    8c88:	0000010e 	andeq	r0, r0, lr, lsl #2

00008c8c <uart_getc>:
    8c8c:	e1a0c00d 	mov	ip, sp
    8c90:	e92dd800 	push	{fp, ip, lr, pc}
    8c94:	e24cb004 	sub	fp, ip, #4
    8c98:	e59f2018 	ldr	r2, [pc, #24]	; 8cb8 <uart_getc+0x2c>
    8c9c:	e5923054 	ldr	r3, [r2, #84]	; 0x54
    8ca0:	e3130001 	tst	r3, #1
    8ca4:	0afffffc 	beq	8c9c <uart_getc+0x10>
    8ca8:	e59f3008 	ldr	r3, [pc, #8]	; 8cb8 <uart_getc+0x2c>
    8cac:	e5930040 	ldr	r0, [r3, #64]	; 0x40
    8cb0:	e6ef0070 	uxtb	r0, r0
    8cb4:	e89da800 	ldm	sp, {fp, sp, pc}
    8cb8:	20215000 	eorcs	r5, r1, r0

00008cbc <uart_putc>:
    8cbc:	e1a0c00d 	mov	ip, sp
    8cc0:	e92dd818 	push	{r3, r4, fp, ip, lr, pc}
    8cc4:	e24cb004 	sub	fp, ip, #4
    8cc8:	e1a04000 	mov	r4, r0
    8ccc:	e350000a 	cmp	r0, #10
    8cd0:	1a000001 	bne	8cdc <uart_putc+0x20>
    8cd4:	e3a0000d 	mov	r0, #13
    8cd8:	ebfffff7 	bl	8cbc <uart_putc>
    8cdc:	e59f2014 	ldr	r2, [pc, #20]	; 8cf8 <uart_putc+0x3c>
    8ce0:	e5923054 	ldr	r3, [r2, #84]	; 0x54
    8ce4:	e3130020 	tst	r3, #32
    8ce8:	0afffffc 	beq	8ce0 <uart_putc+0x24>
    8cec:	e59f3004 	ldr	r3, [pc, #4]	; 8cf8 <uart_putc+0x3c>
    8cf0:	e5834040 	str	r4, [r3, #64]	; 0x40
    8cf4:	e89da818 	ldm	sp, {r3, r4, fp, sp, pc}
    8cf8:	20215000 	eorcs	r5, r1, r0

00008cfc <uart_flush>:
    8cfc:	e1a0c00d 	mov	ip, sp
    8d00:	e92dd800 	push	{fp, ip, lr, pc}
    8d04:	e24cb004 	sub	fp, ip, #4
    8d08:	e59f200c 	ldr	r2, [pc, #12]	; 8d1c <uart_flush+0x20>
    8d0c:	e5923054 	ldr	r3, [r2, #84]	; 0x54
    8d10:	e3130020 	tst	r3, #32
    8d14:	0afffffc 	beq	8d0c <uart_flush+0x10>
    8d18:	e89da800 	ldm	sp, {fp, sp, pc}
    8d1c:	20215000 	eorcs	r5, r1, r0

00008d20 <gpio_set_pud>:
    8d20:	e1a0c00d 	mov	ip, sp
    8d24:	e92dd830 	push	{r4, r5, fp, ip, lr, pc}
    8d28:	e24cb004 	sub	fp, ip, #4
    8d2c:	e1a04000 	mov	r4, r0
    8d30:	e3500034 	cmp	r0, #52	; 0x34
    8d34:	889da830 	ldmhi	sp, {r4, r5, fp, sp, pc}
    8d38:	e2011003 	and	r1, r1, #3
    8d3c:	e59f5040 	ldr	r5, [pc, #64]	; 8d84 <gpio_set_pud+0x64>
    8d40:	e5851094 	str	r1, [r5, #148]	; 0x94
    8d44:	e3a00005 	mov	r0, #5
    8d48:	ebfffe1d 	bl	85c4 <delay_us>
    8d4c:	e204401f 	and	r4, r4, #31
    8d50:	e3a03001 	mov	r3, #1
    8d54:	e1a04413 	lsl	r4, r3, r4
    8d58:	e5854098 	str	r4, [r5, #152]	; 0x98
    8d5c:	e3a00005 	mov	r0, #5
    8d60:	ebfffe17 	bl	85c4 <delay_us>
    8d64:	e3a04000 	mov	r4, #0
    8d68:	e5854094 	str	r4, [r5, #148]	; 0x94
    8d6c:	e3a00005 	mov	r0, #5
    8d70:	ebfffe13 	bl	85c4 <delay_us>
    8d74:	e5854098 	str	r4, [r5, #152]	; 0x98
    8d78:	e3a00005 	mov	r0, #5
    8d7c:	ebfffe10 	bl	85c4 <delay_us>
    8d80:	e89da830 	ldm	sp, {r4, r5, fp, sp, pc}
    8d84:	20200000 	eorcs	r0, r0, r0

00008d88 <gpio_set_pullup>:
    8d88:	e1a0c00d 	mov	ip, sp
    8d8c:	e92dd800 	push	{fp, ip, lr, pc}
    8d90:	e24cb004 	sub	fp, ip, #4
    8d94:	e3500034 	cmp	r0, #52	; 0x34
    8d98:	889da800 	ldmhi	sp, {fp, sp, pc}
    8d9c:	e3a01002 	mov	r1, #2
    8da0:	ebffffde 	bl	8d20 <gpio_set_pud>
    8da4:	e89da800 	ldm	sp, {fp, sp, pc}

00008da8 <gpio_set_pulldown>:
    8da8:	e1a0c00d 	mov	ip, sp
    8dac:	e92dd800 	push	{fp, ip, lr, pc}
    8db0:	e24cb004 	sub	fp, ip, #4
    8db4:	e3a01001 	mov	r1, #1
    8db8:	ebffffd8 	bl	8d20 <gpio_set_pud>
    8dbc:	e89da800 	ldm	sp, {fp, sp, pc}

00008dc0 <__aeabi_uidiv>:
    8dc0:	e2512001 	subs	r2, r1, #1
    8dc4:	012fff1e 	bxeq	lr
    8dc8:	3a000036 	bcc	8ea8 <__aeabi_uidiv+0xe8>
    8dcc:	e1500001 	cmp	r0, r1
    8dd0:	9a000022 	bls	8e60 <__aeabi_uidiv+0xa0>
    8dd4:	e1110002 	tst	r1, r2
    8dd8:	0a000023 	beq	8e6c <__aeabi_uidiv+0xac>
    8ddc:	e311020e 	tst	r1, #-536870912	; 0xe0000000
    8de0:	01a01181 	lsleq	r1, r1, #3
    8de4:	03a03008 	moveq	r3, #8
    8de8:	13a03001 	movne	r3, #1
    8dec:	e3510201 	cmp	r1, #268435456	; 0x10000000
    8df0:	31510000 	cmpcc	r1, r0
    8df4:	31a01201 	lslcc	r1, r1, #4
    8df8:	31a03203 	lslcc	r3, r3, #4
    8dfc:	3afffffa 	bcc	8dec <__aeabi_uidiv+0x2c>
    8e00:	e3510102 	cmp	r1, #-2147483648	; 0x80000000
    8e04:	31510000 	cmpcc	r1, r0
    8e08:	31a01081 	lslcc	r1, r1, #1
    8e0c:	31a03083 	lslcc	r3, r3, #1
    8e10:	3afffffa 	bcc	8e00 <__aeabi_uidiv+0x40>
    8e14:	e3a02000 	mov	r2, #0
    8e18:	e1500001 	cmp	r0, r1
    8e1c:	20400001 	subcs	r0, r0, r1
    8e20:	21822003 	orrcs	r2, r2, r3
    8e24:	e15000a1 	cmp	r0, r1, lsr #1
    8e28:	204000a1 	subcs	r0, r0, r1, lsr #1
    8e2c:	218220a3 	orrcs	r2, r2, r3, lsr #1
    8e30:	e1500121 	cmp	r0, r1, lsr #2
    8e34:	20400121 	subcs	r0, r0, r1, lsr #2
    8e38:	21822123 	orrcs	r2, r2, r3, lsr #2
    8e3c:	e15001a1 	cmp	r0, r1, lsr #3
    8e40:	204001a1 	subcs	r0, r0, r1, lsr #3
    8e44:	218221a3 	orrcs	r2, r2, r3, lsr #3
    8e48:	e3500000 	cmp	r0, #0
    8e4c:	11b03223 	lsrsne	r3, r3, #4
    8e50:	11a01221 	lsrne	r1, r1, #4
    8e54:	1affffef 	bne	8e18 <__aeabi_uidiv+0x58>
    8e58:	e1a00002 	mov	r0, r2
    8e5c:	e12fff1e 	bx	lr
    8e60:	03a00001 	moveq	r0, #1
    8e64:	13a00000 	movne	r0, #0
    8e68:	e12fff1e 	bx	lr
    8e6c:	e3510801 	cmp	r1, #65536	; 0x10000
    8e70:	21a01821 	lsrcs	r1, r1, #16
    8e74:	23a02010 	movcs	r2, #16
    8e78:	33a02000 	movcc	r2, #0
    8e7c:	e3510c01 	cmp	r1, #256	; 0x100
    8e80:	21a01421 	lsrcs	r1, r1, #8
    8e84:	22822008 	addcs	r2, r2, #8
    8e88:	e3510010 	cmp	r1, #16
    8e8c:	21a01221 	lsrcs	r1, r1, #4
    8e90:	22822004 	addcs	r2, r2, #4
    8e94:	e3510004 	cmp	r1, #4
    8e98:	82822003 	addhi	r2, r2, #3
    8e9c:	908220a1 	addls	r2, r2, r1, lsr #1
    8ea0:	e1a00230 	lsr	r0, r0, r2
    8ea4:	e12fff1e 	bx	lr
    8ea8:	e3500000 	cmp	r0, #0
    8eac:	13e00000 	mvnne	r0, #0
    8eb0:	ea000007 	b	8ed4 <__aeabi_idiv0>

00008eb4 <__aeabi_uidivmod>:
    8eb4:	e3510000 	cmp	r1, #0
    8eb8:	0afffffa 	beq	8ea8 <__aeabi_uidiv+0xe8>
    8ebc:	e92d4003 	push	{r0, r1, lr}
    8ec0:	ebffffbe 	bl	8dc0 <__aeabi_uidiv>
    8ec4:	e8bd4006 	pop	{r1, r2, lr}
    8ec8:	e0030092 	mul	r3, r2, r0
    8ecc:	e0411003 	sub	r1, r1, r3
    8ed0:	e12fff1e 	bx	lr

00008ed4 <__aeabi_idiv0>:
    8ed4:	e12fff1e 	bx	lr

Disassembly of section .data:

00008ed8 <clk>:
    8ed8:	20101000 	andscs	r1, r0, r0

00008edc <waveform_sine>:
    8edc:	00000020 	andeq	r0, r0, r0, lsr #32
    8ee0:	00000023 	andeq	r0, r0, r3, lsr #32
    8ee4:	00000026 	andeq	r0, r0, r6, lsr #32
    8ee8:	00000029 	andeq	r0, r0, r9, lsr #32
    8eec:	0000002c 	andeq	r0, r0, ip, lsr #32
    8ef0:	0000002f 	andeq	r0, r0, pc, lsr #32
    8ef4:	00000031 	andeq	r0, r0, r1, lsr r0
    8ef8:	00000034 	andeq	r0, r0, r4, lsr r0
    8efc:	00000036 	andeq	r0, r0, r6, lsr r0
    8f00:	00000038 	andeq	r0, r0, r8, lsr r0
    8f04:	0000003a 	andeq	r0, r0, sl, lsr r0
    8f08:	0000003c 	andeq	r0, r0, ip, lsr r0
    8f0c:	0000003d 	andeq	r0, r0, sp, lsr r0
    8f10:	0000003e 	andeq	r0, r0, lr, lsr r0
    8f14:	0000003f 	andeq	r0, r0, pc, lsr r0
    8f18:	00000040 	andeq	r0, r0, r0, asr #32
    8f1c:	00000040 	andeq	r0, r0, r0, asr #32
    8f20:	0000003f 	andeq	r0, r0, pc, lsr r0
    8f24:	0000003f 	andeq	r0, r0, pc, lsr r0
    8f28:	0000003e 	andeq	r0, r0, lr, lsr r0
    8f2c:	0000003d 	andeq	r0, r0, sp, lsr r0
    8f30:	0000003c 	andeq	r0, r0, ip, lsr r0
    8f34:	0000003a 	andeq	r0, r0, sl, lsr r0
    8f38:	00000038 	andeq	r0, r0, r8, lsr r0
    8f3c:	00000036 	andeq	r0, r0, r6, lsr r0
    8f40:	00000034 	andeq	r0, r0, r4, lsr r0
    8f44:	00000031 	andeq	r0, r0, r1, lsr r0
    8f48:	0000002f 	andeq	r0, r0, pc, lsr #32
    8f4c:	0000002c 	andeq	r0, r0, ip, lsr #32
    8f50:	00000029 	andeq	r0, r0, r9, lsr #32
    8f54:	00000026 	andeq	r0, r0, r6, lsr #32
    8f58:	00000023 	andeq	r0, r0, r3, lsr #32
    8f5c:	00000020 	andeq	r0, r0, r0, lsr #32
    8f60:	0000001d 	andeq	r0, r0, sp, lsl r0
    8f64:	0000001a 	andeq	r0, r0, sl, lsl r0
    8f68:	00000017 	andeq	r0, r0, r7, lsl r0
    8f6c:	00000014 	andeq	r0, r0, r4, lsl r0
    8f70:	00000011 	andeq	r0, r0, r1, lsl r0
    8f74:	0000000f 	andeq	r0, r0, pc
    8f78:	0000000c 	andeq	r0, r0, ip
    8f7c:	0000000a 	andeq	r0, r0, sl
    8f80:	00000008 	andeq	r0, r0, r8
    8f84:	00000006 	andeq	r0, r0, r6
    8f88:	00000004 	andeq	r0, r0, r4
    8f8c:	00000003 	andeq	r0, r0, r3
    8f90:	00000002 	andeq	r0, r0, r2
    8f94:	00000001 	andeq	r0, r0, r1
    8f98:	00000001 	andeq	r0, r0, r1
    8f9c:	00000000 	andeq	r0, r0, r0
    8fa0:	00000001 	andeq	r0, r0, r1
    8fa4:	00000001 	andeq	r0, r0, r1
    8fa8:	00000002 	andeq	r0, r0, r2
    8fac:	00000003 	andeq	r0, r0, r3
    8fb0:	00000004 	andeq	r0, r0, r4
    8fb4:	00000006 	andeq	r0, r0, r6
    8fb8:	00000008 	andeq	r0, r0, r8
    8fbc:	0000000a 	andeq	r0, r0, sl
    8fc0:	0000000c 	andeq	r0, r0, ip
    8fc4:	0000000f 	andeq	r0, r0, pc
    8fc8:	00000011 	andeq	r0, r0, r1, lsl r0
    8fcc:	00000014 	andeq	r0, r0, r4, lsl r0
    8fd0:	00000017 	andeq	r0, r0, r7, lsl r0
    8fd4:	0000001a 	andeq	r0, r0, sl, lsl r0
    8fd8:	0000001d 	andeq	r0, r0, sp, lsl r0
    8fdc:	00000020 	andeq	r0, r0, r0, lsr #32

00008fe0 <pwm>:
    8fe0:	2020c000 	eorcs	ip, r0, r0

00008fe4 <gpio>:
    8fe4:	20200000 	eorcs	r0, r0, r0

Disassembly of section .rodata:

00008fe8 <SYSTIMERCLO-0x28>:
    8fe8:	000001ee 	andeq	r0, r0, lr, ror #3
    8fec:	000f4240 	andeq	r4, pc, r0, asr #4
    8ff0:	000001b8 			; <UNDEFINED> instruction: 0x000001b8
    8ff4:	000f4240 	andeq	r4, pc, r0, asr #4
    8ff8:	00000188 	andeq	r0, r0, r8, lsl #3
    8ffc:	001e8480 	andseq	r8, lr, r0, lsl #9
    9000:	00000188 	andeq	r0, r0, r8, lsl #3
    9004:	0007a120 	andeq	sl, r7, r0, lsr #2
    9008:	000001b8 			; <UNDEFINED> instruction: 0x000001b8
    900c:	0007a120 	andeq	sl, r7, r0, lsr #2

00009010 <SYSTIMERCLO>:
    9010:	20003004 	andcs	r3, r0, r4

Disassembly of section .bss:

00009014 <waveform_square>:
	...

00009114 <waveform_saw>:
	...

00009214 <waveform_triangle>:
	...

Disassembly of section .debug_info:

00000000 <.debug_info>:
       0:	000002dc 	ldrdeq	r0, [r0], -ip
       4:	00000004 	andeq	r0, r0, r4
       8:	01040000 	mrseq	r0, (UNDEF: 4)
       c:	00000028 	andeq	r0, r0, r8, lsr #32
      10:	00000801 	andeq	r0, r0, r1, lsl #16
      14:	0000ad00 	andeq	sl, r0, r0, lsl #26
      18:	00801000 	addeq	r1, r0, r0
      1c:	00013400 	andeq	r3, r1, r0, lsl #8
      20:	00000000 	andeq	r0, r0, r0
      24:	02010200 	andeq	r0, r1, #0, 4
      28:	0000460f 	andeq	r4, r0, pc, lsl #12
      2c:	00130300 	andseq	r0, r3, r0, lsl #6
      30:	03000000 	movweq	r0, #0
      34:	0000010b 	andeq	r0, r0, fp, lsl #2
      38:	001f0301 	andseq	r0, pc, r1, lsl #6
      3c:	03020000 	movweq	r0, #8192	; 0x2000
      40:	000000ef 	andeq	r0, r0, pc, ror #1
      44:	69040003 	stmdbvs	r4, {r0, r1}
      48:	02000000 	andeq	r0, r0, #0
      4c:	00002514 	andeq	r2, r0, r4, lsl r5
      50:	02020200 	andeq	r0, r2, #0, 4
      54:	00008316 	andeq	r8, r0, r6, lsl r3
      58:	00430500 	subeq	r0, r3, r0, lsl #10
      5c:	4405048b 	strmi	r0, [r5], #-1163	; 0x48b
      60:	0504cb00 	streq	ip, [r4, #-2816]	; 0xb00
      64:	02ca0045 	sbceq	r0, sl, #69	; 0x45
      68:	dd004605 	stcle	6, cr4, [r0, #-20]	; 0xffffffec
      6c:	00470502 	subeq	r0, r7, r2, lsl #10
      70:	41050388 	smlabbmi	r5, r8, r3, r0
      74:	0503b800 	streq	fp, [r3, #-2048]	; 0x800
      78:	03ee0042 	mvneq	r0, #66	; 0x42
      7c:	0000a803 	andeq	sl, r0, r3, lsl #16
      80:	04000000 	streq	r0, [r0], #-0
      84:	000000fd 	strdeq	r0, [r0], -sp
      88:	00512002 	subseq	r2, r1, r2
      8c:	04020000 	streq	r0, [r2], #-0
      90:	00b92202 	adcseq	r2, r9, r2, lsl #4
      94:	05030000 	streq	r0, [r3, #-0]
      98:	80000001 	andhi	r0, r0, r1
      9c:	0301f492 	movweq	pc, #5266	; 0x1492	; <UNPREDICTABLE>
      a0:	00000059 	andeq	r0, r0, r9, asr r0
      a4:	00fa8980 	rscseq	r8, sl, r0, lsl #19
      a8:	52545105 	subspl	r5, r4, #1073741825	; 0x40000001
      ac:	3d84c000 	stccc	0, cr12, [r4]
      b0:	54494505 	strbpl	r4, [r9], #-1285	; 0x505
      b4:	1ec2a000 	cdpne	0, 12, cr10, cr2, cr0, {0}
      b8:	00950400 	addseq	r0, r5, r0, lsl #8
      bc:	28020000 	stmdacs	r2, {}	; <UNPREDICTABLE>
      c0:	0000008e 	andeq	r0, r0, lr, lsl #1
      c4:	2a020806 	bcs	820e4 <__bss_end__+0x78dcc>
      c8:	000000e5 	andeq	r0, r0, r5, ror #1
      cc:	00009007 	andeq	r9, r0, r7
      d0:	832b0200 	teqhi	fp, #0, 4
      d4:	00000000 	andeq	r0, r0, r0
      d8:	00033807 	andeq	r3, r3, r7, lsl #16
      dc:	b92c0200 	stmdblt	ip!, {r9}
      e0:	04000000 	streq	r0, [r0], #-0
      e4:	00000400 	andeq	r0, r0, r0, lsl #8
      e8:	2d020000 	stccs	0, cr0, [r2, #-0]
      ec:	000000c4 	andeq	r0, r0, r4, asr #1
      f0:	00007508 	andeq	r7, r0, r8, lsl #10
      f4:	10030100 	andne	r0, r3, r0, lsl #2
      f8:	34000080 	strcc	r0, [r0], #-128	; 0x80
      fc:	01000001 	tsteq	r0, r1
     100:	0002c09c 	muleq	r2, ip, r0
     104:	01150900 	tsteq	r5, r0, lsl #18
     108:	05010000 	streq	r0, [r1, #-0]
     10c:	000000e5 	andeq	r0, r0, r5, ror #1
     110:	0000530a 	andeq	r5, r0, sl, lsl #6
     114:	e5060100 	str	r0, [r6, #-256]	; 0x100
     118:	02000000 	andeq	r0, r0, #0
     11c:	9d0a6091 	stcls	0, cr6, [sl, #-580]	; 0xfffffdbc
     120:	01000000 	mrseq	r0, (UNDEF: 0)
     124:	0000e507 	andeq	lr, r0, r7, lsl #10
     128:	58910200 	ldmpl	r1, {r9}
     12c:	0000a20a 	andeq	sl, r0, sl, lsl #4
     130:	e5080100 	str	r0, [r8, #-256]	; 0x100
     134:	02000000 	andeq	r0, r0, #0
     138:	7a095091 	bvc	254384 <__bss_end__+0x24b06c>
     13c:	01000000 	mrseq	r0, (UNDEF: 0)
     140:	0000e509 	andeq	lr, r0, r9, lsl #10
     144:	00580900 	subseq	r0, r8, r0, lsl #18
     148:	0a010000 	beq	40150 <__bss_end__+0x36e38>
     14c:	000000e5 	andeq	r0, r0, r5, ror #1
     150:	0000e50a 	andeq	lr, r0, sl, lsl #10
     154:	e50b0100 	str	r0, [fp, #-256]	; 0x100
     158:	02000000 	andeq	r0, r0, #0
     15c:	ea094891 	b	2523a8 <__bss_end__+0x249090>
     160:	01000000 	mrseq	r0, (UNDEF: 0)
     164:	0000e50c 	andeq	lr, r0, ip, lsl #10
     168:	00800a00 	addeq	r0, r0, r0, lsl #20
     16c:	0d010000 	stceq	0, cr0, [r1, #-0]
     170:	000000e5 	andeq	r0, r0, r5, ror #1
     174:	0b409102 	bleq	1024584 <__bss_end__+0x101b26c>
     178:	0000801c 	andeq	r8, r0, ip, lsl r0
     17c:	000002c0 	andeq	r0, r0, r0, asr #5
     180:	0080740c 	addeq	r7, r0, ip, lsl #8
     184:	0002cd00 	andeq	ip, r2, r0, lsl #26
     188:	00019300 	andeq	r9, r1, r0, lsl #6
     18c:	50010d00 	andpl	r0, r1, r0, lsl #26
     190:	0c003101 	stfeqs	f3, [r0], {1}
     194:	00008080 	andeq	r8, r0, r0, lsl #1
     198:	000002cd 	andeq	r0, r0, sp, asr #5
     19c:	000001a6 	andeq	r0, r0, r6, lsr #3
     1a0:	0150010d 	cmpeq	r0, sp, lsl #2
     1a4:	8c0c0031 	stchi	0, cr0, [ip], {49}	; 0x31
     1a8:	cd000080 	stcgt	0, cr0, [r0, #-512]	; 0xfffffe00
     1ac:	b9000002 	stmdblt	r0, {r1}
     1b0:	0d000001 	stceq	0, cr0, [r0, #-4]
     1b4:	31015001 	tstcc	r1, r1
     1b8:	80980c00 	addshi	r0, r8, r0, lsl #24
     1bc:	02cd0000 	sbceq	r0, sp, #0
     1c0:	01cc0000 	biceq	r0, ip, r0
     1c4:	010d0000 	mrseq	r0, (UNDEF: 13)
     1c8:	00310150 	eorseq	r0, r1, r0, asr r1
     1cc:	0080a40c 	addeq	sl, r0, ip, lsl #8
     1d0:	0002cd00 	andeq	ip, r2, r0, lsl #26
     1d4:	0001df00 	andeq	sp, r1, r0, lsl #30
     1d8:	50010d00 	andpl	r0, r1, r0, lsl #26
     1dc:	0c003101 	stfeqs	f3, [r0], {1}
     1e0:	000080b0 	strheq	r8, [r0], -r0
     1e4:	000002cd 	andeq	r0, r0, sp, asr #5
     1e8:	000001f2 	strdeq	r0, [r0], -r2
     1ec:	0150010d 	cmpeq	r0, sp, lsl #2
     1f0:	bc0c0031 	stclt	0, cr0, [ip], {49}	; 0x31
     1f4:	cd000080 	stcgt	0, cr0, [r0, #-512]	; 0xfffffe00
     1f8:	05000002 	streq	r0, [r0, #-2]
     1fc:	0d000002 	stceq	0, cr0, [r0, #-8]
     200:	31015001 	tstcc	r1, r1
     204:	80c80c00 	sbchi	r0, r8, r0, lsl #24
     208:	02cd0000 	sbceq	r0, sp, #0
     20c:	02180000 	andseq	r0, r8, #0
     210:	010d0000 	mrseq	r0, (UNDEF: 13)
     214:	00310150 	eorseq	r0, r1, r0, asr r1
     218:	0080d40c 	addeq	sp, r0, ip, lsl #8
     21c:	0002cd00 	andeq	ip, r2, r0, lsl #26
     220:	00022b00 	andeq	r2, r2, r0, lsl #22
     224:	50010d00 	andpl	r0, r1, r0, lsl #26
     228:	0c003101 	stfeqs	f3, [r0], {1}
     22c:	000080e0 	andeq	r8, r0, r0, ror #1
     230:	000002cd 	andeq	r0, r0, sp, asr #5
     234:	0000023e 	andeq	r0, r0, lr, lsr r2
     238:	0150010d 	cmpeq	r0, sp, lsl #2
     23c:	ec0c0031 	stc	0, cr0, [ip], {49}	; 0x31
     240:	cd000080 	stcgt	0, cr0, [r0, #-512]	; 0xfffffe00
     244:	51000002 	tstpl	r0, r2
     248:	0d000002 	stceq	0, cr0, [r0, #-8]
     24c:	31015001 	tstcc	r1, r1
     250:	80f80c00 	rscshi	r0, r8, r0, lsl #24
     254:	02cd0000 	sbceq	r0, sp, #0
     258:	02640000 	rsbeq	r0, r4, #0
     25c:	010d0000 	mrseq	r0, (UNDEF: 13)
     260:	00310150 	eorseq	r0, r1, r0, asr r1
     264:	0081040c 	addeq	r0, r1, ip, lsl #8
     268:	0002cd00 	andeq	ip, r2, r0, lsl #26
     26c:	00027700 	andeq	r7, r2, r0, lsl #14
     270:	50010d00 	andpl	r0, r1, r0, lsl #26
     274:	0c003101 	stfeqs	f3, [r0], {1}
     278:	00008110 	andeq	r8, r0, r0, lsl r1
     27c:	000002cd 	andeq	r0, r0, sp, asr #5
     280:	0000028a 	andeq	r0, r0, sl, lsl #5
     284:	0150010d 	cmpeq	r0, sp, lsl #2
     288:	1c0c0031 	stcne	0, cr0, [ip], {49}	; 0x31
     28c:	cd000081 	stcgt	0, cr0, [r0, #-516]	; 0xfffffdfc
     290:	9d000002 	stcls	0, cr0, [r0, #-8]
     294:	0d000002 	stceq	0, cr0, [r0, #-8]
     298:	31015001 	tstcc	r1, r1
     29c:	81280c00 	teqhi	r8, r0, lsl #24
     2a0:	02cd0000 	sbceq	r0, sp, #0
     2a4:	02b00000 	adcseq	r0, r0, #0
     2a8:	010d0000 	mrseq	r0, (UNDEF: 13)
     2ac:	00310150 	eorseq	r0, r1, r0, asr r1
     2b0:	0081340e 	addeq	r3, r1, lr, lsl #8
     2b4:	0002cd00 	andeq	ip, r2, r0, lsl #26
     2b8:	50010d00 	andpl	r0, r1, r0, lsl #26
     2bc:	00003101 	andeq	r3, r0, r1, lsl #2
     2c0:	00005e0f 	andeq	r5, r0, pc, lsl #28
     2c4:	cd2f0200 	sfmgt	f0, 4, [pc, #-0]	; 2cc <_start-0x7d34>
     2c8:	10000002 	andne	r0, r0, r2
     2cc:	00851100 	addeq	r1, r5, r0, lsl #2
     2d0:	31020000 	mrscc	r0, (UNDEF: 2)
     2d4:	00004612 	andeq	r4, r0, r2, lsl r6
     2d8:	00e51200 	rsceq	r1, r5, r0, lsl #4
     2dc:	00000000 	andeq	r0, r0, r0
     2e0:	00000087 	andeq	r0, r0, r7, lsl #1
     2e4:	00ed0004 	rsceq	r0, sp, r4
     2e8:	01040000 	mrseq	r0, (UNDEF: 4)
     2ec:	00000028 	andeq	r0, r0, r8, lsr #32
     2f0:	00012e01 	andeq	r2, r1, r1, lsl #28
     2f4:	0000ad00 	andeq	sl, r0, r0, lsl #26
     2f8:	00814400 	addeq	r4, r1, r0, lsl #8
     2fc:	00003800 	andeq	r3, r0, r0, lsl #16
     300:	00005b00 	andeq	r5, r0, r0, lsl #22
     304:	01370200 	teqeq	r7, r0, lsl #4
     308:	06010000 	streq	r0, [r1], -r0
     30c:	00008144 	andeq	r8, r0, r4, asr #2
     310:	00000038 	andeq	r0, r0, r8, lsr r0
     314:	005e9c01 	subseq	r9, lr, r1, lsl #24
     318:	62030000 	andvs	r0, r3, #0
     31c:	01007373 	tsteq	r0, r3, ror r3
     320:	00005e07 	andeq	r5, r0, r7, lsl #28
     324:	00000000 	andeq	r0, r0, r0
     328:	01260400 	teqeq	r6, r0, lsl #8
     32c:	08010000 	stmdaeq	r1, {}	; <UNPREDICTABLE>
     330:	0000005e 	andeq	r0, r0, lr, asr r0
     334:	00816c05 	addeq	r6, r1, r5, lsl #24
     338:	00008100 	andeq	r8, r0, r0, lsl #2
     33c:	04060000 	streq	r0, [r6], #-0
     340:	00000064 	andeq	r0, r0, r4, rrx
     344:	69050407 	stmdbvs	r5, {r0, r1, r2, sl}
     348:	0800746e 	stmdaeq	r0, {r1, r2, r3, r5, r6, sl, ip, sp, lr}
     34c:	0000013f 	andeq	r0, r0, pc, lsr r1
     350:	00640101 	rsbeq	r0, r4, r1, lsl #2
     354:	1a080000 	bne	20035c <__bss_end__+0x1f7044>
     358:	01000001 	tsteq	r0, r1
     35c:	00006402 	andeq	r6, r0, r2, lsl #8
     360:	00750900 	rsbseq	r0, r5, r0, lsl #18
     364:	04010000 	streq	r0, [r1], #-0
     368:	1a00000a 	bne	398 <_start-0x7c68>
     36c:	04000003 	streq	r0, [r0], #-3
     370:	00017900 	andeq	r7, r1, r0, lsl #18
     374:	28010400 	stmdacs	r1, {sl}
     378:	01000000 	mrseq	r0, (UNDEF: 0)
     37c:	000001ba 			; <UNDEFINED> instruction: 0x000001ba
     380:	000000ad 	andeq	r0, r0, sp, lsr #1
     384:	0000817c 	andeq	r8, r0, ip, ror r1
     388:	00000248 	andeq	r0, r0, r8, asr #4
     38c:	0000009d 	muleq	r0, sp, r0
     390:	0f020102 	svceq	0x00020102
     394:	00000046 	andeq	r0, r0, r6, asr #32
     398:	00001303 	andeq	r1, r0, r3, lsl #6
     39c:	0b030000 	bleq	c03a4 <__bss_end__+0xb708c>
     3a0:	01000001 	tsteq	r0, r1
     3a4:	00001f03 	andeq	r1, r0, r3, lsl #30
     3a8:	ef030200 	svc	0x00030200
     3ac:	03000000 	movweq	r0, #0
     3b0:	00690400 	rsbeq	r0, r9, r0, lsl #8
     3b4:	14020000 	strne	r0, [r2], #-0
     3b8:	00000025 	andeq	r0, r0, r5, lsr #32
     3bc:	16020202 	strne	r0, [r2], -r2, lsl #4
     3c0:	00000083 	andeq	r0, r0, r3, lsl #1
     3c4:	8b004305 	blhi	10fe0 <__bss_end__+0x7cc8>
     3c8:	00440504 	subeq	r0, r4, r4, lsl #10
     3cc:	450504cb 	strmi	r0, [r5, #-1227]	; 0x4cb
     3d0:	0502ca00 	streq	ip, [r2, #-2560]	; 0xa00
     3d4:	02dd0046 	sbcseq	r0, sp, #70	; 0x46
     3d8:	88004705 	stmdahi	r0, {r0, r2, r8, r9, sl, lr}
     3dc:	00410503 	subeq	r0, r1, r3, lsl #10
     3e0:	420503b8 	andmi	r0, r5, #184, 6	; 0xe0000002
     3e4:	0303ee00 	movweq	lr, #15872	; 0x3e00
     3e8:	000000a8 	andeq	r0, r0, r8, lsr #1
     3ec:	fd040000 	stc2	0, cr0, [r4, #-0]
     3f0:	02000000 	andeq	r0, r0, #0
     3f4:	00005120 	andeq	r5, r0, r0, lsr #2
     3f8:	02040200 	andeq	r0, r4, #0, 4
     3fc:	0000b922 	andeq	fp, r0, r2, lsr #18
     400:	01050300 	mrseq	r0, SP_abt
     404:	92800000 	addls	r0, r0, #0
     408:	590301f4 	stmdbpl	r3, {r2, r4, r5, r6, r7, r8}
     40c:	80000000 	andhi	r0, r0, r0
     410:	0500fa89 	streq	pc, [r0, #-2697]	; 0xa89
     414:	00525451 	subseq	r5, r2, r1, asr r4
     418:	053d84c0 	ldreq	r8, [sp, #-1216]!	; 0x4c0
     41c:	00544945 	subseq	r4, r4, r5, asr #18
     420:	001ec2a0 	andseq	ip, lr, r0, lsr #5
     424:	00009504 	andeq	r9, r0, r4, lsl #10
     428:	8e280200 	cdphi	2, 2, cr0, cr8, cr0, {0}
     42c:	06000000 	streq	r0, [r0], -r0
     430:	e52a0208 	str	r0, [sl, #-520]!	; 0x208
     434:	07000000 	streq	r0, [r0, -r0]
     438:	00000090 	muleq	r0, r0, r0
     43c:	00832b02 	addeq	r2, r3, r2, lsl #22
     440:	07000000 	streq	r0, [r0, -r0]
     444:	00000338 	andeq	r0, r0, r8, lsr r3
     448:	00b92c02 	adcseq	r2, r9, r2, lsl #24
     44c:	00040000 	andeq	r0, r4, r0
     450:	00000004 	andeq	r0, r0, r4
     454:	c42d0200 	strtgt	r0, [sp], #-512	; 0x200
     458:	08000000 	stmdaeq	r0, {}	; <UNPREDICTABLE>
     45c:	000001cf 	andeq	r0, r0, pc, asr #3
     460:	01376101 	teqeq	r7, r1, lsl #2
     464:	817c0000 	cmnhi	ip, r0
     468:	008c0000 	addeq	r0, ip, r0
     46c:	9c010000 	stcls	0, cr0, [r1], {-0}
     470:	00000137 	andeq	r0, r0, r7, lsr r1
     474:	00014d09 	andeq	r4, r1, r9, lsl #26
     478:	37610100 	strbcc	r0, [r1, -r0, lsl #2]!
     47c:	20000001 	andcs	r0, r0, r1
     480:	0a000000 	beq	488 <_start-0x7b78>
     484:	000001c2 	andeq	r0, r0, r2, asr #3
     488:	01376a01 	teqeq	r7, r1, lsl #20
     48c:	004e0000 	subeq	r0, lr, r0
     490:	aa0a0000 	bge	280498 <__bss_end__+0x277180>
     494:	01000001 	tsteq	r0, r1
     498:	0001376b 	andeq	r3, r1, fp, ror #14
     49c:	00006c00 	andeq	r6, r0, r0, lsl #24
     4a0:	040b0000 	streq	r0, [fp], #-0
     4a4:	00025607 	andeq	r5, r2, r7, lsl #12
     4a8:	00850c00 	addeq	r0, r5, r0, lsl #24
     4ac:	85010000 	strhi	r0, [r1, #-0]
     4b0:	00008208 	andeq	r8, r0, r8, lsl #4
     4b4:	00000124 	andeq	r0, r0, r4, lsr #2
     4b8:	02149c01 	andseq	r9, r4, #256	; 0x100
     4bc:	97090000 	strls	r0, [r9, -r0]
     4c0:	01000001 	tsteq	r0, r1
     4c4:	00004685 	andeq	r4, r0, r5, lsl #13
     4c8:	0000c500 	andeq	ip, r0, r0, lsl #10
     4cc:	01800d00 	orreq	r0, r0, r0, lsl #26
     4d0:	85010000 	strhi	r0, [r1, #-0]
     4d4:	000000e5 	andeq	r0, r0, r5, ror #1
     4d8:	0a689102 	beq	1a248e8 <__bss_end__+0x1a1b5d0>
     4dc:	00000185 	andeq	r0, r0, r5, lsl #3
     4e0:	02148601 	andseq	r8, r4, #1048576	; 0x100000
     4e4:	00e60000 	rsceq	r0, r6, r0
     4e8:	5c0e0000 	stcpl	0, cr0, [lr], {-0}
     4ec:	a8000082 	stmdage	r0, {r1, r7}
     4f0:	fd000000 	stc2	0, cr0, [r0, #-0]
     4f4:	0f000001 	svceq	0x00000001
     4f8:	b2010069 	andlt	r0, r1, #105	; 0x69
     4fc:	0000021a 	andeq	r0, r0, sl, lsl r2
     500:	000000f9 	strdeq	r0, [r0], -r9
     504:	0003380a 	andeq	r3, r3, sl, lsl #16
     508:	1ab40100 	bne	fed00910 <__bss_end__+0xfecf75f8>
     50c:	23000002 	movwcs	r0, #2
     510:	10000001 	andne	r0, r0, r1
     514:	00000000 	andeq	r0, r0, r0
     518:	000001c1 	andeq	r0, r0, r1, asr #3
     51c:	0001790a 	andeq	r7, r1, sl, lsl #18
     520:	1ab70100 	bne	fedc0928 <__bss_end__+0xfedb7610>
     524:	42000002 	andmi	r0, r0, #2
     528:	00000001 	andeq	r0, r0, r1
     52c:	00827411 	addeq	r7, r2, r1, lsl r4
     530:	00031000 	andeq	r1, r3, r0
     534:	0001d600 	andeq	sp, r1, r0, lsl #12
     538:	50011200 	andpl	r1, r1, r0, lsl #4
     53c:	07d00a03 	ldrbeq	r0, [r0, r3, lsl #20]
     540:	82881100 	addhi	r1, r8, #0, 2
     544:	03100000 	tsteq	r0, #0
     548:	01eb0000 	mvneq	r0, r0
     54c:	01120000 	tsteq	r2, r0
     550:	d00a0350 	andle	r0, sl, r0, asr r3
     554:	a8130007 	ldmdage	r3, {r0, r1, r2}
     558:	10000082 	andne	r0, r0, r2, lsl #1
     55c:	12000003 	andne	r0, r0, #3
     560:	0a035001 	beq	d456c <__bss_end__+0xcb254>
     564:	000007d0 	ldrdeq	r0, [r0], -r0	; <UNPREDICTABLE>
     568:	00825413 	addeq	r5, r2, r3, lsl r4
     56c:	0000f000 	andeq	pc, r0, r0
     570:	50011200 	andpl	r1, r1, r0, lsl #4
     574:	94007d08 	strls	r7, [r0], #-3336	; 0xd08
     578:	ffff0a02 			; <UNDEFINED> instruction: 0xffff0a02
     57c:	1400001a 	strne	r0, [r0], #-26
     580:	00013704 	andeq	r3, r1, r4, lsl #14
     584:	05041500 	streq	r1, [r4, #-1280]	; 0x500
     588:	00746e69 	rsbseq	r6, r4, r9, ror #28
     58c:	00005e16 	andeq	r5, r0, r6, lsl lr
     590:	2cc80100 	stfcse	f0, [r8], {0}
     594:	94000083 	strls	r0, [r0], #-131	; 0x83
     598:	01000000 	mrseq	r0, (UNDEF: 0)
     59c:	0002559c 	muleq	r2, ip, r5
     5a0:	00690f00 	rsbeq	r0, r9, r0, lsl #30
     5a4:	021ac901 	andseq	ip, sl, #16384	; 0x4000
     5a8:	01550000 	cmpeq	r5, r0
     5ac:	58130000 	ldmdapl	r3, {}	; <UNPREDICTABLE>
     5b0:	10000083 	andne	r0, r0, r3, lsl #1
     5b4:	12000003 	andne	r0, r0, #3
     5b8:	0a035001 	beq	d45c4 <__bss_end__+0xcb2ac>
     5bc:	000007d0 	ldrdeq	r0, [r0], -r0	; <UNPREDICTABLE>
     5c0:	0001e817 	andeq	lr, r1, r7, lsl r8
     5c4:	01190100 	tsteq	r9, r0, lsl #2
     5c8:	000083c0 	andeq	r8, r0, r0, asr #7
     5cc:	00000004 	andeq	r0, r0, r4
     5d0:	8e189c01 	cdphi	12, 1, cr9, cr8, cr1, {0}
     5d4:	01000001 	tsteq	r0, r1
     5d8:	00027848 	andeq	r7, r2, r8, asr #16
     5dc:	e4030500 	str	r0, [r3], #-1280	; 0x500
     5e0:	1400008f 	strne	r0, [r0], #-143	; 0x8f
     5e4:	00027e04 	andeq	r7, r2, r4, lsl #28
     5e8:	01371900 	teqeq	r7, r0, lsl #18
     5ec:	631a0000 	tstvs	sl, #0
     5f0:	01006b6c 	tsteq	r0, ip, ror #22
     5f4:	00027849 	andeq	r7, r2, r9, asr #16
     5f8:	d8030500 	stmdale	r3, {r8, sl}
     5fc:	1a00008e 	bne	83c <_start-0x77c4>
     600:	006d7770 	rsbeq	r7, sp, r0, ror r7
     604:	02784a01 	rsbseq	r4, r8, #4096	; 0x1000
     608:	03050000 	movweq	r0, #20480	; 0x5000
     60c:	00008fe0 	andeq	r8, r0, r0, ror #31
     610:	0001371b 	andeq	r3, r1, fp, lsl r7
     614:	0002b500 	andeq	fp, r2, r0, lsl #10
     618:	02b51c00 	adcseq	r1, r5, #0, 24
     61c:	003f0000 	eorseq	r0, pc, r0
     620:	9307040b 	movwls	r0, #29707	; 0x740b
     624:	18000001 	stmdane	r0, {r0}
     628:	00000169 	andeq	r0, r0, r9, ror #2
     62c:	02a54d01 	adceq	r4, r5, #1, 26	; 0x40
     630:	03050000 	movweq	r0, #20480	; 0x5000
     634:	00009014 	andeq	r9, r0, r4, lsl r0
     638:	00015718 	andeq	r5, r1, r8, lsl r7
     63c:	a54e0100 	strbge	r0, [lr, #-256]	; 0x100
     640:	05000002 	streq	r0, [r0, #-2]
     644:	00921403 	addseq	r1, r2, r3, lsl #8
     648:	01f81800 	mvnseq	r1, r0, lsl #16
     64c:	4f010000 	svcmi	0x00010000
     650:	000002a5 	andeq	r0, r0, r5, lsr #5
     654:	91140305 	tstls	r4, r5, lsl #6
     658:	371b0000 	ldrcc	r0, [fp, -r0]
     65c:	ff000001 			; <UNDEFINED> instruction: 0xff000001
     660:	1c000002 	stcne	0, cr0, [r0], {2}
     664:	000002b5 			; <UNDEFINED> instruction: 0x000002b5
     668:	9c180040 	ldcls	0, cr0, [r8], {64}	; 0x40
     66c:	01000001 	tsteq	r0, r1
     670:	0002efd5 	ldrdeq	lr, [r2], -r5
     674:	dc030500 	cfstr32le	mvfx0, [r3], {-0}
     678:	1d00008e 	stcne	0, cr0, [r0, #-568]	; 0xfffffdc8
     67c:	000001df 	ldrdeq	r0, [r0], -pc	; <UNPREDICTABLE>
     680:	371e0f03 	ldrcc	r0, [lr, -r3, lsl #30]
     684:	00000001 	andeq	r0, r0, r1
     688:	0002be00 	andeq	fp, r2, r0, lsl #28
     68c:	1f000400 	svcne	0x00000400
     690:	04000003 	streq	r0, [r0], #-3
     694:	00021601 	andeq	r1, r2, r1, lsl #12
     698:	03050100 	movweq	r0, #20736	; 0x5100
     69c:	002e0000 	eoreq	r0, lr, r0
     6a0:	00000018 	andeq	r0, r0, r8, lsl r0
     6a4:	00000000 	andeq	r0, r0, r0
     6a8:	00000160 	andeq	r0, r0, r0, ror #2
     6ac:	4c070802 	stcmi	8, cr0, [r7], {2}
     6b0:	02000002 	andeq	r0, r0, #2
     6b4:	02560704 	subseq	r0, r6, #4, 14	; 0x100000
     6b8:	01030000 	mrseq	r0, (UNDEF: 3)
     6bc:	00704f02 	rsbseq	r4, r0, r2, lsl #30
     6c0:	0c040000 	stceq	0, cr0, [r4], {-0}
     6c4:	00000003 	andeq	r0, r0, r3
     6c8:	00022204 	andeq	r2, r2, r4, lsl #4
     6cc:	3d040100 	stfccs	f0, [r4, #-0]
     6d0:	04000002 	streq	r0, [r0], #-2
     6d4:	0002ec04 	andeq	lr, r2, r4, lsl #24
     6d8:	63040500 	movwvs	r0, #17664	; 0x4500
     6dc:	06000002 	streq	r0, [r0], -r2
     6e0:	00027204 	andeq	r7, r2, r4, lsl #4
     6e4:	81040700 	tsthi	r4, r0, lsl #14
     6e8:	03000002 	movweq	r0, #2
     6ec:	00029004 	andeq	r9, r2, r4
     6f0:	b3040200 	movwlt	r0, #16896	; 0x4200
     6f4:	08000002 	stmdaeq	r0, {r1}
     6f8:	02fb0500 	rscseq	r0, fp, #0, 10
     6fc:	21010000 	mrscs	r0, (UNDEF: 1)
     700:	000083f4 	strdeq	r8, [r0], -r4
     704:	00000010 	andeq	r0, r0, r0, lsl r0
     708:	1c069c01 	stcne	12, cr9, [r6], {1}
     70c:	01000003 	tsteq	r0, r3
     710:	00840424 	addeq	r0, r4, r4, lsr #8
     714:	00006400 	andeq	r6, r0, r0, lsl #8
     718:	ea9c0100 	b	fe700b20 <__bss_end__+0xfe6f7808>
     71c:	07000000 	streq	r0, [r0, -r0]
     720:	006e6970 	rsbeq	r6, lr, r0, ror r9
     724:	002a2401 	eoreq	r2, sl, r1, lsl #8
     728:	50010000 	andpl	r0, r1, r0
     72c:	0002d508 	andeq	sp, r2, r8, lsl #10
     730:	2a240100 	bcs	900b38 <__bss_end__+0x8f7820>
     734:	74000000 	strvc	r0, [r0], #-0
     738:	09000001 	stmdbeq	r0, {r0}
     73c:	000002ae 	andeq	r0, r0, lr, lsr #5
     740:	002a2c01 	eoreq	r2, sl, r1, lsl #24
     744:	5c010000 	stcpl	0, cr0, [r1], {-0}
     748:	6765720a 	strbvs	r7, [r5, -sl, lsl #4]!
     74c:	ea2d0100 	b	b40b54 <__bss_end__+0xb3783c>
     750:	01000000 	mrseq	r0, (UNDEF: 0)
     754:	61720b5c 	cmnvs	r2, ip, asr fp
     758:	2a2e0100 	bcs	b80b60 <__bss_end__+0xb77848>
     75c:	95000000 	strls	r0, [r0, #-0]
     760:	0c000001 	stceq	0, cr0, [r0], {1}
     764:	00000205 	andeq	r0, r0, r5, lsl #4
     768:	002a2f01 	eoreq	r2, sl, r1, lsl #30
     76c:	01be0000 			; <UNDEFINED> instruction: 0x01be0000
     770:	0d000000 	stceq	0, cr0, [r0, #-0]
     774:	0000f004 	andeq	pc, r0, r4
     778:	002a0e00 	eoreq	r0, sl, r0, lsl #28
     77c:	da0f0000 	ble	3c0784 <__bss_end__+0x3b746c>
     780:	01000002 	tsteq	r0, r2
     784:	00002a36 	andeq	r2, r0, r6, lsr sl
     788:	00846800 	addeq	r6, r4, r0, lsl #16
     78c:	00005800 	andeq	r5, r0, r0, lsl #16
     790:	599c0100 	ldmibpl	ip, {r8}
     794:	10000001 	andne	r0, r0, r1
     798:	006e6970 	rsbeq	r6, lr, r0, ror r9
     79c:	002a3601 	eoreq	r3, sl, r1, lsl #12
     7a0:	02000000 	andeq	r0, r0, #0
     7a4:	ae0c0000 	cdpge	0, 0, cr0, cr12, cr0, {0}
     7a8:	01000002 	tsteq	r0, r2
     7ac:	00002a3b 	andeq	r2, r0, fp, lsr sl
     7b0:	00023a00 	andeq	r3, r2, r0, lsl #20
     7b4:	65720b00 	ldrbvs	r0, [r2, #-2816]!	; 0xb00
     7b8:	3c010067 	stccc	0, cr0, [r1], {103}	; 0x67
     7bc:	000000ea 	andeq	r0, r0, sl, ror #1
     7c0:	0000023a 	andeq	r0, r0, sl, lsr r2
     7c4:	0061720b 	rsbeq	r7, r1, fp, lsl #4
     7c8:	002a3d01 	eoreq	r3, sl, r1, lsl #26
     7cc:	02a80000 	adceq	r0, r8, #0
     7d0:	050c0000 	streq	r0, [ip, #-0]
     7d4:	01000002 	tsteq	r0, r2
     7d8:	00002a3e 	andeq	r2, r0, lr, lsr sl
     7dc:	0002bb00 	andeq	fp, r2, r0, lsl #22
     7e0:	9f060000 	svcls	0x00060000
     7e4:	01000002 	tsteq	r0, r2
     7e8:	0084c043 	addeq	ip, r4, r3, asr #32
     7ec:	00001800 	andeq	r1, r0, r0, lsl #16
     7f0:	949c0100 	ldrls	r0, [ip], #256	; 0x100
     7f4:	10000001 	andne	r0, r0, r1
     7f8:	006e6970 	rsbeq	r6, lr, r0, ror r9
     7fc:	002a4301 	eoreq	r4, sl, r1, lsl #6
     800:	02ce0000 	sbceq	r0, lr, #0
     804:	d4110000 	ldrle	r0, [r1], #-0
     808:	81000084 	smlabbhi	r0, r4, r0, r0
     80c:	12000000 	andne	r0, r0, #0
     810:	30015101 	andcc	r5, r1, r1, lsl #2
     814:	03500112 	cmpeq	r0, #-2147483644	; 0x80000004
     818:	005001f3 	ldrsheq	r0, [r0], #-19	; 0xffffffed
     81c:	02c50600 	sbceq	r0, r5, #0, 12
     820:	47010000 	strmi	r0, [r1, -r0]
     824:	000084d8 	ldrdeq	r8, [r0], -r8	; <UNPREDICTABLE>
     828:	00000018 	andeq	r0, r0, r8, lsl r0
     82c:	01cf9c01 	biceq	r9, pc, r1, lsl #24
     830:	70100000 	andsvc	r0, r0, r0
     834:	01006e69 	tsteq	r0, r9, ror #28
     838:	00002a47 	andeq	r2, r0, r7, asr #20
     83c:	0002ef00 	andeq	lr, r2, r0, lsl #30
     840:	84ec1100 	strbthi	r1, [ip], #256	; 0x100
     844:	00810000 	addeq	r0, r1, r0
     848:	01120000 	tsteq	r2, r0
     84c:	12310151 	eorsne	r0, r1, #1073741844	; 0x40000014
     850:	f3035001 	vhadd.u8	d5, d3, d1
     854:	00005001 	andeq	r5, r0, r1
     858:	00020b06 	andeq	r0, r2, r6, lsl #22
     85c:	f04c0100 			; <UNDEFINED> instruction: 0xf04c0100
     860:	60000084 	andvs	r0, r0, r4, lsl #1
     864:	01000000 	mrseq	r0, (UNDEF: 0)
     868:	0002609c 	muleq	r2, ip, r0
     86c:	69701000 	ldmdbvs	r0!, {ip}^
     870:	4c01006e 	stcmi	0, cr0, [r1], {110}	; 0x6e
     874:	0000002a 	andeq	r0, r0, sl, lsr #32
     878:	00000310 	andeq	r0, r0, r0, lsl r3
     87c:	6c617607 	stclvs	6, cr7, [r1], #-28	; 0xffffffe4
     880:	2a4c0100 	bcs	1300c88 <__bss_end__+0x12f7970>
     884:	01000000 	mrseq	r0, (UNDEF: 0)
     888:	02050c51 	andeq	r0, r5, #20736	; 0x5100
     88c:	51010000 	mrspl	r0, (UNDEF: 1)
     890:	0000002a 	andeq	r0, r0, sl, lsr #32
     894:	0000034a 	andeq	r0, r0, sl, asr #6
     898:	00851013 	addeq	r1, r5, r3, lsl r0
     89c:	00001800 	andeq	r1, r0, r0, lsl #16
     8a0:	00023b00 	andeq	r3, r2, r0, lsl #22
     8a4:	02ae0c00 	adceq	r0, lr, #0, 24
     8a8:	54010000 	strpl	r0, [r1], #-0
     8ac:	0000002a 	andeq	r0, r0, sl, lsr #32
     8b0:	00000388 	andeq	r0, r0, r8, lsl #7
     8b4:	6765720b 	strbvs	r7, [r5, -fp, lsl #4]!
     8b8:	ea550100 	b	1540cc0 <__bss_end__+0x15379a8>
     8bc:	88000000 	stmdahi	r0, {}	; <UNPREDICTABLE>
     8c0:	00000003 	andeq	r0, r0, r3
     8c4:	00852c14 	addeq	r2, r5, r4, lsl ip
     8c8:	00002400 	andeq	r2, r0, r0, lsl #8
     8cc:	02ae0900 	adceq	r0, lr, #0, 18
     8d0:	58010000 	stmdapl	r1, {}	; <UNPREDICTABLE>
     8d4:	0000002a 	andeq	r0, r0, sl, lsr #32
     8d8:	720a5001 	andvc	r5, sl, #1
     8dc:	01006765 	tsteq	r0, r5, ror #14
     8e0:	0000ea59 	andeq	lr, r0, r9, asr sl
     8e4:	00500100 	subseq	r0, r0, r0, lsl #2
     8e8:	02331500 	eorseq	r1, r3, #0, 10
     8ec:	5e010000 	cdppl	0, 0, cr0, cr1, cr0, {0}
     8f0:	0000002a 	andeq	r0, r0, sl, lsr #32
     8f4:	00008550 	andeq	r8, r0, r0, asr r5
     8f8:	00000048 	andeq	r0, r0, r8, asr #32
     8fc:	70109c01 	andsvc	r9, r0, r1, lsl #24
     900:	01006e69 	tsteq	r0, r9, ror #28
     904:	00002a5e 	andeq	r2, r0, lr, asr sl
     908:	00039b00 	andeq	r9, r3, r0, lsl #22
     90c:	02ae0c00 	adceq	r0, lr, #0, 24
     910:	63010000 	movwvs	r0, #4096	; 0x1000
     914:	0000002a 	andeq	r0, r0, sl, lsr #32
     918:	000003d5 	ldrdeq	r0, [r0], -r5
     91c:	6765720b 	strbvs	r7, [r5, -fp, lsl #4]!
     920:	ea640100 	b	1900d28 <__bss_end__+0x18f7a10>
     924:	d5000000 	strle	r0, [r0, #-0]
     928:	0b000003 	bleq	93c <_start-0x76c4>
     92c:	006c6176 	rsbeq	r6, ip, r6, ror r1
     930:	002a6501 	eoreq	r6, sl, r1, lsl #10
     934:	04150000 	ldreq	r0, [r5], #-0
     938:	050c0000 	streq	r0, [ip, #-0]
     93c:	01000002 	tsteq	r0, r2
     940:	00002a66 	andeq	r2, r0, r6, ror #20
     944:	00042800 	andeq	r2, r4, r0, lsl #16
     948:	ad000000 	stcge	0, cr0, [r0, #-0]
     94c:	04000001 	streq	r0, [r0], #-1
     950:	00046000 	andeq	r6, r4, r0
     954:	16010400 	strne	r0, [r1], -r0, lsl #8
     958:	01000002 	tsteq	r0, r2
     95c:	00000356 	andeq	r0, r0, r6, asr r3
     960:	0058002e 	subseq	r0, r8, lr, lsr #32
     964:	00000000 	andeq	r0, r0, r0
     968:	02310000 	eorseq	r0, r1, #0
     96c:	46020000 	strmi	r0, [r2], -r0
     970:	01000003 	tsteq	r0, r3
     974:	00859808 	addeq	r9, r5, r8, lsl #16
     978:	00001000 	andeq	r1, r0, r0
     97c:	039c0100 	orrseq	r0, ip, #0, 2
     980:	0000032e 	andeq	r0, r0, lr, lsr #6
     984:	005d0a01 	subseq	r0, sp, r1, lsl #20
     988:	85a80000 	strhi	r0, [r8, #0]!
     98c:	001c0000 	andseq	r0, ip, r0
     990:	9c010000 	stcls	0, cr0, [r1], {-0}
     994:	0000005d 	andeq	r0, r0, sp, asr r0
     998:	00035e04 	andeq	r5, r3, r4, lsl #28
     99c:	640b0100 	strvs	r0, [fp], #-256	; 0x100
     9a0:	04000000 	streq	r0, [r0], #-0
     9a4:	00200030 	eoreq	r0, r0, r0, lsr r0
     9a8:	56070405 	strpl	r0, [r7], -r5, lsl #8
     9ac:	06000002 	streq	r0, [r0], -r2
     9b0:	00006a04 	andeq	r6, r0, r4, lsl #20
     9b4:	005d0700 	subseq	r0, sp, r0, lsl #14
     9b8:	df080000 	svcle	0x00080000
     9bc:	01000001 	tsteq	r0, r1
     9c0:	0085c40f 	addeq	ip, r5, pc, lsl #8
     9c4:	00002c00 	andeq	r2, r0, r0, lsl #24
     9c8:	cd9c0100 	ldfgts	f0, [ip]
     9cc:	09000000 	stmdbeq	r0, {}	; <UNPREDICTABLE>
     9d0:	01007375 	tsteq	r0, r5, ror r3
     9d4:	00005d0f 	andeq	r5, r0, pc, lsl #26
     9d8:	00044b00 	andeq	r4, r4, r0, lsl #22
     9dc:	62720a00 	rsbsvs	r0, r2, #0, 20
     9e0:	5d100100 	ldfpls	f0, [r0, #-0]
     9e4:	01000000 	mrseq	r0, (UNDEF: 0)
     9e8:	85dc0b54 	ldrbhi	r0, [ip, #2900]	; 0xb54
     9ec:	00100000 	andseq	r0, r0, r0
     9f0:	00c30000 	sbceq	r0, r3, r0
     9f4:	720c0000 	andvc	r0, ip, #0
     9f8:	12010061 	andne	r0, r1, #97	; 0x61
     9fc:	0000005d 	andeq	r0, r0, sp, asr r0
     a00:	00000469 	andeq	r0, r0, r9, ror #8
     a04:	0085e00d 	addeq	lr, r5, sp
     a08:	00003400 	andeq	r3, r0, r0, lsl #8
     a0c:	d80d0000 	stmdale	sp, {}	; <UNPREDICTABLE>
     a10:	34000085 	strcc	r0, [r0], #-133	; 0x85
     a14:	00000000 	andeq	r0, r0, r0
     a18:	00037808 	andeq	r7, r3, r8, lsl #16
     a1c:	f0190100 			; <UNDEFINED> instruction: 0xf0190100
     a20:	34000085 	strcc	r0, [r0], #-133	; 0x85
     a24:	01000000 	mrseq	r0, (UNDEF: 0)
     a28:	00010e9c 	muleq	r1, ip, lr
     a2c:	736d0900 	cmnvc	sp, #0, 18
     a30:	5d190100 	ldfpls	f0, [r9, #-0]
     a34:	7c000000 	stcvc	0, cr0, [r0], {-0}
     a38:	0c000004 	stceq	0, cr0, [r0], {4}
     a3c:	1a010069 	bne	40be8 <__bss_end__+0x378d0>
     a40:	0000010e 	andeq	r0, r0, lr, lsl #2
     a44:	0000049a 	muleq	r0, sl, r4
     a48:	0086140e 	addeq	r1, r6, lr, lsl #8
     a4c:	00006f00 	andeq	r6, r0, r0, lsl #30
     a50:	50010f00 	andpl	r0, r1, r0, lsl #30
     a54:	00007602 	andeq	r7, r0, r2, lsl #12
     a58:	05041000 	streq	r1, [r4, #-0]
     a5c:	00746e69 	rsbseq	r6, r4, r9, ror #28
     a60:	00037208 	andeq	r7, r3, r8, lsl #4
     a64:	24200100 	strtcs	r0, [r0], #-256	; 0x100
     a68:	34000086 	strcc	r0, [r0], #-134	; 0x86
     a6c:	01000000 	mrseq	r0, (UNDEF: 0)
     a70:	0001559c 	muleq	r1, ip, r5
     a74:	00730900 	rsbseq	r0, r3, r0, lsl #18
     a78:	005d2001 	subseq	r2, sp, r1
     a7c:	04b90000 	ldrteq	r0, [r9], #0
     a80:	690c0000 	stmdbvs	ip, {}	; <UNPREDICTABLE>
     a84:	0e210100 	sufeqs	f0, f1, f0
     a88:	d7000001 	strle	r0, [r0, -r1]
     a8c:	0e000004 	cdpeq	0, 0, cr0, cr0, cr4, {0}
     a90:	00008648 	andeq	r8, r0, r8, asr #12
     a94:	000000cd 	andeq	r0, r0, sp, asr #1
     a98:	0250010f 	subseq	r0, r0, #-1073741821	; 0xc0000003
     a9c:	00000076 	andeq	r0, r0, r6, ror r0
     aa0:	00033d08 	andeq	r3, r3, r8, lsl #26
     aa4:	58270100 	stmdapl	r7!, {r8}
     aa8:	20000086 	andcs	r0, r0, r6, lsl #1
     aac:	01000000 	mrseq	r0, (UNDEF: 0)
     ab0:	00019a9c 	muleq	r1, ip, sl
     ab4:	03511100 	cmpeq	r1, #0, 2
     ab8:	27010000 	strcs	r0, [r1, -r0]
     abc:	0000005d 	andeq	r0, r0, sp, asr r0
     ac0:	000004f6 	strdeq	r0, [r0], -r6
     ac4:	00866812 	addeq	r6, r6, r2, lsl r8
     ac8:	00000c00 	andeq	r0, r0, r0, lsl #24
     acc:	03381300 	teqeq	r8, #0, 6
     ad0:	29010000 	stmdbcs	r1, {}	; <UNPREDICTABLE>
     ad4:	0000005d 	andeq	r0, r0, sp, asr r0
     ad8:	6c0d5001 	stcvs	0, cr5, [sp], {1}
     adc:	34000086 	strcc	r0, [r0], #-134	; 0x86
     ae0:	00000000 	andeq	r0, r0, r0
     ae4:	03661400 	cmneq	r6, #0, 8
     ae8:	05010000 	streq	r0, [r1, #-0]
     aec:	000001ab 	andeq	r0, r0, fp, lsr #3
     af0:	90100305 	andsls	r0, r0, r5, lsl #6
     af4:	5d150000 	ldcpl	0, cr0, [r5, #-0]
     af8:	00000000 	andeq	r0, r0, r0
     afc:	000005e8 	andeq	r0, r0, r8, ror #11
     b00:	05900004 	ldreq	r0, [r0, #4]
     b04:	01040000 	mrseq	r0, (UNDEF: 4)
     b08:	00000216 	andeq	r0, r0, r6, lsl r2
     b0c:	00041401 	andeq	r1, r4, r1, lsl #8
     b10:	20002e00 	andcs	r2, r0, r0, lsl #28
     b14:	00000001 	andeq	r0, r0, r1
     b18:	e5000000 	str	r0, [r0, #-0]
     b1c:	02000002 	andeq	r0, r0, #2
     b20:	0000041d 	andeq	r0, r0, sp, lsl r4
     b24:	002e2802 	eoreq	r2, lr, r2, lsl #16
     b28:	b0030000 	andlt	r0, r3, r0
     b2c:	04000003 	streq	r0, [r0], #-3
     b30:	00450003 	subeq	r0, r5, r3
     b34:	d6040000 	strle	r0, [r4], -r0
     b38:	45000003 	strmi	r0, [r0, #-3]
     b3c:	00000000 	andeq	r0, r0, r0
     b40:	02040500 	andeq	r0, r4, #0, 10
     b44:	000003b2 			; <UNDEFINED> instruction: 0x000003b2
     b48:	00236202 	eoreq	r6, r3, r2, lsl #4
     b4c:	ee060000 	cdp	0, 0, cr0, cr6, cr0, {0}
     b50:	01000003 	tsteq	r0, r3
     b54:	0086780f 	addeq	r7, r6, pc, lsl #16
     b58:	00001400 	andeq	r1, r0, r0, lsl #8
     b5c:	719c0100 	orrsvc	r0, ip, r0, lsl #2
     b60:	07000000 	streq	r0, [r0, -r0]
     b64:	00008688 	andeq	r8, r0, r8, lsl #13
     b68:	000005d7 	ldrdeq	r0, [r0], -r7
     b6c:	03920800 	orrseq	r0, r2, #0, 16
     b70:	16010000 	strne	r0, [r1], -r0
     b74:	000000be 	strheq	r0, [r0], -lr
     b78:	0000868c 	andeq	r8, r0, ip, lsl #13
     b7c:	00000038 	andeq	r0, r0, r8, lsr r0
     b80:	00be9c01 	adcseq	r9, lr, r1, lsl #24
     b84:	e9090000 	stmdb	r9, {}	; <UNPREDICTABLE>
     b88:	01000003 	tsteq	r0, r3
     b8c:	0000be16 	andeq	fp, r0, r6, lsl lr
     b90:	00051400 	andeq	r1, r5, r0, lsl #8
     b94:	6f700a00 	svcvs	0x00700a00
     b98:	16010077 			; <UNDEFINED> instruction: 0x16010077
     b9c:	000000be 	strheq	r0, [r0], -lr
     ba0:	980b5101 	stmdals	fp, {r0, r8, ip, lr}
     ba4:	24000086 	strcs	r0, [r0], #-134	; 0x86
     ba8:	0c000000 	stceq	0, cr0, [r0], {-0}
     bac:	17010069 	strne	r0, [r1, -r9, rrx]
     bb0:	000000be 	strheq	r0, [r0], -lr
     bb4:	00000532 	andeq	r0, r0, r2, lsr r5
     bb8:	040d0000 	streq	r0, [sp], #-0
     bbc:	746e6905 	strbtvc	r6, [lr], #-2309	; 0x905
     bc0:	03c30800 	biceq	r0, r3, #0, 16
     bc4:	21010000 	mrscs	r0, (UNDEF: 1)
     bc8:	000000be 	strheq	r0, [r0], -lr
     bcc:	000086c4 	andeq	r8, r0, r4, asr #13
     bd0:	000000c8 	andeq	r0, r0, r8, asr #1
     bd4:	01899c01 	orreq	r9, r9, r1, lsl #24
     bd8:	620e0000 	andvs	r0, lr, #0
     bdc:	01006675 	tsteq	r0, r5, ror r6
     be0:	00018921 	andeq	r8, r1, r1, lsr #18
     be4:	00055100 	andeq	r5, r5, r0, lsl #2
     be8:	006e0e00 	rsbeq	r0, lr, r0, lsl #28
     bec:	00be2101 	adcseq	r2, lr, r1, lsl #2
     bf0:	056f0000 	strbeq	r0, [pc, #-0]!	; bf8 <_start-0x7408>
     bf4:	760a0000 	strvc	r0, [sl], -r0
     bf8:	01006c61 	tsteq	r0, r1, ror #24
     bfc:	00019621 	andeq	r9, r1, r1, lsr #12
     c00:	09520100 	ldmdbeq	r2, {r8}^
     c04:	000003a3 	andeq	r0, r0, r3, lsr #7
     c08:	00be2101 	adcseq	r2, lr, r1, lsl #2
     c0c:	058f0000 	streq	r0, [pc]	; c14 <_start-0x73ec>
     c10:	050f0000 	streq	r0, [pc, #-0]	; c18 <_start-0x73e8>
     c14:	01000004 	tsteq	r0, r4
     c18:	0000be23 	andeq	fp, r0, r3, lsr #28
     c1c:	0005b000 	andeq	fp, r5, r0
     c20:	03e00f00 	mvneq	r0, #0, 30
     c24:	2b010000 	blcs	40c2c <__bss_end__+0x37914>
     c28:	000000be 	strheq	r0, [r0], -lr
     c2c:	000005cf 	andeq	r0, r0, pc, asr #11
     c30:	00043c0f 	andeq	r3, r4, pc, lsl #24
     c34:	be310100 	rsflts	f0, f1, f0
     c38:	f2000000 	vhadd.s8	d0, d0, d0
     c3c:	10000005 	andne	r0, r0, r5
     c40:	00000090 	muleq	r0, r0, r0
     c44:	0000015a 	andeq	r0, r0, sl, asr r1
     c48:	0100740c 	tsteq	r0, ip, lsl #8
     c4c:	00019626 	andeq	r9, r1, r6, lsr #12
     c50:	00061100 	andeq	r1, r6, r0, lsl #2
     c54:	a8100000 	ldmdage	r0, {}	; <UNPREDICTABLE>
     c58:	71000000 	mrsvc	r0, (UNDEF: 0)
     c5c:	0c000001 	stceq	0, cr0, [r0], {1}
     c60:	32010069 	andcc	r0, r1, #105	; 0x69
     c64:	000000be 	strheq	r0, [r0], -lr
     c68:	0000062f 	andeq	r0, r0, pc, lsr #12
     c6c:	87300b00 	ldrhi	r0, [r0, -r0, lsl #22]!
     c70:	00380000 	eorseq	r0, r8, r0
     c74:	690c0000 	stmdbvs	ip, {}	; <UNPREDICTABLE>
     c78:	be370100 	rsflts	f0, f7, f0
     c7c:	4e000000 	cdpmi	0, 0, cr0, cr0, cr0, {0}
     c80:	00000006 	andeq	r0, r0, r6
     c84:	8f041100 	svchi	0x00041100
     c88:	12000001 	andne	r0, r0, #1
     c8c:	03db0801 	bicseq	r0, fp, #65536	; 0x10000
     c90:	04120000 	ldreq	r0, [r2], #-0
     c94:	00025607 	andeq	r5, r2, r7, lsl #12
     c98:	04450800 	strbeq	r0, [r5], #-2048	; 0x800
     c9c:	45010000 	strmi	r0, [r1, #-0]
     ca0:	000000be 	strheq	r0, [r0], -lr
     ca4:	0000878c 	andeq	r8, r0, ip, lsl #15
     ca8:	000000d8 	ldrdeq	r0, [r0], -r8
     cac:	02769c01 	rsbseq	r9, r6, #256	; 0x100
     cb0:	620e0000 	andvs	r0, lr, #0
     cb4:	01006675 	tsteq	r0, r5, ror r6
     cb8:	00018945 	andeq	r8, r1, r5, asr #18
     cbc:	00066c00 	andeq	r6, r6, r0, lsl #24
     cc0:	006e0e00 	rsbeq	r0, lr, r0, lsl #28
     cc4:	00be4501 	adcseq	r4, lr, r1, lsl #10
     cc8:	068a0000 	streq	r0, [sl], r0
     ccc:	760a0000 	strvc	r0, [sl], -r0
     cd0:	01006c61 	tsteq	r0, r1, ror #24
     cd4:	00019645 	andeq	r9, r1, r5, asr #12
     cd8:	09520100 	ldmdbeq	r2, {r8}^
     cdc:	000003a3 	andeq	r0, r0, r3, lsr #7
     ce0:	00be4501 	adcseq	r4, lr, r1, lsl #10
     ce4:	06aa0000 	strteq	r0, [sl], r0
     ce8:	050f0000 	streq	r0, [pc, #-0]	; cf0 <_start-0x7310>
     cec:	01000004 	tsteq	r0, r4
     cf0:	0000be48 	andeq	fp, r0, r8, asr #28
     cf4:	0006cb00 	andeq	ip, r6, r0, lsl #22
     cf8:	03e00f00 	mvneq	r0, #0, 30
     cfc:	4f010000 	svcmi	0x00010000
     d00:	000000be 	strheq	r0, [r0], -lr
     d04:	000006ea 	andeq	r0, r0, sl, ror #13
     d08:	00043c0f 	andeq	r3, r4, pc, lsl #24
     d0c:	be550100 	rdflts	f0, f5, f0
     d10:	0d000000 	stceq	0, cr0, [r0, #-0]
     d14:	10000007 	andne	r0, r0, r7
     d18:	000000c0 	andeq	r0, r0, r0, asr #1
     d1c:	00000232 	andeq	r0, r0, r2, lsr r2
     d20:	0100740c 	tsteq	r0, ip, lsl #8
     d24:	0001964a 	andeq	r9, r1, sl, asr #12
     d28:	00072c00 	andeq	r2, r7, r0, lsl #24
     d2c:	d8100000 	ldmdale	r0, {}	; <UNPREDICTABLE>
     d30:	49000000 	stmdbmi	r0, {}	; <UNPREDICTABLE>
     d34:	0c000002 	stceq	0, cr0, [r0], {2}
     d38:	56010069 	strpl	r0, [r1], -r9, rrx
     d3c:	000000be 	strheq	r0, [r0], -lr
     d40:	0000074a 	andeq	r0, r0, sl, asr #14
     d44:	87f80b00 	ldrbhi	r0, [r8, r0, lsl #22]!
     d48:	00480000 	subeq	r0, r8, r0
     d4c:	690c0000 	stmdbvs	ip, {}	; <UNPREDICTABLE>
     d50:	be5b0100 	rdflte	f0, f3, f0
     d54:	69000000 	stmdbvs	r0, {}	; <UNPREDICTABLE>
     d58:	13000007 	movwne	r0, #7
     d5c:	000000f0 	strdeq	r0, [r0], -r0	; <UNPREDICTABLE>
     d60:	0004360f 	andeq	r3, r4, pc, lsl #12
     d64:	be5d0100 	rdflte	f0, f5, f0
     d68:	87000000 	strhi	r0, [r0, -r0]
     d6c:	00000007 	andeq	r0, r0, r7
     d70:	ba080000 	blt	200d78 <__bss_end__+0x1f7a60>
     d74:	01000003 	tsteq	r0, r3
     d78:	0000be6f 	andeq	fp, r0, pc, ror #28
     d7c:	00886400 	addeq	r6, r8, r0, lsl #8
     d80:	00014c00 	andeq	r4, r1, r0, lsl #24
     d84:	689c0100 	ldmvs	ip, {r8}
     d88:	0e000003 	cdpeq	0, 0, cr0, cr0, cr3, {0}
     d8c:	00667562 	rsbeq	r7, r6, r2, ror #10
     d90:	01896f01 	orreq	r6, r9, r1, lsl #30
     d94:	07c00000 	strbeq	r0, [r0, r0]
     d98:	6e0e0000 	cdpvs	0, 0, cr0, cr14, cr0, {0}
     d9c:	be6f0100 	powlte	f0, f7, f0
     da0:	ec000000 	stc	0, cr0, [r0], {-0}
     da4:	0e000007 	cdpeq	0, 0, cr0, cr0, cr7, {0}
     da8:	006c6176 	rsbeq	r6, ip, r6, ror r1
     dac:	00be6f01 	adcseq	r6, lr, r1, lsl #30
     db0:	08170000 	ldmdaeq	r7, {}	; <UNPREDICTABLE>
     db4:	a3090000 	movwge	r0, #36864	; 0x9000
     db8:	01000003 	tsteq	r0, r3
     dbc:	0000be6f 	andeq	fp, r0, pc, ror #28
     dc0:	00083500 	andeq	r3, r8, r0, lsl #10
     dc4:	03fa0f00 	mvnseq	r0, #0, 30
     dc8:	70010000 	andvc	r0, r1, r0
     dcc:	0000018f 	andeq	r0, r0, pc, lsl #3
     dd0:	00000856 	andeq	r0, r0, r6, asr r8
     dd4:	0004050f 	andeq	r0, r4, pc, lsl #10
     dd8:	be770100 	rpwlts	f0, f7, f0
     ddc:	7d000000 	stcvc	0, cr0, [r0, #-0]
     de0:	0f000008 	svceq	0x00000008
     de4:	000003e0 	andeq	r0, r0, r0, ror #7
     de8:	00be7d01 	adcseq	r7, lr, r1, lsl #26
     dec:	08a60000 	stmiaeq	r6!, {}	; <UNPREDICTABLE>
     df0:	3c0f0000 	stccc	0, cr0, [pc], {-0}
     df4:	01000004 	tsteq	r0, r4
     df8:	0000be83 	andeq	fp, r0, r3, lsl #29
     dfc:	0008c900 	andeq	ip, r8, r0, lsl #18
     e00:	01081000 	mrseq	r1, (UNDEF: 8)
     e04:	031c0000 	tsteq	ip, #0
     e08:	740c0000 	strvc	r0, [ip], #-0
     e0c:	be780100 	rpwlte	f0, f0, f0
     e10:	f3000000 	vhadd.u8	d0, d0, d0
     e14:	00000008 	andeq	r0, r0, r8
     e18:	0088f814 	addeq	pc, r8, r4, lsl r8	; <UNPREDICTABLE>
     e1c:	00002800 	andeq	r2, r0, r0, lsl #16
     e20:	00033700 	andeq	r3, r3, r0, lsl #14
     e24:	00690c00 	rsbeq	r0, r9, r0, lsl #24
     e28:	00be8a01 	adcseq	r8, lr, r1, lsl #20
     e2c:	09270000 	stmdbeq	r7!, {}	; <UNPREDICTABLE>
     e30:	0b000000 	bleq	e38 <_start-0x71c8>
     e34:	00008924 	andeq	r8, r0, r4, lsr #18
     e38:	0000005c 	andeq	r0, r0, ip, asr r0
     e3c:	0100690c 	tsteq	r0, ip, lsl #18
     e40:	0000be91 	muleq	r0, r1, lr
     e44:	00093a00 	andeq	r3, r9, r0, lsl #20
     e48:	894c1500 	stmdbhi	ip, {r8, sl, ip}^
     e4c:	00710000 	rsbseq	r0, r1, r0
     e50:	01160000 	tsteq	r6, r0
     e54:	007a0551 	rsbseq	r0, sl, r1, asr r5
     e58:	161c0075 			; <UNDEFINED> instruction: 0x161c0075
     e5c:	79025001 	stmdbvc	r2, {r0, ip, lr}
     e60:	00000000 	andeq	r0, r0, r0
     e64:	0003cc08 	andeq	ip, r3, r8, lsl #24
     e68:	be9f0100 	fmllte	f0, f7, f0
     e6c:	b0000000 	andlt	r0, r0, r0
     e70:	e0000089 	and	r0, r0, r9, lsl #1
     e74:	01000001 	tsteq	r0, r1
     e78:	00047e9c 	muleq	r4, ip, lr
     e7c:	75620e00 	strbvc	r0, [r2, #-3584]!	; 0xe00
     e80:	9f010066 	svcls	0x00010066
     e84:	00000189 	andeq	r0, r0, r9, lsl #3
     e88:	00000959 	andeq	r0, r0, r9, asr r9
     e8c:	00040f09 	andeq	r0, r4, r9, lsl #30
     e90:	be9f0100 	fmllte	f0, f7, f0
     e94:	a3000000 	movwge	r0, #0
     e98:	09000009 	stmdbeq	r0, {r0, r3}
     e9c:	000003a9 	andeq	r0, r0, r9, lsr #7
     ea0:	047e9f01 	ldrbteq	r9, [lr], #-3841	; 0xf01
     ea4:	09cc0000 	stmibeq	ip, {}^	; <UNPREDICTABLE>
     ea8:	610e0000 	mrsvs	r0, (UNDEF: 14)
     eac:	9f010070 	svcls	0x00010070
     eb0:	00000047 	andeq	r0, r0, r7, asr #32
     eb4:	000009f8 	strdeq	r0, [r0], -r8
     eb8:	00043c0f 	andeq	r3, r4, pc, lsl #24
     ebc:	bea00100 	fdvlts	f0, f0, f0
     ec0:	2c000000 	stccs	0, cr0, [r0], {-0}
     ec4:	0f00000a 	svceq	0x0000000a
     ec8:	0000038b 	andeq	r0, r0, fp, lsl #7
     ecc:	047ea101 	ldrbteq	sl, [lr], #-257	; 0x101
     ed0:	0a570000 	beq	15c0ed8 <__bss_end__+0x15b7bc0>
     ed4:	630c0000 	movwvs	r0, #49152	; 0xc000
     ed8:	8fa20100 	svchi	0x00a20100
     edc:	cd000001 	stcgt	0, cr0, [r0, #-4]
     ee0:	0c00000a 	stceq	0, cr0, [r0], {10}
     ee4:	00727473 	rsbseq	r7, r2, r3, ror r4
     ee8:	0189a201 	orreq	sl, r9, r1, lsl #4
     eec:	0b830000 	bleq	fe0c0ef4 <__bss_end__+0xfe0b7bdc>
     ef0:	a30f0000 	movwge	r0, #61440	; 0xf000
     ef4:	01000003 	tsteq	r0, r3
     ef8:	0000bea3 	andeq	fp, r0, r3, lsr #29
     efc:	000b9600 	andeq	r9, fp, r0, lsl #12
     f00:	04360f00 	ldrteq	r0, [r6], #-3840	; 0xf00
     f04:	a3010000 	movwge	r0, #4096	; 0x1000
     f08:	000000be 	strheq	r0, [r0], -lr
     f0c:	00000c03 	andeq	r0, r0, r3, lsl #24
     f10:	0100650c 	tsteq	r0, ip, lsl #10
     f14:	0000bea4 	andeq	fp, r0, r4, lsr #29
     f18:	000c1600 	andeq	r1, ip, r0, lsl #12
     f1c:	8b201700 	blhi	806b24 <__bss_end__+0x7fd80c>
     f20:	02760000 	rsbseq	r0, r6, #0
     f24:	04410000 	strbeq	r0, [r1], #-0
     f28:	01160000 	tsteq	r6, r0
     f2c:	00780551 	rsbseq	r0, r8, r1, asr r5
     f30:	161c0074 			; <UNDEFINED> instruction: 0x161c0074
     f34:	77055001 	strvc	r5, [r5, -r1]
     f38:	22007400 	andcs	r7, r0, #0, 8
     f3c:	8b401700 	blhi	1006b44 <__bss_end__+0xffd82c>
     f40:	019d0000 	orrseq	r0, sp, r0
     f44:	04610000 	strbteq	r0, [r1], #-0
     f48:	01160000 	tsteq	r6, r0
     f4c:	00780551 	rsbseq	r0, r8, r1, asr r5
     f50:	161c0074 			; <UNDEFINED> instruction: 0x161c0074
     f54:	77055001 	strvc	r5, [r5, -r1]
     f58:	22007400 	andcs	r7, r0, #0, 8
     f5c:	8b601500 	blhi	1806364 <__bss_end__+0x17fd04c>
     f60:	00c50000 	sbceq	r0, r5, r0
     f64:	01160000 	tsteq	r6, r0
     f68:	00780551 	rsbseq	r0, r8, r1, asr r5
     f6c:	161c0074 			; <UNDEFINED> instruction: 0x161c0074
     f70:	77055001 	strvc	r5, [r5, -r1]
     f74:	22007400 	andcs	r7, r0, #0, 8
     f78:	04110000 	ldreq	r0, [r1], #-0
     f7c:	00000484 	andeq	r0, r0, r4, lsl #9
     f80:	00018f18 	andeq	r8, r1, r8, lsl pc
     f84:	03cd1900 	biceq	r1, sp, #0, 18
     f88:	01010000 	mrseq	r0, (UNDEF: 1)
     f8c:	0000be01 	andeq	fp, r0, r1, lsl #28
     f90:	008b9000 	addeq	r9, fp, r0
     f94:	00002c00 	andeq	r2, r0, r0, lsl #24
     f98:	159c0100 	ldrne	r0, [ip, #256]	; 0x100
     f9c:	1a000005 	bne	fb8 <_start-0x7048>
     fa0:	00667562 	rsbeq	r7, r6, r2, ror #10
     fa4:	89010101 	stmdbhi	r1, {r0, r8}
     fa8:	55000001 	strpl	r0, [r0, #-1]
     fac:	1b00000c 	blne	fe4 <_start-0x701c>
     fb0:	0000040f 	andeq	r0, r0, pc, lsl #8
     fb4:	be010101 	adflts	f0, f1, f1
     fb8:	76000000 	strvc	r0, [r0], -r0
     fbc:	1c00000c 	stcne	0, cr0, [r0], {12}
     fc0:	000003a9 	andeq	r0, r0, r9, lsr #7
     fc4:	7e010101 	adfvcs	f0, f1, f1
     fc8:	02000004 	andeq	r0, r0, #4
     fcc:	1e1d7891 	mrcne	8, 0, r7, cr13, cr1, {4}
     fd0:	01007061 	tsteq	r0, r1, rrx
     fd4:	00470102 	subeq	r0, r7, r2, lsl #2
     fd8:	91020000 	mrsls	r0, (UNDEF: 2)
     fdc:	043c1f64 	ldrteq	r1, [ip], #-3940	; 0xf64
     fe0:	04010000 	streq	r0, [r1], #-0
     fe4:	0000be01 	andeq	fp, r0, r1, lsl #28
     fe8:	15500100 	ldrbne	r0, [r0, #-256]	; 0x100
     fec:	00008bb4 			; <UNDEFINED> instruction: 0x00008bb4
     ff0:	00000368 	andeq	r0, r0, r8, ror #6
     ff4:	02530116 	subseq	r0, r3, #-2147483643	; 0x80000005
     ff8:	01167c91 			; <UNDEFINED> instruction: 0x01167c91
     ffc:	78910352 	ldmvc	r1, {r1, r4, r6, r8, r9}
    1000:	51011606 	tstpl	r1, r6, lsl #12
    1004:	5101f303 	tstpl	r1, r3, lsl #6
    1008:	03500116 	cmpeq	r0, #-2147483643	; 0x80000005
    100c:	005001f3 	ldrsheq	r0, [r0], #-19	; 0xffffffed
    1010:	03cf1900 	biceq	r1, pc, #0, 18
    1014:	09010000 	stmdbeq	r1, {}	; <UNPREDICTABLE>
    1018:	0000be01 	andeq	fp, r0, r1, lsl #28
    101c:	008bbc00 	addeq	fp, fp, r0, lsl #24
    1020:	00006800 	andeq	r6, r0, r0, lsl #16
    1024:	bf9c0100 	svclt	0x009c0100
    1028:	1c000005 	stcne	0, cr0, [r0], {5}
    102c:	000003a9 	andeq	r0, r0, r9, lsr #7
    1030:	7e010901 	cdpvc	9, 0, cr0, cr1, cr1, {0}
    1034:	02000004 	andeq	r0, r0, #4
    1038:	1e1d7091 	mrcne	0, 0, r7, cr13, cr1, {4}
    103c:	00667562 	rsbeq	r7, r6, r2, ror #10
    1040:	bf010a01 	svclt	0x00010a01
    1044:	03000005 	movweq	r0, #5
    1048:	2077d891 			; <UNDEFINED> instruction: 0x2077d891
    104c:	0b010063 	bleq	411e0 <__bss_end__+0x37ec8>
    1050:	00018f01 	andeq	r8, r1, r1, lsl #30
    1054:	000c9700 	andeq	r9, ip, r0, lsl #14
    1058:	74702000 	ldrbtvc	r2, [r0], #-0
    105c:	0b010072 	bleq	4122c <__bss_end__+0x37f14>
    1060:	00018901 	andeq	r8, r1, r1, lsl #18
    1064:	000cb700 	andeq	fp, ip, r0, lsl #14
    1068:	70611e00 	rsbvc	r1, r1, r0, lsl #28
    106c:	010c0100 	mrseq	r0, (UNDEF: 28)
    1070:	00000047 	andeq	r0, r0, r7, asr #32
    1074:	77d49103 	ldrbvc	r9, [r4, r3, lsl #2]
    1078:	00043c21 	andeq	r3, r4, r1, lsr #24
    107c:	010e0100 	mrseq	r0, (UNDEF: 30)
    1080:	000000be 	strheq	r0, [r0], -lr
    1084:	00000cee 	andeq	r0, r0, lr, ror #25
    1088:	008bf017 	addeq	pc, fp, r7, lsl r0	; <UNPREDICTABLE>
    108c:	00036800 	andeq	r6, r3, r0, lsl #16
    1090:	0005b500 	andeq	fp, r5, r0, lsl #10
    1094:	53011600 	movwpl	r1, #5632	; 0x1600
    1098:	16749102 	ldrbtne	r9, [r4], -r2, lsl #2
    109c:	91035201 	tstls	r3, r1, lsl #4
    10a0:	01160670 	tsteq	r6, r0, ror r6
    10a4:	000a0351 	andeq	r0, sl, r1, asr r3
    10a8:	50011604 	andpl	r1, r1, r4, lsl #12
    10ac:	77d89103 	ldrbvc	r9, [r8, r3, lsl #2]
    10b0:	8c040700 	stchi	7, cr0, [r4], {-0}
    10b4:	05de0000 	ldrbeq	r0, [lr]
    10b8:	22000000 	andcs	r0, r0, #0
    10bc:	0000018f 	andeq	r0, r0, pc, lsl #3
    10c0:	000005d0 	ldrdeq	r0, [r0], -r0	; <UNPREDICTABLE>
    10c4:	0005d023 	andeq	sp, r5, r3, lsr #32
    10c8:	0003ff00 	andeq	pc, r3, r0, lsl #30
    10cc:	93070412 	movwls	r0, #29714	; 0x7412
    10d0:	24000001 	strcs	r0, [r0], #-1
    10d4:	00000381 	andeq	r0, r0, r1, lsl #7
    10d8:	2c250b04 	stccs	11, cr0, [r5], #-16
    10dc:	04000004 	streq	r0, [r0], #-4
    10e0:	0196260d 	orrseq	r2, r6, sp, lsl #12
    10e4:	00000000 	andeq	r0, r0, r0
    10e8:	000001de 	ldrdeq	r0, [r0], -lr
    10ec:	07910004 	ldreq	r0, [r1, r4]
    10f0:	01040000 	mrseq	r0, (UNDEF: 4)
    10f4:	00000216 	andeq	r0, r0, r6, lsl r2
    10f8:	00045801 	andeq	r5, r4, r1, lsl #16
    10fc:	68002e00 	stmdavs	r0, {r9, sl, fp, sp}
    1100:	00000001 	andeq	r0, r0, r1
    1104:	57000000 	strpl	r0, [r0, -r0]
    1108:	02000005 	andeq	r0, r0, #5
    110c:	624f0201 	subvs	r0, pc, #268435456	; 0x10000000
    1110:	03000000 	movweq	r0, #0
    1114:	0000030c 	andeq	r0, r0, ip, lsl #6
    1118:	02220300 	eoreq	r0, r2, #0, 6
    111c:	03010000 	movweq	r0, #4096	; 0x1000
    1120:	0000023d 	andeq	r0, r0, sp, lsr r2
    1124:	02ec0304 	rsceq	r0, ip, #4, 6	; 0x10000000
    1128:	03050000 	movweq	r0, #20480	; 0x5000
    112c:	00000263 	andeq	r0, r0, r3, ror #4
    1130:	02720306 	rsbseq	r0, r2, #402653184	; 0x18000000
    1134:	03070000 	movweq	r0, #28672	; 0x7000
    1138:	00000281 	andeq	r0, r0, r1, lsl #5
    113c:	02900303 	addseq	r0, r0, #201326592	; 0xc000000
    1140:	03020000 	movweq	r0, #8192	; 0x2000
    1144:	000002b3 			; <UNDEFINED> instruction: 0x000002b3
    1148:	8b040008 	blhi	101170 <__bss_end__+0xf7e58>
    114c:	2c000004 	stccs	0, cr0, [r0], {4}
    1150:	00f30501 	rscseq	r0, r3, r1, lsl #10
    1154:	53050000 	movwpl	r0, #20480	; 0x5000
    1158:	01000004 	tsteq	r0, r4
    115c:	0000f306 	andeq	pc, r0, r6, lsl #6
    1160:	69060000 	stmdbvs	r6, {}	; <UNPREDICTABLE>
    1164:	01007265 	tsteq	r0, r5, ror #4
    1168:	0000f307 	andeq	pc, r0, r7, lsl #6
    116c:	69060400 	stmdbvs	r6, {sl}
    1170:	01007269 	tsteq	r0, r9, ror #4
    1174:	0000f308 	andeq	pc, r0, r8, lsl #6
    1178:	6c060800 	stcvs	8, cr0, [r6], {-0}
    117c:	01007263 	tsteq	r0, r3, ror #4
    1180:	0000f309 	andeq	pc, r0, r9, lsl #6
    1184:	6d060c00 	stcvs	12, cr0, [r6, #-0]
    1188:	01007263 	tsteq	r0, r3, ror #4
    118c:	0000f30a 	andeq	pc, r0, sl, lsl #6
    1190:	6c061000 	stcvs	0, cr1, [r6], {-0}
    1194:	01007273 	tsteq	r0, r3, ror r2
    1198:	0000f30b 	andeq	pc, r0, fp, lsl #6
    119c:	6d061400 	cfstrsvs	mvf1, [r6, #-0]
    11a0:	01007273 	tsteq	r0, r3, ror r2
    11a4:	0000f30c 	andeq	pc, r0, ip, lsl #6
    11a8:	7e051800 	cdpvc	8, 0, cr1, cr5, cr0, {0}
    11ac:	01000004 	tsteq	r0, r4
    11b0:	0000f30d 	andeq	pc, r0, sp, lsl #6
    11b4:	79051c00 	stmdbvc	r5, {sl, fp, ip}
    11b8:	01000004 	tsteq	r0, r4
    11bc:	0000f30e 	andeq	pc, r0, lr, lsl #6
    11c0:	4e052000 	cdpmi	0, 0, cr2, cr5, cr0, {0}
    11c4:	01000004 	tsteq	r0, r4
    11c8:	0000f30f 	andeq	pc, r0, pc, lsl #6
    11cc:	74052400 	strvc	r2, [r5], #-1024	; 0x400
    11d0:	01000004 	tsteq	r0, r4
    11d4:	0000f310 	andeq	pc, r0, r0, lsl r3	; <UNPREDICTABLE>
    11d8:	07002800 	streq	r2, [r0, -r0, lsl #16]
    11dc:	02560704 	subseq	r0, r6, #4, 14	; 0x100000
    11e0:	81080000 	mrshi	r0, (UNDEF: 8)
    11e4:	01000003 	tsteq	r0, r3
    11e8:	008c242a 	addeq	r2, ip, sl, lsr #8
    11ec:	00006800 	andeq	r6, r0, r0, lsl #16
    11f0:	4b9c0100 	blmi	fe7015f8 <__bss_end__+0xfe6f82e0>
    11f4:	09000001 	stmdbeq	r0, {r0}
    11f8:	00787561 	rsbseq	r7, r8, r1, ror #10
    11fc:	014b2b01 	cmpeq	fp, r1, lsl #22
    1200:	50040000 	andpl	r0, r4, r0
    1204:	700a2021 	andvc	r2, sl, r1, lsr #32
    1208:	cf00008c 	svcgt	0x0000008c
    120c:	36000001 	strcc	r0, [r0], -r1
    1210:	0b000001 	bleq	121c <_start-0x6de4>
    1214:	32015101 	andcc	r5, r1, #1073741824	; 0x40000000
    1218:	0150010b 	cmpeq	r0, fp, lsl #2
    121c:	7c0c003e 	stcvc	0, cr0, [ip], {62}	; 0x3e
    1220:	cf00008c 	svcgt	0x0000008c
    1224:	0b000001 	bleq	1230 <_start-0x6dd0>
    1228:	32015101 	andcc	r5, r1, #1073741824	; 0x40000000
    122c:	0150010b 	cmpeq	r0, fp, lsl #2
    1230:	0d00003f 	stceq	0, cr0, [r0, #-252]	; 0xffffff04
    1234:	00015104 	andeq	r5, r1, r4, lsl #2
    1238:	05040e00 	streq	r0, [r4, #-3584]	; 0xe00
    123c:	00746e69 	rsbseq	r6, r4, r9, ror #28
    1240:	00046a0f 	andeq	r6, r4, pc, lsl #20
    1244:	51410100 	mrspl	r0, (UNDEF: 81)
    1248:	8c000001 	stchi	0, cr0, [r0], {1}
    124c:	3000008c 	andcc	r0, r0, ip, lsl #1
    1250:	01000000 	mrseq	r0, (UNDEF: 0)
    1254:	042c089c 	strteq	r0, [ip], #-2204	; 0x89c
    1258:	46010000 	strmi	r0, [r1], -r0
    125c:	00008cbc 			; <UNDEFINED> instruction: 0x00008cbc
    1260:	00000040 	andeq	r0, r0, r0, asr #32
    1264:	019f9c01 	orrseq	r9, pc, r1, lsl #24
    1268:	63100000 	tstvs	r0, #0
    126c:	f3460100 	vrhadd.u8	d16, d6, d0
    1270:	0c000000 	stceq	0, cr0, [r0], {-0}
    1274:	0c00000d 	stceq	0, cr0, [r0], {13}
    1278:	00008cdc 	ldrdeq	r8, [r0], -ip
    127c:	0000016d 	andeq	r0, r0, sp, ror #2
    1280:	0150010b 	cmpeq	r0, fp, lsl #2
    1284:	1100003d 	tstne	r0, sp, lsr r0
    1288:	0000045f 	andeq	r0, r0, pc, asr r4
    128c:	8cfc4e01 	ldclhi	14, cr4, [ip], #4
    1290:	00240000 	eoreq	r0, r4, r0
    1294:	9c010000 	stcls	0, cr0, [r1], {-0}
    1298:	00048612 	andeq	r8, r4, r2, lsl r6
    129c:	bf280100 	svclt	0x00280100
    12a0:	40000001 	andmi	r0, r0, r1
    12a4:	13202150 	teqne	r0, #80, 2
    12a8:	000001c4 	andeq	r0, r0, r4, asr #3
    12ac:	01ca040d 	biceq	r0, sl, sp, lsl #8
    12b0:	62140000 	andsvs	r0, r4, #0
    12b4:	15000000 	strne	r0, [r0, #-0]
    12b8:	0000031c 	andeq	r0, r0, ip, lsl r3
    12bc:	f3165a02 	vpmax.u16	d5, d6, d2
    12c0:	16000000 	strne	r0, [r0], -r0
    12c4:	000000f3 	strdeq	r0, [r0], -r3
    12c8:	016a0000 	cmneq	sl, r0
    12cc:	00040000 	andeq	r0, r4, r0
    12d0:	000008ca 	andeq	r0, r0, sl, asr #17
    12d4:	02160104 	andseq	r0, r6, #4, 2
    12d8:	a0010000 	andge	r0, r1, r0
    12dc:	2e000004 	cdpcs	0, 0, cr0, cr0, cr4, {0}
    12e0:	00019000 	andeq	r9, r1, r0
    12e4:	00000000 	andeq	r0, r0, r0
    12e8:	0005f800 	andeq	pc, r5, r0, lsl #16
    12ec:	02010200 	andeq	r0, r1, #0, 4
    12f0:	00003e04 	andeq	r3, r0, r4, lsl #28
    12f4:	04d60300 	ldrbeq	r0, [r6], #768	; 0x300
    12f8:	03000000 	movweq	r0, #0
    12fc:	000004c4 	andeq	r0, r0, r4, asr #9
    1300:	04b40301 	ldrteq	r0, [r4], #769	; 0x301
    1304:	00020000 	andeq	r0, r2, r0
    1308:	00050104 	andeq	r0, r5, r4, lsl #2
    130c:	20130100 	andscs	r0, r3, r0, lsl #2
    1310:	6800008d 	stmdavs	r0, {r0, r2, r3, r7}
    1314:	01000000 	mrseq	r0, (UNDEF: 0)
    1318:	0000d89c 	muleq	r0, ip, r8
    131c:	69700500 	ldmdbvs	r0!, {r8, sl}^
    1320:	1301006e 	movwne	r0, #4206	; 0x106e
    1324:	000000d8 	ldrdeq	r0, [r0], -r8
    1328:	00000d2a 	andeq	r0, r0, sl, lsr #26
    132c:	64757005 	ldrbtvs	r7, [r5], #-5
    1330:	d8130100 	ldmdale	r3, {r8}
    1334:	56000000 	strpl	r0, [r0], -r0
    1338:	0600000d 	streq	r0, [r0], -sp
    133c:	000004ac 	andeq	r0, r0, ip, lsr #9
    1340:	00df1701 	sbcseq	r1, pc, r1, lsl #14
    1344:	00940000 	addseq	r0, r4, r0
    1348:	e7062020 	str	r2, [r6, -r0, lsr #32]
    134c:	01000004 	tsteq	r0, r4
    1350:	0000df1b 	andeq	sp, r0, fp, lsl pc
    1354:	20009800 	andcs	r9, r0, r0, lsl #16
    1358:	8d4c0720 	stclhi	7, cr0, [ip, #-128]	; 0xffffff80
    135c:	01600000 	cmneq	r0, r0
    1360:	00a20000 	adceq	r0, r2, r0
    1364:	01080000 	mrseq	r0, (UNDEF: 8)
    1368:	00350150 	eorseq	r0, r5, r0, asr r1
    136c:	008d6407 	addeq	r6, sp, r7, lsl #8
    1370:	00016000 	andeq	r6, r1, r0
    1374:	0000b500 	andeq	fp, r0, r0, lsl #10
    1378:	50010800 	andpl	r0, r1, r0, lsl #16
    137c:	07003501 	streq	r3, [r0, -r1, lsl #10]
    1380:	00008d74 	andeq	r8, r0, r4, ror sp
    1384:	00000160 	andeq	r0, r0, r0, ror #2
    1388:	000000c8 	andeq	r0, r0, r8, asr #1
    138c:	01500108 	cmpeq	r0, r8, lsl #2
    1390:	80090035 	andhi	r0, r9, r5, lsr r0
    1394:	6000008d 	andvs	r0, r0, sp, lsl #1
    1398:	08000001 	stmdaeq	r0, {r0}
    139c:	35015001 	strcc	r5, [r1, #-1]
    13a0:	040a0000 	streq	r0, [sl], #-0
    13a4:	00025607 	andeq	r5, r2, r7, lsl #12
    13a8:	e5040b00 	str	r0, [r4, #-2816]	; 0xb00
    13ac:	0c000000 	stceq	0, cr0, [r0], {-0}
    13b0:	000000d8 	ldrdeq	r0, [r0], -r8
    13b4:	00049004 	andeq	r9, r4, r4
    13b8:	88260100 	stmdahi	r6!, {r8}
    13bc:	2000008d 	andcs	r0, r0, sp, lsl #1
    13c0:	01000000 	mrseq	r0, (UNDEF: 0)
    13c4:	0001259c 	muleq	r1, ip, r5
    13c8:	69700500 	ldmdbvs	r0!, {r8, sl}^
    13cc:	2601006e 	strcs	r0, [r1], -lr, rrx
    13d0:	000000d8 	ldrdeq	r0, [r0], -r8
    13d4:	00000d77 	andeq	r0, r0, r7, ror sp
    13d8:	008da409 	addeq	sl, sp, r9, lsl #8
    13dc:	00003e00 	andeq	r3, r0, r0, lsl #28
    13e0:	51010800 	tstpl	r1, r0, lsl #16
    13e4:	01083201 	tsteq	r8, r1, lsl #4
    13e8:	01f30350 	mvnseq	r0, r0, asr r3
    13ec:	04000050 	streq	r0, [r0], #-80	; 0x50
    13f0:	000004ef 	andeq	r0, r0, pc, ror #9
    13f4:	8da82e01 	stchi	14, cr2, [r8, #4]!
    13f8:	00180000 	andseq	r0, r8, r0
    13fc:	9c010000 	stcls	0, cr0, [r1], {-0}
    1400:	00000160 	andeq	r0, r0, r0, ror #2
    1404:	6e697005 	cdpvs	0, 6, cr7, cr9, cr5, {0}
    1408:	d82e0100 	stmdale	lr!, {r8}
    140c:	98000000 	stmdals	r0, {}	; <UNPREDICTABLE>
    1410:	0900000d 	stmdbeq	r0, {r0, r2, r3}
    1414:	00008dbc 			; <UNDEFINED> instruction: 0x00008dbc
    1418:	0000003e 	andeq	r0, r0, lr, lsr r0
    141c:	01510108 	cmpeq	r1, r8, lsl #2
    1420:	50010831 	andpl	r0, r1, r1, lsr r8
    1424:	5001f303 	andpl	pc, r1, r3, lsl #6
    1428:	df0d0000 	svcle	0x000d0000
    142c:	03000001 	movweq	r0, #1
    1430:	00d80e0f 	sbcseq	r0, r8, pc, lsl #28
    1434:	00000000 	andeq	r0, r0, r0
    1438:	000000a8 	andeq	r0, r0, r8, lsr #1
    143c:	09830002 	stmibeq	r3, {r1}
    1440:	01040000 	mrseq	r0, (UNDEF: 4)
    1444:	00000682 	andeq	r0, r0, r2, lsl #13
    1448:	00008dc0 	andeq	r8, r0, r0, asr #27
    144c:	00008ed4 	ldrdeq	r8, [r0], -r4
    1450:	2e2f2e2e 	cdpcs	14, 2, cr2, cr15, cr14, {1}
    1454:	2e2e2f2e 	cdpcs	15, 2, cr2, cr14, cr14, {1}
    1458:	6363672f 	cmnvs	r3, #12320768	; 0xbc0000
    145c:	382e342d 	stmdacc	lr!, {r0, r2, r3, r5, sl, ip, sp}
    1460:	6c2f332e 	stcvs	3, cr3, [pc], #-184	; 13b0 <_start-0x6c50>
    1464:	63676269 	cmnvs	r7, #-1879048186	; 0x90000006
    1468:	6f632f63 	svcvs	0x00632f63
    146c:	6769666e 	strbvs	r6, [r9, -lr, ror #12]!
    1470:	6d72612f 	ldfvse	f6, [r2, #-188]!	; 0xffffff44
    1474:	62696c2f 	rsbvs	r6, r9, #12032	; 0x2f00
    1478:	6e756631 	mrcvs	6, 3, r6, cr5, cr1, {1}
    147c:	532e7363 	teqpl	lr, #-1946157055	; 0x8c000001
    1480:	73552f00 	cmpvc	r5, #0, 30
    1484:	2f737265 	svccs	0x00737265
    1488:	73756269 	cmnvc	r5, #-1879048186	; 0x90000006
    148c:	6f442f68 	svcvs	0x00442f68
    1490:	656d7563 	strbvs	r7, [sp, #-1379]!	; 0x563
    1494:	2f73746e 	svccs	0x0073746e
    1498:	6e617453 	mcrvs	4, 3, r7, cr1, cr3, {2}
    149c:	64726f66 	ldrbtvs	r6, [r2], #-3942	; 0xf66
    14a0:	3153432f 	cmpcc	r3, pc, lsr #6
    14a4:	2f453730 	svccs	0x00453730
    14a8:	736f7263 	cmnvc	pc, #805306374	; 0x30000006
    14ac:	6f635f73 	svcvs	0x00635f73
    14b0:	6c69706d 	stclvs	0, cr7, [r9], #-436	; 0xfffffe4c
    14b4:	622f7265 	eorvs	r7, pc, #1342177286	; 0x50000006
    14b8:	646c6975 	strbtvs	r6, [ip], #-2421	; 0x975
    14bc:	6363672d 	cmnvs	r3, #11796480	; 0xb40000
    14c0:	6d72612f 	ldfvse	f6, [r2, #-188]!	; 0xffffff44
    14c4:	6e6f6e2d 	cdpvs	14, 6, cr6, cr15, cr13, {1}
    14c8:	61652d65 	cmnvs	r5, r5, ror #26
    14cc:	6c2f6962 	stcvs	9, cr6, [pc], #-392	; 134c <_start-0x6cb4>
    14d0:	63676269 	cmnvs	r7, #-1879048186	; 0x90000006
    14d4:	4e470063 	cdpmi	0, 4, cr0, cr7, cr3, {3}
    14d8:	53412055 	movtpl	r2, #4181	; 0x1055
    14dc:	322e3220 	eorcc	r3, lr, #32, 4
    14e0:	80010034 	andhi	r0, r1, r4, lsr r0
    14e4:	000000a8 	andeq	r0, r0, r8, lsr #1
    14e8:	09970002 	ldmibeq	r7, {r1}
    14ec:	01040000 	mrseq	r0, (UNDEF: 4)
    14f0:	0000070c 	andeq	r0, r0, ip, lsl #14
    14f4:	00008ed4 	ldrdeq	r8, [r0], -r4
    14f8:	00008ed8 	ldrdeq	r8, [r0], -r8	; <UNPREDICTABLE>
    14fc:	2e2f2e2e 	cdpcs	14, 2, cr2, cr15, cr14, {1}
    1500:	2e2e2f2e 	cdpcs	15, 2, cr2, cr14, cr14, {1}
    1504:	6363672f 	cmnvs	r3, #12320768	; 0xbc0000
    1508:	382e342d 	stmdacc	lr!, {r0, r2, r3, r5, sl, ip, sp}
    150c:	6c2f332e 	stcvs	3, cr3, [pc], #-184	; 145c <_start-0x6ba4>
    1510:	63676269 	cmnvs	r7, #-1879048186	; 0x90000006
    1514:	6f632f63 	svcvs	0x00632f63
    1518:	6769666e 	strbvs	r6, [r9, -lr, ror #12]!
    151c:	6d72612f 	ldfvse	f6, [r2, #-188]!	; 0xffffff44
    1520:	62696c2f 	rsbvs	r6, r9, #12032	; 0x2f00
    1524:	6e756631 	mrcvs	6, 3, r6, cr5, cr1, {1}
    1528:	532e7363 	teqpl	lr, #-1946157055	; 0x8c000001
    152c:	73552f00 	cmpvc	r5, #0, 30
    1530:	2f737265 	svccs	0x00737265
    1534:	73756269 	cmnvc	r5, #-1879048186	; 0x90000006
    1538:	6f442f68 	svcvs	0x00442f68
    153c:	656d7563 	strbvs	r7, [sp, #-1379]!	; 0x563
    1540:	2f73746e 	svccs	0x0073746e
    1544:	6e617453 	mcrvs	4, 3, r7, cr1, cr3, {2}
    1548:	64726f66 	ldrbtvs	r6, [r2], #-3942	; 0xf66
    154c:	3153432f 	cmpcc	r3, pc, lsr #6
    1550:	2f453730 	svccs	0x00453730
    1554:	736f7263 	cmnvc	pc, #805306374	; 0x30000006
    1558:	6f635f73 	svcvs	0x00635f73
    155c:	6c69706d 	stclvs	0, cr7, [r9], #-436	; 0xfffffe4c
    1560:	622f7265 	eorvs	r7, pc, #1342177286	; 0x50000006
    1564:	646c6975 	strbtvs	r6, [ip], #-2421	; 0x975
    1568:	6363672d 	cmnvs	r3, #11796480	; 0xb40000
    156c:	6d72612f 	ldfvse	f6, [r2, #-188]!	; 0xffffff44
    1570:	6e6f6e2d 	cdpvs	14, 6, cr6, cr15, cr13, {1}
    1574:	61652d65 	cmnvs	r5, r5, ror #26
    1578:	6c2f6962 	stcvs	9, cr6, [pc], #-392	; 13f8 <_start-0x6c08>
    157c:	63676269 	cmnvs	r7, #-1879048186	; 0x90000006
    1580:	4e470063 	cdpmi	0, 4, cr0, cr7, cr3, {3}
    1584:	53412055 	movtpl	r2, #4181	; 0x1055
    1588:	322e3220 	eorcc	r3, lr, #32, 4
    158c:	80010034 	andhi	r0, r1, r4, lsr r0

Disassembly of section .debug_abbrev:

00000000 <.debug_abbrev>:
   0:	25011101 	strcs	r1, [r1, #-257]	; 0x101
   4:	030b130e 	movweq	r1, #45838	; 0xb30e
   8:	110e1b0e 	tstne	lr, lr, lsl #22
   c:	10061201 	andne	r1, r6, r1, lsl #4
  10:	02000017 	andeq	r0, r0, #23
  14:	0b0b0104 	bleq	2c042c <__bss_end__+0x2b7114>
  18:	0b3b0b3a 	bleq	ec2d08 <__bss_end__+0xeb99f0>
  1c:	00001301 	andeq	r1, r0, r1, lsl #6
  20:	03002803 	movweq	r2, #2051	; 0x803
  24:	000d1c0e 	andeq	r1, sp, lr, lsl #24
  28:	00160400 	andseq	r0, r6, r0, lsl #8
  2c:	0b3a0e03 	bleq	e83840 <__bss_end__+0xe7a528>
  30:	13490b3b 	movtne	r0, #39739	; 0x9b3b
  34:	28050000 	stmdacs	r5, {}	; <UNPREDICTABLE>
  38:	1c080300 	stcne	3, cr0, [r8], {-0}
  3c:	0600000d 	streq	r0, [r0], -sp
  40:	0b0b0113 	bleq	2c0494 <__bss_end__+0x2b717c>
  44:	0b3b0b3a 	bleq	ec2d34 <__bss_end__+0xeb9a1c>
  48:	00001301 	andeq	r1, r0, r1, lsl #6
  4c:	03000d07 	movweq	r0, #3335	; 0xd07
  50:	3b0b3a0e 	blcc	2ce890 <__bss_end__+0x2c5578>
  54:	3813490b 	ldmdacc	r3, {r0, r1, r3, r8, fp, lr}
  58:	0800000b 	stmdaeq	r0, {r0, r1, r3}
  5c:	193f012e 	ldmdbne	pc!, {r1, r2, r3, r5, r8}	; <UNPREDICTABLE>
  60:	0b3a0e03 	bleq	e83874 <__bss_end__+0xe7a55c>
  64:	01110b3b 	tsteq	r1, fp, lsr fp
  68:	18400612 	stmdane	r0, {r1, r4, r9, sl}^
  6c:	01194297 			; <UNDEFINED> instruction: 0x01194297
  70:	09000013 	stmdbeq	r0, {r0, r1, r4}
  74:	0e030034 	mcreq	0, 0, r0, cr3, cr4, {1}
  78:	0b3b0b3a 	bleq	ec2d68 <__bss_end__+0xeb9a50>
  7c:	00001349 	andeq	r1, r0, r9, asr #6
  80:	0300340a 	movweq	r3, #1034	; 0x40a
  84:	3b0b3a0e 	blcc	2ce8c4 <__bss_end__+0x2c55ac>
  88:	0213490b 	andseq	r4, r3, #180224	; 0x2c000
  8c:	0b000018 	bleq	f4 <_start-0x7f0c>
  90:	00018289 	andeq	r8, r1, r9, lsl #5
  94:	13310111 	teqne	r1, #1073741828	; 0x40000004
  98:	890c0000 	stmdbhi	ip, {}	; <UNPREDICTABLE>
  9c:	11010182 	smlabbne	r1, r2, r1, r0
  a0:	01133101 	tsteq	r3, r1, lsl #2
  a4:	0d000013 	stceq	0, cr0, [r0, #-76]	; 0xffffffb4
  a8:	0001828a 	andeq	r8, r1, sl, lsl #5
  ac:	42911802 	addsmi	r1, r1, #131072	; 0x20000
  b0:	0e000018 	mcreq	0, 0, r0, cr0, cr8, {0}
  b4:	01018289 	smlabbeq	r1, r9, r2, r8
  b8:	13310111 	teqne	r1, #1073741828	; 0x40000004
  bc:	2e0f0000 	cdpcs	0, 0, cr0, cr15, cr0, {0}
  c0:	03193f01 	tsteq	r9, #1, 30
  c4:	3b0b3a0e 	blcc	2ce904 <__bss_end__+0x2c55ec>
  c8:	01193c0b 	tsteq	r9, fp, lsl #24
  cc:	10000013 	andne	r0, r0, r3, lsl r0
  d0:	00000018 	andeq	r0, r0, r8, lsl r0
  d4:	3f012e11 	svccc	0x00012e11
  d8:	3a0e0319 	bcc	380d44 <__bss_end__+0x377a2c>
  dc:	270b3b0b 	strcs	r3, [fp, -fp, lsl #22]
  e0:	00193c19 	andseq	r3, r9, r9, lsl ip
  e4:	00051200 	andeq	r1, r5, r0, lsl #4
  e8:	00001349 	andeq	r1, r0, r9, asr #6
  ec:	01110100 	tsteq	r1, r0, lsl #2
  f0:	0b130e25 	bleq	4c398c <__bss_end__+0x4ba674>
  f4:	0e1b0e03 	cdpeq	14, 1, cr0, cr11, cr3, {0}
  f8:	06120111 			; <UNDEFINED> instruction: 0x06120111
  fc:	00001710 	andeq	r1, r0, r0, lsl r7
 100:	3f012e02 	svccc	0x00012e02
 104:	3a0e0319 	bcc	380d70 <__bss_end__+0x377a58>
 108:	110b3b0b 	tstne	fp, fp, lsl #22
 10c:	40061201 	andmi	r1, r6, r1, lsl #4
 110:	19429718 	stmdbne	r2, {r3, r4, r8, r9, sl, ip, pc}^
 114:	00001301 	andeq	r1, r0, r1, lsl #6
 118:	03003403 	movweq	r3, #1027	; 0x403
 11c:	3b0b3a08 	blcc	2ce944 <__bss_end__+0x2c562c>
 120:	0213490b 	andseq	r4, r3, #180224	; 0x2c000
 124:	04000017 	streq	r0, [r0], #-23
 128:	0e030034 	mcreq	0, 0, r0, cr3, cr4, {1}
 12c:	0b3b0b3a 	bleq	ec2e1c <__bss_end__+0xeb9b04>
 130:	00001349 	andeq	r1, r0, r9, asr #6
 134:	01828905 	orreq	r8, r2, r5, lsl #18
 138:	31011100 	mrscc	r1, (UNDEF: 17)
 13c:	06000013 			; <UNDEFINED> instruction: 0x06000013
 140:	0b0b000f 	bleq	2c0184 <__bss_end__+0x2b6e6c>
 144:	00001349 	andeq	r1, r0, r9, asr #6
 148:	0b002407 	bleq	916c <waveform_saw+0x58>
 14c:	030b3e0b 	movweq	r3, #48651	; 0xbe0b
 150:	08000008 	stmdaeq	r0, {r3}
 154:	0e030034 	mcreq	0, 0, r0, cr3, cr4, {1}
 158:	0b3b0b3a 	bleq	ec2e48 <__bss_end__+0xeb9b30>
 15c:	193f1349 	ldmdbne	pc!, {r0, r3, r6, r8, r9, ip}	; <UNPREDICTABLE>
 160:	0000193c 	andeq	r1, r0, ip, lsr r9
 164:	3f012e09 	svccc	0x00012e09
 168:	3a0e0319 	bcc	380dd4 <__bss_end__+0x377abc>
 16c:	3c0b3b0b 	stccc	11, cr3, [fp], {11}
 170:	0a000019 	beq	1dc <_start-0x7e24>
 174:	00000018 	andeq	r0, r0, r8, lsl r0
 178:	01110100 	tsteq	r1, r0, lsl #2
 17c:	0b130e25 	bleq	4c3a18 <__bss_end__+0x4ba700>
 180:	0e1b0e03 	cdpeq	14, 1, cr0, cr11, cr3, {0}
 184:	06120111 			; <UNDEFINED> instruction: 0x06120111
 188:	00001710 	andeq	r1, r0, r0, lsl r7
 18c:	0b010402 	bleq	4119c <__bss_end__+0x37e84>
 190:	3b0b3a0b 	blcc	2ce9c4 <__bss_end__+0x2c56ac>
 194:	0013010b 	andseq	r0, r3, fp, lsl #2
 198:	00280300 	eoreq	r0, r8, r0, lsl #6
 19c:	0d1c0e03 	ldceq	14, cr0, [ip, #-12]
 1a0:	16040000 	strne	r0, [r4], -r0
 1a4:	3a0e0300 	bcc	380dac <__bss_end__+0x377a94>
 1a8:	490b3b0b 	stmdbmi	fp, {r0, r1, r3, r8, r9, fp, ip, sp}
 1ac:	05000013 	streq	r0, [r0, #-19]
 1b0:	08030028 	stmdaeq	r3, {r3, r5}
 1b4:	00000d1c 	andeq	r0, r0, ip, lsl sp
 1b8:	0b011306 	bleq	44dd8 <__bss_end__+0x3bac0>
 1bc:	3b0b3a0b 	blcc	2ce9f0 <__bss_end__+0x2c56d8>
 1c0:	0013010b 	andseq	r0, r3, fp, lsl #2
 1c4:	000d0700 	andeq	r0, sp, r0, lsl #14
 1c8:	0b3a0e03 	bleq	e839dc <__bss_end__+0xe7a6c4>
 1cc:	13490b3b 	movtne	r0, #39739	; 0x9b3b
 1d0:	00000b38 	andeq	r0, r0, r8, lsr fp
 1d4:	3f012e08 	svccc	0x00012e08
 1d8:	3a0e0319 	bcc	380e44 <__bss_end__+0x377b2c>
 1dc:	270b3b0b 	strcs	r3, [fp, -fp, lsl #22]
 1e0:	11134919 	tstne	r3, r9, lsl r9
 1e4:	40061201 	andmi	r1, r6, r1, lsl #4
 1e8:	19429618 	stmdbne	r2, {r3, r4, r9, sl, ip, pc}^
 1ec:	00001301 	andeq	r1, r0, r1, lsl #6
 1f0:	03000509 	movweq	r0, #1289	; 0x509
 1f4:	3b0b3a0e 	blcc	2cea34 <__bss_end__+0x2c571c>
 1f8:	0213490b 	andseq	r4, r3, #180224	; 0x2c000
 1fc:	0a000017 	beq	260 <_start-0x7da0>
 200:	0e030034 	mcreq	0, 0, r0, cr3, cr4, {1}
 204:	0b3b0b3a 	bleq	ec2ef4 <__bss_end__+0xeb9bdc>
 208:	17021349 	strne	r1, [r2, -r9, asr #6]
 20c:	240b0000 	strcs	r0, [fp], #-0
 210:	3e0b0b00 	vmlacc.f64	d0, d11, d0
 214:	000e030b 	andeq	r0, lr, fp, lsl #6
 218:	012e0c00 	teqeq	lr, r0, lsl #24
 21c:	0e03193f 	mcreq	9, 0, r1, cr3, cr15, {1}
 220:	0b3b0b3a 	bleq	ec2f10 <__bss_end__+0xeb9bf8>
 224:	01111927 	tsteq	r1, r7, lsr #18
 228:	18400612 	stmdane	r0, {r1, r4, r9, sl}^
 22c:	01194297 			; <UNDEFINED> instruction: 0x01194297
 230:	0d000013 	stceq	0, cr0, [r0, #-76]	; 0xffffffb4
 234:	0e030005 	cdpeq	0, 0, cr0, cr3, cr5, {0}
 238:	0b3b0b3a 	bleq	ec2f28 <__bss_end__+0xeb9c10>
 23c:	18021349 	stmdane	r2, {r0, r3, r6, r8, r9, ip}
 240:	0b0e0000 	bleq	380248 <__bss_end__+0x376f30>
 244:	12011101 	andne	r1, r1, #1073741824	; 0x40000000
 248:	00130106 	andseq	r0, r3, r6, lsl #2
 24c:	00340f00 	eorseq	r0, r4, r0, lsl #30
 250:	0b3a0803 	bleq	e82264 <__bss_end__+0xe78f4c>
 254:	13490b3b 	movtne	r0, #39739	; 0x9b3b
 258:	00001702 	andeq	r1, r0, r2, lsl #14
 25c:	55010b10 	strpl	r0, [r1, #-2832]	; 0xb10
 260:	00130117 	andseq	r0, r3, r7, lsl r1
 264:	82891100 	addhi	r1, r9, #0, 2
 268:	01110101 	tsteq	r1, r1, lsl #2
 26c:	13011331 	movwne	r1, #4913	; 0x1331
 270:	8a120000 	bhi	480278 <__bss_end__+0x476f60>
 274:	02000182 	andeq	r0, r0, #-2147483616	; 0x80000020
 278:	18429118 	stmdane	r2, {r3, r4, r8, ip, pc}^
 27c:	89130000 	ldmdbhi	r3, {}	; <UNPREDICTABLE>
 280:	11010182 	smlabbne	r1, r2, r1, r0
 284:	00133101 	andseq	r3, r3, r1, lsl #2
 288:	000f1400 	andeq	r1, pc, r0, lsl #8
 28c:	13490b0b 	movtne	r0, #39691	; 0x9b0b
 290:	24150000 	ldrcs	r0, [r5], #-0
 294:	3e0b0b00 	vmlacc.f64	d0, d11, d0
 298:	0008030b 	andeq	r0, r8, fp, lsl #6
 29c:	012e1600 	teqeq	lr, r0, lsl #12
 2a0:	0e03193f 	mcreq	9, 0, r1, cr3, cr15, {1}
 2a4:	0b3b0b3a 	bleq	ec2f94 <__bss_end__+0xeb9c7c>
 2a8:	06120111 			; <UNDEFINED> instruction: 0x06120111
 2ac:	42971840 	addsmi	r1, r7, #64, 16	; 0x400000
 2b0:	00130119 	andseq	r0, r3, r9, lsl r1
 2b4:	002e1700 	eoreq	r1, lr, r0, lsl #14
 2b8:	0e03193f 	mcreq	9, 0, r1, cr3, cr15, {1}
 2bc:	053b0b3a 	ldreq	r0, [fp, #-2874]!	; 0xb3a
 2c0:	06120111 			; <UNDEFINED> instruction: 0x06120111
 2c4:	42971840 	addsmi	r1, r7, #64, 16	; 0x400000
 2c8:	18000019 	stmdane	r0, {r0, r3, r4}
 2cc:	0e030034 	mcreq	0, 0, r0, cr3, cr4, {1}
 2d0:	0b3b0b3a 	bleq	ec2fc0 <__bss_end__+0xeb9ca8>
 2d4:	193f1349 	ldmdbne	pc!, {r0, r3, r6, r8, r9, ip}	; <UNPREDICTABLE>
 2d8:	00001802 	andeq	r1, r0, r2, lsl #16
 2dc:	49003519 	stmdbmi	r0, {r0, r3, r4, r8, sl, ip, sp}
 2e0:	1a000013 	bne	334 <_start-0x7ccc>
 2e4:	08030034 	stmdaeq	r3, {r2, r4, r5}
 2e8:	0b3b0b3a 	bleq	ec2fd8 <__bss_end__+0xeb9cc0>
 2ec:	193f1349 	ldmdbne	pc!, {r0, r3, r6, r8, r9, ip}	; <UNPREDICTABLE>
 2f0:	00001802 	andeq	r1, r0, r2, lsl #16
 2f4:	4901011b 	stmdbmi	r1, {r0, r1, r3, r4, r8}
 2f8:	00130113 	andseq	r0, r3, r3, lsl r1
 2fc:	00211c00 	eoreq	r1, r1, r0, lsl #24
 300:	0b2f1349 	bleq	bc502c <__bss_end__+0xbbbd14>
 304:	2e1d0000 	cdpcs	0, 1, cr0, cr13, cr0, {0}
 308:	03193f01 	tsteq	r9, #1, 30
 30c:	3b0b3a0e 	blcc	2ceb4c <__bss_end__+0x2c5834>
 310:	3c19270b 	ldccc	7, cr2, [r9], {11}
 314:	1e000019 	mcrne	0, 0, r0, cr0, cr9, {0}
 318:	13490005 	movtne	r0, #36869	; 0x9005
 31c:	01000000 	mrseq	r0, (UNDEF: 0)
 320:	0e250111 	mcreq	1, 1, r0, cr5, cr1, {0}
 324:	0e030b13 	vmoveq.32	d3[0], r0
 328:	1755081b 	smmlane	r5, fp, r8, r0
 32c:	17100111 			; <UNDEFINED> instruction: 0x17100111
 330:	24020000 	strcs	r0, [r2], #-0
 334:	3e0b0b00 	vmlacc.f64	d0, d11, d0
 338:	000e030b 	andeq	r0, lr, fp, lsl #6
 33c:	01040300 	mrseq	r0, LR_abt
 340:	0b3a0b0b 	bleq	e82f74 <__bss_end__+0xe79c5c>
 344:	13010b3b 	movwne	r0, #6971	; 0x1b3b
 348:	28040000 	stmdacs	r4, {}	; <UNPREDICTABLE>
 34c:	1c0e0300 	stcne	3, cr0, [lr], {-0}
 350:	0500000d 	streq	r0, [r0, #-13]
 354:	193f002e 	ldmdbne	pc!, {r1, r2, r3, r5}	; <UNPREDICTABLE>
 358:	0b3a0e03 	bleq	e83b6c <__bss_end__+0xe7a854>
 35c:	19270b3b 	stmdbne	r7!, {r0, r1, r3, r4, r5, r8, r9, fp}
 360:	06120111 			; <UNDEFINED> instruction: 0x06120111
 364:	42971840 	addsmi	r1, r7, #64, 16	; 0x400000
 368:	06000019 			; <UNDEFINED> instruction: 0x06000019
 36c:	193f012e 	ldmdbne	pc!, {r1, r2, r3, r5, r8}	; <UNPREDICTABLE>
 370:	0b3a0e03 	bleq	e83b84 <__bss_end__+0xe7a86c>
 374:	19270b3b 	stmdbne	r7!, {r0, r1, r3, r4, r5, r8, r9, fp}
 378:	06120111 			; <UNDEFINED> instruction: 0x06120111
 37c:	42971840 	addsmi	r1, r7, #64, 16	; 0x400000
 380:	00130119 	andseq	r0, r3, r9, lsl r1
 384:	00050700 	andeq	r0, r5, r0, lsl #14
 388:	0b3a0803 	bleq	e8239c <__bss_end__+0xe79084>
 38c:	13490b3b 	movtne	r0, #39739	; 0x9b3b
 390:	00001802 	andeq	r1, r0, r2, lsl #16
 394:	03000508 	movweq	r0, #1288	; 0x508
 398:	3b0b3a0e 	blcc	2cebd8 <__bss_end__+0x2c58c0>
 39c:	0213490b 	andseq	r4, r3, #180224	; 0x2c000
 3a0:	09000017 	stmdbeq	r0, {r0, r1, r2, r4}
 3a4:	0e030034 	mcreq	0, 0, r0, cr3, cr4, {1}
 3a8:	0b3b0b3a 	bleq	ec3098 <__bss_end__+0xeb9d80>
 3ac:	18021349 	stmdane	r2, {r0, r3, r6, r8, r9, ip}
 3b0:	340a0000 	strcc	r0, [sl], #-0
 3b4:	3a080300 	bcc	200fbc <__bss_end__+0x1f7ca4>
 3b8:	490b3b0b 	stmdbmi	fp, {r0, r1, r3, r8, r9, fp, ip, sp}
 3bc:	00180213 	andseq	r0, r8, r3, lsl r2
 3c0:	00340b00 	eorseq	r0, r4, r0, lsl #22
 3c4:	0b3a0803 	bleq	e823d8 <__bss_end__+0xe790c0>
 3c8:	13490b3b 	movtne	r0, #39739	; 0x9b3b
 3cc:	00001702 	andeq	r1, r0, r2, lsl #14
 3d0:	0300340c 	movweq	r3, #1036	; 0x40c
 3d4:	3b0b3a0e 	blcc	2cec14 <__bss_end__+0x2c58fc>
 3d8:	0213490b 	andseq	r4, r3, #180224	; 0x2c000
 3dc:	0d000017 	stceq	0, cr0, [r0, #-92]	; 0xffffffa4
 3e0:	0b0b000f 	bleq	2c0424 <__bss_end__+0x2b710c>
 3e4:	00001349 	andeq	r1, r0, r9, asr #6
 3e8:	4900350e 	stmdbmi	r0, {r1, r2, r3, r8, sl, ip, sp}
 3ec:	0f000013 	svceq	0x00000013
 3f0:	193f012e 	ldmdbne	pc!, {r1, r2, r3, r5, r8}	; <UNPREDICTABLE>
 3f4:	0b3a0e03 	bleq	e83c08 <__bss_end__+0xe7a8f0>
 3f8:	19270b3b 	stmdbne	r7!, {r0, r1, r3, r4, r5, r8, r9, fp}
 3fc:	01111349 	tsteq	r1, r9, asr #6
 400:	18400612 	stmdane	r0, {r1, r4, r9, sl}^
 404:	01194297 			; <UNDEFINED> instruction: 0x01194297
 408:	10000013 	andne	r0, r0, r3, lsl r0
 40c:	08030005 	stmdaeq	r3, {r0, r2}
 410:	0b3b0b3a 	bleq	ec3100 <__bss_end__+0xeb9de8>
 414:	17021349 	strne	r1, [r2, -r9, asr #6]
 418:	89110000 	ldmdbhi	r1, {}	; <UNPREDICTABLE>
 41c:	11010182 	smlabbne	r1, r2, r1, r0
 420:	00133101 	andseq	r3, r3, r1, lsl #2
 424:	828a1200 	addhi	r1, sl, #0, 4
 428:	18020001 	stmdane	r2, {r0}
 42c:	00184291 	mulseq	r8, r1, r2
 430:	010b1300 	mrseq	r1, (UNDEF: 59)
 434:	06120111 			; <UNDEFINED> instruction: 0x06120111
 438:	00001301 	andeq	r1, r0, r1, lsl #6
 43c:	11010b14 	tstne	r1, r4, lsl fp
 440:	00061201 	andeq	r1, r6, r1, lsl #4
 444:	012e1500 	teqeq	lr, r0, lsl #10
 448:	0e03193f 	mcreq	9, 0, r1, cr3, cr15, {1}
 44c:	0b3b0b3a 	bleq	ec313c <__bss_end__+0xeb9e24>
 450:	13491927 	movtne	r1, #39207	; 0x9927
 454:	06120111 			; <UNDEFINED> instruction: 0x06120111
 458:	42971840 	addsmi	r1, r7, #64, 16	; 0x400000
 45c:	00000019 	andeq	r0, r0, r9, lsl r0
 460:	25011101 	strcs	r1, [r1, #-257]	; 0x101
 464:	030b130e 	movweq	r1, #45838	; 0xb30e
 468:	55081b0e 	strpl	r1, [r8, #-2830]	; 0xb0e
 46c:	10011117 	andne	r1, r1, r7, lsl r1
 470:	02000017 	andeq	r0, r0, #23
 474:	193f002e 	ldmdbne	pc!, {r1, r2, r3, r5}	; <UNPREDICTABLE>
 478:	0b3a0e03 	bleq	e83c8c <__bss_end__+0xe7a974>
 47c:	19270b3b 	stmdbne	r7!, {r0, r1, r3, r4, r5, r8, r9, fp}
 480:	06120111 			; <UNDEFINED> instruction: 0x06120111
 484:	42971840 	addsmi	r1, r7, #64, 16	; 0x400000
 488:	03000019 	movweq	r0, #25
 48c:	193f012e 	ldmdbne	pc!, {r1, r2, r3, r5, r8}	; <UNPREDICTABLE>
 490:	0b3a0e03 	bleq	e83ca4 <__bss_end__+0xe7a98c>
 494:	19270b3b 	stmdbne	r7!, {r0, r1, r3, r4, r5, r8, r9, fp}
 498:	01111349 	tsteq	r1, r9, asr #6
 49c:	18400612 	stmdane	r0, {r1, r4, r9, sl}^
 4a0:	01194297 			; <UNDEFINED> instruction: 0x01194297
 4a4:	04000013 	streq	r0, [r0], #-19
 4a8:	0e030034 	mcreq	0, 0, r0, cr3, cr4, {1}
 4ac:	0b3b0b3a 	bleq	ec319c <__bss_end__+0xeb9e84>
 4b0:	061c1349 	ldreq	r1, [ip], -r9, asr #6
 4b4:	24050000 	strcs	r0, [r5], #-0
 4b8:	3e0b0b00 	vmlacc.f64	d0, d11, d0
 4bc:	000e030b 	andeq	r0, lr, fp, lsl #6
 4c0:	000f0600 	andeq	r0, pc, r0, lsl #12
 4c4:	13490b0b 	movtne	r0, #39691	; 0x9b0b
 4c8:	35070000 	strcc	r0, [r7, #-0]
 4cc:	00134900 	andseq	r4, r3, r0, lsl #18
 4d0:	012e0800 	teqeq	lr, r0, lsl #16
 4d4:	0e03193f 	mcreq	9, 0, r1, cr3, cr15, {1}
 4d8:	0b3b0b3a 	bleq	ec31c8 <__bss_end__+0xeb9eb0>
 4dc:	01111927 	tsteq	r1, r7, lsr #18
 4e0:	18400612 	stmdane	r0, {r1, r4, r9, sl}^
 4e4:	01194297 			; <UNDEFINED> instruction: 0x01194297
 4e8:	09000013 	stmdbeq	r0, {r0, r1, r4}
 4ec:	08030005 	stmdaeq	r3, {r0, r2}
 4f0:	0b3b0b3a 	bleq	ec31e0 <__bss_end__+0xeb9ec8>
 4f4:	17021349 	strne	r1, [r2, -r9, asr #6]
 4f8:	340a0000 	strcc	r0, [sl], #-0
 4fc:	3a080300 	bcc	201104 <__bss_end__+0x1f7dec>
 500:	490b3b0b 	stmdbmi	fp, {r0, r1, r3, r8, r9, fp, ip, sp}
 504:	00180213 	andseq	r0, r8, r3, lsl r2
 508:	010b0b00 	tsteq	fp, r0, lsl #22
 50c:	06120111 			; <UNDEFINED> instruction: 0x06120111
 510:	00001301 	andeq	r1, r0, r1, lsl #6
 514:	0300340c 	movweq	r3, #1036	; 0x40c
 518:	3b0b3a08 	blcc	2ced40 <__bss_end__+0x2c5a28>
 51c:	0213490b 	andseq	r4, r3, #180224	; 0x2c000
 520:	0d000017 	stceq	0, cr0, [r0, #-92]	; 0xffffffa4
 524:	00018289 	andeq	r8, r1, r9, lsl #5
 528:	13310111 	teqne	r1, #1073741828	; 0x40000004
 52c:	890e0000 	stmdbhi	lr, {}	; <UNPREDICTABLE>
 530:	11010182 	smlabbne	r1, r2, r1, r0
 534:	00133101 	andseq	r3, r3, r1, lsl #2
 538:	828a0f00 	addhi	r0, sl, #0, 30
 53c:	18020001 	stmdane	r2, {r0}
 540:	00184291 	mulseq	r8, r1, r2
 544:	00241000 	eoreq	r1, r4, r0
 548:	0b3e0b0b 	bleq	f8317c <__bss_end__+0xf79e64>
 54c:	00000803 	andeq	r0, r0, r3, lsl #16
 550:	03000511 	movweq	r0, #1297	; 0x511
 554:	3b0b3a0e 	blcc	2ced94 <__bss_end__+0x2c5a7c>
 558:	0213490b 	andseq	r4, r3, #180224	; 0x2c000
 55c:	12000017 	andne	r0, r0, #23
 560:	0111010b 	tsteq	r1, fp, lsl #2
 564:	00000612 	andeq	r0, r0, r2, lsl r6
 568:	03003413 	movweq	r3, #1043	; 0x413
 56c:	3b0b3a0e 	blcc	2cedac <__bss_end__+0x2c5a94>
 570:	0213490b 	andseq	r4, r3, #180224	; 0x2c000
 574:	14000018 	strne	r0, [r0], #-24
 578:	0e030034 	mcreq	0, 0, r0, cr3, cr4, {1}
 57c:	0b3b0b3a 	bleq	ec326c <__bss_end__+0xeb9f54>
 580:	193f1349 	ldmdbne	pc!, {r0, r3, r6, r8, r9, ip}	; <UNPREDICTABLE>
 584:	00001802 	andeq	r1, r0, r2, lsl #16
 588:	49002615 	stmdbmi	r0, {r0, r2, r4, r9, sl, sp}
 58c:	00000013 	andeq	r0, r0, r3, lsl r0
 590:	25011101 	strcs	r1, [r1, #-257]	; 0x101
 594:	030b130e 	movweq	r1, #45838	; 0xb30e
 598:	55081b0e 	strpl	r1, [r8, #-2830]	; 0xb0e
 59c:	10011117 	andne	r1, r1, r7, lsl r1
 5a0:	02000017 	andeq	r0, r0, #23
 5a4:	0e030016 	mcreq	0, 0, r0, cr3, cr6, {0}
 5a8:	0b3b0b3a 	bleq	ec3298 <__bss_end__+0xeb9f80>
 5ac:	00001349 	andeq	r1, r0, r9, asr #6
 5b0:	03011303 	movweq	r1, #4867	; 0x1303
 5b4:	3a0b0b0e 	bcc	2c31f4 <__bss_end__+0x2b9edc>
 5b8:	010b3b0b 	tsteq	fp, fp, lsl #22
 5bc:	04000013 	streq	r0, [r0], #-19
 5c0:	0e03000d 	cdpeq	0, 0, cr0, cr3, cr13, {0}
 5c4:	0b381349 	bleq	e052f0 <__bss_end__+0xdfbfd8>
 5c8:	00001934 	andeq	r1, r0, r4, lsr r9
 5cc:	0b000f05 	bleq	41e8 <_start-0x3e18>
 5d0:	0600000b 	streq	r0, [r0], -fp
 5d4:	193f012e 	ldmdbne	pc!, {r1, r2, r3, r5, r8}	; <UNPREDICTABLE>
 5d8:	0b3a0e03 	bleq	e83dec <__bss_end__+0xe7aad4>
 5dc:	01110b3b 	tsteq	r1, fp, lsr fp
 5e0:	18400612 	stmdane	r0, {r1, r4, r9, sl}^
 5e4:	01194297 			; <UNDEFINED> instruction: 0x01194297
 5e8:	07000013 	smladeq	r0, r3, r0, r0
 5ec:	00018289 	andeq	r8, r1, r9, lsl #5
 5f0:	13310111 	teqne	r1, #1073741828	; 0x40000004
 5f4:	2e080000 	cdpcs	0, 0, cr0, cr8, cr0, {0}
 5f8:	03193f01 	tsteq	r9, #1, 30
 5fc:	3b0b3a0e 	blcc	2cee3c <__bss_end__+0x2c5b24>
 600:	4919270b 	ldmdbmi	r9, {r0, r1, r3, r8, r9, sl, sp}
 604:	12011113 	andne	r1, r1, #-1073741820	; 0xc0000004
 608:	97184006 	ldrls	r4, [r8, -r6]
 60c:	13011942 	movwne	r1, #6466	; 0x1942
 610:	05090000 	streq	r0, [r9, #-0]
 614:	3a0e0300 	bcc	38121c <__bss_end__+0x377f04>
 618:	490b3b0b 	stmdbmi	fp, {r0, r1, r3, r8, r9, fp, ip, sp}
 61c:	00170213 	andseq	r0, r7, r3, lsl r2
 620:	00050a00 	andeq	r0, r5, r0, lsl #20
 624:	0b3a0803 	bleq	e82638 <__bss_end__+0xe79320>
 628:	13490b3b 	movtne	r0, #39739	; 0x9b3b
 62c:	00001802 	andeq	r1, r0, r2, lsl #16
 630:	11010b0b 	tstne	r1, fp, lsl #22
 634:	00061201 	andeq	r1, r6, r1, lsl #4
 638:	00340c00 	eorseq	r0, r4, r0, lsl #24
 63c:	0b3a0803 	bleq	e82650 <__bss_end__+0xe79338>
 640:	13490b3b 	movtne	r0, #39739	; 0x9b3b
 644:	00001702 	andeq	r1, r0, r2, lsl #14
 648:	0b00240d 	bleq	9684 <__bss_end__+0x36c>
 64c:	030b3e0b 	movweq	r3, #48651	; 0xbe0b
 650:	0e000008 	cdpeq	0, 0, cr0, cr0, cr8, {0}
 654:	08030005 	stmdaeq	r3, {r0, r2}
 658:	0b3b0b3a 	bleq	ec3348 <__bss_end__+0xeba030>
 65c:	17021349 	strne	r1, [r2, -r9, asr #6]
 660:	340f0000 	strcc	r0, [pc], #-0	; 668 <_start-0x7998>
 664:	3a0e0300 	bcc	38126c <__bss_end__+0x377f54>
 668:	490b3b0b 	stmdbmi	fp, {r0, r1, r3, r8, r9, fp, ip, sp}
 66c:	00170213 	andseq	r0, r7, r3, lsl r2
 670:	010b1000 	mrseq	r1, (UNDEF: 11)
 674:	13011755 	movwne	r1, #5973	; 0x1755
 678:	0f110000 	svceq	0x00110000
 67c:	490b0b00 	stmdbmi	fp, {r8, r9, fp}
 680:	12000013 	andne	r0, r0, #19
 684:	0b0b0024 	bleq	2c071c <__bss_end__+0x2b7404>
 688:	0e030b3e 	vmoveq.16	d3[0], r0
 68c:	0b130000 	bleq	4c0694 <__bss_end__+0x4b737c>
 690:	00175501 	andseq	r5, r7, r1, lsl #10
 694:	010b1400 	tsteq	fp, r0, lsl #8
 698:	06120111 			; <UNDEFINED> instruction: 0x06120111
 69c:	00001301 	andeq	r1, r0, r1, lsl #6
 6a0:	01828915 	orreq	r8, r2, r5, lsl r9
 6a4:	31011101 	tstcc	r1, r1, lsl #2
 6a8:	16000013 			; <UNDEFINED> instruction: 0x16000013
 6ac:	0001828a 	andeq	r8, r1, sl, lsl #5
 6b0:	42911802 	addsmi	r1, r1, #131072	; 0x20000
 6b4:	17000018 	smladne	r0, r8, r0, r0
 6b8:	01018289 	smlabbeq	r1, r9, r2, r8
 6bc:	13310111 	teqne	r1, #1073741828	; 0x40000004
 6c0:	00001301 	andeq	r1, r0, r1, lsl #6
 6c4:	49002618 	stmdbmi	r0, {r3, r4, r9, sl, sp}
 6c8:	19000013 	stmdbne	r0, {r0, r1, r4}
 6cc:	193f012e 	ldmdbne	pc!, {r1, r2, r3, r5, r8}	; <UNPREDICTABLE>
 6d0:	0b3a0e03 	bleq	e83ee4 <__bss_end__+0xe7abcc>
 6d4:	1927053b 	stmdbne	r7!, {r0, r1, r3, r4, r5, r8, sl}
 6d8:	01111349 	tsteq	r1, r9, asr #6
 6dc:	18400612 	stmdane	r0, {r1, r4, r9, sl}^
 6e0:	01194297 			; <UNDEFINED> instruction: 0x01194297
 6e4:	1a000013 	bne	738 <_start-0x78c8>
 6e8:	08030005 	stmdaeq	r3, {r0, r2}
 6ec:	053b0b3a 	ldreq	r0, [fp, #-2874]!	; 0xb3a
 6f0:	17021349 	strne	r1, [r2, -r9, asr #6]
 6f4:	051b0000 	ldreq	r0, [fp, #-0]
 6f8:	3a0e0300 	bcc	381300 <__bss_end__+0x377fe8>
 6fc:	49053b0b 	stmdbmi	r5, {r0, r1, r3, r8, r9, fp, ip, sp}
 700:	00170213 	andseq	r0, r7, r3, lsl r2
 704:	00051c00 	andeq	r1, r5, r0, lsl #24
 708:	0b3a0e03 	bleq	e83f1c <__bss_end__+0xe7ac04>
 70c:	1349053b 	movtne	r0, #38203	; 0x953b
 710:	00001802 	andeq	r1, r0, r2, lsl #16
 714:	0000181d 	andeq	r1, r0, sp, lsl r8
 718:	00341e00 	eorseq	r1, r4, r0, lsl #28
 71c:	0b3a0803 	bleq	e82730 <__bss_end__+0xe79418>
 720:	1349053b 	movtne	r0, #38203	; 0x953b
 724:	00001802 	andeq	r1, r0, r2, lsl #16
 728:	0300341f 	movweq	r3, #1055	; 0x41f
 72c:	3b0b3a0e 	blcc	2cef6c <__bss_end__+0x2c5c54>
 730:	02134905 	andseq	r4, r3, #81920	; 0x14000
 734:	20000018 	andcs	r0, r0, r8, lsl r0
 738:	08030034 	stmdaeq	r3, {r2, r4, r5}
 73c:	053b0b3a 	ldreq	r0, [fp, #-2874]!	; 0xb3a
 740:	17021349 	strne	r1, [r2, -r9, asr #6]
 744:	34210000 	strtcc	r0, [r1], #-0
 748:	3a0e0300 	bcc	381350 <__bss_end__+0x378038>
 74c:	49053b0b 	stmdbmi	r5, {r0, r1, r3, r8, r9, fp, ip, sp}
 750:	00170213 	andseq	r0, r7, r3, lsl r2
 754:	01012200 	mrseq	r2, R9_usr
 758:	13011349 	movwne	r1, #4937	; 0x1349
 75c:	21230000 	teqcs	r3, r0
 760:	2f134900 	svccs	0x00134900
 764:	24000005 	strcs	r0, [r0], #-5
 768:	193f002e 	ldmdbne	pc!, {r1, r2, r3, r5}	; <UNPREDICTABLE>
 76c:	0b3a0e03 	bleq	e83f80 <__bss_end__+0xe7ac68>
 770:	19270b3b 	stmdbne	r7!, {r0, r1, r3, r4, r5, r8, r9, fp}
 774:	0000193c 	andeq	r1, r0, ip, lsr r9
 778:	3f012e25 	svccc	0x00012e25
 77c:	3a0e0319 	bcc	3813e8 <__bss_end__+0x3780d0>
 780:	270b3b0b 	strcs	r3, [fp, -fp, lsl #22]
 784:	00193c19 	andseq	r3, r9, r9, lsl ip
 788:	00052600 	andeq	r2, r5, r0, lsl #12
 78c:	00001349 	andeq	r1, r0, r9, asr #6
 790:	01110100 	tsteq	r1, r0, lsl #2
 794:	0b130e25 	bleq	4c4030 <__bss_end__+0x4bad18>
 798:	081b0e03 	ldmdaeq	fp, {r0, r1, r9, sl, fp}
 79c:	01111755 	tsteq	r1, r5, asr r7
 7a0:	00001710 	andeq	r1, r0, r0, lsl r7
 7a4:	0b010402 	bleq	417b4 <__bss_end__+0x3849c>
 7a8:	3b0b3a0b 	blcc	2cefdc <__bss_end__+0x2c5cc4>
 7ac:	0013010b 	andseq	r0, r3, fp, lsl #2
 7b0:	00280300 	eoreq	r0, r8, r0, lsl #6
 7b4:	0d1c0e03 	ldceq	14, cr0, [ip, #-12]
 7b8:	13040000 	movwne	r0, #16384	; 0x4000
 7bc:	0b0e0301 	bleq	3813c8 <__bss_end__+0x3780b0>
 7c0:	3b0b3a0b 	blcc	2ceff4 <__bss_end__+0x2c5cdc>
 7c4:	0013010b 	andseq	r0, r3, fp, lsl #2
 7c8:	000d0500 	andeq	r0, sp, r0, lsl #10
 7cc:	0b3a0e03 	bleq	e83fe0 <__bss_end__+0xe7acc8>
 7d0:	13490b3b 	movtne	r0, #39739	; 0x9b3b
 7d4:	00000b38 	andeq	r0, r0, r8, lsr fp
 7d8:	03000d06 	movweq	r0, #3334	; 0xd06
 7dc:	3b0b3a08 	blcc	2cf004 <__bss_end__+0x2c5cec>
 7e0:	3813490b 	ldmdacc	r3, {r0, r1, r3, r8, fp, lr}
 7e4:	0700000b 	streq	r0, [r0, -fp]
 7e8:	0b0b0024 	bleq	2c0880 <__bss_end__+0x2b7568>
 7ec:	0e030b3e 	vmoveq.16	d3[0], r0
 7f0:	2e080000 	cdpcs	0, 0, cr0, cr8, cr0, {0}
 7f4:	03193f01 	tsteq	r9, #1, 30
 7f8:	3b0b3a0e 	blcc	2cf038 <__bss_end__+0x2c5d20>
 7fc:	1119270b 	tstne	r9, fp, lsl #14
 800:	40061201 	andmi	r1, r6, r1, lsl #4
 804:	19429718 	stmdbne	r2, {r3, r4, r8, r9, sl, ip, pc}^
 808:	00001301 	andeq	r1, r0, r1, lsl #6
 80c:	03003409 	movweq	r3, #1033	; 0x409
 810:	3b0b3a08 	blcc	2cf038 <__bss_end__+0x2c5d20>
 814:	1c13490b 	ldcne	9, cr4, [r3], {11}
 818:	0a000006 	beq	838 <_start-0x77c8>
 81c:	01018289 	smlabbeq	r1, r9, r2, r8
 820:	13310111 	teqne	r1, #1073741828	; 0x40000004
 824:	00001301 	andeq	r1, r0, r1, lsl #6
 828:	01828a0b 	orreq	r8, r2, fp, lsl #20
 82c:	91180200 	tstls	r8, r0, lsl #4
 830:	00001842 	andeq	r1, r0, r2, asr #16
 834:	0182890c 	orreq	r8, r2, ip, lsl #18
 838:	31011101 	tstcc	r1, r1, lsl #2
 83c:	0d000013 	stceq	0, cr0, [r0, #-76]	; 0xffffffb4
 840:	0b0b000f 	bleq	2c0884 <__bss_end__+0x2b756c>
 844:	00001349 	andeq	r1, r0, r9, asr #6
 848:	0b00240e 	bleq	9888 <__bss_end__+0x570>
 84c:	030b3e0b 	movweq	r3, #48651	; 0xbe0b
 850:	0f000008 	svceq	0x00000008
 854:	193f002e 	ldmdbne	pc!, {r1, r2, r3, r5}	; <UNPREDICTABLE>
 858:	0b3a0e03 	bleq	e8406c <__bss_end__+0xe7ad54>
 85c:	19270b3b 	stmdbne	r7!, {r0, r1, r3, r4, r5, r8, r9, fp}
 860:	01111349 	tsteq	r1, r9, asr #6
 864:	18400612 	stmdane	r0, {r1, r4, r9, sl}^
 868:	00194297 	mulseq	r9, r7, r2
 86c:	00051000 	andeq	r1, r5, r0
 870:	0b3a0803 	bleq	e82884 <__bss_end__+0xe7956c>
 874:	13490b3b 	movtne	r0, #39739	; 0x9b3b
 878:	00001702 	andeq	r1, r0, r2, lsl #14
 87c:	3f002e11 	svccc	0x00002e11
 880:	3a0e0319 	bcc	3814ec <__bss_end__+0x3781d4>
 884:	270b3b0b 	strcs	r3, [fp, -fp, lsl #22]
 888:	12011119 	andne	r1, r1, #1073741830	; 0x40000006
 88c:	97184006 	ldrls	r4, [r8, -r6]
 890:	00001942 	andeq	r1, r0, r2, asr #18
 894:	03003412 	movweq	r3, #1042	; 0x412
 898:	3b0b3a0e 	blcc	2cf0d8 <__bss_end__+0x2c5dc0>
 89c:	1c13490b 	ldcne	9, cr4, [r3], {11}
 8a0:	13000006 	movwne	r0, #6
 8a4:	13490026 	movtne	r0, #36902	; 0x9026
 8a8:	35140000 	ldrcc	r0, [r4, #-0]
 8ac:	00134900 	andseq	r4, r3, r0, lsl #18
 8b0:	012e1500 	teqeq	lr, r0, lsl #10
 8b4:	0e03193f 	mcreq	9, 0, r1, cr3, cr15, {1}
 8b8:	0b3b0b3a 	bleq	ec35a8 <__bss_end__+0xeba290>
 8bc:	193c1927 	ldmdbne	ip!, {r0, r1, r2, r5, r8, fp, ip}
 8c0:	05160000 	ldreq	r0, [r6, #-0]
 8c4:	00134900 	andseq	r4, r3, r0, lsl #18
 8c8:	11010000 	mrsne	r0, (UNDEF: 1)
 8cc:	130e2501 	movwne	r2, #58625	; 0xe501
 8d0:	1b0e030b 	blne	381504 <__bss_end__+0x3781ec>
 8d4:	11175508 	tstne	r7, r8, lsl #10
 8d8:	00171001 	andseq	r1, r7, r1
 8dc:	01040200 	mrseq	r0, R12_usr
 8e0:	0b3a0b0b 	bleq	e83514 <__bss_end__+0xe7a1fc>
 8e4:	13010b3b 	movwne	r0, #6971	; 0x1b3b
 8e8:	28030000 	stmdacs	r3, {}	; <UNPREDICTABLE>
 8ec:	1c0e0300 	stcne	3, cr0, [lr], {-0}
 8f0:	0400000d 	streq	r0, [r0], #-13
 8f4:	193f012e 	ldmdbne	pc!, {r1, r2, r3, r5, r8}	; <UNPREDICTABLE>
 8f8:	0b3a0e03 	bleq	e8410c <__bss_end__+0xe7adf4>
 8fc:	19270b3b 	stmdbne	r7!, {r0, r1, r3, r4, r5, r8, r9, fp}
 900:	06120111 			; <UNDEFINED> instruction: 0x06120111
 904:	42971840 	addsmi	r1, r7, #64, 16	; 0x400000
 908:	00130119 	andseq	r0, r3, r9, lsl r1
 90c:	00050500 	andeq	r0, r5, r0, lsl #10
 910:	0b3a0803 	bleq	e82924 <__bss_end__+0xe7960c>
 914:	13490b3b 	movtne	r0, #39739	; 0x9b3b
 918:	00001702 	andeq	r1, r0, r2, lsl #14
 91c:	03003406 	movweq	r3, #1030	; 0x406
 920:	3b0b3a0e 	blcc	2cf160 <__bss_end__+0x2c5e48>
 924:	1c13490b 	ldcne	9, cr4, [r3], {11}
 928:	07000006 	streq	r0, [r0, -r6]
 92c:	01018289 	smlabbeq	r1, r9, r2, r8
 930:	13310111 	teqne	r1, #1073741828	; 0x40000004
 934:	00001301 	andeq	r1, r0, r1, lsl #6
 938:	01828a08 	orreq	r8, r2, r8, lsl #20
 93c:	91180200 	tstls	r8, r0, lsl #4
 940:	00001842 	andeq	r1, r0, r2, asr #16
 944:	01828909 	orreq	r8, r2, r9, lsl #18
 948:	31011101 	tstcc	r1, r1, lsl #2
 94c:	0a000013 	beq	9a0 <_start-0x7660>
 950:	0b0b0024 	bleq	2c09e8 <__bss_end__+0x2b76d0>
 954:	0e030b3e 	vmoveq.16	d3[0], r0
 958:	0f0b0000 	svceq	0x000b0000
 95c:	490b0b00 	stmdbmi	fp, {r8, r9, fp}
 960:	0c000013 	stceq	0, cr0, [r0], {19}
 964:	13490035 	movtne	r0, #36917	; 0x9035
 968:	2e0d0000 	cdpcs	0, 0, cr0, cr13, cr0, {0}
 96c:	03193f01 	tsteq	r9, #1, 30
 970:	3b0b3a0e 	blcc	2cf1b0 <__bss_end__+0x2c5e98>
 974:	3c19270b 	ldccc	7, cr2, [r9], {11}
 978:	0e000019 	mcreq	0, 0, r0, cr0, cr9, {0}
 97c:	13490005 	movtne	r0, #36869	; 0x9005
 980:	01000000 	mrseq	r0, (UNDEF: 0)
 984:	06100011 			; <UNDEFINED> instruction: 0x06100011
 988:	01120111 	tsteq	r2, r1, lsl r1
 98c:	081b0803 	ldmdaeq	fp, {r0, r1, fp}
 990:	05130825 	ldreq	r0, [r3, #-2085]	; 0x825
 994:	01000000 	mrseq	r0, (UNDEF: 0)
 998:	06100011 			; <UNDEFINED> instruction: 0x06100011
 99c:	01120111 	tsteq	r2, r1, lsl r1
 9a0:	081b0803 	ldmdaeq	fp, {r0, r1, fp}
 9a4:	05130825 	ldreq	r0, [r3, #-2085]	; 0x825
 9a8:	Address 0x00000000000009a8 is out of bounds.


Disassembly of section .debug_aranges:

00000000 <.debug_aranges>:
   0:	0000001c 	andeq	r0, r0, ip, lsl r0
   4:	00000002 	andeq	r0, r0, r2
   8:	00040000 	andeq	r0, r4, r0
   c:	00000000 	andeq	r0, r0, r0
  10:	00008010 	andeq	r8, r0, r0, lsl r0
  14:	00000134 	andeq	r0, r0, r4, lsr r1
	...
  20:	0000001c 	andeq	r0, r0, ip, lsl r0
  24:	02e00002 	rsceq	r0, r0, #2
  28:	00040000 	andeq	r0, r4, r0
  2c:	00000000 	andeq	r0, r0, r0
  30:	00008144 	andeq	r8, r0, r4, asr #2
  34:	00000038 	andeq	r0, r0, r8, lsr r0
	...
  40:	0000001c 	andeq	r0, r0, ip, lsl r0
  44:	036b0002 	cmneq	fp, #2
  48:	00040000 	andeq	r0, r4, r0
  4c:	00000000 	andeq	r0, r0, r0
  50:	0000817c 	andeq	r8, r0, ip, ror r1
  54:	00000248 	andeq	r0, r0, r8, asr #4
	...
  60:	0000004c 	andeq	r0, r0, ip, asr #32
  64:	06890002 	streq	r0, [r9], r2
  68:	00040000 	andeq	r0, r4, r0
  6c:	00000000 	andeq	r0, r0, r0
  70:	000083f4 	strdeq	r8, [r0], -r4
  74:	00000010 	andeq	r0, r0, r0, lsl r0
  78:	00008404 	andeq	r8, r0, r4, lsl #8
  7c:	00000064 	andeq	r0, r0, r4, rrx
  80:	00008468 	andeq	r8, r0, r8, ror #8
  84:	00000058 	andeq	r0, r0, r8, asr r0
  88:	000084c0 	andeq	r8, r0, r0, asr #9
  8c:	00000018 	andeq	r0, r0, r8, lsl r0
  90:	000084d8 	ldrdeq	r8, [r0], -r8	; <UNPREDICTABLE>
  94:	00000018 	andeq	r0, r0, r8, lsl r0
  98:	000084f0 	strdeq	r8, [r0], -r0
  9c:	00000060 	andeq	r0, r0, r0, rrx
  a0:	00008550 	andeq	r8, r0, r0, asr r5
  a4:	00000048 	andeq	r0, r0, r8, asr #32
	...
  b0:	00000044 	andeq	r0, r0, r4, asr #32
  b4:	094b0002 	stmdbeq	fp, {r1}^
  b8:	00040000 	andeq	r0, r4, r0
  bc:	00000000 	andeq	r0, r0, r0
  c0:	00008598 	muleq	r0, r8, r5
  c4:	00000010 	andeq	r0, r0, r0, lsl r0
  c8:	000085a8 	andeq	r8, r0, r8, lsr #11
  cc:	0000001c 	andeq	r0, r0, ip, lsl r0
  d0:	000085c4 	andeq	r8, r0, r4, asr #11
  d4:	0000002c 	andeq	r0, r0, ip, lsr #32
  d8:	000085f0 	strdeq	r8, [r0], -r0
  dc:	00000034 	andeq	r0, r0, r4, lsr r0
  e0:	00008624 	andeq	r8, r0, r4, lsr #12
  e4:	00000034 	andeq	r0, r0, r4, lsr r0
  e8:	00008658 	andeq	r8, r0, r8, asr r6
  ec:	00000020 	andeq	r0, r0, r0, lsr #32
	...
  f8:	00000054 	andeq	r0, r0, r4, asr r0
  fc:	0afc0002 	beq	fff0010c <__bss_end__+0xffef6df4>
 100:	00040000 	andeq	r0, r4, r0
 104:	00000000 	andeq	r0, r0, r0
 108:	00008678 	andeq	r8, r0, r8, ror r6
 10c:	00000014 	andeq	r0, r0, r4, lsl r0
 110:	0000868c 	andeq	r8, r0, ip, lsl #13
 114:	00000038 	andeq	r0, r0, r8, lsr r0
 118:	000086c4 	andeq	r8, r0, r4, asr #13
 11c:	000000c8 	andeq	r0, r0, r8, asr #1
 120:	0000878c 	andeq	r8, r0, ip, lsl #15
 124:	000000d8 	ldrdeq	r0, [r0], -r8
 128:	00008864 	andeq	r8, r0, r4, ror #16
 12c:	0000014c 	andeq	r0, r0, ip, asr #2
 130:	000089b0 			; <UNDEFINED> instruction: 0x000089b0
 134:	000001e0 	andeq	r0, r0, r0, ror #3
 138:	00008b90 	muleq	r0, r0, fp
 13c:	0000002c 	andeq	r0, r0, ip, lsr #32
 140:	00008bbc 			; <UNDEFINED> instruction: 0x00008bbc
 144:	00000068 	andeq	r0, r0, r8, rrx
	...
 150:	00000034 	andeq	r0, r0, r4, lsr r0
 154:	10e80002 	rscne	r0, r8, r2
 158:	00040000 	andeq	r0, r4, r0
 15c:	00000000 	andeq	r0, r0, r0
 160:	00008c24 	andeq	r8, r0, r4, lsr #24
 164:	00000068 	andeq	r0, r0, r8, rrx
 168:	00008c8c 	andeq	r8, r0, ip, lsl #25
 16c:	00000030 	andeq	r0, r0, r0, lsr r0
 170:	00008cbc 			; <UNDEFINED> instruction: 0x00008cbc
 174:	00000040 	andeq	r0, r0, r0, asr #32
 178:	00008cfc 	strdeq	r8, [r0], -ip
 17c:	00000024 	andeq	r0, r0, r4, lsr #32
	...
 188:	0000002c 	andeq	r0, r0, ip, lsr #32
 18c:	12ca0002 	sbcne	r0, sl, #2
 190:	00040000 	andeq	r0, r4, r0
 194:	00000000 	andeq	r0, r0, r0
 198:	00008d20 	andeq	r8, r0, r0, lsr #26
 19c:	00000068 	andeq	r0, r0, r8, rrx
 1a0:	00008d88 	andeq	r8, r0, r8, lsl #27
 1a4:	00000020 	andeq	r0, r0, r0, lsr #32
 1a8:	00008da8 	andeq	r8, r0, r8, lsr #27
 1ac:	00000018 	andeq	r0, r0, r8, lsl r0
	...
 1b8:	0000001c 	andeq	r0, r0, ip, lsl r0
 1bc:	14380002 	ldrtne	r0, [r8], #-2
 1c0:	00040000 	andeq	r0, r4, r0
 1c4:	00000000 	andeq	r0, r0, r0
 1c8:	00008dc0 	andeq	r8, r0, r0, asr #27
 1cc:	00000114 	andeq	r0, r0, r4, lsl r1
	...
 1d8:	0000001c 	andeq	r0, r0, ip, lsl r0
 1dc:	14e40002 	strbtne	r0, [r4], #2
 1e0:	00040000 	andeq	r0, r4, r0
 1e4:	00000000 	andeq	r0, r0, r0
 1e8:	00008ed4 	ldrdeq	r8, [r0], -r4
 1ec:	00000004 	andeq	r0, r0, r4
	...

Disassembly of section .debug_line:

00000000 <.debug_line>:
   0:	00000057 	andeq	r0, r0, r7, asr r0
   4:	002c0002 	eoreq	r0, ip, r2
   8:	01020000 	mrseq	r0, (UNDEF: 2)
   c:	000d0efb 	strdeq	r0, [sp], -fp
  10:	01010101 	tsteq	r1, r1, lsl #2
  14:	01000000 	mrseq	r0, (UNDEF: 0)
  18:	00010000 	andeq	r0, r1, r0
  1c:	2d6d7770 	stclcs	7, cr7, [sp, #-448]!	; 0xfffffe40
  20:	656e6973 	strbvs	r6, [lr, #-2419]!	; 0x973
  24:	0000632e 	andeq	r6, r0, lr, lsr #6
  28:	75610000 	strbvc	r0, [r1, #-0]!
  2c:	2e6f6964 	cdpcs	9, 6, cr6, cr15, cr4, {3}
  30:	00000068 	andeq	r0, r0, r8, rrx
  34:	05000000 	streq	r0, [r0, #-0]
  38:	00801002 	addeq	r1, r0, r2
  3c:	304b1400 	subcc	r1, fp, r0, lsl #8
  40:	84858383 	strhi	r8, [r5], #899	; 0x383
  44:	68676769 	stmdavs	r7!, {r0, r3, r5, r6, r8, r9, sl, sp, lr}^
  48:	67686767 	strbvs	r6, [r8, -r7, ror #14]!
  4c:	67686767 	strbvs	r6, [r8, -r7, ror #14]!
  50:	67686767 	strbvs	r6, [r8, -r7, ror #14]!
  54:	08026767 	stmdaeq	r2, {r0, r1, r2, r5, r6, r8, r9, sl, sp, lr}
  58:	3e010100 	adfccs	f0, f1, f0
  5c:	02000000 	andeq	r0, r0, #0
  60:	00001f00 	andeq	r1, r0, r0, lsl #30
  64:	fb010200 	blx	4086e <__bss_end__+0x37556>
  68:	01000d0e 	tsteq	r0, lr, lsl #26
  6c:	00010101 	andeq	r0, r1, r1, lsl #2
  70:	00010000 	andeq	r0, r1, r0
  74:	63000100 	movwvs	r0, #256	; 0x100
  78:	72617473 	rsbvc	r7, r1, #1929379840	; 0x73000000
  7c:	00632e74 	rsbeq	r2, r3, r4, ror lr
  80:	00000000 	andeq	r0, r0, r0
  84:	44020500 	strmi	r0, [r2], #-1280	; 0x500
  88:	17000081 	strne	r0, [r0, -r1, lsl #1]
  8c:	2d2f312f 	stfcss	f3, [pc, #-188]!	; ffffffd8 <__bss_end__+0xffff6cc0>
  90:	0402002f 	streq	r0, [r2], #-47	; 0x2f
  94:	2f4d4901 	svccs	0x004d4901
  98:	01000802 	tsteq	r0, r2, lsl #16
  9c:	0000bf01 	andeq	fp, r0, r1, lsl #30
  a0:	34000200 	strcc	r0, [r0], #-512	; 0x200
  a4:	02000000 	andeq	r0, r0, #0
  a8:	0d0efb01 	vstreq	d15, [lr, #-4]
  ac:	01010100 	mrseq	r0, (UNDEF: 17)
  b0:	00000001 	andeq	r0, r0, r1
  b4:	01000001 	tsteq	r0, r1
  b8:	64756100 	ldrbtvs	r6, [r5], #-256	; 0x100
  bc:	632e6f69 	teqvs	lr, #420	; 0x1a4
  c0:	00000000 	andeq	r0, r0, r0
  c4:	69647561 	stmdbvs	r4!, {r0, r5, r6, r8, sl, ip, sp, lr}^
  c8:	00682e6f 	rsbeq	r2, r8, pc, ror #28
  cc:	74000000 	strvc	r0, [r0], #-0
  d0:	72656d69 	rsbvc	r6, r5, #6720	; 0x1a40
  d4:	0000682e 	andeq	r6, r0, lr, lsr #16
  d8:	00000000 	andeq	r0, r0, r0
  dc:	817c0205 	cmnhi	ip, r5, lsl #4
  e0:	e0030000 	and	r0, r3, r0
  e4:	362f0100 	strtcc	r0, [pc], -r0, lsl #2
  e8:	836a4b83 	cmnhi	sl, #134144	; 0x20c00
  ec:	4c67844d 	cfstrdmi	mvd8, [r7], #-308	; 0xfffffecc
  f0:	ba0a0368 	blt	280e98 <__bss_end__+0x277b80>
  f4:	4b4c4c84 	blmi	131330c <__bss_end__+0x1309ff4>
  f8:	334e4c46 	movtcc	r4, #60486	; 0xec46
  fc:	684d8786 	stmdavs	sp, {r1, r2, r7, r8, r9, sl, pc}^
 100:	5131674e 	teqpl	r1, lr, asr #14
 104:	36332c4e 	ldrtcc	r2, [r3], -lr, asr #24
 108:	2f2e7703 	svccs	0x002e7703
 10c:	2f4b4b4c 	svccs	0x004b4b4c
 110:	00312fa0 	eorseq	r2, r1, r0, lsr #31
 114:	03010402 	movweq	r0, #5122	; 0x1402
 118:	0f032e74 	svceq	0x00032e74
 11c:	303f0866 	eorscc	r0, pc, r6, ror #16
 120:	2f4b679f 	svccs	0x004b679f
 124:	2f2b2f67 	svccs	0x002b2f67
 128:	03040200 	movweq	r0, #16896	; 0x4200
 12c:	02006606 	andeq	r6, r0, #6291456	; 0x600000
 130:	2f060304 	svccs	0x00060304
 134:	01040200 	mrseq	r0, R12_usr
 138:	02002e06 	andeq	r2, r0, #6, 28	; 0x60
 13c:	002e0204 	eoreq	r0, lr, r4, lsl #4
 140:	4a030402 	bmi	c1150 <__bss_end__+0xb7e38>
 144:	03040200 	movweq	r0, #16896	; 0x4200
 148:	02002f06 	andeq	r2, r0, #6, 30
 14c:	002b0304 	eoreq	r0, fp, r4, lsl #6
 150:	06010402 	streq	r0, [r1], -r2, lsl #8
 154:	034f062e 	movteq	r0, #63022	; 0xf62e
 158:	02ba00c7 	adcseq	r0, sl, #199	; 0xc7
 15c:	01010002 	tsteq	r1, r2
 160:	000000cd 	andeq	r0, r0, sp, asr #1
 164:	00320002 	eorseq	r0, r2, r2
 168:	01020000 	mrseq	r0, (UNDEF: 2)
 16c:	000d0efb 	strdeq	r0, [sp], -fp
 170:	01010101 	tsteq	r1, r1, lsl #2
 174:	01000000 	mrseq	r0, (UNDEF: 0)
 178:	2e010000 	cdpcs	0, 0, cr0, cr1, cr0, {0}
 17c:	6e692f2e 	cdpvs	15, 6, cr2, cr9, cr14, {1}
 180:	64756c63 	ldrbtvs	r6, [r5], #-3171	; 0xc63
 184:	67000065 	strvs	r0, [r0, -r5, rrx]
 188:	2e6f6970 	mcrcs	9, 3, r6, cr15, cr0, {3}
 18c:	00000063 	andeq	r0, r0, r3, rrx
 190:	69706700 	ldmdbvs	r0!, {r8, r9, sl, sp, lr}^
 194:	00682e6f 	rsbeq	r2, r8, pc, ror #28
 198:	00000001 	andeq	r0, r0, r1
 19c:	f4020500 	vst3.8	{d0,d2,d4}, [r2], r0
 1a0:	03000083 	movweq	r0, #131	; 0x83
 1a4:	08020120 	stmdaeq	r2, {r5, r8}
 1a8:	00010100 	andeq	r0, r1, r0, lsl #2
 1ac:	84040205 	strhi	r0, [r4], #-517	; 0x205
 1b0:	23030000 	movwcs	r0, #12288	; 0x3000
 1b4:	4d670101 	stfmie	f0, [r7, #-4]!
 1b8:	842fbc4e 	strthi	fp, [pc], #-3150	; 1c0 <_start-0x7e40>
 1bc:	06024b4b 	streq	r4, [r2], -fp, asr #22
 1c0:	00010100 	andeq	r0, r1, r0, lsl #2
 1c4:	84680205 	strbthi	r0, [r8], #-517	; 0x205
 1c8:	35030000 	strcc	r0, [r3, #-0]
 1cc:	bc4e6701 	mcrrlt	7, 0, r6, lr, cr1
 1d0:	7803842f 	stmdavc	r3, {r0, r1, r2, r3, r5, sl, pc}
 1d4:	2e090366 	cdpcs	3, 0, cr0, cr9, cr6, {3}
 1d8:	01000402 	tsteq	r0, r2, lsl #8
 1dc:	02050001 	andeq	r0, r5, #1
 1e0:	000084c0 	andeq	r8, r0, r0, asr #9
 1e4:	0100c203 	tsteq	r0, r3, lsl #4
 1e8:	00060267 	andeq	r0, r6, r7, ror #4
 1ec:	05000101 	streq	r0, [r0, #-257]	; 0x101
 1f0:	0084d802 	addeq	sp, r4, r2, lsl #16
 1f4:	00c60300 	sbceq	r0, r6, r0, lsl #6
 1f8:	06026701 	streq	r6, [r2], -r1, lsl #14
 1fc:	00010100 	andeq	r0, r1, r0, lsl #2
 200:	84f00205 	ldrbthi	r0, [r0], #517	; 0x205
 204:	cb030000 	blgt	c020c <__bss_end__+0xb6ef4>
 208:	4e670100 	powmis	f0, f7, f0
 20c:	84684b30 	strbthi	r4, [r8], #-2864	; 0xb30
 210:	000c0268 	andeq	r0, ip, r8, ror #4
 214:	05000101 	streq	r0, [r0, #-257]	; 0x101
 218:	00855002 	addeq	r5, r5, r2
 21c:	00dd0300 	sbcseq	r0, sp, r0, lsl #6
 220:	684e6701 	stmdavs	lr, {r0, r8, r9, sl, sp, lr}^
 224:	7803302f 	stmdavc	r3, {r0, r1, r2, r3, r5, ip, sp}
 228:	2e09039e 	mcrcs	3, 0, r0, cr9, cr14, {4}
 22c:	01000402 	tsteq	r0, r2, lsl #8
 230:	0000b001 	andeq	fp, r0, r1
 234:	1e000200 	cdpne	2, 0, cr0, cr0, cr0, {0}
 238:	02000000 	andeq	r0, r0, #0
 23c:	0d0efb01 	vstreq	d15, [lr, #-4]
 240:	01010100 	mrseq	r0, (UNDEF: 17)
 244:	00000001 	andeq	r0, r0, r1
 248:	01000001 	tsteq	r0, r1
 24c:	6d697400 	cfstrdvs	mvd7, [r9, #-0]
 250:	632e7265 	teqvs	lr, #1342177286	; 0x50000006
 254:	00000000 	andeq	r0, r0, r0
 258:	02050000 	andeq	r0, r5, #0
 25c:	00008598 	muleq	r0, r8, r5
 260:	00080219 	andeq	r0, r8, r9, lsl r2
 264:	05000101 	streq	r0, [r0, #-257]	; 0x101
 268:	0085a802 	addeq	sl, r5, r2, lsl #16
 26c:	01090300 	mrseq	r0, (UNDEF: 57)
 270:	024b6801 	subeq	r6, fp, #65536	; 0x10000
 274:	01010004 	tsteq	r1, r4
 278:	c4020500 	strgt	r0, [r2], #-1280	; 0x500
 27c:	03000085 	movweq	r0, #133	; 0x85
 280:	4c83010e 	stfmis	f0, [r3], {14}
 284:	02026a2f 	andeq	r6, r2, #192512	; 0x2f000
 288:	00010100 	andeq	r0, r1, r0, lsl #2
 28c:	85f00205 	ldrbhi	r0, [r0, #517]!	; 0x205
 290:	18030000 	stmdane	r3, {}	; <UNPREDICTABLE>
 294:	2d2f8401 	cfstrscs	mvf8, [pc, #-4]!	; 298 <_start-0x7d68>
 298:	02040200 	andeq	r0, r4, #0, 4
 29c:	0402002f 	streq	r0, [r2], #-47	; 0x2f
 2a0:	02004902 	andeq	r4, r0, #32768	; 0x8000
 2a4:	2e060104 	adfcss	f0, f6, f4
 2a8:	02024d06 	andeq	r4, r2, #384	; 0x180
 2ac:	00010100 	andeq	r0, r1, r0, lsl #2
 2b0:	86240205 	strthi	r0, [r4], -r5, lsl #4
 2b4:	1f030000 	svcne	0x00030000
 2b8:	2d2f8401 	cfstrscs	mvf8, [pc, #-4]!	; 2bc <_start-0x7d44>
 2bc:	02040200 	andeq	r0, r4, #0, 4
 2c0:	0402002f 	streq	r0, [r2], #-47	; 0x2f
 2c4:	02004902 	andeq	r4, r0, #32768	; 0x8000
 2c8:	2e060104 	adfcss	f0, f6, f4
 2cc:	02024d06 	andeq	r4, r2, #384	; 0x180
 2d0:	00010100 	andeq	r0, r1, r0, lsl #2
 2d4:	86580205 	ldrbhi	r0, [r8], -r5, lsl #4
 2d8:	26030000 	strcs	r0, [r3], -r0
 2dc:	4e2f8401 	cdpmi	4, 2, cr8, cr15, cr1, {0}
 2e0:	01000202 	tsteq	r0, r2, lsl #4
 2e4:	00026e01 	andeq	r6, r2, r1, lsl #28
 2e8:	9f000200 	svcls	0x00000200
 2ec:	02000000 	andeq	r0, r0, #0
 2f0:	0d0efb01 	vstreq	d15, [lr, #-4]
 2f4:	01010100 	mrseq	r0, (UNDEF: 17)
 2f8:	00000001 	andeq	r0, r0, r1
 2fc:	01000001 	tsteq	r0, r1
 300:	7273752f 	rsbsvc	r7, r3, #197132288	; 0xbc00000
 304:	636f6c2f 	cmnvs	pc, #12032	; 0x2f00
 308:	432f6c61 	teqmi	pc, #24832	; 0x6100
 30c:	616c6c65 	cmnvs	ip, r5, ror #24
 310:	72612f72 	rsbvc	r2, r1, #456	; 0x1c8
 314:	6f6e2d6d 	svcvs	0x006e2d6d
 318:	652d656e 	strvs	r6, [sp, #-1390]!	; 0x56e
 31c:	2f696261 	svccs	0x00696261
 320:	2e382e34 	mrccs	14, 1, r2, cr8, cr4, {1}
 324:	73632d33 	cmnvc	r3, #3264	; 0xcc0
 328:	65303731 	ldrvs	r3, [r0, #-1841]!	; 0x731
 32c:	62696c2f 	rsbvs	r6, r9, #12032	; 0x2f00
 330:	6363672f 	cmnvs	r3, #12320768	; 0xbc0000
 334:	6d72612f 	ldfvse	f6, [r2, #-188]!	; 0xffffff44
 338:	6e6f6e2d 	cdpvs	14, 6, cr6, cr15, cr13, {1}
 33c:	61652d65 	cmnvs	r5, r5, ror #26
 340:	342f6962 	strtcc	r6, [pc], #-2402	; 348 <_start-0x7cb8>
 344:	332e382e 	teqcc	lr, #3014656	; 0x2e0000
 348:	636e692f 	cmnvs	lr, #770048	; 0xbc000
 34c:	6564756c 	strbvs	r7, [r4, #-1388]!	; 0x56c
 350:	2f2e2e00 	svccs	0x002e2e00
 354:	6c636e69 	stclvs	14, cr6, [r3], #-420	; 0xfffffe5c
 358:	00656475 	rsbeq	r6, r5, r5, ror r4
 35c:	69727000 	ldmdbvs	r2!, {ip, sp, lr}^
 360:	2e66746e 	cdpcs	4, 6, cr7, cr6, cr14, {3}
 364:	00000063 	andeq	r0, r0, r3, rrx
 368:	64747300 	ldrbtvs	r7, [r4], #-768	; 0x300
 36c:	2e677261 	cdpcs	2, 6, cr7, cr7, cr1, {3}
 370:	00010068 	andeq	r0, r1, r8, rrx
 374:	75623c00 	strbvc	r3, [r2, #-3072]!	; 0xc00
 378:	2d746c69 	ldclcs	12, cr6, [r4, #-420]!	; 0xfffffe5c
 37c:	003e6e69 	eorseq	r6, lr, r9, ror #28
 380:	75000000 	strvc	r0, [r0, #-0]
 384:	2e747261 	cdpcs	2, 7, cr7, cr4, cr1, {3}
 388:	00020068 	andeq	r0, r2, r8, rrx
 38c:	05000000 	streq	r0, [r0, #-0]
 390:	00867802 	addeq	r7, r6, r2, lsl #16
 394:	010e0300 	mrseq	r0, ELR_hyp
 398:	00040267 	andeq	r0, r4, r7, ror #4
 39c:	05000101 	streq	r0, [r0, #-257]	; 0x101
 3a0:	00868c02 	addeq	r8, r6, r2, lsl #24
 3a4:	01150300 	tsteq	r5, r0, lsl #6
 3a8:	002d2f67 	eoreq	r2, sp, r7, ror #30
 3ac:	2f020402 	svccs	0x00020402
 3b0:	02040200 	andeq	r0, r4, #0, 4
 3b4:	04020065 	streq	r0, [r2], #-101	; 0x65
 3b8:	062e0601 	strteq	r0, [lr], -r1, lsl #12
 3bc:	0004024e 	andeq	r0, r4, lr, asr #4
 3c0:	05000101 	streq	r0, [r0, #-257]	; 0x101
 3c4:	0086c402 	addeq	ip, r6, r2, lsl #8
 3c8:	01200300 	teqeq	r0, r0, lsl #6
 3cc:	00312b87 	eorseq	r2, r1, r7, lsl #23
 3d0:	06020402 	streq	r0, [r2], -r2, lsl #8
 3d4:	0402002e 	streq	r0, [r2], #-46	; 0x2e
 3d8:	4b064a01 	blmi	192be4 <__bss_end__+0x1898cc>
 3dc:	332f322f 	teqcc	pc, #-268435454	; 0xf0000002
 3e0:	2c2f302d 	stccs	0, cr3, [pc], #-180	; 334 <_start-0x7ccc>
 3e4:	002c2f2f 	eoreq	r2, ip, pc, lsr #30
 3e8:	06010402 	streq	r0, [r1], -r2, lsl #8
 3ec:	2f6c064a 	svccs	0x006c064a
 3f0:	009c4b49 	addseq	r4, ip, r9, asr #22
 3f4:	06010402 	streq	r0, [r1], -r2, lsl #8
 3f8:	4b4f064a 	blmi	13c1d28 <__bss_end__+0x13b8a10>
 3fc:	02026a68 	andeq	r6, r2, #104, 20	; 0x68000
 400:	00010100 	andeq	r0, r1, r0, lsl #2
 404:	878c0205 	strhi	r0, [ip, r5, lsl #4]
 408:	c4030000 	strgt	r0, [r3], #-0
 40c:	2c870100 	stfcss	f0, [r7], {0}
 410:	04020030 	streq	r0, [r2], #-48	; 0x30
 414:	002e0602 	eoreq	r0, lr, r2, lsl #12
 418:	4a010402 	bmi	41428 <__bss_end__+0x38110>
 41c:	322f4b06 	eorcc	r4, pc, #6144	; 0x1800
 420:	302d332f 	eorcc	r3, sp, pc, lsr #6
 424:	2f2f2c2f 	svccs	0x002f2c2f
 428:	0402002c 	streq	r0, [r2], #-44	; 0x2c
 42c:	064a0601 	strbeq	r0, [sl], -r1, lsl #12
 430:	4b492f6c 	blmi	124c1e8 <__bss_end__+0x1242ed0>
 434:	034c2f83 	movteq	r2, #53123	; 0xcf83
 438:	02004a7a 	andeq	r4, r0, #499712	; 0x7a000
 43c:	4a060104 	bmi	180854 <__bss_end__+0x17753c>
 440:	4a0b0306 	bmi	2c1060 <__bss_end__+0x2b7d48>
 444:	026a684b 	rsbeq	r6, sl, #4915200	; 0x4b0000
 448:	01010002 	tsteq	r1, r2
 44c:	64020500 	strvs	r0, [r2], #-1280	; 0x500
 450:	03000088 	movweq	r0, #136	; 0x88
 454:	d80100ee 	stmdale	r1, {r1, r2, r3, r5, r6, r7}
 458:	2f2d342f 	svccs	0x002d342f
 45c:	02040200 	andeq	r0, r4, #0, 4
 460:	02004a06 	andeq	r4, r0, #24576	; 0x6000
 464:	06820104 	streq	r0, [r2], r4, lsl #2
 468:	2f322f4b 	svccs	0x00322f4b
 46c:	4c834b33 	fstmiaxmi	r3, {d4-d28}	;@ Deprecated
 470:	02004f45 	andeq	r4, r0, #276	; 0x114
 474:	00290104 	eoreq	r0, r9, r4, lsl #2
 478:	36010402 	strcc	r0, [r1], -r2, lsl #8
 47c:	01040200 	mrseq	r0, R12_usr
 480:	2c2f494b 	stccs	9, cr4, [pc], #-300	; 35c <_start-0x7ca4>
 484:	01040200 	mrseq	r0, R12_usr
 488:	50064a06 	andpl	r4, r6, r6, lsl #20
 48c:	2c4b2f2f 	mcrrcs	15, 2, r2, fp, cr15
 490:	72084b2f 	andvc	r4, r8, #48128	; 0xbc00
 494:	01040200 	mrseq	r0, R12_usr
 498:	50064a06 	andpl	r4, r6, r6, lsl #20
 49c:	02854c4b 	addeq	r4, r5, #19200	; 0x4b00
 4a0:	01010008 	tsteq	r1, r8
 4a4:	b0020500 	andlt	r0, r2, r0, lsl #10
 4a8:	03000089 	movweq	r0, #137	; 0x89
 4ac:	c101019e 			; <UNDEFINED> instruction: 0xc101019e
 4b0:	2f6b4b4b 	svccs	0x006b4b4b
 4b4:	01040200 	mrseq	r0, R12_usr
 4b8:	00663903 	rsbeq	r3, r6, r3, lsl #18
 4bc:	33010402 	movwcc	r0, #5122	; 0x1402
 4c0:	4b4a4603 	blmi	1291cd4 <__bss_end__+0x12889bc>
 4c4:	2f31302f 	svccs	0x0031302f
 4c8:	032e7703 	teqeq	lr, #786432	; 0xc0000
 4cc:	4b302e0b 	blmi	c0bd00 <__bss_end__+0xc029e8>
 4d0:	2f302f4b 	svccs	0x00302f4b
 4d4:	2e79032f 	cdpcs	3, 7, cr0, cr9, cr15, {1}
 4d8:	322e0903 	eorcc	r0, lr, #49152	; 0xc000
 4dc:	2f854b68 	svccs	0x00854b68
 4e0:	2e7a034b 	cdpcs	3, 7, cr0, cr10, cr11, {2}
 4e4:	2e760335 	mrccs	3, 3, r0, cr6, cr5, {1}
 4e8:	2e0a034d 	cdpcs	3, 0, cr0, cr10, cr13, {2}
 4ec:	2c2f674b 	stccs	7, cr6, [pc], #-300	; 3c8 <_start-0x7c38>
 4f0:	01040200 	mrseq	r0, R12_usr
 4f4:	02004a06 	andeq	r4, r0, #24576	; 0x6000
 4f8:	064a0204 	strbeq	r0, [sl], -r4, lsl #4
 4fc:	50302f6a 	eorspl	r2, r0, sl, ror #30
 500:	302f4b4b 	eorcc	r4, pc, fp, asr #22
 504:	4c302f2f 	ldcmi	15, cr2, [r0], #-188	; 0xffffff44
 508:	bb4bbb4b 	bllt	12ef23c <__bss_end__+0x12e5f24>
 50c:	0402004b 	streq	r0, [r2], #-75	; 0x4b
 510:	7fbc0301 	svcvc	0x00bc0301
 514:	00c703d6 	ldrdeq	r0, [r7], #54	; 0x36
 518:	7fb20382 	svcvc	0x00b20382
 51c:	00cf034a 	sbceq	r0, pc, sl, asr #6
 520:	0002022e 	andeq	r0, r2, lr, lsr #4
 524:	05000101 	streq	r0, [r0, #-257]	; 0x101
 528:	008b9002 	addeq	r9, fp, r2
 52c:	02800300 	addeq	r0, r0, #0, 6
 530:	4d4ba001 	stclmi	0, cr10, [fp, #-4]
 534:	01000402 	tsteq	r0, r2, lsl #8
 538:	02050001 	andeq	r0, r5, #1
 53c:	00008bbc 			; <UNDEFINED> instruction: 0x00008bbc
 540:	01028803 	tsteq	r2, r3, lsl #16
 544:	4fb74bbe 	svcmi	0x00b74bbe
 548:	02002d2f 	andeq	r2, r0, #3008	; 0xbc0
 54c:	2e060104 	adfcss	f0, f6, f4
 550:	06028706 	streq	r8, [r2], -r6, lsl #14
 554:	9d010100 	stflss	f0, [r1, #-0]
 558:	02000000 	andeq	r0, r0, #0
 55c:	00003200 	andeq	r3, r0, r0, lsl #4
 560:	fb010200 	blx	40d6a <__bss_end__+0x37a52>
 564:	01000d0e 	tsteq	r0, lr, lsl #26
 568:	00010101 	andeq	r0, r1, r1, lsl #2
 56c:	00010000 	andeq	r0, r1, r0
 570:	2e2e0100 	sufcse	f0, f6, f0
 574:	636e692f 	cmnvs	lr, #770048	; 0xbc000
 578:	6564756c 	strbvs	r7, [r4, #-1388]!	; 0x56c
 57c:	61750000 	cmnvs	r5, r0
 580:	632e7472 	teqvs	lr, #1912602624	; 0x72000000
 584:	00000000 	andeq	r0, r0, r0
 588:	6f697067 	svcvs	0x00697067
 58c:	0100682e 	tsteq	r0, lr, lsr #16
 590:	00000000 	andeq	r0, r0, r0
 594:	8c240205 	sfmhi	f0, 4, [r4], #-20	; 0xffffffec
 598:	29030000 	stmdbcs	r3, {}	; <UNPREDICTABLE>
 59c:	4b686901 	blmi	1a1a9a8 <__bss_end__+0x1a11690>
 5a0:	2f2f4b2f 	svccs	0x002f4b2f
 5a4:	684b4c4f 	stmdavs	fp, {r0, r1, r2, r3, r6, sl, fp, lr}^
 5a8:	01000802 	tsteq	r0, r2, lsl #16
 5ac:	02050001 	andeq	r0, r5, #1
 5b0:	00008c8c 	andeq	r8, r0, ip, lsl #25
 5b4:	0100c003 	tsteq	r0, r3
 5b8:	04020067 	streq	r0, [r2], #-103	; 0x67
 5bc:	062e0601 	strteq	r0, [lr], -r1, lsl #12
 5c0:	06024b67 	streq	r4, [r2], -r7, ror #22
 5c4:	00010100 	andeq	r0, r1, r0, lsl #2
 5c8:	8cbc0205 	lfmhi	f0, 4, [ip], #20
 5cc:	c5030000 	strgt	r0, [r3, #-0]
 5d0:	4b830100 	blmi	fe0c09d8 <__bss_end__+0xfe0b76c0>
 5d4:	01040200 	mrseq	r0, R12_usr
 5d8:	0802834c 	stmdaeq	r2, {r2, r3, r6, r8, r9, pc}
 5dc:	00010100 	andeq	r0, r1, r0, lsl #2
 5e0:	8cfc0205 	lfmhi	f0, 2, [ip], #20
 5e4:	cd030000 	stcgt	0, cr0, [r3, #-0]
 5e8:	00670100 	rsbeq	r0, r7, r0, lsl #2
 5ec:	06010402 	streq	r0, [r1], -r2, lsl #8
 5f0:	0267062e 	rsbeq	r0, r7, #48234496	; 0x2e00000
 5f4:	01010004 	tsteq	r1, r4
 5f8:	00000086 	andeq	r0, r0, r6, lsl #1
 5fc:	00470002 	subeq	r0, r7, r2
 600:	01020000 	mrseq	r0, (UNDEF: 2)
 604:	000d0efb 	strdeq	r0, [sp], -fp
 608:	01010101 	tsteq	r1, r1, lsl #2
 60c:	01000000 	mrseq	r0, (UNDEF: 0)
 610:	2e010000 	cdpcs	0, 0, cr0, cr1, cr0, {0}
 614:	6e692f2e 	cdpvs	15, 6, cr2, cr9, cr14, {1}
 618:	64756c63 	ldrbtvs	r6, [r5], #-3171	; 0xc63
 61c:	67000065 	strvs	r0, [r0, -r5, rrx]
 620:	656f6970 	strbvs	r6, [pc, #-2416]!	; fffffcb8 <__bss_end__+0xffff69a0>
 624:	61727478 	cmnvs	r2, r8, ror r4
 628:	0000632e 	andeq	r6, r0, lr, lsr #6
 62c:	70670000 	rsbvc	r0, r7, r0
 630:	78656f69 	stmdavc	r5!, {r0, r3, r5, r6, r8, r9, sl, fp, sp, lr}^
 634:	2e617274 	mcrcs	2, 3, r7, cr1, cr4, {3}
 638:	00010068 	andeq	r0, r1, r8, rrx
 63c:	6d697400 	cfstrdvs	mvd7, [r9, #-0]
 640:	682e7265 	stmdavs	lr!, {r0, r2, r5, r6, r9, ip, sp, lr}
 644:	00000100 	andeq	r0, r0, r0, lsl #2
 648:	02050000 	andeq	r0, r5, #0
 64c:	00008d20 	andeq	r8, r0, r0, lsr #26
 650:	83011203 	movwhi	r1, #4611	; 0x1203
 654:	834d674e 	movthi	r6, #55118	; 0xd74e
 658:	2f4c4b4c 	svccs	0x004c4b4c
 65c:	01000802 	tsteq	r0, r2, lsl #16
 660:	02050001 	andeq	r0, r5, #1
 664:	00008d88 	andeq	r8, r0, r8, lsl #27
 668:	67012503 	strvs	r2, [r1, -r3, lsl #10]
 66c:	0006024e 	andeq	r0, r6, lr, asr #4
 670:	05000101 	streq	r0, [r0, #-257]	; 0x101
 674:	008da802 	addeq	sl, sp, r2, lsl #16
 678:	012d0300 	teqeq	sp, r0, lsl #6
 67c:	00060267 	andeq	r0, r6, r7, ror #4
 680:	00860101 	addeq	r0, r6, r1, lsl #2
 684:	00020000 	andeq	r0, r2, r0
 688:	00000047 	andeq	r0, r0, r7, asr #32
 68c:	0efb0102 	cdpeq	1, 15, cr0, cr11, cr2, {0}
 690:	0101000d 	tsteq	r1, sp
 694:	00000101 	andeq	r0, r0, r1, lsl #2
 698:	00000100 	andeq	r0, r0, r0, lsl #2
 69c:	2f2e2e01 	svccs	0x002e2e01
 6a0:	2e2f2e2e 	cdpcs	14, 2, cr2, cr15, cr14, {1}
 6a4:	63672f2e 	cmnvs	r7, #46, 30	; 0xb8
 6a8:	2e342d63 	cdpcs	13, 3, cr2, cr4, cr3, {3}
 6ac:	2f332e38 	svccs	0x00332e38
 6b0:	6762696c 	strbvs	r6, [r2, -ip, ror #18]!
 6b4:	632f6363 	teqvs	pc, #-1946157055	; 0x8c000001
 6b8:	69666e6f 	stmdbvs	r6!, {r0, r1, r2, r3, r5, r6, r9, sl, fp, sp, lr}^
 6bc:	72612f67 	rsbvc	r2, r1, #412	; 0x19c
 6c0:	6c00006d 	stcvs	0, cr0, [r0], {109}	; 0x6d
 6c4:	66316269 	ldrtvs	r6, [r1], -r9, ror #4
 6c8:	73636e75 	cmnvc	r3, #1872	; 0x750
 6cc:	0100532e 	tsteq	r0, lr, lsr #6
 6d0:	00000000 	andeq	r0, r0, r0
 6d4:	8dc00205 	sfmhi	f0, 2, [r0, #20]
 6d8:	cf030000 	svcgt	0x00030000
 6dc:	2f300107 	svccs	0x00300107
 6e0:	2f2f2f2f 	svccs	0x002f2f2f
 6e4:	2e7cfe03 	cdpcs	14, 7, cr15, cr12, cr3, {0}
 6e8:	02038603 	andeq	r8, r3, #3145728	; 0x300000
 6ec:	312f013e 	teqcc	pc, lr, lsr r1	; <UNPREDICTABLE>
 6f0:	b7032f2f 	strlt	r2, [r3, -pc, lsr #30]
 6f4:	cd032e7d 	stcgt	14, cr2, [r3, #-500]	; 0xfffffe0c
 6f8:	2f900802 	svccs	0x00900802
 6fc:	66160332 			; <UNDEFINED> instruction: 0x66160332
 700:	2f2f2f2f 	svccs	0x002f2f2f
 704:	022f2f2f 	eoreq	r2, pc, #47, 30	; 0xbc
 708:	01010002 	tsteq	r1, r2
 70c:	0000005d 	andeq	r0, r0, sp, asr r0
 710:	00470002 	subeq	r0, r7, r2
 714:	01020000 	mrseq	r0, (UNDEF: 2)
 718:	000d0efb 	strdeq	r0, [sp], -fp
 71c:	01010101 	tsteq	r1, r1, lsl #2
 720:	01000000 	mrseq	r0, (UNDEF: 0)
 724:	2e010000 	cdpcs	0, 0, cr0, cr1, cr0, {0}
 728:	2e2e2f2e 	cdpcs	15, 2, cr2, cr14, cr14, {1}
 72c:	2f2e2e2f 	svccs	0x002e2e2f
 730:	2d636367 	stclcs	3, cr6, [r3, #-412]!	; 0xfffffe64
 734:	2e382e34 	mrccs	14, 1, r2, cr8, cr4, {1}
 738:	696c2f33 	stmdbvs	ip!, {r0, r1, r4, r5, r8, r9, sl, fp, sp}^
 73c:	63636762 	cmnvs	r3, #25690112	; 0x1880000
 740:	6e6f632f 	cdpvs	3, 6, cr6, cr15, cr15, {1}
 744:	2f676966 	svccs	0x00676966
 748:	006d7261 	rsbeq	r7, sp, r1, ror #4
 74c:	62696c00 	rsbvs	r6, r9, #0, 24
 750:	6e756631 	mrcvs	6, 3, r6, cr5, cr1, {1}
 754:	532e7363 	teqpl	lr, #-1946157055	; 0x8c000001
 758:	00000100 	andeq	r0, r0, r0, lsl #2
 75c:	02050000 	andeq	r0, r5, #0
 760:	00008ed4 	ldrdeq	r8, [r0], -r4
 764:	010a9603 	tsteq	sl, r3, lsl #12
 768:	01000202 	tsteq	r0, r2, lsl #4
 76c:	Address 0x000000000000076c is out of bounds.


Disassembly of section .debug_str:

00000000 <.debug_str>:
   0:	65746f6e 	ldrbvs	r6, [r4, #-3950]!	; 0xf6e
   4:	00745f73 	rsbseq	r5, r4, r3, ror pc
   8:	2d6d7770 	stclcs	7, cr7, [sp, #-448]!	; 0xfffffe40
   c:	656e6973 	strbvs	r6, [lr, #-2419]!	; 0x973
  10:	5700632e 	strpl	r6, [r0, -lr, lsr #6]
  14:	5f455641 	svcpl	0x00455641
  18:	41555153 	cmpmi	r5, r3, asr r1
  1c:	57004552 	smlsdpl	r0, r2, r5, r4
  20:	5f455641 	svcpl	0x00455641
  24:	00574153 	subseq	r4, r7, r3, asr r1
  28:	20554e47 	subscs	r4, r5, r7, asr #28
  2c:	2e342043 	cdpcs	0, 3, cr2, cr4, cr3, {2}
  30:	20332e38 	eorscs	r2, r3, r8, lsr lr
  34:	2d20672d 	stccs	7, cr6, [r0, #-180]!	; 0xffffff4c
  38:	2d20674f 	stccs	7, cr6, [r0, #-316]!	; 0xfffffec4
  3c:	3d647473 	cfstrdcc	mvd7, [r4, #-460]!	; 0xfffffe34
  40:	20393963 	eorscs	r3, r9, r3, ror #18
  44:	7266662d 	rsbvc	r6, r6, #47185920	; 0x2d00000
  48:	74736565 	ldrbtvc	r6, [r3], #-1381	; 0x565
  4c:	69646e61 	stmdbvs	r4!, {r0, r5, r6, r9, sl, fp, sp, lr}^
  50:	4200676e 	andmi	r6, r0, #28835840	; 0x1b80000
  54:	00525451 	subseq	r5, r2, r1, asr r4
  58:	4c414841 	mcrrmi	8, 4, r4, r1, cr1
  5c:	75610046 	strbvc	r0, [r1, #-70]!	; 0x46
  60:	5f6f6964 	svcpl	0x006f6964
  64:	74696e69 	strbtvc	r6, [r9], #-3689	; 0xe69
  68:	76617700 	strbtvc	r7, [r1], -r0, lsl #14
  6c:	79745f65 	ldmdbvc	r4!, {r0, r2, r5, r6, r8, r9, sl, fp, ip, lr}^
  70:	745f6570 	ldrbvc	r6, [pc], #-1392	; 78 <_start-0x7f88>
  74:	69616d00 	stmdbvs	r1!, {r8, sl, fp, sp, lr}^
  78:	4842006e 	stmdami	r2, {r1, r2, r3, r5, r6}^
  7c:	00464c41 	subeq	r4, r6, r1, asr #24
  80:	54494541 	strbpl	r4, [r9], #-1345	; 0x541
  84:	64756100 	ldrbtvs	r6, [r5], #-256	; 0x100
  88:	735f6f69 	cmpvc	pc, #420	; 0x1a4
  8c:	5f646e65 	svcpl	0x00646e65
  90:	656e6f74 	strbvs	r6, [lr, #-3956]!	; 0xf74
  94:	6d697400 	cfstrdvs	mvd7, [r9, #-0]
  98:	745f7365 	ldrbvc	r7, [pc], #-869	; a0 <_start-0x7f60>
  9c:	54514100 	ldrbpl	r4, [r1], #-256	; 0x100
  a0:	48470052 	stmdami	r7, {r1, r4, r6}^
  a4:	00464c41 	subeq	r4, r6, r1, asr #24
  a8:	54534552 	ldrbpl	r4, [r3], #-1362	; 0x552
  ac:	73552f00 	cmpvc	r5, #0, 30
  b0:	2f737265 	svccs	0x00737265
  b4:	5a616441 	bpl	18591c0 <__bss_end__+0x184fea8>
  b8:	2f756f68 	svccs	0x00756f68
  bc:	6b736544 	blvs	1cd95d4 <__bss_end__+0x1cd02bc>
  c0:	2f706f74 	svccs	0x00706f74
  c4:	30315343 	eorscc	r5, r1, r3, asr #6
  c8:	682f4537 	stmdavs	pc!, {r0, r1, r2, r4, r5, r8, sl, lr}	; <UNPREDICTABLE>
  cc:	62687361 	rsbvs	r7, r8, #-2080374783	; 0x84000001
  d0:	2d6e6f72 	stclcs	15, cr6, [lr, #-456]!	; 0xfffffe38
  d4:	2d616461 	cfstrdcs	mvd6, [r1, #-388]!	; 0xfffffe7c
  d8:	756f687a 	strbvc	r6, [pc, #-2170]!	; fffff866 <__bss_end__+0xffff654e>
  dc:	6f72702d 	svcvs	0x0072702d
  e0:	7463656a 	strbtvc	r6, [r3], #-1386	; 0x56a
  e4:	49454700 	stmdbmi	r5, {r8, r9, sl, lr}^
  e8:	45420054 	strbmi	r0, [r2, #-84]	; 0x54
  ec:	57005449 	strpl	r5, [r0, -r9, asr #8]
  f0:	5f455641 	svcpl	0x00455641
  f4:	41495254 	cmpmi	r9, r4, asr r2
  f8:	454c474e 	strbmi	r4, [ip, #-1870]	; 0x74e
  fc:	6e6f7400 	cdpvs	4, 6, cr7, cr15, cr0, {0}
 100:	745f7365 	ldrbvc	r7, [pc], #-869	; 108 <_start-0x7ef8>
 104:	4f485700 	svcmi	0x00485700
 108:	5700454c 	strpl	r4, [r0, -ip, asr #10]
 10c:	5f455641 	svcpl	0x00455641
 110:	454e4953 	strbmi	r4, [lr, #-2387]	; 0x953
 114:	54514700 	ldrbpl	r4, [r1], #-1792	; 0x700
 118:	5f5f0052 	svcpl	0x005f0052
 11c:	5f737362 	svcpl	0x00737362
 120:	5f646e65 	svcpl	0x00646e65
 124:	7362005f 	cmnvc	r2, #95	; 0x5f
 128:	6e655f73 	mcrvs	15, 3, r5, cr5, cr3, {3}
 12c:	73630064 	cmnvc	r3, #100	; 0x64
 130:	74726174 	ldrbtvc	r6, [r2], #-372	; 0x174
 134:	5f00632e 	svcpl	0x0000632e
 138:	61747363 	cmnvs	r4, r3, ror #6
 13c:	5f007472 	svcpl	0x00007472
 140:	7373625f 	cmnvc	r3, #-268435451	; 0xf0000005
 144:	6174735f 	cmnvs	r4, pc, asr r3
 148:	5f5f7472 	svcpl	0x005f7472
 14c:	65726600 	ldrbvs	r6, [r2, #-1536]!	; 0x600
 150:	6e657571 	mcrvs	5, 3, r7, cr5, cr1, {3}
 154:	77007963 	strvc	r7, [r0, -r3, ror #18]
 158:	66657661 	strbtvs	r7, [r5], -r1, ror #12
 15c:	5f6d726f 	svcpl	0x006d726f
 160:	61697274 	smcvs	38692	; 0x9724
 164:	656c676e 	strbvs	r6, [ip, #-1902]!	; 0x76e
 168:	76617700 	strbtvc	r7, [r1], -r0, lsl #14
 16c:	726f6665 	rsbvc	r6, pc, #105906176	; 0x6500000
 170:	71735f6d 	cmnvc	r3, sp, ror #30
 174:	65726175 	ldrbvs	r6, [r2, #-373]!	; 0x175
 178:	61747300 	cmnvs	r4, r0, lsl #6
 17c:	00737574 	rsbseq	r7, r3, r4, ror r5
 180:	65746f6e 	ldrbvs	r6, [r4, #-3950]!	; 0xf6e
 184:	76617700 	strbtvc	r7, [r1], -r0, lsl #14
 188:	726f6665 	rsbvc	r6, pc, #105906176	; 0x6500000
 18c:	7067006d 	rsbvc	r0, r7, sp, rrx
 190:	73006f69 	movwvc	r6, #3945	; 0xf69
 194:	74657a69 	strbtvc	r7, [r5], #-2665	; 0xa69
 198:	00657079 	rsbeq	r7, r5, r9, ror r0
 19c:	65766177 	ldrbvs	r6, [r6, #-375]!	; 0x177
 1a0:	6d726f66 	ldclvs	15, cr6, [r2, #-408]!	; 0xfffffe68
 1a4:	6e69735f 	mcrvs	3, 3, r7, cr9, cr15, {2}
 1a8:	72660065 	rsbvc	r0, r6, #101	; 0x65
 1ac:	69746361 	ldmdbvs	r4!, {r0, r5, r6, r8, r9, sp, lr}^
 1b0:	6c616e6f 	stclvs	14, cr6, [r1], #-444	; 0xfffffe44
 1b4:	7261705f 	rsbvc	r7, r1, #95	; 0x5f
 1b8:	75610074 	strbvc	r0, [r1, #-116]!	; 0x74
 1bc:	2e6f6964 	cdpcs	9, 6, cr6, cr15, cr4, {3}
 1c0:	6e690063 	cdpvs	0, 6, cr0, cr9, cr3, {3}
 1c4:	65676574 	strbvs	r6, [r7, #-1396]!	; 0x574
 1c8:	61705f72 	cmnvs	r0, r2, ror pc
 1cc:	61007472 	tstvs	r0, r2, ror r4
 1d0:	6f696475 	svcvs	0x00696475
 1d4:	7465735f 	strbtvc	r7, [r5], #-863	; 0x35f
 1d8:	6f6c635f 	svcvs	0x006c635f
 1dc:	64006b63 	strvs	r6, [r0], #-2915	; 0xb63
 1e0:	79616c65 	stmdbvc	r1!, {r0, r2, r5, r6, sl, fp, sp, lr}^
 1e4:	0073755f 	rsbseq	r7, r3, pc, asr r5
 1e8:	69647561 	stmdbvs	r4!, {r0, r5, r6, r8, sl, ip, sp, lr}^
 1ec:	65735f6f 	ldrbvs	r5, [r3, #-3951]!	; 0xf6f
 1f0:	315f646e 	cmpcc	pc, lr, ror #8
 1f4:	007a486b 	rsbseq	r4, sl, fp, ror #16
 1f8:	65766177 	ldrbvs	r6, [r6, #-375]!	; 0x177
 1fc:	6d726f66 	ldclvs	15, cr6, [r2, #-408]!	; 0xfffffe68
 200:	7761735f 			; <UNDEFINED> instruction: 0x7761735f
 204:	69687300 	stmdbvs	r8!, {r8, r9, ip, sp, lr}^
 208:	67007466 	strvs	r7, [r0, -r6, ror #8]
 20c:	5f6f6970 	svcpl	0x006f6970
 210:	74697277 	strbtvc	r7, [r9], #-631	; 0x277
 214:	4e470065 	cdpmi	0, 4, cr0, cr7, cr5, {3}
 218:	20432055 	subcs	r2, r3, r5, asr r0
 21c:	2e382e34 	mrccs	14, 1, r2, cr8, cr4, {1}
 220:	50470033 	subpl	r0, r7, r3, lsr r0
 224:	465f4f49 	ldrbmi	r4, [pc], -r9, asr #30
 228:	5f434e55 	svcpl	0x00434e55
 22c:	5054554f 	subspl	r5, r4, pc, asr #10
 230:	67005455 	smlsdvs	r0, r5, r4, r5
 234:	5f6f6970 	svcpl	0x006f6970
 238:	64616572 	strbtvs	r6, [r1], #-1394	; 0x572
 23c:	49504700 	ldmdbmi	r0, {r8, r9, sl, lr}^
 240:	55465f4f 	strbpl	r5, [r6, #-3919]	; 0xf4f
 244:	415f434e 	cmpmi	pc, lr, asr #6
 248:	0030544c 	eorseq	r5, r0, ip, asr #8
 24c:	676e6f6c 	strbvs	r6, [lr, -ip, ror #30]!
 250:	6e6f6c20 	cdpvs	12, 6, cr6, cr15, cr0, {1}
 254:	6e752067 	cdpvs	0, 7, cr2, cr5, cr7, {3}
 258:	6e676973 	mcrvs	9, 3, r6, cr7, cr3, {3}
 25c:	69206465 	stmdbvs	r0!, {r0, r2, r5, r6, sl, sp, lr}
 260:	4700746e 	strmi	r7, [r0, -lr, ror #8]
 264:	5f4f4950 	svcpl	0x004f4950
 268:	434e5546 	movtmi	r5, #58694	; 0xe546
 26c:	544c415f 	strbpl	r4, [ip], #-351	; 0x15f
 270:	50470032 	subpl	r0, r7, r2, lsr r0
 274:	465f4f49 	ldrbmi	r4, [pc], -r9, asr #30
 278:	5f434e55 	svcpl	0x00434e55
 27c:	33544c41 	cmpcc	r4, #16640	; 0x4100
 280:	49504700 	ldmdbmi	r0, {r8, r9, sl, lr}^
 284:	55465f4f 	strbpl	r5, [r6, #-3919]	; 0xf4f
 288:	415f434e 	cmpmi	pc, lr, asr #6
 28c:	0034544c 	eorseq	r5, r4, ip, asr #8
 290:	4f495047 	svcmi	0x00495047
 294:	4e55465f 	mrcmi	6, 2, r4, cr5, cr15, {2}
 298:	4c415f43 	mcrrmi	15, 4, r5, r1, cr3
 29c:	67003554 	smlsdvs	r0, r4, r5, r3
 2a0:	5f6f6970 	svcpl	0x006f6970
 2a4:	5f746573 	svcpl	0x00746573
 2a8:	75706e69 	ldrbvc	r6, [r0, #-3689]!	; 0xe69
 2ac:	64610074 	strbtvs	r0, [r1], #-116	; 0x74
 2b0:	47007264 	strmi	r7, [r0, -r4, ror #4]
 2b4:	5f4f4950 	svcpl	0x004f4950
 2b8:	434e5546 	movtmi	r5, #58694	; 0xe546
 2bc:	564e495f 			; <UNDEFINED> instruction: 0x564e495f
 2c0:	44494c41 	strbmi	r4, [r9], #-3137	; 0xc41
 2c4:	69706700 	ldmdbvs	r0!, {r8, r9, sl, sp, lr}^
 2c8:	65735f6f 	ldrbvs	r5, [r3, #-3951]!	; 0xf6f
 2cc:	756f5f74 	strbvc	r5, [pc, #-3956]!	; fffff360 <__bss_end__+0xffff6048>
 2d0:	74757074 	ldrbtvc	r7, [r5], #-116	; 0x74
 2d4:	6e756600 	cdpvs	6, 7, cr6, cr5, cr0, {0}
 2d8:	70670063 	rsbvc	r0, r7, r3, rrx
 2dc:	675f6f69 	ldrbvs	r6, [pc, -r9, ror #30]
 2e0:	665f7465 	ldrbvs	r7, [pc], -r5, ror #8
 2e4:	74636e75 	strbtvc	r6, [r3], #-3701	; 0xe75
 2e8:	006e6f69 	rsbeq	r6, lr, r9, ror #30
 2ec:	4f495047 	svcmi	0x00495047
 2f0:	4e55465f 	mrcmi	6, 2, r4, cr5, cr15, {2}
 2f4:	4c415f43 	mcrrmi	15, 4, r5, r1, cr3
 2f8:	67003154 	smlsdvs	r0, r4, r1, r3
 2fc:	5f6f6970 	svcpl	0x006f6970
 300:	74696e69 	strbtvc	r6, [r9], #-3689	; 0xe69
 304:	69706700 	ldmdbvs	r0!, {r8, r9, sl, sp, lr}^
 308:	00632e6f 	rsbeq	r2, r3, pc, ror #28
 30c:	4f495047 	svcmi	0x00495047
 310:	4e55465f 	mrcmi	6, 2, r4, cr5, cr15, {2}
 314:	4e495f43 	cdpmi	15, 4, cr5, cr9, cr3, {2}
 318:	00545550 	subseq	r5, r4, r0, asr r5
 31c:	6f697067 	svcvs	0x00697067
 320:	7465735f 	strbtvc	r7, [r5], #-863	; 0x35f
 324:	6e75665f 	mrcvs	6, 3, r6, cr5, cr15, {2}
 328:	6f697463 	svcvs	0x00697463
 32c:	6974006e 	ldmdbvs	r4!, {r1, r2, r3, r5, r6}^
 330:	5f72656d 	svcpl	0x0072656d
 334:	5f746567 	svcpl	0x00746567
 338:	656d6974 	strbvs	r6, [sp, #-2420]!	; 0x974
 33c:	746e7500 	strbtvc	r7, [lr], #-1280	; 0x500
 340:	755f6c69 	ldrbvc	r6, [pc, #-3177]	; fffff6df <__bss_end__+0xffff63c7>
 344:	69740073 	ldmdbvs	r4!, {r0, r1, r4, r5, r6}^
 348:	5f72656d 	svcpl	0x0072656d
 34c:	74696e69 	strbtvc	r6, [r9], #-3689	; 0xe69
 350:	65737500 	ldrbvs	r7, [r3, #-1280]!	; 0x500
 354:	69740063 	ldmdbvs	r4!, {r0, r1, r5, r6}^
 358:	2e72656d 	cdpcs	5, 7, cr6, cr2, cr13, {3}
 35c:	6f630063 	svcvs	0x00630063
 360:	65746e75 	ldrbvs	r6, [r4, #-3701]!	; 0xe75
 364:	59530072 	ldmdbpl	r3, {r1, r4, r5, r6}^
 368:	4d495453 	cfstrdmi	mvd5, [r9, #-332]	; 0xfffffeb4
 36c:	4c435245 	sfmmi	f5, 2, [r3], {69}	; 0x45
 370:	6564004f 	strbvs	r0, [r4, #-79]!	; 0x4f
 374:	0079616c 	rsbseq	r6, r9, ip, ror #2
 378:	616c6564 	cmnvs	ip, r4, ror #10
 37c:	736d5f79 	cmnvc	sp, #484	; 0x1e4
 380:	72617500 	rsbvc	r7, r1, #0, 10
 384:	6e695f74 	mcrvs	15, 3, r5, cr9, cr4, {3}
 388:	77007469 	strvc	r7, [r0, -r9, ror #8]
 38c:	656b6c61 	strbvs	r6, [fp, #-3169]!	; 0xc61
 390:	65720072 	ldrbvs	r0, [r2, #-114]!	; 0x72
 394:	65637564 	strbvs	r7, [r3, #-1380]!	; 0x564
 398:	65547942 	ldrbvs	r7, [r4, #-2370]	; 0x942
 39c:	776f506e 	strbvc	r5, [pc, -lr, rrx]!
 3a0:	77007265 	strvc	r7, [r0, -r5, ror #4]
 3a4:	68746469 	ldmdavs	r4!, {r0, r3, r5, r6, sl, sp, lr}^
 3a8:	726f6600 	rsbvc	r6, pc, #0, 12
 3ac:	0074616d 	rsbseq	r6, r4, sp, ror #2
 3b0:	61765f5f 	cmnvs	r6, pc, asr pc
 3b4:	73696c5f 	cmnvc	r9, #24320	; 0x5f00
 3b8:	6e690074 	mcrvs	0, 3, r0, cr9, cr4, {3}
 3bc:	646f7474 	strbtvs	r7, [pc], #-1140	; 3c4 <_start-0x7c3c>
 3c0:	69006365 	stmdbvs	r0, {r0, r2, r5, r6, r8, r9, sp, lr}
 3c4:	6f74746e 	svcvs	0x0074746e
 3c8:	006e6962 	rsbeq	r6, lr, r2, ror #18
 3cc:	706e7376 	rsbvc	r7, lr, r6, ror r3
 3d0:	746e6972 	strbtvc	r6, [lr], #-2418	; 0x972
 3d4:	5f5f0066 	svcpl	0x005f0066
 3d8:	63007061 	movwvs	r7, #97	; 0x61
 3dc:	00726168 	rsbseq	r6, r2, r8, ror #2
 3e0:	43646170 	cmnmi	r4, #112, 2
 3e4:	746e756f 	strbtvc	r7, [lr], #-1391	; 0x56f
 3e8:	69726f00 	ldmdbvs	r2!, {r8, r9, sl, fp, sp, lr}^
 3ec:	72700067 	rsbsvc	r0, r0, #103	; 0x67
 3f0:	66746e69 	ldrbtvs	r6, [r4], -r9, ror #28
 3f4:	696e695f 	stmdbvs	lr!, {r0, r1, r2, r3, r4, r6, r8, fp, sp, lr}^
 3f8:	73690074 	cmnvc	r9, #116	; 0x74
 3fc:	6167654e 	cmnvs	r7, lr, asr #10
 400:	65766974 	ldrbvs	r6, [r6, #-2420]!	; 0x974
 404:	75727400 	ldrbvc	r7, [r2, #-1024]!	; 0x400
 408:	64695765 	strbtvs	r5, [r9], #-1893	; 0x765
 40c:	73006874 	movwvc	r6, #2164	; 0x874
 410:	00657a69 	rsbeq	r7, r5, r9, ror #20
 414:	6e697270 	mcrvs	2, 3, r7, cr9, cr0, {3}
 418:	632e6674 	teqvs	lr, #116, 12	; 0x7400000
 41c:	675f5f00 	ldrbvs	r5, [pc, -r0, lsl #30]
 420:	5f63756e 	svcpl	0x0063756e
 424:	6c5f6176 	ldfvse	f6, [pc], {118}	; 0x76
 428:	00747369 	rsbseq	r7, r4, r9, ror #6
 42c:	74726175 	ldrbtvc	r6, [r2], #-373	; 0x175
 430:	7475705f 	ldrbtvc	r7, [r5], #-95	; 0x5f
 434:	69640063 	stmdbvs	r4!, {r0, r1, r5, r6}^
 438:	00746967 	rsbseq	r6, r4, r7, ror #18
 43c:	4974756f 	ldmdbmi	r4!, {r0, r1, r2, r3, r5, r6, r8, sl, ip, sp, lr}^
 440:	7865646e 	stmdavc	r5!, {r1, r2, r3, r5, r6, sl, sp, lr}^
 444:	746e6900 	strbtvc	r6, [lr], #-2304	; 0x900
 448:	65686f74 	strbvs	r6, [r8, #-3956]!	; 0xf74
 44c:	74730078 	ldrbtvc	r0, [r3], #-120	; 0x78
 450:	64007461 	strvs	r7, [r0], #-1121	; 0x461
 454:	00617461 	rsbeq	r7, r1, r1, ror #8
 458:	74726175 	ldrbtvc	r6, [r2], #-373	; 0x175
 45c:	7500632e 	strvc	r6, [r0, #-814]	; 0x32e
 460:	5f747261 	svcpl	0x00747261
 464:	73756c66 	cmnvc	r5, #26112	; 0x6600
 468:	61750068 	cmnvs	r5, r8, rrx
 46c:	675f7472 			; <UNDEFINED> instruction: 0x675f7472
 470:	00637465 	rsbeq	r7, r3, r5, ror #8
 474:	64756162 	ldrbtvs	r6, [r5], #-354	; 0x162
 478:	746e6300 	strbtvc	r6, [lr], #-768	; 0x300
 47c:	6373006c 	cmnvs	r3, #108	; 0x6c
 480:	63746172 	cmnvs	r4, #-2147483620	; 0x8000001c
 484:	61750068 	cmnvs	r5, r8, rrx
 488:	55007472 	strpl	r7, [r0, #-1138]	; 0x472
 48c:	00545241 	subseq	r5, r4, r1, asr #4
 490:	6f697067 	svcvs	0x00697067
 494:	7465735f 	strbtvc	r7, [r5], #-863	; 0x35f
 498:	6c75705f 	ldclvs	0, cr7, [r5], #-380	; 0xfffffe84
 49c:	0070756c 	rsbseq	r7, r0, ip, ror #10
 4a0:	6f697067 	svcvs	0x00697067
 4a4:	72747865 	rsbsvc	r7, r4, #6619136	; 0x650000
 4a8:	00632e61 	rsbeq	r2, r3, r1, ror #28
 4ac:	5f676572 	svcpl	0x00676572
 4b0:	00647570 	rsbeq	r7, r4, r0, ror r5
 4b4:	4f495047 	svcmi	0x00495047
 4b8:	4455505f 	ldrbmi	r5, [r5], #-95	; 0x5f
 4bc:	4c55505f 	mrrcmi	0, 5, r5, r5, cr15	; <UNPREDICTABLE>
 4c0:	0050554c 	subseq	r5, r0, ip, asr #10
 4c4:	4f495047 	svcmi	0x00495047
 4c8:	4455505f 	ldrbmi	r5, [r5], #-95	; 0x5f
 4cc:	4c55505f 	mrrcmi	0, 5, r5, r5, cr15	; <UNPREDICTABLE>
 4d0:	574f444c 	strbpl	r4, [pc, -ip, asr #8]
 4d4:	5047004e 	subpl	r0, r7, lr, asr #32
 4d8:	505f4f49 	subspl	r4, pc, r9, asr #30
 4dc:	445f4455 	ldrbmi	r4, [pc], #-1109	; 4e4 <_start-0x7b1c>
 4e0:	42415349 	submi	r5, r1, #603979777	; 0x24000001
 4e4:	7200454c 	andvc	r4, r0, #76, 10	; 0x13000000
 4e8:	635f6765 	cmpvs	pc, #26476544	; 0x1940000
 4ec:	67006b6c 	strvs	r6, [r0, -ip, ror #22]
 4f0:	5f6f6970 	svcpl	0x006f6970
 4f4:	5f746573 	svcpl	0x00746573
 4f8:	6c6c7570 	cfstr64vs	mvdx7, [ip], #-448	; 0xfffffe40
 4fc:	6e776f64 	cdpvs	15, 7, cr6, cr7, cr4, {3}
 500:	69706700 	ldmdbvs	r0!, {r8, r9, sl, sp, lr}^
 504:	65735f6f 	ldrbvs	r5, [r3, #-3951]!	; 0xf6f
 508:	75705f74 	ldrbvc	r5, [r0, #-3956]!	; 0xf74
 50c:	Address 0x000000000000050c is out of bounds.


Disassembly of section .comment:

00000000 <.comment>:
   0:	3a434347 	bcc	10d0d24 <__bss_end__+0x10c7a0c>
   4:	4e472820 	cdpmi	8, 4, cr2, cr7, cr0, {1}
   8:	34202955 	strtcc	r2, [r0], #-2389	; 0x955
   c:	332e382e 	teqcc	lr, #3014656	; 0x2e0000
	...

Disassembly of section .ARM.attributes:

00000000 <.ARM.attributes>:
   0:	00002841 	andeq	r2, r0, r1, asr #16
   4:	61656100 	cmnvs	r5, r0, lsl #2
   8:	01006962 	tsteq	r0, r2, ror #18
   c:	0000001e 	andeq	r0, r0, lr, lsl r0
  10:	06003605 	streq	r3, [r0], -r5, lsl #12
  14:	09010806 	stmdbeq	r1, {r1, r2, fp}
  18:	14041201 	strne	r1, [r4], #-513	; 0x201
  1c:	17011501 	strne	r1, [r1, -r1, lsl #10]
  20:	1a011803 	bne	46034 <__bss_end__+0x3cd1c>
  24:	22011e01 	andcs	r1, r1, #1, 28
  28:	Address 0x0000000000000028 is out of bounds.


Disassembly of section .debug_frame:

00000000 <.debug_frame>:
   0:	0000000c 	andeq	r0, r0, ip
   4:	ffffffff 			; <UNDEFINED> instruction: 0xffffffff
   8:	7c020001 	stcvc	0, cr0, [r2], {1}
   c:	000d0c0e 	andeq	r0, sp, lr, lsl #24
  10:	00000020 	andeq	r0, r0, r0, lsr #32
  14:	00000000 	andeq	r0, r0, r0
  18:	00008010 	andeq	r8, r0, r0, lsl r0
  1c:	00000134 	andeq	r0, r0, r4, lsr r1
  20:	84180e42 	ldrhi	r0, [r8], #-3650	; 0xe42
  24:	86058506 	strhi	r8, [r5], -r6, lsl #10
  28:	88038704 	stmdahi	r3, {r2, r8, r9, sl, pc}
  2c:	42018e02 	andmi	r8, r1, #2, 28
  30:	0000400e 	andeq	r4, r0, lr
  34:	0000000c 	andeq	r0, r0, ip
  38:	ffffffff 			; <UNDEFINED> instruction: 0xffffffff
  3c:	7c020001 	stcvc	0, cr0, [r2], {1}
  40:	000d0c0e 	andeq	r0, sp, lr, lsl #24
  44:	00000014 	andeq	r0, r0, r4, lsl r0
  48:	00000034 	andeq	r0, r0, r4, lsr r0
  4c:	00008144 	andeq	r8, r0, r4, asr #2
  50:	00000038 	andeq	r0, r0, r8, lsr r0
  54:	83080e42 	movwhi	r0, #36418	; 0x8e42
  58:	00018e02 	andeq	r8, r1, r2, lsl #28
  5c:	0000000c 	andeq	r0, r0, ip
  60:	ffffffff 			; <UNDEFINED> instruction: 0xffffffff
  64:	7c020001 	stcvc	0, cr0, [r2], {1}
  68:	000d0c0e 	andeq	r0, sp, lr, lsl #24
  6c:	00000018 	andeq	r0, r0, r8, lsl r0
  70:	0000005c 	andeq	r0, r0, ip, asr r0
  74:	0000817c 	andeq	r8, r0, ip, ror r1
  78:	0000008c 	andeq	r0, r0, ip, lsl #1
  7c:	83100e42 	tsthi	r0, #1056	; 0x420
  80:	85038404 	strhi	r8, [r3, #-1028]	; 0x404
  84:	00018e02 	andeq	r8, r1, r2, lsl #28
  88:	0000001c 	andeq	r0, r0, ip, lsl r0
  8c:	0000005c 	andeq	r0, r0, ip, asr r0
  90:	00008208 	andeq	r8, r0, r8, lsl #4
  94:	00000124 	andeq	r0, r0, r4, lsr #2
  98:	84100e42 	ldrhi	r0, [r0], #-3650	; 0xe42
  9c:	86038504 	strhi	r8, [r3], -r4, lsl #10
  a0:	42018e02 	andmi	r8, r1, #2, 28
  a4:	0000180e 	andeq	r1, r0, lr, lsl #16
  a8:	00000018 	andeq	r0, r0, r8, lsl r0
  ac:	0000005c 	andeq	r0, r0, ip, asr r0
  b0:	0000832c 	andeq	r8, r0, ip, lsr #6
  b4:	00000094 	muleq	r0, r4, r0
  b8:	83100e42 	tsthi	r0, #1056	; 0x420
  bc:	85038404 	strhi	r8, [r3, #-1028]	; 0x404
  c0:	00018e02 	andeq	r8, r1, r2, lsl #28
  c4:	0000000c 	andeq	r0, r0, ip
  c8:	0000005c 	andeq	r0, r0, ip, asr r0
  cc:	000083c0 	andeq	r8, r0, r0, asr #7
  d0:	00000004 	andeq	r0, r0, r4
  d4:	0000000c 	andeq	r0, r0, ip
  d8:	ffffffff 			; <UNDEFINED> instruction: 0xffffffff
  dc:	7c020001 	stcvc	0, cr0, [r2], {1}
  e0:	000d0c0e 	andeq	r0, sp, lr, lsl #24
  e4:	0000001c 	andeq	r0, r0, ip, lsl r0
  e8:	000000d4 	ldrdeq	r0, [r0], -r4
  ec:	000083f4 	strdeq	r8, [r0], -r4
  f0:	00000010 	andeq	r0, r0, r0, lsl r0
  f4:	420c0d42 	andmi	r0, ip, #4224	; 0x1080
  f8:	038d048b 	orreq	r0, sp, #-1962934272	; 0x8b000000
  fc:	0c42028e 	sfmeq	f0, 2, [r2], {142}	; 0x8e
 100:	0000040b 	andeq	r0, r0, fp, lsl #8
 104:	0000001c 	andeq	r0, r0, ip, lsl r0
 108:	000000d4 	ldrdeq	r0, [r0], -r4
 10c:	00008404 	andeq	r8, r0, r4, lsl #8
 110:	00000064 	andeq	r0, r0, r4, rrx
 114:	420c0d42 	andmi	r0, ip, #4224	; 0x1080
 118:	048b0584 	streq	r0, [fp], #1412	; 0x584
 11c:	028e038d 	addeq	r0, lr, #872415234	; 0x34000002
 120:	040b0c42 	streq	r0, [fp], #-3138	; 0xc42
 124:	0000001c 	andeq	r0, r0, ip, lsl r0
 128:	000000d4 	ldrdeq	r0, [r0], -r4
 12c:	00008468 	andeq	r8, r0, r8, ror #8
 130:	00000058 	andeq	r0, r0, r8, asr r0
 134:	420c0d42 	andmi	r0, ip, #4224	; 0x1080
 138:	038d048b 	orreq	r0, sp, #-1962934272	; 0x8b000000
 13c:	0c42028e 	sfmeq	f0, 2, [r2], {142}	; 0x8e
 140:	0000040b 	andeq	r0, r0, fp, lsl #8
 144:	0000001c 	andeq	r0, r0, ip, lsl r0
 148:	000000d4 	ldrdeq	r0, [r0], -r4
 14c:	000084c0 	andeq	r8, r0, r0, asr #9
 150:	00000018 	andeq	r0, r0, r8, lsl r0
 154:	420c0d42 	andmi	r0, ip, #4224	; 0x1080
 158:	038d048b 	orreq	r0, sp, #-1962934272	; 0x8b000000
 15c:	0c42028e 	sfmeq	f0, 2, [r2], {142}	; 0x8e
 160:	0000040b 	andeq	r0, r0, fp, lsl #8
 164:	0000001c 	andeq	r0, r0, ip, lsl r0
 168:	000000d4 	ldrdeq	r0, [r0], -r4
 16c:	000084d8 	ldrdeq	r8, [r0], -r8	; <UNPREDICTABLE>
 170:	00000018 	andeq	r0, r0, r8, lsl r0
 174:	420c0d42 	andmi	r0, ip, #4224	; 0x1080
 178:	038d048b 	orreq	r0, sp, #-1962934272	; 0x8b000000
 17c:	0c42028e 	sfmeq	f0, 2, [r2], {142}	; 0x8e
 180:	0000040b 	andeq	r0, r0, fp, lsl #8
 184:	0000001c 	andeq	r0, r0, ip, lsl r0
 188:	000000d4 	ldrdeq	r0, [r0], -r4
 18c:	000084f0 	strdeq	r8, [r0], -r0
 190:	00000060 	andeq	r0, r0, r0, rrx
 194:	420c0d42 	andmi	r0, ip, #4224	; 0x1080
 198:	038d048b 	orreq	r0, sp, #-1962934272	; 0x8b000000
 19c:	0c42028e 	sfmeq	f0, 2, [r2], {142}	; 0x8e
 1a0:	0000040b 	andeq	r0, r0, fp, lsl #8
 1a4:	0000001c 	andeq	r0, r0, ip, lsl r0
 1a8:	000000d4 	ldrdeq	r0, [r0], -r4
 1ac:	00008550 	andeq	r8, r0, r0, asr r5
 1b0:	00000048 	andeq	r0, r0, r8, asr #32
 1b4:	420c0d42 	andmi	r0, ip, #4224	; 0x1080
 1b8:	038d048b 	orreq	r0, sp, #-1962934272	; 0x8b000000
 1bc:	0c42028e 	sfmeq	f0, 2, [r2], {142}	; 0x8e
 1c0:	0000040b 	andeq	r0, r0, fp, lsl #8
 1c4:	0000000c 	andeq	r0, r0, ip
 1c8:	ffffffff 			; <UNDEFINED> instruction: 0xffffffff
 1cc:	7c020001 	stcvc	0, cr0, [r2], {1}
 1d0:	000d0c0e 	andeq	r0, sp, lr, lsl #24
 1d4:	0000001c 	andeq	r0, r0, ip, lsl r0
 1d8:	000001c4 	andeq	r0, r0, r4, asr #3
 1dc:	00008598 	muleq	r0, r8, r5
 1e0:	00000010 	andeq	r0, r0, r0, lsl r0
 1e4:	420c0d42 	andmi	r0, ip, #4224	; 0x1080
 1e8:	038d048b 	orreq	r0, sp, #-1962934272	; 0x8b000000
 1ec:	0c42028e 	sfmeq	f0, 2, [r2], {142}	; 0x8e
 1f0:	0000040b 	andeq	r0, r0, fp, lsl #8
 1f4:	0000001c 	andeq	r0, r0, ip, lsl r0
 1f8:	000001c4 	andeq	r0, r0, r4, asr #3
 1fc:	000085a8 	andeq	r8, r0, r8, lsr #11
 200:	0000001c 	andeq	r0, r0, ip, lsl r0
 204:	420c0d42 	andmi	r0, ip, #4224	; 0x1080
 208:	038d048b 	orreq	r0, sp, #-1962934272	; 0x8b000000
 20c:	0c42028e 	sfmeq	f0, 2, [r2], {142}	; 0x8e
 210:	0000040b 	andeq	r0, r0, fp, lsl #8
 214:	00000020 	andeq	r0, r0, r0, lsr #32
 218:	000001c4 	andeq	r0, r0, r4, asr #3
 21c:	000085c4 	andeq	r8, r0, r4, asr #11
 220:	0000002c 	andeq	r0, r0, ip, lsr #32
 224:	420c0d42 	andmi	r0, ip, #4224	; 0x1080
 228:	05850684 	streq	r0, [r5, #1668]	; 0x684
 22c:	038d048b 	orreq	r0, sp, #-1962934272	; 0x8b000000
 230:	0c42028e 	sfmeq	f0, 2, [r2], {142}	; 0x8e
 234:	0000040b 	andeq	r0, r0, fp, lsl #8
 238:	00000024 	andeq	r0, r0, r4, lsr #32
 23c:	000001c4 	andeq	r0, r0, r4, asr #3
 240:	000085f0 	strdeq	r8, [r0], -r0
 244:	00000034 	andeq	r0, r0, r4, lsr r0
 248:	420c0d42 	andmi	r0, ip, #4224	; 0x1080
 24c:	07840883 	streq	r0, [r4, r3, lsl #17]
 250:	05860685 	streq	r0, [r6, #1669]	; 0x685
 254:	038d048b 	orreq	r0, sp, #-1962934272	; 0x8b000000
 258:	0c42028e 	sfmeq	f0, 2, [r2], {142}	; 0x8e
 25c:	0000040b 	andeq	r0, r0, fp, lsl #8
 260:	00000024 	andeq	r0, r0, r4, lsr #32
 264:	000001c4 	andeq	r0, r0, r4, asr #3
 268:	00008624 	andeq	r8, r0, r4, lsr #12
 26c:	00000034 	andeq	r0, r0, r4, lsr r0
 270:	420c0d42 	andmi	r0, ip, #4224	; 0x1080
 274:	07840883 	streq	r0, [r4, r3, lsl #17]
 278:	05860685 	streq	r0, [r6, #1669]	; 0x685
 27c:	038d048b 	orreq	r0, sp, #-1962934272	; 0x8b000000
 280:	0c42028e 	sfmeq	f0, 2, [r2], {142}	; 0x8e
 284:	0000040b 	andeq	r0, r0, fp, lsl #8
 288:	00000020 	andeq	r0, r0, r0, lsr #32
 28c:	000001c4 	andeq	r0, r0, r4, asr #3
 290:	00008658 	andeq	r8, r0, r8, asr r6
 294:	00000020 	andeq	r0, r0, r0, lsr #32
 298:	420c0d42 	andmi	r0, ip, #4224	; 0x1080
 29c:	05840683 	streq	r0, [r4, #1667]	; 0x683
 2a0:	038d048b 	orreq	r0, sp, #-1962934272	; 0x8b000000
 2a4:	0c42028e 	sfmeq	f0, 2, [r2], {142}	; 0x8e
 2a8:	0000040b 	andeq	r0, r0, fp, lsl #8
 2ac:	0000000c 	andeq	r0, r0, ip
 2b0:	ffffffff 			; <UNDEFINED> instruction: 0xffffffff
 2b4:	7c020001 	stcvc	0, cr0, [r2], {1}
 2b8:	000d0c0e 	andeq	r0, sp, lr, lsl #24
 2bc:	0000001c 	andeq	r0, r0, ip, lsl r0
 2c0:	000002ac 	andeq	r0, r0, ip, lsr #5
 2c4:	00008678 	andeq	r8, r0, r8, ror r6
 2c8:	00000014 	andeq	r0, r0, r4, lsl r0
 2cc:	420c0d42 	andmi	r0, ip, #4224	; 0x1080
 2d0:	038d048b 	orreq	r0, sp, #-1962934272	; 0x8b000000
 2d4:	0c42028e 	sfmeq	f0, 2, [r2], {142}	; 0x8e
 2d8:	0000040b 	andeq	r0, r0, fp, lsl #8
 2dc:	0000001c 	andeq	r0, r0, ip, lsl r0
 2e0:	000002ac 	andeq	r0, r0, ip, lsr #5
 2e4:	0000868c 	andeq	r8, r0, ip, lsl #13
 2e8:	00000038 	andeq	r0, r0, r8, lsr r0
 2ec:	420c0d42 	andmi	r0, ip, #4224	; 0x1080
 2f0:	048b0584 	streq	r0, [fp], #1412	; 0x584
 2f4:	028e038d 	addeq	r0, lr, #872415234	; 0x34000002
 2f8:	040b0c42 	streq	r0, [fp], #-3138	; 0xc42
 2fc:	00000024 	andeq	r0, r0, r4, lsr #32
 300:	000002ac 	andeq	r0, r0, ip, lsr #5
 304:	000086c4 	andeq	r8, r0, r4, asr #13
 308:	000000c8 	andeq	r0, r0, r8, asr #1
 30c:	420c0d42 	andmi	r0, ip, #4224	; 0x1080
 310:	07850884 	streq	r0, [r5, r4, lsl #17]
 314:	05870686 	streq	r0, [r7, #1670]	; 0x686
 318:	038d048b 	orreq	r0, sp, #-1962934272	; 0x8b000000
 31c:	0c42028e 	sfmeq	f0, 2, [r2], {142}	; 0x8e
 320:	0000040b 	andeq	r0, r0, fp, lsl #8
 324:	00000024 	andeq	r0, r0, r4, lsr #32
 328:	000002ac 	andeq	r0, r0, ip, lsr #5
 32c:	0000878c 	andeq	r8, r0, ip, lsl #15
 330:	000000d8 	ldrdeq	r0, [r0], -r8
 334:	420c0d42 	andmi	r0, ip, #4224	; 0x1080
 338:	07850884 	streq	r0, [r5, r4, lsl #17]
 33c:	05870686 	streq	r0, [r7, #1670]	; 0x686
 340:	038d048b 	orreq	r0, sp, #-1962934272	; 0x8b000000
 344:	0c42028e 	sfmeq	f0, 2, [r2], {142}	; 0x8e
 348:	0000040b 	andeq	r0, r0, fp, lsl #8
 34c:	00000028 	andeq	r0, r0, r8, lsr #32
 350:	000002ac 	andeq	r0, r0, ip, lsr #5
 354:	00008864 	andeq	r8, r0, r4, ror #16
 358:	0000014c 	andeq	r0, r0, ip, asr #2
 35c:	420c0d42 	andmi	r0, ip, #4224	; 0x1080
 360:	0a850b84 	beq	fe143178 <__bss_end__+0xfe139e60>
 364:	08870986 	stmeq	r7, {r1, r2, r7, r8, fp}
 368:	06890788 	streq	r0, [r9], r8, lsl #15
 36c:	048b058a 	streq	r0, [fp], #1418	; 0x58a
 370:	028e038d 	addeq	r0, lr, #872415234	; 0x34000002
 374:	040b0c42 	streq	r0, [fp], #-3138	; 0xc42
 378:	0000002c 	andeq	r0, r0, ip, lsr #32
 37c:	000002ac 	andeq	r0, r0, ip, lsr #5
 380:	000089b0 			; <UNDEFINED> instruction: 0x000089b0
 384:	000001e0 	andeq	r0, r0, r0, ror #3
 388:	420c0d42 	andmi	r0, ip, #4224	; 0x1080
 38c:	0b840c83 	bleq	fe1035a0 <__bss_end__+0xfe0fa288>
 390:	09860a85 	stmibeq	r6, {r0, r2, r7, r9, fp}
 394:	07880887 	streq	r0, [r8, r7, lsl #17]
 398:	058a0689 	streq	r0, [sl, #1673]	; 0x689
 39c:	038d048b 	orreq	r0, sp, #-1962934272	; 0x8b000000
 3a0:	0c42028e 	sfmeq	f0, 2, [r2], {142}	; 0x8e
 3a4:	0000040b 	andeq	r0, r0, fp, lsl #8
 3a8:	00000020 	andeq	r0, r0, r0, lsr #32
 3ac:	000002ac 	andeq	r0, r0, ip, lsr #5
 3b0:	00008b90 	muleq	r0, r0, fp
 3b4:	0000002c 	andeq	r0, r0, ip, lsr #32
 3b8:	440c0d42 	strmi	r0, [ip], #-3394	; 0xd42
 3bc:	01830282 	orreq	r0, r3, r2, lsl #5
 3c0:	058d068b 	streq	r0, [sp, #1675]	; 0x68b
 3c4:	0c42048e 	cfstrdeq	mvd0, [r2], {142}	; 0x8e
 3c8:	00000c0b 	andeq	r0, r0, fp, lsl #24
 3cc:	00000028 	andeq	r0, r0, r8, lsr #32
 3d0:	000002ac 	andeq	r0, r0, ip, lsr #5
 3d4:	00008bbc 			; <UNDEFINED> instruction: 0x00008bbc
 3d8:	00000068 	andeq	r0, r0, r8, rrx
 3dc:	440c0d42 	strmi	r0, [ip], #-3394	; 0xd42
 3e0:	03810480 	orreq	r0, r1, #128, 8	; 0x80000000
 3e4:	01830282 	orreq	r0, r3, r2, lsl #5
 3e8:	09850a84 	stmibeq	r5, {r2, r7, r9, fp}
 3ec:	078d088b 	streq	r0, [sp, fp, lsl #17]
 3f0:	0c42068e 	mcrreq	6, 8, r0, r2, cr14
 3f4:	0000140b 	andeq	r1, r0, fp, lsl #8
 3f8:	0000000c 	andeq	r0, r0, ip
 3fc:	ffffffff 			; <UNDEFINED> instruction: 0xffffffff
 400:	7c020001 	stcvc	0, cr0, [r2], {1}
 404:	000d0c0e 	andeq	r0, sp, lr, lsl #24
 408:	00000020 	andeq	r0, r0, r0, lsr #32
 40c:	000003f8 	strdeq	r0, [r0], -r8
 410:	00008c24 	andeq	r8, r0, r4, lsr #24
 414:	00000068 	andeq	r0, r0, r8, rrx
 418:	420c0d42 	andmi	r0, ip, #4224	; 0x1080
 41c:	05850684 	streq	r0, [r5, #1668]	; 0x684
 420:	038d048b 	orreq	r0, sp, #-1962934272	; 0x8b000000
 424:	0c42028e 	sfmeq	f0, 2, [r2], {142}	; 0x8e
 428:	0000040b 	andeq	r0, r0, fp, lsl #8
 42c:	0000001c 	andeq	r0, r0, ip, lsl r0
 430:	000003f8 	strdeq	r0, [r0], -r8
 434:	00008c8c 	andeq	r8, r0, ip, lsl #25
 438:	00000030 	andeq	r0, r0, r0, lsr r0
 43c:	420c0d42 	andmi	r0, ip, #4224	; 0x1080
 440:	038d048b 	orreq	r0, sp, #-1962934272	; 0x8b000000
 444:	0c42028e 	sfmeq	f0, 2, [r2], {142}	; 0x8e
 448:	0000040b 	andeq	r0, r0, fp, lsl #8
 44c:	00000020 	andeq	r0, r0, r0, lsr #32
 450:	000003f8 	strdeq	r0, [r0], -r8
 454:	00008cbc 			; <UNDEFINED> instruction: 0x00008cbc
 458:	00000040 	andeq	r0, r0, r0, asr #32
 45c:	420c0d42 	andmi	r0, ip, #4224	; 0x1080
 460:	05840683 	streq	r0, [r4, #1667]	; 0x683
 464:	038d048b 	orreq	r0, sp, #-1962934272	; 0x8b000000
 468:	0c42028e 	sfmeq	f0, 2, [r2], {142}	; 0x8e
 46c:	0000040b 	andeq	r0, r0, fp, lsl #8
 470:	0000001c 	andeq	r0, r0, ip, lsl r0
 474:	000003f8 	strdeq	r0, [r0], -r8
 478:	00008cfc 	strdeq	r8, [r0], -ip
 47c:	00000024 	andeq	r0, r0, r4, lsr #32
 480:	420c0d42 	andmi	r0, ip, #4224	; 0x1080
 484:	038d048b 	orreq	r0, sp, #-1962934272	; 0x8b000000
 488:	0c42028e 	sfmeq	f0, 2, [r2], {142}	; 0x8e
 48c:	0000040b 	andeq	r0, r0, fp, lsl #8
 490:	0000000c 	andeq	r0, r0, ip
 494:	ffffffff 			; <UNDEFINED> instruction: 0xffffffff
 498:	7c020001 	stcvc	0, cr0, [r2], {1}
 49c:	000d0c0e 	andeq	r0, sp, lr, lsl #24
 4a0:	00000020 	andeq	r0, r0, r0, lsr #32
 4a4:	00000490 	muleq	r0, r0, r4
 4a8:	00008d20 	andeq	r8, r0, r0, lsr #26
 4ac:	00000068 	andeq	r0, r0, r8, rrx
 4b0:	420c0d42 	andmi	r0, ip, #4224	; 0x1080
 4b4:	05850684 	streq	r0, [r5, #1668]	; 0x684
 4b8:	038d048b 	orreq	r0, sp, #-1962934272	; 0x8b000000
 4bc:	0c42028e 	sfmeq	f0, 2, [r2], {142}	; 0x8e
 4c0:	0000040b 	andeq	r0, r0, fp, lsl #8
 4c4:	0000001c 	andeq	r0, r0, ip, lsl r0
 4c8:	00000490 	muleq	r0, r0, r4
 4cc:	00008d88 	andeq	r8, r0, r8, lsl #27
 4d0:	00000020 	andeq	r0, r0, r0, lsr #32
 4d4:	420c0d42 	andmi	r0, ip, #4224	; 0x1080
 4d8:	038d048b 	orreq	r0, sp, #-1962934272	; 0x8b000000
 4dc:	0c42028e 	sfmeq	f0, 2, [r2], {142}	; 0x8e
 4e0:	0000040b 	andeq	r0, r0, fp, lsl #8
 4e4:	0000001c 	andeq	r0, r0, ip, lsl r0
 4e8:	00000490 	muleq	r0, r0, r4
 4ec:	00008da8 	andeq	r8, r0, r8, lsr #27
 4f0:	00000018 	andeq	r0, r0, r8, lsl r0
 4f4:	420c0d42 	andmi	r0, ip, #4224	; 0x1080
 4f8:	038d048b 	orreq	r0, sp, #-1962934272	; 0x8b000000
 4fc:	0c42028e 	sfmeq	f0, 2, [r2], {142}	; 0x8e
 500:	0000040b 	andeq	r0, r0, fp, lsl #8
 504:	0000000c 	andeq	r0, r0, ip
 508:	ffffffff 			; <UNDEFINED> instruction: 0xffffffff
 50c:	7c010001 	stcvc	0, cr0, [r1], {1}
 510:	000d0c0e 	andeq	r0, sp, lr, lsl #24
 514:	0000000c 	andeq	r0, r0, ip
 518:	00000504 	andeq	r0, r0, r4, lsl #10
 51c:	00008dc0 	andeq	r8, r0, r0, asr #27
 520:	000000f4 	strdeq	r0, [r0], -r4

Disassembly of section .debug_loc:

00000000 <.debug_loc>:
   0:	00000014 	andeq	r0, r0, r4, lsl r0
   4:	0000001c 	andeq	r0, r0, ip, lsl r0
   8:	04730003 	ldrbteq	r0, [r3], #-3
   c:	00001c9f 	muleq	r0, pc, ip	; <UNPREDICTABLE>
  10:	00002700 	andeq	r2, r0, r0, lsl #14
  14:	53000100 	movwpl	r0, #256	; 0x100
	...
  24:	00000008 	andeq	r0, r0, r8
  28:	08500001 	ldmdaeq	r0, {r0}^
  2c:	78000000 	stmdavc	r0, {}	; <UNPREDICTABLE>
  30:	01000000 	mrseq	r0, (UNDEF: 0)
  34:	00785400 	rsbseq	r5, r8, r0, lsl #8
  38:	008c0000 	addeq	r0, ip, r0
  3c:	00060000 	andeq	r0, r6, r0
  40:	3c5001f3 	ldfcce	f0, [r0], {243}	; 0xf3
  44:	00009f24 	andeq	r9, r0, r4, lsr #30
  48:	00000000 	andeq	r0, r0, r0
  4c:	00180000 	andseq	r0, r8, r0
  50:	001c0000 	andseq	r0, ip, r0
  54:	00010000 	andeq	r0, r1, r0
  58:	00001c50 	andeq	r1, r0, r0, asr ip
  5c:	00007800 	andeq	r7, r0, r0, lsl #16
  60:	55000100 	strpl	r0, [r0, #-256]	; 0x100
	...
  6c:	00000020 	andeq	r0, r0, r0, lsr #32
  70:	00000024 	andeq	r0, r0, r4, lsr #32
  74:	80700005 	rsbshi	r0, r0, r5
  78:	249f03f0 	ldrcs	r0, [pc], #1008	; 80 <_start-0x7f80>
  7c:	2b000000 	blcs	84 <_start-0x7f7c>
  80:	01000000 	mrseq	r0, (UNDEF: 0)
  84:	002b5000 	eoreq	r5, fp, r0
  88:	002c0000 	eoreq	r0, ip, r0
  8c:	000c0000 	andeq	r0, ip, r0
  90:	24f8000c 	ldrbtcs	r0, [r8], #12
  94:	74007501 	strvc	r7, [r0], #-1281	; 0x501
  98:	9f1c1e00 	svcls	0x001c1e00
  9c:	0000002c 	andeq	r0, r0, ip, lsr #32
  a0:	00000058 	andeq	r0, r0, r8, asr r0
  a4:	68500001 	ldmdavs	r0, {r0}^
  a8:	6c000000 	stcvs	0, cr0, [r0], {-0}
  ac:	01000000 	mrseq	r0, (UNDEF: 0)
  b0:	00705000 	rsbseq	r5, r0, r0
  b4:	00740000 	rsbseq	r0, r4, r0
  b8:	00010000 	andeq	r0, r1, r0
  bc:	00000050 	andeq	r0, r0, r0, asr r0
  c0:	00000000 	andeq	r0, r0, r0
  c4:	00008c00 	andeq	r8, r0, r0, lsl #24
  c8:	0000d400 	andeq	sp, r0, r0, lsl #8
  cc:	50000100 	andpl	r0, r0, r0, lsl #2
  d0:	000000d4 	ldrdeq	r0, [r0], -r4
  d4:	000001b0 			; <UNDEFINED> instruction: 0x000001b0
  d8:	01f30004 	mvnseq	r0, r4
  dc:	00009f50 	andeq	r9, r0, r0, asr pc
  e0:	00000000 	andeq	r0, r0, r0
  e4:	00d00000 	sbcseq	r0, r0, r0
  e8:	01900000 	orrseq	r0, r0, r0
  ec:	00010000 	andeq	r0, r1, r0
  f0:	00000054 	andeq	r0, r0, r4, asr r0
  f4:	00000000 	andeq	r0, r0, r0
  f8:	00012c00 	andeq	r2, r1, r0, lsl #24
  fc:	00014000 	andeq	r4, r1, r0
 100:	30000200 	andcc	r0, r0, r0, lsl #4
 104:	0001409f 	muleq	r1, pc, r0	; <UNPREDICTABLE>
 108:	00016800 	andeq	r6, r1, r0, lsl #16
 10c:	50000100 	andpl	r0, r0, r0, lsl #2
 110:	00000170 	andeq	r0, r0, r0, ror r1
 114:	00000188 	andeq	r0, r0, r8, lsl #3
 118:	00500001 	subseq	r0, r0, r1
 11c:	00000000 	andeq	r0, r0, r0
 120:	2c000000 	stccs	0, cr0, [r0], {-0}
 124:	40000001 	andmi	r0, r0, r1
 128:	02000001 	andeq	r0, r0, #1
 12c:	409f3000 	addsmi	r3, pc, r0
 130:	88000001 	stmdahi	r0, {r0}
 134:	01000001 	tsteq	r0, r1
 138:	00005300 	andeq	r5, r0, r0, lsl #6
 13c:	00000000 	andeq	r0, r0, r0
 140:	01480000 	mrseq	r0, (UNDEF: 72)
 144:	017c0000 	cmneq	ip, r0
 148:	00010000 	andeq	r0, r1, r0
 14c:	00000051 	andeq	r0, r0, r1, asr r0
 150:	00000000 	andeq	r0, r0, r0
 154:	0001dc00 	andeq	sp, r1, r0, lsl #24
 158:	0001f800 	andeq	pc, r1, r0, lsl #16
 15c:	30000200 	andcc	r0, r0, r0, lsl #4
 160:	0001f89f 	muleq	r1, pc, r8	; <UNPREDICTABLE>
 164:	00023000 	andeq	r3, r2, r0
 168:	53000100 	movwpl	r0, #256	; 0x100
	...
 174:	00008404 	andeq	r8, r0, r4, lsl #8
 178:	00008458 	andeq	r8, r0, r8, asr r4
 17c:	58510001 	ldmdapl	r1, {r0}^
 180:	68000084 	stmdavs	r0, {r2, r7}
 184:	04000084 	streq	r0, [r0], #-132	; 0x84
 188:	5101f300 	mrspl	pc, SP_irq	; <UNPREDICTABLE>
 18c:	0000009f 	muleq	r0, pc, r0	; <UNPREDICTABLE>
 190:	00000000 	andeq	r0, r0, r0
 194:	00843c00 	addeq	r3, r4, r0, lsl #24
 198:	00845400 	addeq	r5, r4, r0, lsl #8
 19c:	54000100 	strpl	r0, [r0], #-256	; 0x100
 1a0:	00008454 	andeq	r8, r0, r4, asr r4
 1a4:	0000845c 	andeq	r8, r0, ip, asr r4
 1a8:	5c530001 	mrrcpl	0, 0, r0, r3, cr1
 1ac:	68000084 	stmdavs	r0, {r2, r7}
 1b0:	01000084 	smlabbeq	r0, r4, r0, r0
 1b4:	00005200 	andeq	r5, r0, r0, lsl #4
 1b8:	00000000 	andeq	r0, r0, r0
 1bc:	844c0000 	strbhi	r0, [ip], #-0
 1c0:	845c0000 	ldrbhi	r0, [ip], #-0
 1c4:	00010000 	andeq	r0, r1, r0
 1c8:	00845c52 	addeq	r5, r4, r2, asr ip
 1cc:	00846800 	addeq	r6, r4, r0, lsl #16
 1d0:	70002500 	andvc	r2, r0, r0, lsl #10
 1d4:	f7007000 			; <UNDEFINED> instruction: 0xf7007000
 1d8:	f423f72a 	vld1.8	{d15}, [r3 :128], sl
 1dc:	cccd0823 	stclgt	8, cr0, [sp], {35}	; 0x23
 1e0:	0000cccc 	andeq	ip, r0, ip, asr #25
 1e4:	081e0000 	ldmdaeq	lr, {}	; <UNPREDICTABLE>
 1e8:	2523f720 	strcs	pc, [r3, #-1824]!	; 0x720
 1ec:	25332af7 	ldrcs	r2, [r3, #-2807]!	; 0xaf7
 1f0:	24311e35 	ldrtcs	r1, [r1], #-3637	; 0xe35
 1f4:	9f1e331c 	svcls	0x001e331c
	...
 200:	00008468 	andeq	r8, r0, r8, ror #8
 204:	000084ac 	andeq	r8, r0, ip, lsr #9
 208:	ac500001 	mrrcge	0, 0, r0, r0, cr1	; <UNPREDICTABLE>
 20c:	b4000084 	strlt	r0, [r0], #-132	; 0x84
 210:	04000084 	streq	r0, [r0], #-132	; 0x84
 214:	5001f300 	andpl	pc, r1, r0, lsl #6
 218:	0084b49f 	umulleq	fp, r4, pc, r4	; <UNPREDICTABLE>
 21c:	0084b800 	addeq	fp, r4, r0, lsl #16
 220:	50000100 	andpl	r0, r0, r0, lsl #2
 224:	000084b8 			; <UNDEFINED> instruction: 0x000084b8
 228:	000084c0 	andeq	r8, r0, r0, asr #9
 22c:	01f30004 	mvnseq	r0, r4
 230:	00009f50 	andeq	r9, r0, r0, asr pc
 234:	00000000 	andeq	r0, r0, r0
 238:	84940000 	ldrhi	r0, [r4], #0
 23c:	84a40000 	strthi	r0, [r4], #0
 240:	00010000 	andeq	r0, r1, r0
 244:	0084a452 	addeq	sl, r4, r2, asr r4
 248:	0084ac00 	addeq	sl, r4, r0, lsl #24
 24c:	70002300 	andvc	r2, r0, r0, lsl #6
 250:	f72af700 			; <UNDEFINED> instruction: 0xf72af700
 254:	0823f423 	stmdaeq	r3!, {r0, r1, r5, sl, ip, sp, lr, pc}
 258:	cccccccd 	stclgt	12, cr12, [ip], {205}	; 0xcd
 25c:	00000000 	andeq	r0, r0, r0
 260:	f720081e 			; <UNDEFINED> instruction: 0xf720081e
 264:	2af72523 	bcs	ffdc96f8 <__bss_end__+0xffdc03e0>
 268:	80232533 	eorhi	r2, r3, r3, lsr r5
 26c:	3240a080 	subcc	sl, r0, #128	; 0x80
 270:	84ac9f24 	strthi	r9, [ip], #3876	; 0xf24
 274:	84b40000 	ldrthi	r0, [r4], #0
 278:	00240000 	eoreq	r0, r4, r0
 27c:	f75001f3 			; <UNDEFINED> instruction: 0xf75001f3
 280:	f423f72a 	vld1.8	{d15}, [r3 :128], sl
 284:	cccd0823 	stclgt	8, cr0, [sp], {35}	; 0x23
 288:	0000cccc 	andeq	ip, r0, ip, asr #25
 28c:	081e0000 	ldmdaeq	lr, {}	; <UNPREDICTABLE>
 290:	2523f720 	strcs	pc, [r3, #-1824]!	; 0x720
 294:	25332af7 	ldrcs	r2, [r3, #-2807]!	; 0xaf7
 298:	a0808023 	addge	r8, r0, r3, lsr #32
 29c:	9f243240 	svcls	0x00243240
	...
 2a8:	00008498 	muleq	r0, r8, r4
 2ac:	000084b4 			; <UNDEFINED> instruction: 0x000084b4
 2b0:	00510001 	subseq	r0, r1, r1
 2b4:	00000000 	andeq	r0, r0, r0
 2b8:	a8000000 	stmdage	r0, {}	; <UNPREDICTABLE>
 2bc:	b4000084 	strlt	r0, [r0], #-132	; 0x84
 2c0:	01000084 	smlabbeq	r0, r4, r0, r0
 2c4:	00005200 	andeq	r5, r0, r0, lsl #4
 2c8:	00000000 	andeq	r0, r0, r0
 2cc:	84c00000 	strbhi	r0, [r0], #0
 2d0:	84d30000 	ldrbhi	r0, [r3], #0
 2d4:	00010000 	andeq	r0, r1, r0
 2d8:	0084d350 	addeq	sp, r4, r0, asr r3
 2dc:	0084d800 	addeq	sp, r4, r0, lsl #16
 2e0:	f3000400 	vshl.u8	d0, d0, d0
 2e4:	009f5001 	addseq	r5, pc, r1
 2e8:	00000000 	andeq	r0, r0, r0
 2ec:	d8000000 	stmdale	r0, {}	; <UNPREDICTABLE>
 2f0:	eb000084 	bl	508 <_start-0x7af8>
 2f4:	01000084 	smlabbeq	r0, r4, r0, r0
 2f8:	84eb5000 	strbthi	r5, [fp], #0
 2fc:	84f00000 	ldrbthi	r0, [r0], #0
 300:	00040000 	andeq	r0, r4, r0
 304:	9f5001f3 	svcls	0x005001f3
	...
 310:	000084f0 	strdeq	r8, [r0], -r0
 314:	00008518 	andeq	r8, r0, r8, lsl r5
 318:	18500001 	ldmdane	r0, {r0}^
 31c:	2c000085 	stccs	0, cr0, [r0], {133}	; 0x85
 320:	04000085 	streq	r0, [r0], #-133	; 0x85
 324:	5001f300 	andpl	pc, r1, r0, lsl #6
 328:	00852c9f 	umulleq	r2, r5, pc, ip	; <UNPREDICTABLE>
 32c:	00853400 	addeq	r3, r5, r0, lsl #8
 330:	50000100 	andpl	r0, r0, r0, lsl #2
 334:	00008534 	andeq	r8, r0, r4, lsr r5
 338:	00008550 	andeq	r8, r0, r0, asr r5
 33c:	01f30004 	mvnseq	r0, r4
 340:	00009f50 	andeq	r9, r0, r0, asr pc
 344:	00000000 	andeq	r0, r0, r0
 348:	85080000 	strhi	r0, [r8, #-0]
 34c:	85240000 	strhi	r0, [r4, #-0]!
 350:	00010000 	andeq	r0, r1, r0
 354:	00852453 	addeq	r2, r5, r3, asr r4
 358:	00852c00 	addeq	r2, r5, r0, lsl #24
 35c:	f3000600 	vmax.u8	d0, d0, d0
 360:	1a4f5001 	bne	13d436c <__bss_end__+0x13cb054>
 364:	00852c9f 	umulleq	r2, r5, pc, ip	; <UNPREDICTABLE>
 368:	00854000 	addeq	r4, r5, r0
 36c:	53000100 	movwpl	r0, #256	; 0x100
 370:	00008540 	andeq	r8, r0, r0, asr #10
 374:	00008550 	andeq	r8, r0, r0, asr r5
 378:	01f30006 	mvnseq	r0, r6
 37c:	9f1a4f50 	svcls	0x001a4f50
	...
 388:	0000851c 	andeq	r8, r0, ip, lsl r5
 38c:	0000852c 	andeq	r8, r0, ip, lsr #10
 390:	00500001 	subseq	r0, r0, r1
 394:	00000000 	andeq	r0, r0, r0
 398:	50000000 	andpl	r0, r0, r0
 39c:	78000085 	stmdavc	r0, {r0, r2, r7}
 3a0:	01000085 	smlabbeq	r0, r5, r0, r0
 3a4:	85785000 	ldrbhi	r5, [r8, #-0]!
 3a8:	858c0000 	strhi	r0, [ip]
 3ac:	00040000 	andeq	r0, r4, r0
 3b0:	9f5001f3 	svcls	0x005001f3
 3b4:	0000858c 	andeq	r8, r0, ip, lsl #11
 3b8:	00008590 	muleq	r0, r0, r5
 3bc:	90500001 	subsls	r0, r0, r1
 3c0:	98000085 	stmdals	r0, {r0, r2, r7}
 3c4:	04000085 	streq	r0, [r0], #-133	; 0x85
 3c8:	5001f300 	andpl	pc, r1, r0, lsl #6
 3cc:	0000009f 	muleq	r0, pc, r0	; <UNPREDICTABLE>
 3d0:	00000000 	andeq	r0, r0, r0
 3d4:	00857000 	addeq	r7, r5, r0
 3d8:	00857400 	addeq	r7, r5, r0, lsl #8
 3dc:	53000100 	movwpl	r0, #256	; 0x100
 3e0:	00008574 	andeq	r8, r0, r4, ror r5
 3e4:	00008578 	andeq	r8, r0, r8, ror r5
 3e8:	0070000c 	rsbseq	r0, r0, ip
 3ec:	8d232535 	cfstr32hi	mvfx2, [r3, #-212]!	; 0xffffff2c
 3f0:	3240a080 	subcc	sl, r0, #128	; 0x80
 3f4:	85789f24 	ldrbhi	r9, [r8, #-3876]!	; 0xf24
 3f8:	858c0000 	strhi	r0, [ip]
 3fc:	000d0000 	andeq	r0, sp, r0
 400:	355001f3 	ldrbcc	r0, [r0, #-499]	; 0x1f3
 404:	808d2325 	addhi	r2, sp, r5, lsr #6
 408:	243240a0 	ldrtcs	r4, [r2], #-160	; 0xa0
 40c:	0000009f 	muleq	r0, pc, r0	; <UNPREDICTABLE>
 410:	00000000 	andeq	r0, r0, r0
 414:	00857400 	addeq	r7, r5, r0, lsl #8
 418:	00858c00 	addeq	r8, r5, r0, lsl #24
 41c:	53000100 	movwpl	r0, #256	; 0x100
	...
 428:	00008578 	andeq	r8, r0, r8, ror r5
 42c:	00008588 	andeq	r8, r0, r8, lsl #11
 430:	88500001 	ldmdahi	r0, {r0}^
 434:	8c000085 	stchi	0, cr0, [r0], {133}	; 0x85
 438:	06000085 	streq	r0, [r0], -r5, lsl #1
 43c:	5001f300 	andpl	pc, r1, r0, lsl #6
 440:	009f1a4f 	addseq	r1, pc, pc, asr #20
 444:	00000000 	andeq	r0, r0, r0
 448:	c4000000 	strgt	r0, [r0], #-0
 44c:	d7000085 	strle	r0, [r0, -r5, lsl #1]
 450:	01000085 	smlabbeq	r0, r5, r0, r0
 454:	85d75000 	ldrbhi	r5, [r7]
 458:	85f00000 	ldrbhi	r0, [r0, #0]!
 45c:	00010000 	andeq	r0, r1, r0
 460:	00000055 	andeq	r0, r0, r5, asr r0
 464:	00000000 	andeq	r0, r0, r0
 468:	0085e000 	addeq	lr, r5, r0
 46c:	0085e400 	addeq	lr, r5, r0, lsl #8
 470:	50000100 	andpl	r0, r0, r0, lsl #2
	...
 47c:	000085f0 	strdeq	r8, [r0], -r0
 480:	0000860c 	andeq	r8, r0, ip, lsl #12
 484:	0c500001 	mrrceq	0, 0, r0, r0, cr1	; <UNPREDICTABLE>
 488:	24000086 	strcs	r0, [r0], #-134	; 0x86
 48c:	01000086 	smlabbeq	r0, r6, r0, r0
 490:	00005500 	andeq	r5, r0, r0, lsl #10
 494:	00000000 	andeq	r0, r0, r0
 498:	86000000 	strhi	r0, [r0], -r0
 49c:	860c0000 	strhi	r0, [ip], -r0
 4a0:	00020000 	andeq	r0, r2, r0
 4a4:	860c9f30 			; <UNDEFINED> instruction: 0x860c9f30
 4a8:	86240000 	strthi	r0, [r4], -r0
 4ac:	00010000 	andeq	r0, r1, r0
 4b0:	00000054 	andeq	r0, r0, r4, asr r0
 4b4:	00000000 	andeq	r0, r0, r0
 4b8:	00862400 	addeq	r2, r6, r0, lsl #8
 4bc:	00864000 	addeq	r4, r6, r0
 4c0:	50000100 	andpl	r0, r0, r0, lsl #2
 4c4:	00008640 	andeq	r8, r0, r0, asr #12
 4c8:	00008658 	andeq	r8, r0, r8, asr r6
 4cc:	00550001 	subseq	r0, r5, r1
 4d0:	00000000 	andeq	r0, r0, r0
 4d4:	34000000 	strcc	r0, [r0], #-0
 4d8:	40000086 	andmi	r0, r0, r6, lsl #1
 4dc:	02000086 	andeq	r0, r0, #134	; 0x86
 4e0:	409f3000 	addsmi	r3, pc, r0
 4e4:	58000086 	stmdapl	r0, {r1, r2, r7}
 4e8:	01000086 	smlabbeq	r0, r6, r0, r0
 4ec:	00005400 	andeq	r5, r0, r0, lsl #8
 4f0:	00000000 	andeq	r0, r0, r0
 4f4:	86580000 	ldrbhi	r0, [r8], -r0
 4f8:	86680000 	strbthi	r0, [r8], -r0
 4fc:	00010000 	andeq	r0, r1, r0
 500:	00866850 	addeq	r6, r6, r0, asr r8
 504:	00867800 	addeq	r7, r6, r0, lsl #16
 508:	54000100 	strpl	r0, [r0], #-256	; 0x100
	...
 514:	0000868c 	andeq	r8, r0, ip, lsl #13
 518:	000086ac 	andeq	r8, r0, ip, lsr #13
 51c:	b0500001 	subslt	r0, r0, r1
 520:	c4000086 	strgt	r0, [r0], #-134	; 0x86
 524:	01000086 	smlabbeq	r0, r6, r0, r0
 528:	00005000 	andeq	r5, r0, r0
 52c:	00000000 	andeq	r0, r0, r0
 530:	86980000 	ldrhi	r0, [r8], r0
 534:	86a40000 	strthi	r0, [r4], r0
 538:	00020000 	andeq	r0, r2, r0
 53c:	86a49f30 	ssat16hi	r9, #5, r0
 540:	86c40000 	strbhi	r0, [r4], r0
 544:	00010000 	andeq	r0, r1, r0
 548:	00000053 	andeq	r0, r0, r3, asr r0
 54c:	00000000 	andeq	r0, r0, r0
 550:	0086c400 	addeq	ip, r6, r0, lsl #8
 554:	00870800 	addeq	r0, r7, r0, lsl #16
 558:	50000100 	andpl	r0, r0, r0, lsl #2
 55c:	00008708 	andeq	r8, r0, r8, lsl #14
 560:	0000878c 	andeq	r8, r0, ip, lsl #15
 564:	00550001 	subseq	r0, r5, r1
 568:	00000000 	andeq	r0, r0, r0
 56c:	c4000000 	strgt	r0, [r0], #-0
 570:	80000086 	andhi	r0, r0, r6, lsl #1
 574:	01000087 	smlabbeq	r0, r7, r0, r0
 578:	87805100 	strhi	r5, [r0, r0, lsl #2]
 57c:	878c0000 	strhi	r0, [ip, r0]
 580:	00030000 	andeq	r0, r3, r0
 584:	009f0174 	addseq	r0, pc, r4, ror r1	; <UNPREDICTABLE>
 588:	00000000 	andeq	r0, r0, r0
 58c:	c4000000 	strgt	r0, [r0], #-0
 590:	fc000086 	stc2	0, cr0, [r0], {134}	; 0x86
 594:	01000086 	smlabbeq	r0, r6, r0, r0
 598:	86fc5300 	ldrbthi	r5, [ip], r0, lsl #6
 59c:	878c0000 	strhi	r0, [ip, r0]
 5a0:	00040000 	andeq	r0, r4, r0
 5a4:	9f5301f3 	svcls	0x005301f3
	...
 5b0:	000086d4 	ldrdeq	r8, [r0], -r4
 5b4:	000086e0 	andeq	r8, r0, r0, ror #13
 5b8:	9f300002 	svcls	0x00300002
 5bc:	000086e0 	andeq	r8, r0, r0, ror #13
 5c0:	0000878c 	andeq	r8, r0, ip, lsl #15
 5c4:	005c0001 	subseq	r0, ip, r1
 5c8:	00000000 	andeq	r0, r0, r0
 5cc:	f8000000 			; <UNDEFINED> instruction: 0xf8000000
 5d0:	fc000086 	stc2	0, cr0, [r0], {134}	; 0x86
 5d4:	06000086 	streq	r0, [r0], -r6, lsl #1
 5d8:	7c007300 	stcvc	3, cr7, [r0], {-0}
 5dc:	fc9f1c00 	ldc2	12, cr1, [pc], {0}
 5e0:	30000086 	andcc	r0, r0, r6, lsl #1
 5e4:	01000087 	smlabbeq	r0, r7, r0, r0
 5e8:	00005300 	andeq	r5, r0, r0, lsl #6
 5ec:	00000000 	andeq	r0, r0, r0
 5f0:	87000000 	strhi	r0, [r0, -r0]
 5f4:	87140000 	ldrhi	r0, [r4, -r0]
 5f8:	00020000 	andeq	r0, r2, r0
 5fc:	87149f30 			; <UNDEFINED> instruction: 0x87149f30
 600:	878c0000 	strhi	r0, [ip, r0]
 604:	00010000 	andeq	r0, r1, r0
 608:	00000050 	andeq	r0, r0, r0, asr r0
 60c:	00000000 	andeq	r0, r0, r0
 610:	0086d400 	addeq	sp, r6, r0, lsl #8
 614:	0086e000 	addeq	lr, r6, r0
 618:	52000100 	andpl	r0, r0, #0, 2
 61c:	000086e0 	andeq	r8, r0, r0, ror #13
 620:	00008704 	andeq	r8, r0, r4, lsl #14
 624:	00540001 	subseq	r0, r4, r1
	...
 630:	14000087 	strne	r0, [r0], #-135	; 0x87
 634:	02000087 	andeq	r0, r0, #135	; 0x87
 638:	149f3000 	ldrne	r3, [pc], #0	; 640 <_start-0x79c0>
 63c:	34000087 	strcc	r0, [r0], #-135	; 0x87
 640:	01000087 	smlabbeq	r0, r7, r0, r0
 644:	00005400 	andeq	r5, r0, r0, lsl #8
 648:	00000000 	andeq	r0, r0, r0
 64c:	873c0000 	ldrhi	r0, [ip, -r0]!
 650:	87740000 	ldrbhi	r0, [r4, -r0]!
 654:	00010000 	andeq	r0, r1, r0
 658:	00877c53 	addeq	r7, r7, r3, asr ip
 65c:	00878400 	addeq	r8, r7, r0, lsl #8
 660:	53000100 	movwpl	r0, #256	; 0x100
	...
 66c:	0000878c 	andeq	r8, r0, ip, lsl #15
 670:	000087d0 	ldrdeq	r8, [r0], -r0
 674:	d0500001 	subsle	r0, r0, r1
 678:	64000087 	strvs	r0, [r0], #-135	; 0x87
 67c:	01000088 	smlabbeq	r0, r8, r0, r0
 680:	00005500 	andeq	r5, r0, r0, lsl #10
 684:	00000000 	andeq	r0, r0, r0
 688:	878c0000 	strhi	r0, [ip, r0]
 68c:	88580000 	ldmdahi	r8, {}^	; <UNPREDICTABLE>
 690:	00010000 	andeq	r0, r1, r0
 694:	00885851 	addeq	r5, r8, r1, asr r8
 698:	00886400 	addeq	r6, r8, r0, lsl #8
 69c:	76000300 	strvc	r0, [r0], -r0, lsl #6
 6a0:	00009f01 	andeq	r9, r0, r1, lsl #30
 6a4:	00000000 	andeq	r0, r0, r0
 6a8:	878c0000 	strhi	r0, [ip, r0]
 6ac:	87c40000 	strbhi	r0, [r4, r0]
 6b0:	00010000 	andeq	r0, r1, r0
 6b4:	0087c453 	addeq	ip, r7, r3, asr r4
 6b8:	00886400 	addeq	r6, r8, r0, lsl #8
 6bc:	f3000400 	vshl.u8	d0, d0, d0
 6c0:	009f5301 	addseq	r5, pc, r1, lsl #6
 6c4:	00000000 	andeq	r0, r0, r0
 6c8:	9c000000 	stcls	0, cr0, [r0], {-0}
 6cc:	a8000087 	stmdage	r0, {r0, r1, r2, r7}
 6d0:	02000087 	andeq	r0, r0, #135	; 0x87
 6d4:	a89f3000 	ldmge	pc, {ip, sp}	; <UNPREDICTABLE>
 6d8:	64000087 	strvs	r0, [r0], #-135	; 0x87
 6dc:	01000088 	smlabbeq	r0, r8, r0, r0
 6e0:	00005c00 	andeq	r5, r0, r0, lsl #24
 6e4:	00000000 	andeq	r0, r0, r0
 6e8:	87c00000 	strbhi	r0, [r0, r0]
 6ec:	87c40000 	strbhi	r0, [r4, r0]
 6f0:	00060000 	andeq	r0, r6, r0
 6f4:	007c0073 	rsbseq	r0, ip, r3, ror r0
 6f8:	87c49f1c 	bfihi	r9, ip, (invalid: 30:4)
 6fc:	87f80000 	ldrbhi	r0, [r8, r0]!
 700:	00010000 	andeq	r0, r1, r0
 704:	00000053 	andeq	r0, r0, r3, asr r0
 708:	00000000 	andeq	r0, r0, r0
 70c:	0087c800 	addeq	ip, r7, r0, lsl #16
 710:	0087dc00 	addeq	sp, r7, r0, lsl #24
 714:	30000200 	andcc	r0, r0, r0, lsl #4
 718:	0087dc9f 	umulleq	sp, r7, pc, ip	; <UNPREDICTABLE>
 71c:	00886400 	addeq	r6, r8, r0, lsl #8
 720:	50000100 	andpl	r0, r0, r0, lsl #2
	...
 72c:	0000879c 	muleq	r0, ip, r7
 730:	000087a8 	andeq	r8, r0, r8, lsr #15
 734:	a8520001 	ldmdage	r2, {r0}^
 738:	cc000087 	stcgt	0, cr0, [r0], {135}	; 0x87
 73c:	01000087 	smlabbeq	r0, r7, r0, r0
 740:	00005400 	andeq	r5, r0, r0, lsl #8
 744:	00000000 	andeq	r0, r0, r0
 748:	87c80000 	strbhi	r0, [r8, r0]
 74c:	87dc0000 	ldrbhi	r0, [ip, r0]
 750:	00020000 	andeq	r0, r2, r0
 754:	87dc9f30 			; <UNDEFINED> instruction: 0x87dc9f30
 758:	88040000 	stmdahi	r4, {}	; <UNPREDICTABLE>
 75c:	00010000 	andeq	r0, r1, r0
 760:	00000054 	andeq	r0, r0, r4, asr r0
 764:	00000000 	andeq	r0, r0, r0
 768:	00880400 	addeq	r0, r8, r0, lsl #8
 76c:	00884c00 	addeq	r4, r8, r0, lsl #24
 770:	53000100 	movwpl	r0, #256	; 0x100
 774:	00008854 	andeq	r8, r0, r4, asr r8
 778:	0000885c 	andeq	r8, r0, ip, asr r8
 77c:	00530001 	subseq	r0, r3, r1
 780:	00000000 	andeq	r0, r0, r0
 784:	1c000000 	stcne	0, cr0, [r0], {-0}
 788:	24000088 	strcs	r0, [r0], #-136	; 0x88
 78c:	01000088 	smlabbeq	r0, r8, r0, r0
 790:	88245400 	stmdahi	r4!, {sl, ip, lr}
 794:	88280000 	stmdahi	r8!, {}	; <UNPREDICTABLE>
 798:	00030000 	andeq	r0, r3, r0
 79c:	289f5074 	ldmcs	pc, {r2, r4, r5, r6, ip, lr}	; <UNPREDICTABLE>
 7a0:	2c000088 	stccs	0, cr0, [r0], {136}	; 0x88
 7a4:	01000088 	smlabbeq	r0, r8, r0, r0
 7a8:	882c5400 	stmdahi	ip!, {sl, ip, lr}
 7ac:	88300000 	ldmdahi	r0!, {}	; <UNPREDICTABLE>
 7b0:	00040000 	andeq	r0, r4, r0
 7b4:	9f7fa974 	svcls	0x007fa974
	...
 7c0:	00008864 	andeq	r8, r0, r4, ror #16
 7c4:	00008898 	muleq	r0, r8, r8
 7c8:	98500001 	ldmdals	r0, {r0}^
 7cc:	ac000088 	stcge	0, cr0, [r0], {136}	; 0x88
 7d0:	01000089 	smlabbeq	r0, r9, r0, r0
 7d4:	89ac5700 	stmibhi	ip!, {r8, r9, sl, ip, lr}
 7d8:	89b00000 	ldmibhi	r0!, {}	; <UNPREDICTABLE>
 7dc:	00040000 	andeq	r0, r4, r0
 7e0:	9f5001f3 	svcls	0x005001f3
	...
 7ec:	00008864 	andeq	r8, r0, r4, ror #16
 7f0:	00008890 	muleq	r0, r0, r8
 7f4:	90510001 	subsls	r0, r1, r1
 7f8:	ac000088 	stcge	0, cr0, [r0], {136}	; 0x88
 7fc:	02000089 	andeq	r0, r0, #137	; 0x89
 800:	ac507b00 	mrrcge	11, 0, r7, r0, cr0
 804:	b0000089 	andlt	r0, r0, r9, lsl #1
 808:	02000089 	andeq	r0, r0, #137	; 0x89
 80c:	004c9100 	subeq	r9, ip, r0, lsl #2
 810:	00000000 	andeq	r0, r0, r0
 814:	64000000 	strvs	r0, [r0], #-0
 818:	88000088 	stmdahi	r0, {r3, r7}
 81c:	01000088 	smlabbeq	r0, r8, r0, r0
 820:	88885200 	stmhi	r8, {r9, ip, lr}
 824:	89ac0000 	stmibhi	ip!, {}	; <UNPREDICTABLE>
 828:	00010000 	andeq	r0, r1, r0
 82c:	00000059 	andeq	r0, r0, r9, asr r0
 830:	00000000 	andeq	r0, r0, r0
 834:	00886400 	addeq	r6, r8, r0, lsl #8
 838:	0088bc00 	addeq	fp, r8, r0, lsl #24
 83c:	53000100 	movwpl	r0, #256	; 0x100
 840:	000088bc 			; <UNDEFINED> instruction: 0x000088bc
 844:	000089b0 			; <UNDEFINED> instruction: 0x000089b0
 848:	01f30004 	mvnseq	r0, r4
 84c:	00009f53 	andeq	r9, r0, r3, asr pc
 850:	00000000 	andeq	r0, r0, r0
 854:	88800000 	stmhi	r0, {}	; <UNPREDICTABLE>
 858:	888c0000 	stmhi	ip, {}	; <UNPREDICTABLE>
 85c:	00050000 	andeq	r0, r5, r0
 860:	254f0072 	strbcs	r0, [pc, #-114]	; 7f6 <_start-0x780a>
 864:	00888c9f 	umulleq	r8, r8, pc, ip	; <UNPREDICTABLE>
 868:	0089b000 	addeq	fp, r9, r0
 86c:	f3000600 	vmax.u8	d0, d0, d0
 870:	254f5201 	strbcs	r5, [pc, #-513]	; 677 <_start-0x7989>
 874:	0000009f 	muleq	r0, pc, r0	; <UNPREDICTABLE>
 878:	00000000 	andeq	r0, r0, r0
 87c:	00888800 	addeq	r8, r8, r0, lsl #16
 880:	00889800 	addeq	r9, r8, r0, lsl #16
 884:	56000100 	strpl	r0, [r0], -r0, lsl #2
 888:	00008898 	muleq	r0, r8, r8
 88c:	00008924 	andeq	r8, r0, r4, lsr #18
 890:	24510001 	ldrbcs	r0, [r1], #-1
 894:	ac000089 	stcge	0, cr0, [r0], {137}	; 0x89
 898:	01000089 	smlabbeq	r0, r9, r0, r0
 89c:	00005600 	andeq	r5, r0, r0, lsl #12
 8a0:	00000000 	andeq	r0, r0, r0
 8a4:	88b80000 	ldmhi	r8!, {}	; <UNPREDICTABLE>
 8a8:	88bc0000 	ldmhi	ip!, {}	; <UNPREDICTABLE>
 8ac:	00060000 	andeq	r0, r6, r0
 8b0:	00710073 	rsbseq	r0, r1, r3, ror r0
 8b4:	88bc9f1c 	ldmhi	ip!, {r2, r3, r4, r8, r9, sl, fp, ip, pc}
 8b8:	89380000 	ldmdbhi	r8!, {}	; <UNPREDICTABLE>
 8bc:	00010000 	andeq	r0, r1, r0
 8c0:	00000053 	andeq	r0, r0, r3, asr r0
 8c4:	00000000 	andeq	r0, r0, r0
 8c8:	0088c000 	addeq	ip, r8, r0
 8cc:	00890800 	addeq	r0, r9, r0, lsl #16
 8d0:	30000200 	andcc	r0, r0, r0, lsl #4
 8d4:	0089089f 	umulleq	r0, r9, pc, r8	; <UNPREDICTABLE>
 8d8:	0089ac00 	addeq	sl, r9, r0, lsl #24
 8dc:	54000100 	strpl	r0, [r0], #-256	; 0x100
 8e0:	000089ac 	andeq	r8, r0, ip, lsr #19
 8e4:	000089b0 			; <UNDEFINED> instruction: 0x000089b0
 8e8:	00500001 	subseq	r0, r0, r1
 8ec:	00000000 	andeq	r0, r0, r0
 8f0:	88000000 	stmdahi	r0, {}	; <UNPREDICTABLE>
 8f4:	98000088 	stmdals	r0, {r3, r7}
 8f8:	01000088 	smlabbeq	r0, r8, r0, r0
 8fc:	88985900 	ldmhi	r8, {r8, fp, ip, lr}
 900:	88a40000 	stmiahi	r4!, {}	; <UNPREDICTABLE>
 904:	00010000 	andeq	r0, r1, r0
 908:	0088a852 	addeq	sl, r8, r2, asr r8
 90c:	0088d000 	addeq	sp, r8, r0
 910:	52000100 	andpl	r0, r0, #0, 2
 914:	000088e8 	andeq	r8, r0, r8, ror #17
 918:	000088f0 	strdeq	r8, [r0], -r0
 91c:	00520001 	subseq	r0, r2, r1
 920:	00000000 	andeq	r0, r0, r0
 924:	08000000 	stmdaeq	r0, {}	; <UNPREDICTABLE>
 928:	38000089 	stmdacc	r0, {r0, r3, r7}
 92c:	01000089 	smlabbeq	r0, r9, r0, r0
 930:	00005200 	andeq	r5, r0, r0, lsl #4
 934:	00000000 	andeq	r0, r0, r0
 938:	89240000 	stmdbhi	r4!, {}	; <UNPREDICTABLE>
 93c:	89380000 	ldmdbhi	r8!, {}	; <UNPREDICTABLE>
 940:	00020000 	andeq	r0, r2, r0
 944:	89389f30 	ldmdbhi	r8!, {r4, r5, r8, r9, sl, fp, ip, pc}
 948:	89ac0000 	stmibhi	ip!, {}	; <UNPREDICTABLE>
 94c:	00010000 	andeq	r0, r1, r0
 950:	00000055 	andeq	r0, r0, r5, asr r0
 954:	00000000 	andeq	r0, r0, r0
 958:	0089b000 	addeq	fp, r9, r0
 95c:	0089dc00 	addeq	sp, r9, r0, lsl #24
 960:	50000100 	andpl	r0, r0, r0, lsl #2
 964:	000089dc 	ldrdeq	r8, [r0], -ip
 968:	000089e4 	andeq	r8, r0, r4, ror #19
 96c:	e4570001 	ldrb	r0, [r7], #-1
 970:	00000089 	andeq	r0, r0, r9, lsl #1
 974:	0100008a 	smlabbeq	r0, sl, r0, r0
 978:	8a005000 	bhi	14980 <__bss_end__+0xb668>
 97c:	8b880000 	blhi	fe200984 <__bss_end__+0xfe1f766c>
 980:	00010000 	andeq	r0, r1, r0
 984:	008b8857 	addeq	r8, fp, r7, asr r8
 988:	008b8c00 	addeq	r8, fp, r0, lsl #24
 98c:	50000100 	andpl	r0, r0, r0, lsl #2
 990:	00008b8c 	andeq	r8, r0, ip, lsl #23
 994:	00008b90 	muleq	r0, r0, fp
 998:	00570001 	subseq	r0, r7, r1
 99c:	00000000 	andeq	r0, r0, r0
 9a0:	b0000000 	andlt	r0, r0, r0
 9a4:	00000089 	andeq	r0, r0, r9, lsl #1
 9a8:	0100008a 	smlabbeq	r0, sl, r0, r0
 9ac:	8a005100 	bhi	14db4 <__bss_end__+0xba9c>
 9b0:	8b880000 	blhi	fe2009b8 <__bss_end__+0xfe1f76a0>
 9b4:	00010000 	andeq	r0, r1, r0
 9b8:	008b8858 	addeq	r8, fp, r8, asr r8
 9bc:	008b9000 	addeq	r9, fp, r0
 9c0:	51000100 	mrspl	r0, (UNDEF: 16)
	...
 9cc:	000089b0 			; <UNDEFINED> instruction: 0x000089b0
 9d0:	00008a00 	andeq	r8, r0, r0, lsl #20
 9d4:	00520001 	subseq	r0, r2, r1
 9d8:	8800008a 	stmdahi	r0, {r1, r3, r7}
 9dc:	0400008b 	streq	r0, [r0], #-139	; 0x8b
 9e0:	5201f300 	andpl	pc, r1, #0, 6
 9e4:	008b889f 	umulleq	r8, fp, pc, r8	; <UNPREDICTABLE>
 9e8:	008b9000 	addeq	r9, fp, r0
 9ec:	52000100 	andpl	r0, r0, #0, 2
	...
 9f8:	000089b0 			; <UNDEFINED> instruction: 0x000089b0
 9fc:	000089ec 	andeq	r8, r0, ip, ror #19
 a00:	f0530001 			; <UNDEFINED> instruction: 0xf0530001
 a04:	00000089 	andeq	r0, r0, r9, lsl #1
 a08:	0100008a 	smlabbeq	r0, sl, r0, r0
 a0c:	8b705300 	blhi	1c15614 <__bss_end__+0x1c0c2fc>
 a10:	8b780000 	blhi	1e00a18 <__bss_end__+0x1df7700>
 a14:	00010000 	andeq	r0, r1, r0
 a18:	008b8853 	addeq	r8, fp, r3, asr r8
 a1c:	008b9000 	addeq	r9, fp, r0
 a20:	53000100 	movwpl	r0, #256	; 0x100
	...
 a2c:	000089c8 	andeq	r8, r0, r8, asr #19
 a30:	00008a00 	andeq	r8, r0, r0, lsl #20
 a34:	9f300002 	svcls	0x00300002
 a38:	00008a00 	andeq	r8, r0, r0, lsl #20
 a3c:	00008b88 	andeq	r8, r0, r8, lsl #23
 a40:	88540001 	ldmdahi	r4, {r0}^
 a44:	9000008b 	andls	r0, r0, fp, lsl #1
 a48:	0200008b 	andeq	r0, r0, #139	; 0x8b
 a4c:	009f3000 	addseq	r3, pc, r0
 a50:	00000000 	andeq	r0, r0, r0
 a54:	c8000000 	stmdagt	r0, {}	; <UNPREDICTABLE>
 a58:	00000089 	andeq	r0, r0, r9, lsl #1
 a5c:	0100008a 	smlabbeq	r0, sl, r0, r0
 a60:	8a005200 	bhi	15268 <__bss_end__+0xbf50>
 a64:	8a280000 	bhi	a00a6c <__bss_end__+0x9f7754>
 a68:	00010000 	andeq	r0, r1, r0
 a6c:	008a2851 	addeq	r2, sl, r1, asr r8
 a70:	008a6000 	addeq	r6, sl, r0
 a74:	55000100 	strpl	r0, [r0, #-256]	; 0x100
 a78:	00008a60 	andeq	r8, r0, r0, ror #20
 a7c:	00008a8c 	andeq	r8, r0, ip, lsl #21
 a80:	8c520001 	mrrchi	0, 0, r0, r2, cr1
 a84:	9400008a 	strls	r0, [r0], #-138	; 0x8a
 a88:	0100008a 	smlabbeq	r0, sl, r0, r0
 a8c:	8a945500 	bhi	fe515e94 <__bss_end__+0xfe50cb7c>
 a90:	8a980000 	bhi	fe600a98 <__bss_end__+0xfe5f7780>
 a94:	00010000 	andeq	r0, r1, r0
 a98:	008a9852 	addeq	r9, sl, r2, asr r8
 a9c:	008b7000 	addeq	r7, fp, r0
 aa0:	55000100 	strpl	r0, [r0, #-256]	; 0x100
 aa4:	00008b70 	andeq	r8, r0, r0, ror fp
 aa8:	00008b74 	andeq	r8, r0, r4, ror fp
 aac:	74520001 	ldrbvc	r0, [r2], #-1
 ab0:	8800008b 	stmdahi	r0, {r0, r1, r3, r7}
 ab4:	0100008b 	smlabbeq	r0, fp, r0, r0
 ab8:	8b885100 	blhi	fe214ec0 <__bss_end__+0xfe20bba8>
 abc:	8b900000 	blhi	fe400ac4 <__bss_end__+0xfe3f77ac>
 ac0:	00010000 	andeq	r0, r1, r0
 ac4:	00000052 	andeq	r0, r0, r2, asr r0
 ac8:	00000000 	andeq	r0, r0, r0
 acc:	008a0000 	addeq	r0, sl, r0
 ad0:	008a1000 	addeq	r1, sl, r0
 ad4:	72000200 	andvc	r0, r0, #0, 4
 ad8:	008a1000 	addeq	r1, sl, r0
 adc:	008a2400 	addeq	r2, sl, r0, lsl #8
 ae0:	53000100 	movwpl	r0, #256	; 0x100
 ae4:	00008a24 	andeq	r8, r0, r4, lsr #20
 ae8:	00008a2c 	andeq	r8, r0, ip, lsr #20
 aec:	00720002 	rsbseq	r0, r2, r2
 af0:	00008a2c 	andeq	r8, r0, ip, lsr #20
 af4:	00008a3c 	andeq	r8, r0, ip, lsr sl
 af8:	01720002 	cmneq	r2, r2
 afc:	00008a3c 	andeq	r8, r0, ip, lsr sl
 b00:	00008a50 	andeq	r8, r0, r0, asr sl
 b04:	50510001 	subspl	r0, r1, r1
 b08:	5c00008a 	stcpl	0, cr0, [r0], {138}	; 0x8a
 b0c:	0200008a 	andeq	r0, r0, #138	; 0x8a
 b10:	64017200 	strvs	r7, [r1], #-512	; 0x200
 b14:	8800008a 	stmdahi	r0, {r1, r3, r7}
 b18:	0200008a 	andeq	r0, r0, #138	; 0x8a
 b1c:	88007500 	stmdahi	r0, {r8, sl, ip, sp, lr}
 b20:	8c00008a 	stchi	0, cr0, [r0], {138}	; 0x8a
 b24:	0200008a 	andeq	r0, r0, #138	; 0x8a
 b28:	8c7f7200 	lfmhi	f7, 2, [pc], #-0	; b30 <_start-0x74d0>
 b2c:	9400008a 	strls	r0, [r0], #-138	; 0x8a
 b30:	0200008a 	andeq	r0, r0, #138	; 0x8a
 b34:	94017200 	strls	r7, [r1], #-512	; 0x200
 b38:	9800008a 	stmdals	r0, {r1, r3, r7}
 b3c:	0200008a 	andeq	r0, r0, #138	; 0x8a
 b40:	98007500 	stmdals	r0, {r8, sl, ip, sp, lr}
 b44:	1c00008a 	stcne	0, cr0, [r0], {138}	; 0x8a
 b48:	0100008b 	smlabbeq	r0, fp, r0, r0
 b4c:	8b2c5100 	blhi	b14f54 <__bss_end__+0xb0bc3c>
 b50:	8b3c0000 	blhi	f00b58 <__bss_end__+0xef7840>
 b54:	00010000 	andeq	r0, r1, r0
 b58:	008b4c51 	addeq	r4, fp, r1, asr ip
 b5c:	008b5c00 	addeq	r5, fp, r0, lsl #24
 b60:	51000100 	mrspl	r0, (UNDEF: 16)
 b64:	00008b6c 	andeq	r8, r0, ip, ror #22
 b68:	00008b70 	andeq	r8, r0, r0, ror fp
 b6c:	78510001 	ldmdavc	r1, {r0}^
 b70:	8800008b 	stmdahi	r0, {r0, r1, r3, r7}
 b74:	0200008b 	andeq	r0, r0, #139	; 0x8b
 b78:	00007200 	andeq	r7, r0, r0, lsl #4
 b7c:	00000000 	andeq	r0, r0, r0
 b80:	a8000000 	stmdage	r0, {}	; <UNPREDICTABLE>
 b84:	e000008a 	and	r0, r0, sl, lsl #1
 b88:	0100008a 	smlabbeq	r0, sl, r0, r0
 b8c:	00005300 	andeq	r5, r0, r0, lsl #6
 b90:	00000000 	andeq	r0, r0, r0
 b94:	8a500000 	bhi	1400b9c <__bss_end__+0x13f7884>
 b98:	8a5c0000 	bhi	1700ba0 <__bss_end__+0x16f7888>
 b9c:	00020000 	andeq	r0, r2, r0
 ba0:	8a5c9f30 	bhi	1728868 <__bss_end__+0x171f550>
 ba4:	8a7c0000 	bhi	1f00bac <__bss_end__+0x1ef7894>
 ba8:	00010000 	andeq	r0, r1, r0
 bac:	008a8053 	addeq	r8, sl, r3, asr r0
 bb0:	008a8c00 	addeq	r8, sl, r0, lsl #24
 bb4:	53000100 	movwpl	r0, #256	; 0x100
 bb8:	00008a8c 	andeq	r8, r0, ip, lsl #21
 bbc:	00008a94 	muleq	r0, r4, sl
 bc0:	9f300002 	svcls	0x00300002
 bc4:	00008a94 	muleq	r0, r4, sl
 bc8:	00008aa4 	andeq	r8, r0, r4, lsr #21
 bcc:	e0530001 	subs	r0, r3, r1
 bd0:	1f00008a 	svcne	0x0000008a
 bd4:	0100008b 	smlabbeq	r0, fp, r0, r0
 bd8:	8b2c5300 	blhi	b157e0 <__bss_end__+0xb0c4c8>
 bdc:	8b3f0000 	blhi	fc0be4 <__bss_end__+0xfb78cc>
 be0:	00010000 	andeq	r0, r1, r0
 be4:	008b4c53 	addeq	r4, fp, r3, asr ip
 be8:	008b5f00 	addeq	r5, fp, r0, lsl #30
 bec:	53000100 	movwpl	r0, #256	; 0x100
 bf0:	00008b6c 	andeq	r8, r0, ip, ror #22
 bf4:	00008b70 	andeq	r8, r0, r0, ror fp
 bf8:	00530001 	subseq	r0, r3, r1
 bfc:	00000000 	andeq	r0, r0, r0
 c00:	78000000 	stmdavc	r0, {}	; <UNPREDICTABLE>
 c04:	8c00008a 	stchi	0, cr0, [r0], {138}	; 0x8a
 c08:	0100008a 	smlabbeq	r0, sl, r0, r0
 c0c:	00005100 	andeq	r5, r0, r0, lsl #2
 c10:	00000000 	andeq	r0, r0, r0
 c14:	8ae80000 	bhi	ffa00c1c <__bss_end__+0xff9f7904>
 c18:	8b080000 	blhi	200c20 <__bss_end__+0x1f7908>
 c1c:	00010000 	andeq	r0, r1, r0
 c20:	008b0c52 	addeq	r0, fp, r2, asr ip
 c24:	008b1f00 	addeq	r1, fp, r0, lsl #30
 c28:	52000100 	andpl	r0, r0, #0, 2
 c2c:	00008b2c 	andeq	r8, r0, ip, lsr #22
 c30:	00008b3f 	andeq	r8, r0, pc, lsr fp
 c34:	4c520001 	mrrcmi	0, 0, r0, r2, cr1
 c38:	5f00008b 	svcpl	0x0000008b
 c3c:	0100008b 	smlabbeq	r0, fp, r0, r0
 c40:	8b6c5200 	blhi	1b15448 <__bss_end__+0x1b0c130>
 c44:	8b700000 	blhi	1c00c4c <__bss_end__+0x1bf7934>
 c48:	00010000 	andeq	r0, r1, r0
 c4c:	00000052 	andeq	r0, r0, r2, asr r0
 c50:	00000000 	andeq	r0, r0, r0
 c54:	008b9000 	addeq	r9, fp, r0
 c58:	008bb300 	addeq	fp, fp, r0, lsl #6
 c5c:	50000100 	andpl	r0, r0, r0, lsl #2
 c60:	00008bb3 			; <UNDEFINED> instruction: 0x00008bb3
 c64:	00008bbc 			; <UNDEFINED> instruction: 0x00008bbc
 c68:	01f30004 	mvnseq	r0, r4
 c6c:	00009f50 	andeq	r9, r0, r0, asr pc
 c70:	00000000 	andeq	r0, r0, r0
 c74:	8b900000 	blhi	fe400c7c <__bss_end__+0xfe3f7964>
 c78:	8bb30000 	blhi	fecc0c80 <__bss_end__+0xfecb7968>
 c7c:	00010000 	andeq	r0, r1, r0
 c80:	008bb351 	addeq	fp, fp, r1, asr r3
 c84:	008bbc00 	addeq	fp, fp, r0, lsl #24
 c88:	f3000400 	vshl.u8	d0, d0, d0
 c8c:	009f5101 	addseq	r5, pc, r1, lsl #2
	...
 c98:	0300008c 	movweq	r0, #140	; 0x8c
 c9c:	0200008c 	andeq	r0, r0, #140	; 0x8c
 ca0:	10007300 	andne	r7, r0, r0, lsl #6
 ca4:	2400008c 	strcs	r0, [r0], #-140	; 0x8c
 ca8:	0200008c 	andeq	r0, r0, #140	; 0x8c
 cac:	00007300 	andeq	r7, r0, r0, lsl #6
 cb0:	00000000 	andeq	r0, r0, r0
 cb4:	d4000000 	strle	r0, [r0], #-0
 cb8:	0000008b 	andeq	r0, r0, fp, lsl #1
 cbc:	0400008c 	streq	r0, [r0], #-140	; 0x8c
 cc0:	77d89100 	ldrbvc	r9, [r8, r0, lsl #2]
 cc4:	008c009f 	umulleq	r0, ip, pc, r0	; <UNPREDICTABLE>
 cc8:	008c0800 	addeq	r0, ip, r0, lsl #16
 ccc:	54000100 	strpl	r0, [r0], #-256	; 0x100
 cd0:	00008c08 	andeq	r8, r0, r8, lsl #24
 cd4:	00008c0c 	andeq	r8, r0, ip, lsl #24
 cd8:	0c530001 	mrrceq	0, 0, r0, r3, cr1
 cdc:	2400008c 	strcs	r0, [r0], #-140	; 0x8c
 ce0:	0100008c 	smlabbeq	r0, ip, r0, r0
 ce4:	00005400 	andeq	r5, r0, r0, lsl #8
 ce8:	00000000 	andeq	r0, r0, r0
 cec:	8bf40000 	blhi	ffd00cf4 <__bss_end__+0xffcf79dc>
 cf0:	8c000000 	stchi	0, cr0, [r0], {-0}
 cf4:	00010000 	andeq	r0, r1, r0
 cf8:	008c0050 	addeq	r0, ip, r0, asr r0
 cfc:	008c2400 	addeq	r2, ip, r0, lsl #8
 d00:	55000100 	strpl	r0, [r0, #-256]	; 0x100
	...
 d0c:	00008cbc 			; <UNDEFINED> instruction: 0x00008cbc
 d10:	00008cd8 	ldrdeq	r8, [r0], -r8	; <UNPREDICTABLE>
 d14:	d8500001 	ldmdale	r0, {r0}^
 d18:	fc00008c 	stc2	0, cr0, [r0], {140}	; 0x8c
 d1c:	0100008c 	smlabbeq	r0, ip, r0, r0
 d20:	00005400 	andeq	r5, r0, r0, lsl #8
 d24:	00000000 	andeq	r0, r0, r0
 d28:	8d200000 	stchi	0, cr0, [r0, #-0]
 d2c:	8d480000 	stclhi	0, cr0, [r8, #-0]
 d30:	00010000 	andeq	r0, r1, r0
 d34:	008d4850 	addeq	r4, sp, r0, asr r8
 d38:	008d5000 	addeq	r5, sp, r0
 d3c:	54000100 	strpl	r0, [r0], #-256	; 0x100
 d40:	00008d50 	andeq	r8, r0, r0, asr sp
 d44:	00008d88 	andeq	r8, r0, r8, lsl #27
 d48:	01f30004 	mvnseq	r0, r4
 d4c:	00009f50 	andeq	r9, r0, r0, asr pc
 d50:	00000000 	andeq	r0, r0, r0
 d54:	8d200000 	stchi	0, cr0, [r0, #-0]
 d58:	8d3c0000 	ldchi	0, cr0, [ip, #-0]
 d5c:	00010000 	andeq	r0, r1, r0
 d60:	008d3c51 	addeq	r3, sp, r1, asr ip
 d64:	008d8800 	addeq	r8, sp, r0, lsl #16
 d68:	f3000400 	vshl.u8	d0, d0, d0
 d6c:	009f5101 	addseq	r5, pc, r1, lsl #2
 d70:	00000000 	andeq	r0, r0, r0
 d74:	88000000 	stmdahi	r0, {}	; <UNPREDICTABLE>
 d78:	a300008d 	movwge	r0, #141	; 0x8d
 d7c:	0100008d 	smlabbeq	r0, sp, r0, r0
 d80:	8da35000 	stchi	0, cr5, [r3]
 d84:	8da80000 	stchi	0, cr0, [r8]
 d88:	00040000 	andeq	r0, r4, r0
 d8c:	9f5001f3 	svcls	0x005001f3
	...
 d98:	00008da8 	andeq	r8, r0, r8, lsr #27
 d9c:	00008dbb 			; <UNDEFINED> instruction: 0x00008dbb
 da0:	bb500001 	bllt	1400dac <__bss_end__+0x13f7a94>
 da4:	c000008d 	andgt	r0, r0, sp, lsl #1
 da8:	0400008d 	streq	r0, [r0], #-141	; 0x8d
 dac:	5001f300 	andpl	pc, r1, r0, lsl #6
 db0:	0000009f 	muleq	r0, pc, r0	; <UNPREDICTABLE>
 db4:	00000000 	andeq	r0, r0, r0
	...

Disassembly of section .debug_ranges:

00000000 <.debug_ranges>:
   0:	00000134 	andeq	r0, r0, r4, lsr r1
   4:	0000013c 	andeq	r0, r0, ip, lsr r1
   8:	00000140 	andeq	r0, r0, r0, asr #2
   c:	0000017c 	andeq	r0, r0, ip, ror r1
	...
  18:	000083f4 	strdeq	r8, [r0], -r4
  1c:	00008404 	andeq	r8, r0, r4, lsl #8
  20:	00008404 	andeq	r8, r0, r4, lsl #8
  24:	00008468 	andeq	r8, r0, r8, ror #8
  28:	00008468 	andeq	r8, r0, r8, ror #8
  2c:	000084c0 	andeq	r8, r0, r0, asr #9
  30:	000084c0 	andeq	r8, r0, r0, asr #9
  34:	000084d8 	ldrdeq	r8, [r0], -r8	; <UNPREDICTABLE>
  38:	000084d8 	ldrdeq	r8, [r0], -r8	; <UNPREDICTABLE>
  3c:	000084f0 	strdeq	r8, [r0], -r0
  40:	000084f0 	strdeq	r8, [r0], -r0
  44:	00008550 	andeq	r8, r0, r0, asr r5
  48:	00008550 	andeq	r8, r0, r0, asr r5
  4c:	00008598 	muleq	r0, r8, r5
	...
  58:	00008598 	muleq	r0, r8, r5
  5c:	000085a8 	andeq	r8, r0, r8, lsr #11
  60:	000085a8 	andeq	r8, r0, r8, lsr #11
  64:	000085c4 	andeq	r8, r0, r4, asr #11
  68:	000085c4 	andeq	r8, r0, r4, asr #11
  6c:	000085f0 	strdeq	r8, [r0], -r0
  70:	000085f0 	strdeq	r8, [r0], -r0
  74:	00008624 	andeq	r8, r0, r4, lsr #12
  78:	00008624 	andeq	r8, r0, r4, lsr #12
  7c:	00008658 	andeq	r8, r0, r8, asr r6
  80:	00008658 	andeq	r8, r0, r8, asr r6
  84:	00008678 	andeq	r8, r0, r8, ror r6
	...
  90:	000086d4 	ldrdeq	r8, [r0], -r4
  94:	000086d8 	ldrdeq	r8, [r0], -r8	; <UNPREDICTABLE>
  98:	000086dc 	ldrdeq	r8, [r0], -ip
  9c:	000086f0 	strdeq	r8, [r0], -r0
	...
  a8:	00008700 	andeq	r8, r0, r0, lsl #14
  ac:	00008704 	andeq	r8, r0, r4, lsl #14
  b0:	00008708 	andeq	r8, r0, r8, lsl #14
  b4:	00008730 	andeq	r8, r0, r0, lsr r7
	...
  c0:	0000879c 	muleq	r0, ip, r7
  c4:	000087a0 	andeq	r8, r0, r0, lsr #15
  c8:	000087a4 	andeq	r8, r0, r4, lsr #15
  cc:	000087b8 			; <UNDEFINED> instruction: 0x000087b8
	...
  d8:	000087c8 	andeq	r8, r0, r8, asr #15
  dc:	000087cc 	andeq	r8, r0, ip, asr #15
  e0:	000087d0 	ldrdeq	r8, [r0], -r0
  e4:	000087f8 	strdeq	r8, [r0], -r8	; <UNPREDICTABLE>
	...
  f0:	000087fc 	strdeq	r8, [r0], -ip
  f4:	00008804 	andeq	r8, r0, r4, lsl #16
  f8:	0000880c 	andeq	r8, r0, ip, lsl #16
  fc:	00008830 	andeq	r8, r0, r0, lsr r8
	...
 108:	00008888 	andeq	r8, r0, r8, lsl #17
 10c:	0000888c 	andeq	r8, r0, ip, lsl #17
 110:	00008890 	muleq	r0, r0, r8
 114:	000088b0 			; <UNDEFINED> instruction: 0x000088b0
	...
 120:	00008678 	andeq	r8, r0, r8, ror r6
 124:	0000868c 	andeq	r8, r0, ip, lsl #13
 128:	0000868c 	andeq	r8, r0, ip, lsl #13
 12c:	000086c4 	andeq	r8, r0, r4, asr #13
 130:	000086c4 	andeq	r8, r0, r4, asr #13
 134:	0000878c 	andeq	r8, r0, ip, lsl #15
 138:	0000878c 	andeq	r8, r0, ip, lsl #15
 13c:	00008864 	andeq	r8, r0, r4, ror #16
 140:	00008864 	andeq	r8, r0, r4, ror #16
 144:	000089b0 			; <UNDEFINED> instruction: 0x000089b0
 148:	000089b0 			; <UNDEFINED> instruction: 0x000089b0
 14c:	00008b90 	muleq	r0, r0, fp
 150:	00008b90 	muleq	r0, r0, fp
 154:	00008bbc 			; <UNDEFINED> instruction: 0x00008bbc
 158:	00008bbc 			; <UNDEFINED> instruction: 0x00008bbc
 15c:	00008c24 	andeq	r8, r0, r4, lsr #24
	...
 168:	00008c24 	andeq	r8, r0, r4, lsr #24
 16c:	00008c8c 	andeq	r8, r0, ip, lsl #25
 170:	00008c8c 	andeq	r8, r0, ip, lsl #25
 174:	00008cbc 			; <UNDEFINED> instruction: 0x00008cbc
 178:	00008cbc 			; <UNDEFINED> instruction: 0x00008cbc
 17c:	00008cfc 	strdeq	r8, [r0], -ip
 180:	00008cfc 	strdeq	r8, [r0], -ip
 184:	00008d20 	andeq	r8, r0, r0, lsr #26
	...
 190:	00008d20 	andeq	r8, r0, r0, lsr #26
 194:	00008d88 	andeq	r8, r0, r8, lsl #27
 198:	00008d88 	andeq	r8, r0, r8, lsl #27
 19c:	00008da8 	andeq	r8, r0, r8, lsr #27
 1a0:	00008da8 	andeq	r8, r0, r8, lsr #27
 1a4:	00008dc0 	andeq	r8, r0, r0, asr #27
	...
