
pwm-sine.elf:     file format elf32-littlearm


Disassembly of section .text:

00008000 <_start>:
    8000:	e3a0d302 	mov	sp, #134217728	; 0x8000000
    8004:	e3a0b000 	mov	fp, #0
    8008:	eb00003a 	bl	80f8 <_cstart>

0000800c <hang>:
    800c:	eafffffe 	b	800c <hang>

00008010 <main>:
    8010:	e92d4008 	push	{r3, lr}
    8014:	e28f10a4 	add	r1, pc, #164	; 0xa4
    8018:	e8910003 	ldm	r1, {r0, r1}
    801c:	eb00016a 	bl	85cc <sine>
    8020:	e3a02000 	mov	r2, #0
    8024:	e59f30ac 	ldr	r3, [pc, #172]	; 80d8 <main+0xc8>
    8028:	eb0005dd 	bl	97a4 <__aeabi_dmul>
    802c:	eb000754 	bl	9d84 <__aeabi_d2iz>
    8030:	e1a01000 	mov	r1, r0
    8034:	e59f00a0 	ldr	r0, [pc, #160]	; 80dc <main+0xcc>
    8038:	eb0003b8 	bl	8f20 <printf>
    803c:	e28f1084 	add	r1, pc, #132	; 0x84
    8040:	e8910003 	ldm	r1, {r0, r1}
    8044:	eb000160 	bl	85cc <sine>
    8048:	e3a02000 	mov	r2, #0
    804c:	e59f3084 	ldr	r3, [pc, #132]	; 80d8 <main+0xc8>
    8050:	eb0005d3 	bl	97a4 <__aeabi_dmul>
    8054:	eb00074a 	bl	9d84 <__aeabi_d2iz>
    8058:	e1a01000 	mov	r1, r0
    805c:	e59f007c 	ldr	r0, [pc, #124]	; 80e0 <main+0xd0>
    8060:	eb0003ae 	bl	8f20 <printf>
    8064:	e3a00000 	mov	r0, #0
    8068:	e59f1074 	ldr	r1, [pc, #116]	; 80e4 <main+0xd4>
    806c:	eb000156 	bl	85cc <sine>
    8070:	e3a02000 	mov	r2, #0
    8074:	e59f305c 	ldr	r3, [pc, #92]	; 80d8 <main+0xc8>
    8078:	eb0005c9 	bl	97a4 <__aeabi_dmul>
    807c:	eb000740 	bl	9d84 <__aeabi_d2iz>
    8080:	e1a01000 	mov	r1, r0
    8084:	e59f005c 	ldr	r0, [pc, #92]	; 80e8 <main+0xd8>
    8088:	eb0003a4 	bl	8f20 <printf>
    808c:	e28f103c 	add	r1, pc, #60	; 0x3c
    8090:	e8910003 	ldm	r1, {r0, r1}
    8094:	eb00014c 	bl	85cc <sine>
    8098:	e3a02000 	mov	r2, #0
    809c:	e59f3048 	ldr	r3, [pc, #72]	; 80ec <main+0xdc>
    80a0:	eb0005bf 	bl	97a4 <__aeabi_dmul>
    80a4:	eb000736 	bl	9d84 <__aeabi_d2iz>
    80a8:	e1a01000 	mov	r1, r0
    80ac:	e59f003c 	ldr	r0, [pc, #60]	; 80f0 <main+0xe0>
    80b0:	eb00039a 	bl	8f20 <printf>
    80b4:	e8bd4008 	pop	{r3, lr}
    80b8:	e12fff1e 	bx	lr
    80bc:	e1a00000 	nop			; (mov r0, r0)
    80c0:	66666666 	strbtvs	r6, [r6], -r6, ror #12
    80c4:	40126666 	andsmi	r6, r2, r6, ror #12
    80c8:	51eb851f 	mvnpl	r8, pc, lsl r5
    80cc:	40091eb8 			; <UNDEFINED> instruction: 0x40091eb8
    80d0:	9999999a 	ldmibls	r9, {r1, r3, r4, r7, r8, fp, ip, pc}
    80d4:	3fc99999 	svccc	0x00c99999
    80d8:	408f4000 	addmi	r4, pc, r0
    80dc:	00009ef8 	strdeq	r9, [r0], -r8
    80e0:	00009f0c 	andeq	r9, r0, ip, lsl #30
    80e4:	3ff80000 	svccc	0x00f80000
    80e8:	00009f20 	andeq	r9, r0, r0, lsr #30
    80ec:	40f86a00 	rscsmi	r6, r8, r0, lsl #20
    80f0:	00009f34 	andeq	r9, r0, r4, lsr pc
    80f4:	e1a00000 	nop			; (mov r0, r0)

000080f8 <_cstart>:
    80f8:	e92d4008 	push	{r3, lr}
    80fc:	e59f3024 	ldr	r3, [pc, #36]	; 8128 <_cstart+0x30>
    8100:	e59f2024 	ldr	r2, [pc, #36]	; 812c <_cstart+0x34>
    8104:	e3a01000 	mov	r1, #0
    8108:	ea000001 	b	8114 <_cstart+0x1c>
    810c:	e5831000 	str	r1, [r3]
    8110:	e2833004 	add	r3, r3, #4
    8114:	e1530002 	cmp	r3, r2
    8118:	3afffffb 	bcc	810c <_cstart+0x14>
    811c:	ebffffbb 	bl	8010 <main>
    8120:	e8bd4008 	pop	{r3, lr}
    8124:	e12fff1e 	bx	lr
    8128:	00009f58 	andeq	r9, r0, r8, asr pc
    812c:	0000a258 	andeq	sl, r0, r8, asr r2

00008130 <audio_set_clock>:
    8130:	e92d4038 	push	{r3, r4, r5, lr}
    8134:	e1a04600 	lsl	r4, r0, #12
    8138:	e59f006c 	ldr	r0, [pc, #108]	; 81ac <audio_set_clock+0x7c>
    813c:	e1a01004 	mov	r1, r4
    8140:	eb00044a 	bl	9270 <__aeabi_uidiv>
    8144:	e1a05000 	mov	r5, r0
    8148:	e0000495 	mul	r0, r5, r4
    814c:	e2600749 	rsb	r0, r0, #19136512	; 0x1240000
    8150:	e2800b3e 	add	r0, r0, #63488	; 0xf800
    8154:	e1a01624 	lsr	r1, r4, #12
    8158:	eb000444 	bl	9270 <__aeabi_uidiv>
    815c:	e2452001 	sub	r2, r5, #1
    8160:	e59f3048 	ldr	r3, [pc, #72]	; 81b0 <audio_set_clock+0x80>
    8164:	e1520003 	cmp	r2, r3
    8168:	8a00000a 	bhi	8198 <audio_set_clock+0x68>
    816c:	e3500a01 	cmp	r0, #4096	; 0x1000
    8170:	2a00000a 	bcs	81a0 <audio_set_clock+0x70>
    8174:	e59f3038 	ldr	r3, [pc, #56]	; 81b4 <audio_set_clock+0x84>
    8178:	e5933000 	ldr	r3, [r3]
    817c:	e59f2034 	ldr	r2, [pc, #52]	; 81b8 <audio_set_clock+0x88>
    8180:	e58320a0 	str	r2, [r3, #160]	; 0xa0
    8184:	e1800605 	orr	r0, r0, r5, lsl #12
    8188:	e380045a 	orr	r0, r0, #1509949440	; 0x5a000000
    818c:	e58300a4 	str	r0, [r3, #164]	; 0xa4
    8190:	e3a00001 	mov	r0, #1
    8194:	ea000002 	b	81a4 <audio_set_clock+0x74>
    8198:	e3a00000 	mov	r0, #0
    819c:	ea000000 	b	81a4 <audio_set_clock+0x74>
    81a0:	e3a00000 	mov	r0, #0
    81a4:	e8bd4038 	pop	{r3, r4, r5, lr}
    81a8:	e12fff1e 	bx	lr
    81ac:	0124f800 	msreq	CPSR_s, r0, lsl #16
    81b0:	00000ffe 	strdeq	r0, [r0], -lr
    81b4:	00009de0 	andeq	r9, r0, r0, ror #27
    81b8:	5a000020 	bpl	8240 <audio_send_tone+0x84>

000081bc <audio_send_tone>:
    81bc:	e92d47f0 	push	{r4, r5, r6, r7, r8, r9, sl, lr}
    81c0:	e24dd008 	sub	sp, sp, #8
    81c4:	e28d3008 	add	r3, sp, #8
    81c8:	e9030003 	stmdb	r3, {r0, r1}
    81cc:	e1a09002 	mov	r9, r2
    81d0:	e1dd00b0 	ldrh	r0, [sp]
    81d4:	ebffffd5 	bl	8130 <audio_set_clock>
    81d8:	e3500000 	cmp	r0, #0
    81dc:	0a00002c 	beq	8294 <audio_send_tone+0xd8>
    81e0:	e59f40b8 	ldr	r4, [pc, #184]	; 82a0 <audio_send_tone+0xe4>
    81e4:	e5943000 	ldr	r3, [r4]
    81e8:	e59f20b4 	ldr	r2, [pc, #180]	; 82a4 <audio_send_tone+0xe8>
    81ec:	e58320a0 	str	r2, [r3, #160]	; 0xa0
    81f0:	e3a00e7d 	mov	r0, #2000	; 0x7d0
    81f4:	eb0001cb 	bl	8928 <delay_us>
    81f8:	e5943004 	ldr	r3, [r4, #4]
    81fc:	e3a08000 	mov	r8, #0
    8200:	e5838000 	str	r8, [r3]
    8204:	e3a00e7d 	mov	r0, #2000	; 0x7d0
    8208:	eb0001c6 	bl	8928 <delay_us>
    820c:	e5943004 	ldr	r3, [r4, #4]
    8210:	e3a02080 	mov	r2, #128	; 0x80
    8214:	e5832010 	str	r2, [r3, #16]
    8218:	e5832020 	str	r2, [r3, #32]
    821c:	e59f2084 	ldr	r2, [pc, #132]	; 82a8 <audio_send_tone+0xec>
    8220:	e5832000 	str	r2, [r3]
    8224:	e3a00e7d 	mov	r0, #2000	; 0x7d0
    8228:	eb0001be 	bl	8928 <delay_us>
    822c:	e1a04008 	mov	r4, r8
    8230:	e59f7068 	ldr	r7, [pc, #104]	; 82a0 <audio_send_tone+0xe4>
    8234:	e3a0a03c 	mov	sl, #60	; 0x3c
    8238:	ea000012 	b	8288 <audio_send_tone+0xcc>
    823c:	e5975004 	ldr	r5, [r7, #4]
    8240:	e5956004 	ldr	r6, [r5, #4]
    8244:	e3160001 	tst	r6, #1
    8248:	1a00000a 	bne	8278 <audio_send_tone+0xbc>
    824c:	e0873108 	add	r3, r7, r8, lsl #2
    8250:	e5930008 	ldr	r0, [r3, #8]
    8254:	e1a01009 	mov	r1, r9
    8258:	eb000404 	bl	9270 <__aeabi_uidiv>
    825c:	e5850018 	str	r0, [r5, #24]
    8260:	e2888001 	add	r8, r8, #1
    8264:	e1a03fc8 	asr	r3, r8, #31
    8268:	e1a03d23 	lsr	r3, r3, #26
    826c:	e0888003 	add	r8, r8, r3
    8270:	e208803f 	and	r8, r8, #63	; 0x3f
    8274:	e0638008 	rsb	r8, r3, r8
    8278:	e316003c 	tst	r6, #60	; 0x3c
    827c:	1585a004 	strne	sl, [r5, #4]
    8280:	e597310c 	ldr	r3, [r7, #268]	; 0x10c
    8284:	e0844003 	add	r4, r4, r3
    8288:	e59d3004 	ldr	r3, [sp, #4]
    828c:	e1540003 	cmp	r4, r3
    8290:	3affffe9 	bcc	823c <audio_send_tone+0x80>
    8294:	e28dd008 	add	sp, sp, #8
    8298:	e8bd47f0 	pop	{r4, r5, r6, r7, r8, r9, sl, lr}
    829c:	e12fff1e 	bx	lr
    82a0:	00009de0 	andeq	r9, r0, r0, ror #27
    82a4:	5a000611 	bpl	9af0 <__aeabi_ddiv+0xbc>
    82a8:	00002161 	andeq	r2, r0, r1, ror #2

000082ac <audio_init>:
    82ac:	e92d4038 	push	{r3, r4, r5, lr}
    82b0:	e59f3078 	ldr	r3, [pc, #120]	; 8330 <audio_init+0x84>
    82b4:	e5933110 	ldr	r3, [r3, #272]	; 0x110
    82b8:	e5932010 	ldr	r2, [r3, #16]
    82bc:	e3822004 	orr	r2, r2, #4
    82c0:	e5832010 	str	r2, [r3, #16]
    82c4:	e5932010 	ldr	r2, [r3, #16]
    82c8:	e3822802 	orr	r2, r2, #131072	; 0x20000
    82cc:	e5832010 	str	r2, [r3, #16]
    82d0:	e3a00e7d 	mov	r0, #2000	; 0x7d0
    82d4:	eb000193 	bl	8928 <delay_us>
    82d8:	e3a03000 	mov	r3, #0
    82dc:	e3a05040 	mov	r5, #64	; 0x40
    82e0:	e1a04003 	mov	r4, r3
    82e4:	e59fc048 	ldr	ip, [pc, #72]	; 8334 <audio_init+0x88>
    82e8:	e59f0048 	ldr	r0, [pc, #72]	; 8338 <audio_init+0x8c>
    82ec:	e59f1048 	ldr	r1, [pc, #72]	; 833c <audio_init+0x90>
    82f0:	ea00000a 	b	8320 <audio_init+0x74>
    82f4:	e353001f 	cmp	r3, #31
    82f8:	d1a02004 	movle	r2, r4
    82fc:	c1a02005 	movgt	r2, r5
    8300:	e78c2103 	str	r2, [ip, r3, lsl #2]
    8304:	e353001f 	cmp	r3, #31
    8308:	d1a02083 	lslle	r2, r3, #1
    830c:	c2632040 	rsbgt	r2, r3, #64	; 0x40
    8310:	c1a02082 	lslgt	r2, r2, #1
    8314:	e7802103 	str	r2, [r0, r3, lsl #2]
    8318:	e7813103 	str	r3, [r1, r3, lsl #2]
    831c:	e2833001 	add	r3, r3, #1
    8320:	e353003f 	cmp	r3, #63	; 0x3f
    8324:	dafffff2 	ble	82f4 <audio_init+0x48>
    8328:	e8bd4038 	pop	{r3, r4, r5, lr}
    832c:	e12fff1e 	bx	lr
    8330:	00009de0 	andeq	r9, r0, r0, ror #27
    8334:	00009f58 	andeq	r9, r0, r8, asr pc
    8338:	0000a158 	andeq	sl, r0, r8, asr r1
    833c:	0000a058 	andeq	sl, r0, r8, asr r0

00008340 <audio_send_1kHz>:
    8340:	e12fff1e 	bx	lr

00008344 <memcpy>:
    8344:	e3a03000 	mov	r3, #0
    8348:	ea000002 	b	8358 <memcpy+0x14>
    834c:	e7d1c003 	ldrb	ip, [r1, r3]
    8350:	e7c0c003 	strb	ip, [r0, r3]
    8354:	e2833001 	add	r3, r3, #1
    8358:	e1530002 	cmp	r3, r2
    835c:	3afffffa 	bcc	834c <memcpy+0x8>
    8360:	e12fff1e 	bx	lr

00008364 <play_song>:
    8364:	e92d40f8 	push	{r3, r4, r5, r6, r7, lr}
    8368:	e1a07000 	mov	r7, r0
    836c:	e1a05001 	mov	r5, r1
    8370:	e3a04000 	mov	r4, #0
    8374:	e3a06010 	mov	r6, #16
    8378:	ea000004 	b	8390 <play_song+0x2c>
    837c:	e0873184 	add	r3, r7, r4, lsl #3
    8380:	e8930003 	ldm	r3, {r0, r1}
    8384:	e1a02006 	mov	r2, r6
    8388:	ebffff8b 	bl	81bc <audio_send_tone>
    838c:	e2844001 	add	r4, r4, #1
    8390:	e1540005 	cmp	r4, r5
    8394:	bafffff8 	blt	837c <play_song+0x18>
    8398:	e8bd40f8 	pop	{r3, r4, r5, r6, r7, lr}
    839c:	e12fff1e 	bx	lr

000083a0 <getVolume>:
    83a0:	e92d4008 	push	{r3, lr}
    83a4:	eb00002c 	bl	845c <mcp3008_init>
    83a8:	e3a00000 	mov	r0, #0
    83ac:	eb000030 	bl	8474 <mcp3008_read>
    83b0:	eb0004bb 	bl	96a4 <__aeabi_ui2d>
    83b4:	e3a02000 	mov	r2, #0
    83b8:	e59f3038 	ldr	r3, [pc, #56]	; 83f8 <getVolume+0x58>
    83bc:	eb0004f8 	bl	97a4 <__aeabi_dmul>
    83c0:	e3a02000 	mov	r2, #0
    83c4:	e59f3030 	ldr	r3, [pc, #48]	; 83fc <getVolume+0x5c>
    83c8:	eb0004f5 	bl	97a4 <__aeabi_dmul>
    83cc:	eb00066c 	bl	9d84 <__aeabi_d2iz>
    83d0:	e3a03000 	mov	r3, #0
    83d4:	e3a02001 	mov	r2, #1
    83d8:	ea000001 	b	83e4 <getVolume+0x44>
    83dc:	e1a02082 	lsl	r2, r2, #1
    83e0:	e2833001 	add	r3, r3, #1
    83e4:	e1530000 	cmp	r3, r0
    83e8:	bafffffb 	blt	83dc <getVolume+0x3c>
    83ec:	e1a00002 	mov	r0, r2
    83f0:	e8bd4008 	pop	{r3, lr}
    83f4:	e12fff1e 	bx	lr
    83f8:	3f500000 	svccc	0x00500000
    83fc:	40180000 	andsmi	r0, r8, r0

00008400 <getSpeed>:
    8400:	e92d4010 	push	{r4, lr}
    8404:	e1a04000 	mov	r4, r0
    8408:	eb000013 	bl	845c <mcp3008_init>
    840c:	e1a00004 	mov	r0, r4
    8410:	eb000017 	bl	8474 <mcp3008_read>
    8414:	eb0004a2 	bl	96a4 <__aeabi_ui2d>
    8418:	e3a02000 	mov	r2, #0
    841c:	e59f302c 	ldr	r3, [pc, #44]	; 8450 <getSpeed+0x50>
    8420:	eb0004df 	bl	97a4 <__aeabi_dmul>
    8424:	e3a02000 	mov	r2, #0
    8428:	e59f3024 	ldr	r3, [pc, #36]	; 8454 <getSpeed+0x54>
    842c:	eb0004dc 	bl	97a4 <__aeabi_dmul>
    8430:	eb000653 	bl	9d84 <__aeabi_d2iz>
    8434:	e2804001 	add	r4, r0, #1
    8438:	e59f0018 	ldr	r0, [pc, #24]	; 8458 <getSpeed+0x58>
    843c:	e1a01004 	mov	r1, r4
    8440:	eb0002b6 	bl	8f20 <printf>
    8444:	e1a00004 	mov	r0, r4
    8448:	e8bd4010 	pop	{r4, lr}
    844c:	e12fff1e 	bx	lr
    8450:	3f500000 	svccc	0x00500000
    8454:	40240000 	eormi	r0, r4, r0
    8458:	00009f48 	andeq	r9, r0, r8, asr #30

0000845c <mcp3008_init>:
    845c:	e92d4008 	push	{r3, lr}
    8460:	e3a00000 	mov	r0, #0
    8464:	e3a01b01 	mov	r1, #1024	; 0x400
    8468:	eb00032d 	bl	9124 <spi_init>
    846c:	e8bd4008 	pop	{r3, lr}
    8470:	e12fff1e 	bx	lr

00008474 <mcp3008_read>:
    8474:	e52de004 	push	{lr}		; (str lr, [sp, #-4]!)
    8478:	e24dd00c 	sub	sp, sp, #12
    847c:	e3a03001 	mov	r3, #1
    8480:	e5cd3004 	strb	r3, [sp, #4]
    8484:	e2000007 	and	r0, r0, #7
    8488:	e3e0307f 	mvn	r3, #127	; 0x7f
    848c:	e1830200 	orr	r0, r3, r0, lsl #4
    8490:	e5cd0005 	strb	r0, [sp, #5]
    8494:	e3a03000 	mov	r3, #0
    8498:	e5cd3006 	strb	r3, [sp, #6]
    849c:	e28d0004 	add	r0, sp, #4
    84a0:	e1a0100d 	mov	r1, sp
    84a4:	e3a02003 	mov	r2, #3
    84a8:	eb00034c 	bl	91e0 <spi_transfer>
    84ac:	e5dd0001 	ldrb	r0, [sp, #1]
    84b0:	e2000003 	and	r0, r0, #3
    84b4:	e5dd3002 	ldrb	r3, [sp, #2]
    84b8:	e0830400 	add	r0, r3, r0, lsl #8
    84bc:	e28dd00c 	add	sp, sp, #12
    84c0:	e49de004 	pop	{lr}		; (ldr lr, [sp], #4)
    84c4:	e12fff1e 	bx	lr

000084c8 <power>:
    84c8:	e92d47f0 	push	{r4, r5, r6, r7, r8, r9, sl, lr}
    84cc:	e1a08000 	mov	r8, r0
    84d0:	e1a09001 	mov	r9, r1
    84d4:	e1a06002 	mov	r6, r2
    84d8:	e1a07003 	mov	r7, r3
    84dc:	e3a0a000 	mov	sl, #0
    84e0:	e3a04000 	mov	r4, #0
    84e4:	e59f504c 	ldr	r5, [pc, #76]	; 8538 <power+0x70>
    84e8:	ea000007 	b	850c <power+0x44>
    84ec:	e1a00004 	mov	r0, r4
    84f0:	e1a01005 	mov	r1, r5
    84f4:	e1a02008 	mov	r2, r8
    84f8:	e1a03009 	mov	r3, r9
    84fc:	eb0004a8 	bl	97a4 <__aeabi_dmul>
    8500:	e1a04000 	mov	r4, r0
    8504:	e1a05001 	mov	r5, r1
    8508:	e28aa001 	add	sl, sl, #1
    850c:	e1a0000a 	mov	r0, sl
    8510:	eb00046c 	bl	96c8 <__aeabi_i2d>
    8514:	e1a02006 	mov	r2, r6
    8518:	e1a03007 	mov	r3, r7
    851c:	eb000600 	bl	9d24 <__aeabi_dcmplt>
    8520:	e3500000 	cmp	r0, #0
    8524:	1afffff0 	bne	84ec <power+0x24>
    8528:	e1a00004 	mov	r0, r4
    852c:	e1a01005 	mov	r1, r5
    8530:	e8bd47f0 	pop	{r4, r5, r6, r7, r8, r9, sl, lr}
    8534:	e12fff1e 	bx	lr
    8538:	3ff00000 	svccc	0x00f00000	; IMB

0000853c <float_mod>:
    853c:	e92d40f8 	push	{r3, r4, r5, r6, r7, lr}
    8540:	e1a04000 	mov	r4, r0
    8544:	e1a05001 	mov	r5, r1
    8548:	e1a06002 	mov	r6, r2
    854c:	e1a07003 	mov	r7, r3
    8550:	eb000537 	bl	9a34 <__aeabi_ddiv>
    8554:	eb00060a 	bl	9d84 <__aeabi_d2iz>
    8558:	e3100001 	tst	r0, #1
    855c:	1a00000b 	bne	8590 <float_mod+0x54>
    8560:	eb000458 	bl	96c8 <__aeabi_i2d>
    8564:	e1a02006 	mov	r2, r6
    8568:	e1a03007 	mov	r3, r7
    856c:	eb00048c 	bl	97a4 <__aeabi_dmul>
    8570:	e1a02000 	mov	r2, r0
    8574:	e1a03001 	mov	r3, r1
    8578:	e1a00004 	mov	r0, r4
    857c:	e1a01005 	mov	r1, r5
    8580:	eb000382 	bl	9390 <__aeabi_dsub>
    8584:	e1a02000 	mov	r2, r0
    8588:	e1a03001 	mov	r3, r1
    858c:	ea00000a 	b	85bc <float_mod+0x80>
    8590:	eb00044c 	bl	96c8 <__aeabi_i2d>
    8594:	e1a02006 	mov	r2, r6
    8598:	e1a03007 	mov	r3, r7
    859c:	eb000480 	bl	97a4 <__aeabi_dmul>
    85a0:	e1a02000 	mov	r2, r0
    85a4:	e1a03001 	mov	r3, r1
    85a8:	e1a00004 	mov	r0, r4
    85ac:	e1a01005 	mov	r1, r5
    85b0:	eb000376 	bl	9390 <__aeabi_dsub>
    85b4:	e1a02000 	mov	r2, r0
    85b8:	e2813102 	add	r3, r1, #-2147483648	; 0x80000000
    85bc:	e1a00002 	mov	r0, r2
    85c0:	e1a01003 	mov	r1, r3
    85c4:	e8bd40f8 	pop	{r3, r4, r5, r6, r7, lr}
    85c8:	e12fff1e 	bx	lr

000085cc <sine>:
    85cc:	e92d40f8 	push	{r3, r4, r5, r6, r7, lr}
    85d0:	e28f3e12 	add	r3, pc, #288	; 0x120
    85d4:	e893000c 	ldm	r3, {r2, r3}
    85d8:	ebffffd7 	bl	853c <float_mod>
    85dc:	e1a04000 	mov	r4, r0
    85e0:	e1a05001 	mov	r5, r1
    85e4:	e3a02000 	mov	r2, #0
    85e8:	e59f3110 	ldr	r3, [pc, #272]	; 8700 <sine+0x134>
    85ec:	ebffffb5 	bl	84c8 <power>
    85f0:	e3a02000 	mov	r2, #0
    85f4:	e59f3108 	ldr	r3, [pc, #264]	; 8704 <sine+0x138>
    85f8:	eb00050d 	bl	9a34 <__aeabi_ddiv>
    85fc:	e1a02000 	mov	r2, r0
    8600:	e1a03001 	mov	r3, r1
    8604:	e1a00004 	mov	r0, r4
    8608:	e1a01005 	mov	r1, r5
    860c:	eb00035f 	bl	9390 <__aeabi_dsub>
    8610:	e1a06000 	mov	r6, r0
    8614:	e1a07001 	mov	r7, r1
    8618:	e1a00004 	mov	r0, r4
    861c:	e1a01005 	mov	r1, r5
    8620:	e3a02000 	mov	r2, #0
    8624:	e59f30dc 	ldr	r3, [pc, #220]	; 8708 <sine+0x13c>
    8628:	ebffffa6 	bl	84c8 <power>
    862c:	e3a02000 	mov	r2, #0
    8630:	e59f30d4 	ldr	r3, [pc, #212]	; 870c <sine+0x140>
    8634:	eb0004fe 	bl	9a34 <__aeabi_ddiv>
    8638:	e1a02006 	mov	r2, r6
    863c:	e1a03007 	mov	r3, r7
    8640:	eb000353 	bl	9394 <__adddf3>
    8644:	e1a06000 	mov	r6, r0
    8648:	e1a07001 	mov	r7, r1
    864c:	e1a00004 	mov	r0, r4
    8650:	e1a01005 	mov	r1, r5
    8654:	e3a02000 	mov	r2, #0
    8658:	e59f30b0 	ldr	r3, [pc, #176]	; 8710 <sine+0x144>
    865c:	ebffff99 	bl	84c8 <power>
    8660:	e3a02000 	mov	r2, #0
    8664:	e59f30a8 	ldr	r3, [pc, #168]	; 8714 <sine+0x148>
    8668:	eb0004f1 	bl	9a34 <__aeabi_ddiv>
    866c:	e1a02000 	mov	r2, r0
    8670:	e1a03001 	mov	r3, r1
    8674:	e1a00006 	mov	r0, r6
    8678:	e1a01007 	mov	r1, r7
    867c:	eb000343 	bl	9390 <__aeabi_dsub>
    8680:	e1a06000 	mov	r6, r0
    8684:	e1a07001 	mov	r7, r1
    8688:	e1a00004 	mov	r0, r4
    868c:	e1a01005 	mov	r1, r5
    8690:	e3a02000 	mov	r2, #0
    8694:	e59f307c 	ldr	r3, [pc, #124]	; 8718 <sine+0x14c>
    8698:	ebffff8a 	bl	84c8 <power>
    869c:	e3a02000 	mov	r2, #0
    86a0:	e59f3074 	ldr	r3, [pc, #116]	; 871c <sine+0x150>
    86a4:	eb0004e2 	bl	9a34 <__aeabi_ddiv>
    86a8:	e1a02006 	mov	r2, r6
    86ac:	e1a03007 	mov	r3, r7
    86b0:	eb000337 	bl	9394 <__adddf3>
    86b4:	e1a06000 	mov	r6, r0
    86b8:	e1a07001 	mov	r7, r1
    86bc:	e1a00004 	mov	r0, r4
    86c0:	e1a01005 	mov	r1, r5
    86c4:	e3a02000 	mov	r2, #0
    86c8:	e59f3050 	ldr	r3, [pc, #80]	; 8720 <sine+0x154>
    86cc:	ebffff7d 	bl	84c8 <power>
    86d0:	e3a02000 	mov	r2, #0
    86d4:	e59f3048 	ldr	r3, [pc, #72]	; 8724 <sine+0x158>
    86d8:	eb0004d5 	bl	9a34 <__aeabi_ddiv>
    86dc:	e1a02000 	mov	r2, r0
    86e0:	e1a03001 	mov	r3, r1
    86e4:	e1a00006 	mov	r0, r6
    86e8:	e1a01007 	mov	r1, r7
    86ec:	eb000327 	bl	9390 <__aeabi_dsub>
    86f0:	e8bd40f8 	pop	{r3, r4, r5, r6, r7, lr}
    86f4:	e12fff1e 	bx	lr
    86f8:	4d12d84a 	ldcmi	8, cr13, [r2, #-296]	; 0xfffffed8
    86fc:	400921fb 	strdmi	r2, [r9], -fp
    8700:	40080000 	andmi	r0, r8, r0
    8704:	40180000 	andsmi	r0, r8, r0
    8708:	40140000 	andsmi	r0, r4, r0
    870c:	405e0000 	subsmi	r0, lr, r0
    8710:	401c0000 	andsmi	r0, ip, r0
    8714:	40b3b000 	adcsmi	fp, r3, r0
    8718:	40220000 	eormi	r0, r2, r0
    871c:	41162600 	tstmi	r6, r0, lsl #12
    8720:	40260000 	eormi	r0, r6, r0
    8724:	418308a8 	orrmi	r0, r3, r8, lsr #17

00008728 <PUT32>:
    8728:	e5801000 	str	r1, [r0]
    872c:	e12fff1e 	bx	lr

00008730 <PUT16>:
    8730:	e1c010b0 	strh	r1, [r0]
    8734:	e12fff1e 	bx	lr

00008738 <PUT8>:
    8738:	e5c01000 	strb	r1, [r0]
    873c:	e12fff1e 	bx	lr

00008740 <GET32>:
    8740:	e5900000 	ldr	r0, [r0]
    8744:	e12fff1e 	bx	lr

00008748 <GET16>:
    8748:	e1d000b0 	ldrh	r0, [r0]
    874c:	e12fff1e 	bx	lr

00008750 <GET8>:
    8750:	e5d00000 	ldrb	r0, [r0]
    8754:	e12fff1e 	bx	lr

00008758 <gpio_init>:
    8758:	e1a0c00d 	mov	ip, sp
    875c:	e92dd800 	push	{fp, ip, lr, pc}
    8760:	e24cb004 	sub	fp, ip, #4
    8764:	e89da800 	ldm	sp, {fp, sp, pc}

00008768 <gpio_set_function>:
    8768:	e1a0c00d 	mov	ip, sp
    876c:	e92dd810 	push	{r4, fp, ip, lr, pc}
    8770:	e24cb004 	sub	fp, ip, #4
    8774:	e3500035 	cmp	r0, #53	; 0x35
    8778:	889da810 	ldmhi	sp, {r4, fp, sp, pc}
    877c:	e3510007 	cmp	r1, #7
    8780:	889da810 	ldmhi	sp, {r4, fp, sp, pc}
    8784:	e59f303c 	ldr	r3, [pc, #60]	; 87c8 <gpio_set_function+0x60>
    8788:	e0832093 	umull	r2, r3, r3, r0
    878c:	e1a031a3 	lsr	r3, r3, #3
    8790:	e283c302 	add	ip, r3, #134217728	; 0x8000000
    8794:	e28cc702 	add	ip, ip, #524288	; 0x80000
    8798:	e1a0c10c 	lsl	ip, ip, #2
    879c:	e59c4000 	ldr	r4, [ip]
    87a0:	e0833103 	add	r3, r3, r3, lsl #2
    87a4:	e1a03083 	lsl	r3, r3, #1
    87a8:	e0632000 	rsb	r2, r3, r0
    87ac:	e0822082 	add	r2, r2, r2, lsl #1
    87b0:	e3a03007 	mov	r3, #7
    87b4:	e1c43213 	bic	r3, r4, r3, lsl r2
    87b8:	e2011007 	and	r1, r1, #7
    87bc:	e1832211 	orr	r2, r3, r1, lsl r2
    87c0:	e58c2000 	str	r2, [ip]
    87c4:	e89da810 	ldm	sp, {r4, fp, sp, pc}
    87c8:	cccccccd 	stclgt	12, cr12, [ip], {205}	; 0xcd

000087cc <gpio_get_function>:
    87cc:	e1a0c00d 	mov	ip, sp
    87d0:	e92dd800 	push	{fp, ip, lr, pc}
    87d4:	e24cb004 	sub	fp, ip, #4
    87d8:	e3500035 	cmp	r0, #53	; 0x35
    87dc:	8a00000d 	bhi	8818 <gpio_get_function+0x4c>
    87e0:	e59f3038 	ldr	r3, [pc, #56]	; 8820 <gpio_get_function+0x54>
    87e4:	e0832093 	umull	r2, r3, r3, r0
    87e8:	e1a031a3 	lsr	r3, r3, #3
    87ec:	e2832302 	add	r2, r3, #134217728	; 0x8000000
    87f0:	e2822702 	add	r2, r2, #524288	; 0x80000
    87f4:	e1a02102 	lsl	r2, r2, #2
    87f8:	e5921000 	ldr	r1, [r2]
    87fc:	e0833103 	add	r3, r3, r3, lsl #2
    8800:	e1a03083 	lsl	r3, r3, #1
    8804:	e0632000 	rsb	r2, r3, r0
    8808:	e0822082 	add	r2, r2, r2, lsl #1
    880c:	e1a00231 	lsr	r0, r1, r2
    8810:	e2000007 	and	r0, r0, #7
    8814:	e89da800 	ldm	sp, {fp, sp, pc}
    8818:	e3a00000 	mov	r0, #0
    881c:	e89da800 	ldm	sp, {fp, sp, pc}
    8820:	cccccccd 	stclgt	12, cr12, [ip], {205}	; 0xcd

00008824 <gpio_set_input>:
    8824:	e1a0c00d 	mov	ip, sp
    8828:	e92dd800 	push	{fp, ip, lr, pc}
    882c:	e24cb004 	sub	fp, ip, #4
    8830:	e3a01000 	mov	r1, #0
    8834:	ebffffcb 	bl	8768 <gpio_set_function>
    8838:	e89da800 	ldm	sp, {fp, sp, pc}

0000883c <gpio_set_output>:
    883c:	e1a0c00d 	mov	ip, sp
    8840:	e92dd800 	push	{fp, ip, lr, pc}
    8844:	e24cb004 	sub	fp, ip, #4
    8848:	e3a01001 	mov	r1, #1
    884c:	ebffffc5 	bl	8768 <gpio_set_function>
    8850:	e89da800 	ldm	sp, {fp, sp, pc}

00008854 <gpio_write>:
    8854:	e1a0c00d 	mov	ip, sp
    8858:	e92dd800 	push	{fp, ip, lr, pc}
    885c:	e24cb004 	sub	fp, ip, #4
    8860:	e3500035 	cmp	r0, #53	; 0x35
    8864:	889da800 	ldmhi	sp, {fp, sp, pc}
    8868:	e200301f 	and	r3, r0, #31
    886c:	e3510000 	cmp	r1, #0
    8870:	0a000006 	beq	8890 <gpio_write+0x3c>
    8874:	e59f2030 	ldr	r2, [pc, #48]	; 88ac <gpio_write+0x58>
    8878:	e08202a0 	add	r0, r2, r0, lsr #5
    887c:	e1a00100 	lsl	r0, r0, #2
    8880:	e3a02001 	mov	r2, #1
    8884:	e1a03312 	lsl	r3, r2, r3
    8888:	e5803000 	str	r3, [r0]
    888c:	e89da800 	ldm	sp, {fp, sp, pc}
    8890:	e59f2018 	ldr	r2, [pc, #24]	; 88b0 <gpio_write+0x5c>
    8894:	e08202a0 	add	r0, r2, r0, lsr #5
    8898:	e1a00100 	lsl	r0, r0, #2
    889c:	e3a02001 	mov	r2, #1
    88a0:	e1a03312 	lsl	r3, r2, r3
    88a4:	e5803000 	str	r3, [r0]
    88a8:	e89da800 	ldm	sp, {fp, sp, pc}
    88ac:	08080007 	stmdaeq	r8, {r0, r1, r2}
    88b0:	0808000a 	stmdaeq	r8, {r1, r3}

000088b4 <gpio_read>:
    88b4:	e1a0c00d 	mov	ip, sp
    88b8:	e92dd800 	push	{fp, ip, lr, pc}
    88bc:	e24cb004 	sub	fp, ip, #4
    88c0:	e3500035 	cmp	r0, #53	; 0x35
    88c4:	8a000009 	bhi	88f0 <gpio_read+0x3c>
    88c8:	e59f3028 	ldr	r3, [pc, #40]	; 88f8 <gpio_read+0x44>
    88cc:	e08332a0 	add	r3, r3, r0, lsr #5
    88d0:	e1a03103 	lsl	r3, r3, #2
    88d4:	e5933000 	ldr	r3, [r3]
    88d8:	e200001f 	and	r0, r0, #31
    88dc:	e3a02001 	mov	r2, #1
    88e0:	e0132012 	ands	r2, r3, r2, lsl r0
    88e4:	03a00000 	moveq	r0, #0
    88e8:	13a00001 	movne	r0, #1
    88ec:	e89da800 	ldm	sp, {fp, sp, pc}
    88f0:	e3a00000 	mov	r0, #0
    88f4:	e89da800 	ldm	sp, {fp, sp, pc}
    88f8:	0808000d 	stmdaeq	r8, {r0, r2, r3}

000088fc <timer_init>:
    88fc:	e1a0c00d 	mov	ip, sp
    8900:	e92dd800 	push	{fp, ip, lr, pc}
    8904:	e24cb004 	sub	fp, ip, #4
    8908:	e89da800 	ldm	sp, {fp, sp, pc}

0000890c <timer_get_time>:
    890c:	e1a0c00d 	mov	ip, sp
    8910:	e92dd800 	push	{fp, ip, lr, pc}
    8914:	e24cb004 	sub	fp, ip, #4
    8918:	e59f3004 	ldr	r3, [pc, #4]	; 8924 <timer_get_time+0x18>
    891c:	e5930004 	ldr	r0, [r3, #4]
    8920:	e89da800 	ldm	sp, {fp, sp, pc}
    8924:	20003000 	andcs	r3, r0, r0

00008928 <delay_us>:
    8928:	e1a0c00d 	mov	ip, sp
    892c:	e92dd830 	push	{r4, r5, fp, ip, lr, pc}
    8930:	e24cb004 	sub	fp, ip, #4
    8934:	e1a05000 	mov	r5, r0
    8938:	ebfffff3 	bl	890c <timer_get_time>
    893c:	e1a04000 	mov	r4, r0
    8940:	ebfffff1 	bl	890c <timer_get_time>
    8944:	e0640000 	rsb	r0, r4, r0
    8948:	e1500005 	cmp	r0, r5
    894c:	3afffffb 	bcc	8940 <delay_us+0x18>
    8950:	e89da830 	ldm	sp, {r4, r5, fp, sp, pc}

00008954 <delay_ms>:
    8954:	e1a0c00d 	mov	ip, sp
    8958:	e92dd878 	push	{r3, r4, r5, r6, fp, ip, lr, pc}
    895c:	e24cb004 	sub	fp, ip, #4
    8960:	e1a05000 	mov	r5, r0
    8964:	e3a04000 	mov	r4, #0
    8968:	e3a06ffa 	mov	r6, #1000	; 0x3e8
    896c:	ea000002 	b	897c <delay_ms+0x28>
    8970:	e1a00006 	mov	r0, r6
    8974:	ebffffeb 	bl	8928 <delay_us>
    8978:	e2844001 	add	r4, r4, #1
    897c:	e1540005 	cmp	r4, r5
    8980:	3afffffa 	bcc	8970 <delay_ms+0x1c>
    8984:	e89da878 	ldm	sp, {r3, r4, r5, r6, fp, sp, pc}

00008988 <delay>:
    8988:	e1a0c00d 	mov	ip, sp
    898c:	e92dd878 	push	{r3, r4, r5, r6, fp, ip, lr, pc}
    8990:	e24cb004 	sub	fp, ip, #4
    8994:	e1a05000 	mov	r5, r0
    8998:	e3a04000 	mov	r4, #0
    899c:	e3a06ffa 	mov	r6, #1000	; 0x3e8
    89a0:	ea000002 	b	89b0 <delay+0x28>
    89a4:	e1a00006 	mov	r0, r6
    89a8:	ebffffe9 	bl	8954 <delay_ms>
    89ac:	e2844001 	add	r4, r4, #1
    89b0:	e1540005 	cmp	r4, r5
    89b4:	3afffffa 	bcc	89a4 <delay+0x1c>
    89b8:	e89da878 	ldm	sp, {r3, r4, r5, r6, fp, sp, pc}

000089bc <until_us>:
    89bc:	e1a0c00d 	mov	ip, sp
    89c0:	e92dd818 	push	{r3, r4, fp, ip, lr, pc}
    89c4:	e24cb004 	sub	fp, ip, #4
    89c8:	e1a04000 	mov	r4, r0
    89cc:	ebffffce 	bl	890c <timer_get_time>
    89d0:	e1500004 	cmp	r0, r4
    89d4:	1afffffc 	bne	89cc <until_us+0x10>
    89d8:	e89da818 	ldm	sp, {r3, r4, fp, sp, pc}

000089dc <printf_init>:
    89dc:	e1a0c00d 	mov	ip, sp
    89e0:	e92dd800 	push	{fp, ip, lr, pc}
    89e4:	e24cb004 	sub	fp, ip, #4
    89e8:	eb000166 	bl	8f88 <uart_init>
    89ec:	e89da800 	ldm	sp, {fp, sp, pc}

000089f0 <reduceByTenPower>:
    89f0:	e1a0c00d 	mov	ip, sp
    89f4:	e92dd810 	push	{r4, fp, ip, lr, pc}
    89f8:	e24cb004 	sub	fp, ip, #4
    89fc:	e3a03000 	mov	r3, #0
    8a00:	e59fc01c 	ldr	ip, [pc, #28]	; 8a24 <reduceByTenPower+0x34>
    8a04:	ea000003 	b	8a18 <reduceByTenPower+0x28>
    8a08:	e0c2409c 	smull	r4, r2, ip, r0
    8a0c:	e1a00fc0 	asr	r0, r0, #31
    8a10:	e0600142 	rsb	r0, r0, r2, asr #2
    8a14:	e2833001 	add	r3, r3, #1
    8a18:	e1530001 	cmp	r3, r1
    8a1c:	bafffff9 	blt	8a08 <reduceByTenPower+0x18>
    8a20:	e89da810 	ldm	sp, {r4, fp, sp, pc}
    8a24:	66666667 	strbtvs	r6, [r6], -r7, ror #12

00008a28 <inttobin>:
    8a28:	e1a0c00d 	mov	ip, sp
    8a2c:	e92dd8f0 	push	{r4, r5, r6, r7, fp, ip, lr, pc}
    8a30:	e24cb004 	sub	fp, ip, #4
    8a34:	e1a05000 	mov	r5, r0
    8a38:	e1a04002 	mov	r4, r2
    8a3c:	e3a0c000 	mov	ip, #0
    8a40:	ea000001 	b	8a4c <inttobin+0x24>
    8a44:	e28cc001 	add	ip, ip, #1
    8a48:	e1a040a4 	lsr	r4, r4, #1
    8a4c:	e3540000 	cmp	r4, #0
    8a50:	1afffffb 	bne	8a44 <inttobin+0x1c>
    8a54:	e35c0000 	cmp	ip, #0
    8a58:	03a0c001 	moveq	ip, #1
    8a5c:	e053300c 	subs	r3, r3, ip
    8a60:	43a03000 	movmi	r3, #0
    8a64:	e3a04000 	mov	r4, #0
    8a68:	e1a00004 	mov	r0, r4
    8a6c:	e2416001 	sub	r6, r1, #1
    8a70:	e3a07030 	mov	r7, #48	; 0x30
    8a74:	ea000003 	b	8a88 <inttobin+0x60>
    8a78:	e1560000 	cmp	r6, r0
    8a7c:	c7c57000 	strbgt	r7, [r5, r0]
    8a80:	e2844001 	add	r4, r4, #1
    8a84:	e2800001 	add	r0, r0, #1
    8a88:	e1540003 	cmp	r4, r3
    8a8c:	bafffff9 	blt	8a78 <inttobin+0x50>
    8a90:	e3a03000 	mov	r3, #0
    8a94:	e2414001 	sub	r4, r1, #1
    8a98:	e24c7001 	sub	r7, ip, #1
    8a9c:	ea000008 	b	8ac4 <inttobin+0x9c>
    8aa0:	e1540000 	cmp	r4, r0
    8aa4:	da000004 	ble	8abc <inttobin+0x94>
    8aa8:	e0636007 	rsb	r6, r3, r7
    8aac:	e1a06632 	lsr	r6, r2, r6
    8ab0:	e2066001 	and	r6, r6, #1
    8ab4:	e2866030 	add	r6, r6, #48	; 0x30
    8ab8:	e7c56000 	strb	r6, [r5, r0]
    8abc:	e2833001 	add	r3, r3, #1
    8ac0:	e2800001 	add	r0, r0, #1
    8ac4:	e153000c 	cmp	r3, ip
    8ac8:	bafffff4 	blt	8aa0 <inttobin+0x78>
    8acc:	e1500001 	cmp	r0, r1
    8ad0:	aa000002 	bge	8ae0 <inttobin+0xb8>
    8ad4:	e3a03000 	mov	r3, #0
    8ad8:	e7c53000 	strb	r3, [r5, r0]
    8adc:	e89da8f0 	ldm	sp, {r4, r5, r6, r7, fp, sp, pc}
    8ae0:	e2411001 	sub	r1, r1, #1
    8ae4:	e3a03000 	mov	r3, #0
    8ae8:	e7c53001 	strb	r3, [r5, r1]
    8aec:	e89da8f0 	ldm	sp, {r4, r5, r6, r7, fp, sp, pc}

00008af0 <inttohex>:
    8af0:	e1a0c00d 	mov	ip, sp
    8af4:	e92dd8f0 	push	{r4, r5, r6, r7, fp, ip, lr, pc}
    8af8:	e24cb004 	sub	fp, ip, #4
    8afc:	e1a05000 	mov	r5, r0
    8b00:	e1a04002 	mov	r4, r2
    8b04:	e3a0c000 	mov	ip, #0
    8b08:	ea000001 	b	8b14 <inttohex+0x24>
    8b0c:	e28cc001 	add	ip, ip, #1
    8b10:	e1a04224 	lsr	r4, r4, #4
    8b14:	e3540000 	cmp	r4, #0
    8b18:	1afffffb 	bne	8b0c <inttohex+0x1c>
    8b1c:	e35c0000 	cmp	ip, #0
    8b20:	03a0c001 	moveq	ip, #1
    8b24:	e053300c 	subs	r3, r3, ip
    8b28:	43a03000 	movmi	r3, #0
    8b2c:	e3a04000 	mov	r4, #0
    8b30:	e1a00004 	mov	r0, r4
    8b34:	e2416001 	sub	r6, r1, #1
    8b38:	e3a07030 	mov	r7, #48	; 0x30
    8b3c:	ea000003 	b	8b50 <inttohex+0x60>
    8b40:	e1560000 	cmp	r6, r0
    8b44:	c7c57000 	strbgt	r7, [r5, r0]
    8b48:	e2844001 	add	r4, r4, #1
    8b4c:	e2800001 	add	r0, r0, #1
    8b50:	e1540003 	cmp	r4, r3
    8b54:	bafffff9 	blt	8b40 <inttohex+0x50>
    8b58:	e3a03000 	mov	r3, #0
    8b5c:	e2416001 	sub	r6, r1, #1
    8b60:	e24c7001 	sub	r7, ip, #1
    8b64:	ea00000c 	b	8b9c <inttohex+0xac>
    8b68:	e1560000 	cmp	r6, r0
    8b6c:	da000008 	ble	8b94 <inttohex+0xa4>
    8b70:	e0634007 	rsb	r4, r3, r7
    8b74:	e1a04104 	lsl	r4, r4, #2
    8b78:	e1a04432 	lsr	r4, r2, r4
    8b7c:	e204400f 	and	r4, r4, #15
    8b80:	e3540009 	cmp	r4, #9
    8b84:	d2844030 	addle	r4, r4, #48	; 0x30
    8b88:	d7c54000 	strble	r4, [r5, r0]
    8b8c:	c2844057 	addgt	r4, r4, #87	; 0x57
    8b90:	c7c54000 	strbgt	r4, [r5, r0]
    8b94:	e2833001 	add	r3, r3, #1
    8b98:	e2800001 	add	r0, r0, #1
    8b9c:	e153000c 	cmp	r3, ip
    8ba0:	bafffff0 	blt	8b68 <inttohex+0x78>
    8ba4:	e1500001 	cmp	r0, r1
    8ba8:	aa000002 	bge	8bb8 <inttohex+0xc8>
    8bac:	e3a03000 	mov	r3, #0
    8bb0:	e7c53000 	strb	r3, [r5, r0]
    8bb4:	e89da8f0 	ldm	sp, {r4, r5, r6, r7, fp, sp, pc}
    8bb8:	e2411001 	sub	r1, r1, #1
    8bbc:	e3a03000 	mov	r3, #0
    8bc0:	e7c53001 	strb	r3, [r5, r1]
    8bc4:	e89da8f0 	ldm	sp, {r4, r5, r6, r7, fp, sp, pc}

00008bc8 <inttodec>:
    8bc8:	e1a0c00d 	mov	ip, sp
    8bcc:	e92ddff0 	push	{r4, r5, r6, r7, r8, r9, sl, fp, ip, lr, pc}
    8bd0:	e24cb004 	sub	fp, ip, #4
    8bd4:	e24dd00c 	sub	sp, sp, #12
    8bd8:	e1a07000 	mov	r7, r0
    8bdc:	e50b1030 	str	r1, [fp, #-48]	; 0x30
    8be0:	e1a09002 	mov	r9, r2
    8be4:	e1b06fa2 	lsrs	r6, r2, #31
    8be8:	12629000 	rsbne	r9, r2, #0
    8bec:	e1a02009 	mov	r2, r9
    8bf0:	e1a01006 	mov	r1, r6
    8bf4:	e59fc114 	ldr	ip, [pc, #276]	; 8d10 <inttodec+0x148>
    8bf8:	ea000003 	b	8c0c <inttodec+0x44>
    8bfc:	e2811001 	add	r1, r1, #1
    8c00:	e0c0429c 	smull	r4, r0, ip, r2
    8c04:	e1a02fc2 	asr	r2, r2, #31
    8c08:	e0622140 	rsb	r2, r2, r0, asr #2
    8c0c:	e3520000 	cmp	r2, #0
    8c10:	1afffff9 	bne	8bfc <inttodec+0x34>
    8c14:	e3510000 	cmp	r1, #0
    8c18:	03a01001 	moveq	r1, #1
    8c1c:	e0533001 	subs	r3, r3, r1
    8c20:	43a03000 	movmi	r3, #0
    8c24:	e3560000 	cmp	r6, #0
    8c28:	0a000007 	beq	8c4c <inttodec+0x84>
    8c2c:	e51b4030 	ldr	r4, [fp, #-48]	; 0x30
    8c30:	e2442001 	sub	r2, r4, #1
    8c34:	e3520000 	cmp	r2, #0
    8c38:	da000005 	ble	8c54 <inttodec+0x8c>
    8c3c:	e3a0202d 	mov	r2, #45	; 0x2d
    8c40:	e5c72000 	strb	r2, [r7]
    8c44:	e3a04001 	mov	r4, #1
    8c48:	ea000002 	b	8c58 <inttodec+0x90>
    8c4c:	e3a04000 	mov	r4, #0
    8c50:	ea000000 	b	8c58 <inttodec+0x90>
    8c54:	e3a04001 	mov	r4, #1
    8c58:	e3a02000 	mov	r2, #0
    8c5c:	e51bc030 	ldr	ip, [fp, #-48]	; 0x30
    8c60:	e24c0001 	sub	r0, ip, #1
    8c64:	e3a0c030 	mov	ip, #48	; 0x30
    8c68:	ea000003 	b	8c7c <inttodec+0xb4>
    8c6c:	e1500004 	cmp	r0, r4
    8c70:	c7c7c004 	strbgt	ip, [r7, r4]
    8c74:	e2822001 	add	r2, r2, #1
    8c78:	e2844001 	add	r4, r4, #1
    8c7c:	e1520003 	cmp	r2, r3
    8c80:	bafffff9 	blt	8c6c <inttodec+0xa4>
    8c84:	e0666001 	rsb	r6, r6, r1
    8c88:	e3a05000 	mov	r5, #0
    8c8c:	e51b0030 	ldr	r0, [fp, #-48]	; 0x30
    8c90:	e2408001 	sub	r8, r0, #1
    8c94:	e246a001 	sub	sl, r6, #1
    8c98:	ea00000f 	b	8cdc <inttodec+0x114>
    8c9c:	e1580004 	cmp	r8, r4
    8ca0:	da00000b 	ble	8cd4 <inttodec+0x10c>
    8ca4:	e1a00009 	mov	r0, r9
    8ca8:	e065100a 	rsb	r1, r5, sl
    8cac:	ebffff4f 	bl	89f0 <reduceByTenPower>
    8cb0:	e59f3058 	ldr	r3, [pc, #88]	; 8d10 <inttodec+0x148>
    8cb4:	e0c23093 	smull	r3, r2, r3, r0
    8cb8:	e1a03fc0 	asr	r3, r0, #31
    8cbc:	e0633142 	rsb	r3, r3, r2, asr #2
    8cc0:	e0833103 	add	r3, r3, r3, lsl #2
    8cc4:	e1a03083 	lsl	r3, r3, #1
    8cc8:	e0633000 	rsb	r3, r3, r0
    8ccc:	e2833030 	add	r3, r3, #48	; 0x30
    8cd0:	e7c73004 	strb	r3, [r7, r4]
    8cd4:	e2855001 	add	r5, r5, #1
    8cd8:	e2844001 	add	r4, r4, #1
    8cdc:	e1550006 	cmp	r5, r6
    8ce0:	baffffed 	blt	8c9c <inttodec+0xd4>
    8ce4:	e51bc030 	ldr	ip, [fp, #-48]	; 0x30
    8ce8:	e154000c 	cmp	r4, ip
    8cec:	b3a03000 	movlt	r3, #0
    8cf0:	b7c73004 	strblt	r3, [r7, r4]
    8cf4:	a51b0030 	ldrge	r0, [fp, #-48]	; 0x30
    8cf8:	a2403001 	subge	r3, r0, #1
    8cfc:	a3a02000 	movge	r2, #0
    8d00:	a7c72003 	strbge	r2, [r7, r3]
    8d04:	e1a00004 	mov	r0, r4
    8d08:	e24bd028 	sub	sp, fp, #40	; 0x28
    8d0c:	e89daff0 	ldm	sp, {r4, r5, r6, r7, r8, r9, sl, fp, sp, pc}
    8d10:	66666667 	strbtvs	r6, [r6], -r7, ror #12

00008d14 <vsnprintf>:
    8d14:	e1a0c00d 	mov	ip, sp
    8d18:	e92ddff8 	push	{r3, r4, r5, r6, r7, r8, r9, sl, fp, ip, lr, pc}
    8d1c:	e24cb004 	sub	fp, ip, #4
    8d20:	e1a07000 	mov	r7, r0
    8d24:	e1a08001 	mov	r8, r1
    8d28:	e1a0a003 	mov	sl, r3
    8d2c:	e3520000 	cmp	r2, #0
    8d30:	1a000004 	bne	8d48 <vsnprintf+0x34>
    8d34:	e3510000 	cmp	r1, #0
    8d38:	da00006b 	ble	8eec <vsnprintf+0x1d8>
    8d3c:	e3a00000 	mov	r0, #0
    8d40:	e5c70000 	strb	r0, [r7]
    8d44:	e89daff8 	ldm	sp, {r3, r4, r5, r6, r7, r8, r9, sl, fp, sp, pc}
    8d48:	e3510000 	cmp	r1, #0
    8d4c:	c3a03000 	movgt	r3, #0
    8d50:	c5c03000 	strbgt	r3, [r0]
    8d54:	e3a04000 	mov	r4, #0
    8d58:	e2486001 	sub	r6, r8, #1
    8d5c:	e1a09004 	mov	r9, r4
    8d60:	ea00005b 	b	8ed4 <vsnprintf+0x1c0>
    8d64:	e3530025 	cmp	r3, #37	; 0x25
    8d68:	0a000006 	beq	8d88 <vsnprintf+0x74>
    8d6c:	e1560004 	cmp	r6, r4
    8d70:	c7c73004 	strbgt	r3, [r7, r4]
    8d74:	e2844001 	add	r4, r4, #1
    8d78:	e1540008 	cmp	r4, r8
    8d7c:	b7c79004 	strblt	r9, [r7, r4]
    8d80:	e1a02001 	mov	r2, r1
    8d84:	ea000052 	b	8ed4 <vsnprintf+0x1c0>
    8d88:	e2825002 	add	r5, r2, #2
    8d8c:	e5d21001 	ldrb	r1, [r2, #1]
    8d90:	e3510025 	cmp	r1, #37	; 0x25
    8d94:	1a000006 	bne	8db4 <vsnprintf+0xa0>
    8d98:	e1560004 	cmp	r6, r4
    8d9c:	c7c71004 	strbgt	r1, [r7, r4]
    8da0:	e2844001 	add	r4, r4, #1
    8da4:	e1540008 	cmp	r4, r8
    8da8:	b7c79004 	strblt	r9, [r7, r4]
    8dac:	e1a02005 	mov	r2, r5
    8db0:	ea000047 	b	8ed4 <vsnprintf+0x1c0>
    8db4:	e3510030 	cmp	r1, #48	; 0x30
    8db8:	1a00000c 	bne	8df0 <vsnprintf+0xdc>
    8dbc:	e1a03009 	mov	r3, r9
    8dc0:	e2852001 	add	r2, r5, #1
    8dc4:	e5d51000 	ldrb	r1, [r5]
    8dc8:	e2410030 	sub	r0, r1, #48	; 0x30
    8dcc:	e6ef0070 	uxtb	r0, r0
    8dd0:	e3500009 	cmp	r0, #9
    8dd4:	8a000007 	bhi	8df8 <vsnprintf+0xe4>
    8dd8:	e2411030 	sub	r1, r1, #48	; 0x30
    8ddc:	e0833103 	add	r3, r3, r3, lsl #2
    8de0:	e1a03083 	lsl	r3, r3, #1
    8de4:	e0833001 	add	r3, r3, r1
    8de8:	e1a05002 	mov	r5, r2
    8dec:	eafffff3 	b	8dc0 <vsnprintf+0xac>
    8df0:	e1a03009 	mov	r3, r9
    8df4:	ea000000 	b	8dfc <vsnprintf+0xe8>
    8df8:	e1a05002 	mov	r5, r2
    8dfc:	e3510073 	cmp	r1, #115	; 0x73
    8e00:	1a00000f 	bne	8e44 <vsnprintf+0x130>
    8e04:	e59a3000 	ldr	r3, [sl]
    8e08:	e28aa004 	add	sl, sl, #4
    8e0c:	ea000003 	b	8e20 <vsnprintf+0x10c>
    8e10:	e1560004 	cmp	r6, r4
    8e14:	c7c72004 	strbgt	r2, [r7, r4]
    8e18:	e2844001 	add	r4, r4, #1
    8e1c:	e2833001 	add	r3, r3, #1
    8e20:	e3530000 	cmp	r3, #0
    8e24:	0a000002 	beq	8e34 <vsnprintf+0x120>
    8e28:	e5d32000 	ldrb	r2, [r3]
    8e2c:	e3520000 	cmp	r2, #0
    8e30:	1afffff6 	bne	8e10 <vsnprintf+0xfc>
    8e34:	e1540008 	cmp	r4, r8
    8e38:	b7c79004 	strblt	r9, [r7, r4]
    8e3c:	e1a02005 	mov	r2, r5
    8e40:	ea000023 	b	8ed4 <vsnprintf+0x1c0>
    8e44:	e59a2000 	ldr	r2, [sl]
    8e48:	e28aa004 	add	sl, sl, #4
    8e4c:	e3510063 	cmp	r1, #99	; 0x63
    8e50:	1a000006 	bne	8e70 <vsnprintf+0x15c>
    8e54:	e1560004 	cmp	r6, r4
    8e58:	c7c72004 	strbgt	r2, [r7, r4]
    8e5c:	e2844001 	add	r4, r4, #1
    8e60:	e1540008 	cmp	r4, r8
    8e64:	b7c79004 	strblt	r9, [r7, r4]
    8e68:	e1a02005 	mov	r2, r5
    8e6c:	ea000018 	b	8ed4 <vsnprintf+0x1c0>
    8e70:	e3510064 	cmp	r1, #100	; 0x64
    8e74:	1a000005 	bne	8e90 <vsnprintf+0x17c>
    8e78:	e0870004 	add	r0, r7, r4
    8e7c:	e0641008 	rsb	r1, r4, r8
    8e80:	ebffff50 	bl	8bc8 <inttodec>
    8e84:	e0844000 	add	r4, r4, r0
    8e88:	e1a02005 	mov	r2, r5
    8e8c:	ea000010 	b	8ed4 <vsnprintf+0x1c0>
    8e90:	e3510078 	cmp	r1, #120	; 0x78
    8e94:	1a000005 	bne	8eb0 <vsnprintf+0x19c>
    8e98:	e0870004 	add	r0, r7, r4
    8e9c:	e0641008 	rsb	r1, r4, r8
    8ea0:	ebffff12 	bl	8af0 <inttohex>
    8ea4:	e0844000 	add	r4, r4, r0
    8ea8:	e1a02005 	mov	r2, r5
    8eac:	ea000008 	b	8ed4 <vsnprintf+0x1c0>
    8eb0:	e3510062 	cmp	r1, #98	; 0x62
    8eb4:	1a000005 	bne	8ed0 <vsnprintf+0x1bc>
    8eb8:	e0870004 	add	r0, r7, r4
    8ebc:	e0641008 	rsb	r1, r4, r8
    8ec0:	ebfffed8 	bl	8a28 <inttobin>
    8ec4:	e0844000 	add	r4, r4, r0
    8ec8:	e1a02005 	mov	r2, r5
    8ecc:	ea000000 	b	8ed4 <vsnprintf+0x1c0>
    8ed0:	e1a02005 	mov	r2, r5
    8ed4:	e2821001 	add	r1, r2, #1
    8ed8:	e5d23000 	ldrb	r3, [r2]
    8edc:	e3530000 	cmp	r3, #0
    8ee0:	1affff9f 	bne	8d64 <vsnprintf+0x50>
    8ee4:	e1a00004 	mov	r0, r4
    8ee8:	e89daff8 	ldm	sp, {r3, r4, r5, r6, r7, r8, r9, sl, fp, sp, pc}
    8eec:	e3a00000 	mov	r0, #0
    8ef0:	e89daff8 	ldm	sp, {r3, r4, r5, r6, r7, r8, r9, sl, fp, sp, pc}

00008ef4 <snprintf>:
    8ef4:	e1a0c00d 	mov	ip, sp
    8ef8:	e92d000c 	push	{r2, r3}
    8efc:	e92dd800 	push	{fp, ip, lr, pc}
    8f00:	e24cb00c 	sub	fp, ip, #12
    8f04:	e24dd008 	sub	sp, sp, #8
    8f08:	e28b3008 	add	r3, fp, #8
    8f0c:	e50b3010 	str	r3, [fp, #-16]
    8f10:	e59b2004 	ldr	r2, [fp, #4]
    8f14:	ebffff7e 	bl	8d14 <vsnprintf>
    8f18:	e24bd00c 	sub	sp, fp, #12
    8f1c:	e89da800 	ldm	sp, {fp, sp, pc}

00008f20 <printf>:
    8f20:	e1a0c00d 	mov	ip, sp
    8f24:	e92d000f 	push	{r0, r1, r2, r3}
    8f28:	e92dd830 	push	{r4, r5, fp, ip, lr, pc}
    8f2c:	e24cb014 	sub	fp, ip, #20
    8f30:	e24ddb01 	sub	sp, sp, #1024	; 0x400
    8f34:	e24dd008 	sub	sp, sp, #8
    8f38:	e28b3008 	add	r3, fp, #8
    8f3c:	e50b3418 	str	r3, [fp, #-1048]	; 0x418
    8f40:	e24b0e41 	sub	r0, fp, #1040	; 0x410
    8f44:	e2400004 	sub	r0, r0, #4
    8f48:	e3a01b01 	mov	r1, #1024	; 0x400
    8f4c:	e59b2004 	ldr	r2, [fp, #4]
    8f50:	ebffff6f 	bl	8d14 <vsnprintf>
    8f54:	e1a05000 	mov	r5, r0
    8f58:	e24b3e41 	sub	r3, fp, #1040	; 0x410
    8f5c:	e2433004 	sub	r3, r3, #4
    8f60:	ea000001 	b	8f6c <printf+0x4c>
    8f64:	eb00002d 	bl	9020 <uart_putc>
    8f68:	e1a03004 	mov	r3, r4
    8f6c:	e2834001 	add	r4, r3, #1
    8f70:	e5d30000 	ldrb	r0, [r3]
    8f74:	e3500000 	cmp	r0, #0
    8f78:	1afffff9 	bne	8f64 <printf+0x44>
    8f7c:	e1a00005 	mov	r0, r5
    8f80:	e24bd014 	sub	sp, fp, #20
    8f84:	e89da830 	ldm	sp, {r4, r5, fp, sp, pc}

00008f88 <uart_init>:
    8f88:	e1a0c00d 	mov	ip, sp
    8f8c:	e92dd830 	push	{r4, r5, fp, ip, lr, pc}
    8f90:	e24cb004 	sub	fp, ip, #4
    8f94:	e59f404c 	ldr	r4, [pc, #76]	; 8fe8 <uart_init+0x60>
    8f98:	e3a03001 	mov	r3, #1
    8f9c:	e5843004 	str	r3, [r4, #4]
    8fa0:	e3a03000 	mov	r3, #0
    8fa4:	e5843044 	str	r3, [r4, #68]	; 0x44
    8fa8:	e5843060 	str	r3, [r4, #96]	; 0x60
    8fac:	e3a05003 	mov	r5, #3
    8fb0:	e584504c 	str	r5, [r4, #76]	; 0x4c
    8fb4:	e5843050 	str	r3, [r4, #80]	; 0x50
    8fb8:	e5843044 	str	r3, [r4, #68]	; 0x44
    8fbc:	e3a0000e 	mov	r0, #14
    8fc0:	e5840048 	str	r0, [r4, #72]	; 0x48
    8fc4:	e59f3020 	ldr	r3, [pc, #32]	; 8fec <uart_init+0x64>
    8fc8:	e5843068 	str	r3, [r4, #104]	; 0x68
    8fcc:	e3a01002 	mov	r1, #2
    8fd0:	ebfffde4 	bl	8768 <gpio_set_function>
    8fd4:	e3a0000f 	mov	r0, #15
    8fd8:	e3a01002 	mov	r1, #2
    8fdc:	ebfffde1 	bl	8768 <gpio_set_function>
    8fe0:	e5845060 	str	r5, [r4, #96]	; 0x60
    8fe4:	e89da830 	ldm	sp, {r4, r5, fp, sp, pc}
    8fe8:	20215000 	eorcs	r5, r1, r0
    8fec:	0000010e 	andeq	r0, r0, lr, lsl #2

00008ff0 <uart_getc>:
    8ff0:	e1a0c00d 	mov	ip, sp
    8ff4:	e92dd800 	push	{fp, ip, lr, pc}
    8ff8:	e24cb004 	sub	fp, ip, #4
    8ffc:	e59f2018 	ldr	r2, [pc, #24]	; 901c <uart_getc+0x2c>
    9000:	e5923054 	ldr	r3, [r2, #84]	; 0x54
    9004:	e3130001 	tst	r3, #1
    9008:	0afffffc 	beq	9000 <uart_getc+0x10>
    900c:	e59f3008 	ldr	r3, [pc, #8]	; 901c <uart_getc+0x2c>
    9010:	e5930040 	ldr	r0, [r3, #64]	; 0x40
    9014:	e6ef0070 	uxtb	r0, r0
    9018:	e89da800 	ldm	sp, {fp, sp, pc}
    901c:	20215000 	eorcs	r5, r1, r0

00009020 <uart_putc>:
    9020:	e1a0c00d 	mov	ip, sp
    9024:	e92dd818 	push	{r3, r4, fp, ip, lr, pc}
    9028:	e24cb004 	sub	fp, ip, #4
    902c:	e1a04000 	mov	r4, r0
    9030:	e350000a 	cmp	r0, #10
    9034:	1a000001 	bne	9040 <uart_putc+0x20>
    9038:	e3a0000d 	mov	r0, #13
    903c:	ebfffff7 	bl	9020 <uart_putc>
    9040:	e59f2014 	ldr	r2, [pc, #20]	; 905c <uart_putc+0x3c>
    9044:	e5923054 	ldr	r3, [r2, #84]	; 0x54
    9048:	e3130020 	tst	r3, #32
    904c:	0afffffc 	beq	9044 <uart_putc+0x24>
    9050:	e59f3004 	ldr	r3, [pc, #4]	; 905c <uart_putc+0x3c>
    9054:	e5834040 	str	r4, [r3, #64]	; 0x40
    9058:	e89da818 	ldm	sp, {r3, r4, fp, sp, pc}
    905c:	20215000 	eorcs	r5, r1, r0

00009060 <uart_flush>:
    9060:	e1a0c00d 	mov	ip, sp
    9064:	e92dd800 	push	{fp, ip, lr, pc}
    9068:	e24cb004 	sub	fp, ip, #4
    906c:	e59f200c 	ldr	r2, [pc, #12]	; 9080 <uart_flush+0x20>
    9070:	e5923054 	ldr	r3, [r2, #84]	; 0x54
    9074:	e3130020 	tst	r3, #32
    9078:	0afffffc 	beq	9070 <uart_flush+0x10>
    907c:	e89da800 	ldm	sp, {fp, sp, pc}
    9080:	20215000 	eorcs	r5, r1, r0

00009084 <gpio_set_pud>:
    9084:	e1a0c00d 	mov	ip, sp
    9088:	e92dd830 	push	{r4, r5, fp, ip, lr, pc}
    908c:	e24cb004 	sub	fp, ip, #4
    9090:	e1a04000 	mov	r4, r0
    9094:	e3500034 	cmp	r0, #52	; 0x34
    9098:	889da830 	ldmhi	sp, {r4, r5, fp, sp, pc}
    909c:	e2011003 	and	r1, r1, #3
    90a0:	e59f5040 	ldr	r5, [pc, #64]	; 90e8 <gpio_set_pud+0x64>
    90a4:	e5851094 	str	r1, [r5, #148]	; 0x94
    90a8:	e3a00005 	mov	r0, #5
    90ac:	ebfffe1d 	bl	8928 <delay_us>
    90b0:	e204401f 	and	r4, r4, #31
    90b4:	e3a03001 	mov	r3, #1
    90b8:	e1a04413 	lsl	r4, r3, r4
    90bc:	e5854098 	str	r4, [r5, #152]	; 0x98
    90c0:	e3a00005 	mov	r0, #5
    90c4:	ebfffe17 	bl	8928 <delay_us>
    90c8:	e3a04000 	mov	r4, #0
    90cc:	e5854094 	str	r4, [r5, #148]	; 0x94
    90d0:	e3a00005 	mov	r0, #5
    90d4:	ebfffe13 	bl	8928 <delay_us>
    90d8:	e5854098 	str	r4, [r5, #152]	; 0x98
    90dc:	e3a00005 	mov	r0, #5
    90e0:	ebfffe10 	bl	8928 <delay_us>
    90e4:	e89da830 	ldm	sp, {r4, r5, fp, sp, pc}
    90e8:	20200000 	eorcs	r0, r0, r0

000090ec <gpio_set_pullup>:
    90ec:	e1a0c00d 	mov	ip, sp
    90f0:	e92dd800 	push	{fp, ip, lr, pc}
    90f4:	e24cb004 	sub	fp, ip, #4
    90f8:	e3500034 	cmp	r0, #52	; 0x34
    90fc:	889da800 	ldmhi	sp, {fp, sp, pc}
    9100:	e3a01002 	mov	r1, #2
    9104:	ebffffde 	bl	9084 <gpio_set_pud>
    9108:	e89da800 	ldm	sp, {fp, sp, pc}

0000910c <gpio_set_pulldown>:
    910c:	e1a0c00d 	mov	ip, sp
    9110:	e92dd800 	push	{fp, ip, lr, pc}
    9114:	e24cb004 	sub	fp, ip, #4
    9118:	e3a01001 	mov	r1, #1
    911c:	ebffffd8 	bl	9084 <gpio_set_pud>
    9120:	e89da800 	ldm	sp, {fp, sp, pc}

00009124 <spi_init>:
    9124:	e1a0c00d 	mov	ip, sp
    9128:	e92dd830 	push	{r4, r5, fp, ip, lr, pc}
    912c:	e24cb004 	sub	fp, ip, #4
    9130:	e1a04000 	mov	r4, r0
    9134:	e1a05001 	mov	r5, r1
    9138:	e3a00007 	mov	r0, #7
    913c:	e3a01004 	mov	r1, #4
    9140:	ebfffd88 	bl	8768 <gpio_set_function>
    9144:	e3a00008 	mov	r0, #8
    9148:	e3a01004 	mov	r1, #4
    914c:	ebfffd85 	bl	8768 <gpio_set_function>
    9150:	e3a00009 	mov	r0, #9
    9154:	e3a01004 	mov	r1, #4
    9158:	ebfffd82 	bl	8768 <gpio_set_function>
    915c:	e3a0000a 	mov	r0, #10
    9160:	e3a01004 	mov	r1, #4
    9164:	ebfffd7f 	bl	8768 <gpio_set_function>
    9168:	e3a0000b 	mov	r0, #11
    916c:	e3a01004 	mov	r1, #4
    9170:	ebfffd7c 	bl	8768 <gpio_set_function>
    9174:	e59f3060 	ldr	r3, [pc, #96]	; 91dc <spi_init+0xb8>
    9178:	e5932000 	ldr	r2, [r3]
    917c:	e3a01000 	mov	r1, #0
    9180:	e5821000 	str	r1, [r2]
    9184:	e5933000 	ldr	r3, [r3]
    9188:	e5932000 	ldr	r2, [r3]
    918c:	e3822030 	orr	r2, r2, #48	; 0x30
    9190:	e5832000 	str	r2, [r3]
    9194:	e1540001 	cmp	r4, r1
    9198:	1a000004 	bne	91b0 <spi_init+0x8c>
    919c:	e59f3038 	ldr	r3, [pc, #56]	; 91dc <spi_init+0xb8>
    91a0:	e5933000 	ldr	r3, [r3]
    91a4:	e5932000 	ldr	r2, [r3]
    91a8:	e5832000 	str	r2, [r3]
    91ac:	ea000006 	b	91cc <spi_init+0xa8>
    91b0:	e3540001 	cmp	r4, #1
    91b4:	1a000004 	bne	91cc <spi_init+0xa8>
    91b8:	e59f301c 	ldr	r3, [pc, #28]	; 91dc <spi_init+0xb8>
    91bc:	e5933000 	ldr	r3, [r3]
    91c0:	e5932000 	ldr	r2, [r3]
    91c4:	e3822001 	orr	r2, r2, #1
    91c8:	e5832000 	str	r2, [r3]
    91cc:	e59f3008 	ldr	r3, [pc, #8]	; 91dc <spi_init+0xb8>
    91d0:	e5933000 	ldr	r3, [r3]
    91d4:	e5835008 	str	r5, [r3, #8]
    91d8:	e89da830 	ldm	sp, {r4, r5, fp, sp, pc}
    91dc:	00009ef4 	strdeq	r9, [r0], -r4

000091e0 <spi_transfer>:
    91e0:	e1a0c00d 	mov	ip, sp
    91e4:	e92dd870 	push	{r4, r5, r6, fp, ip, lr, pc}
    91e8:	e24cb004 	sub	fp, ip, #4
    91ec:	e59f3078 	ldr	r3, [pc, #120]	; 926c <spi_transfer+0x8c>
    91f0:	e5933000 	ldr	r3, [r3]
    91f4:	e593c000 	ldr	ip, [r3]
    91f8:	e38cc0b0 	orr	ip, ip, #176	; 0xb0
    91fc:	e583c000 	str	ip, [r3]
    9200:	e3a05000 	mov	r5, #0
    9204:	e59f4060 	ldr	r4, [pc, #96]	; 926c <spi_transfer+0x8c>
    9208:	ea00000e 	b	9248 <spi_transfer+0x68>
    920c:	e5943000 	ldr	r3, [r4]
    9210:	e593c000 	ldr	ip, [r3]
    9214:	e31c0701 	tst	ip, #262144	; 0x40000
    9218:	0afffffb 	beq	920c <spi_transfer+0x2c>
    921c:	e7d0c006 	ldrb	ip, [r0, r6]
    9220:	e583c004 	str	ip, [r3, #4]
    9224:	e593c000 	ldr	ip, [r3]
    9228:	e31c0801 	tst	ip, #65536	; 0x10000
    922c:	0afffffc 	beq	9224 <spi_transfer+0x44>
    9230:	e593c000 	ldr	ip, [r3]
    9234:	e31c0802 	tst	ip, #131072	; 0x20000
    9238:	0afffffc 	beq	9230 <spi_transfer+0x50>
    923c:	e5933004 	ldr	r3, [r3, #4]
    9240:	e7c13006 	strb	r3, [r1, r6]
    9244:	e2855001 	add	r5, r5, #1
    9248:	e1a06005 	mov	r6, r5
    924c:	e1550002 	cmp	r5, r2
    9250:	3affffed 	bcc	920c <spi_transfer+0x2c>
    9254:	e59f3010 	ldr	r3, [pc, #16]	; 926c <spi_transfer+0x8c>
    9258:	e5933000 	ldr	r3, [r3]
    925c:	e5932000 	ldr	r2, [r3]
    9260:	e3c22080 	bic	r2, r2, #128	; 0x80
    9264:	e5832000 	str	r2, [r3]
    9268:	e89da870 	ldm	sp, {r4, r5, r6, fp, sp, pc}
    926c:	00009ef4 	strdeq	r9, [r0], -r4

00009270 <__aeabi_uidiv>:
    9270:	e2512001 	subs	r2, r1, #1
    9274:	012fff1e 	bxeq	lr
    9278:	3a000036 	bcc	9358 <__aeabi_uidiv+0xe8>
    927c:	e1500001 	cmp	r0, r1
    9280:	9a000022 	bls	9310 <__aeabi_uidiv+0xa0>
    9284:	e1110002 	tst	r1, r2
    9288:	0a000023 	beq	931c <__aeabi_uidiv+0xac>
    928c:	e311020e 	tst	r1, #-536870912	; 0xe0000000
    9290:	01a01181 	lsleq	r1, r1, #3
    9294:	03a03008 	moveq	r3, #8
    9298:	13a03001 	movne	r3, #1
    929c:	e3510201 	cmp	r1, #268435456	; 0x10000000
    92a0:	31510000 	cmpcc	r1, r0
    92a4:	31a01201 	lslcc	r1, r1, #4
    92a8:	31a03203 	lslcc	r3, r3, #4
    92ac:	3afffffa 	bcc	929c <__aeabi_uidiv+0x2c>
    92b0:	e3510102 	cmp	r1, #-2147483648	; 0x80000000
    92b4:	31510000 	cmpcc	r1, r0
    92b8:	31a01081 	lslcc	r1, r1, #1
    92bc:	31a03083 	lslcc	r3, r3, #1
    92c0:	3afffffa 	bcc	92b0 <__aeabi_uidiv+0x40>
    92c4:	e3a02000 	mov	r2, #0
    92c8:	e1500001 	cmp	r0, r1
    92cc:	20400001 	subcs	r0, r0, r1
    92d0:	21822003 	orrcs	r2, r2, r3
    92d4:	e15000a1 	cmp	r0, r1, lsr #1
    92d8:	204000a1 	subcs	r0, r0, r1, lsr #1
    92dc:	218220a3 	orrcs	r2, r2, r3, lsr #1
    92e0:	e1500121 	cmp	r0, r1, lsr #2
    92e4:	20400121 	subcs	r0, r0, r1, lsr #2
    92e8:	21822123 	orrcs	r2, r2, r3, lsr #2
    92ec:	e15001a1 	cmp	r0, r1, lsr #3
    92f0:	204001a1 	subcs	r0, r0, r1, lsr #3
    92f4:	218221a3 	orrcs	r2, r2, r3, lsr #3
    92f8:	e3500000 	cmp	r0, #0
    92fc:	11b03223 	lsrsne	r3, r3, #4
    9300:	11a01221 	lsrne	r1, r1, #4
    9304:	1affffef 	bne	92c8 <__aeabi_uidiv+0x58>
    9308:	e1a00002 	mov	r0, r2
    930c:	e12fff1e 	bx	lr
    9310:	03a00001 	moveq	r0, #1
    9314:	13a00000 	movne	r0, #0
    9318:	e12fff1e 	bx	lr
    931c:	e3510801 	cmp	r1, #65536	; 0x10000
    9320:	21a01821 	lsrcs	r1, r1, #16
    9324:	23a02010 	movcs	r2, #16
    9328:	33a02000 	movcc	r2, #0
    932c:	e3510c01 	cmp	r1, #256	; 0x100
    9330:	21a01421 	lsrcs	r1, r1, #8
    9334:	22822008 	addcs	r2, r2, #8
    9338:	e3510010 	cmp	r1, #16
    933c:	21a01221 	lsrcs	r1, r1, #4
    9340:	22822004 	addcs	r2, r2, #4
    9344:	e3510004 	cmp	r1, #4
    9348:	82822003 	addhi	r2, r2, #3
    934c:	908220a1 	addls	r2, r2, r1, lsr #1
    9350:	e1a00230 	lsr	r0, r0, r2
    9354:	e12fff1e 	bx	lr
    9358:	e3500000 	cmp	r0, #0
    935c:	13e00000 	mvnne	r0, #0
    9360:	ea000007 	b	9384 <__aeabi_idiv0>

00009364 <__aeabi_uidivmod>:
    9364:	e3510000 	cmp	r1, #0
    9368:	0afffffa 	beq	9358 <__aeabi_uidiv+0xe8>
    936c:	e92d4003 	push	{r0, r1, lr}
    9370:	ebffffbe 	bl	9270 <__aeabi_uidiv>
    9374:	e8bd4006 	pop	{r1, r2, lr}
    9378:	e0030092 	mul	r3, r2, r0
    937c:	e0411003 	sub	r1, r1, r3
    9380:	e12fff1e 	bx	lr

00009384 <__aeabi_idiv0>:
    9384:	e12fff1e 	bx	lr

00009388 <__aeabi_drsub>:
    9388:	e2211102 	eor	r1, r1, #-2147483648	; 0x80000000
    938c:	ea000000 	b	9394 <__adddf3>

00009390 <__aeabi_dsub>:
    9390:	e2233102 	eor	r3, r3, #-2147483648	; 0x80000000

00009394 <__adddf3>:
    9394:	e92d4030 	push	{r4, r5, lr}
    9398:	e1a04081 	lsl	r4, r1, #1
    939c:	e1a05083 	lsl	r5, r3, #1
    93a0:	e1340005 	teq	r4, r5
    93a4:	01300002 	teqeq	r0, r2
    93a8:	1194c000 	orrsne	ip, r4, r0
    93ac:	1195c002 	orrsne	ip, r5, r2
    93b0:	11f0cac4 	mvnsne	ip, r4, asr #21
    93b4:	11f0cac5 	mvnsne	ip, r5, asr #21
    93b8:	0a00008c 	beq	95f0 <__adddf3+0x25c>
    93bc:	e1a04aa4 	lsr	r4, r4, #21
    93c0:	e0745aa5 	rsbs	r5, r4, r5, lsr #21
    93c4:	b2655000 	rsblt	r5, r5, #0
    93c8:	da000006 	ble	93e8 <__adddf3+0x54>
    93cc:	e0844005 	add	r4, r4, r5
    93d0:	e0202002 	eor	r2, r0, r2
    93d4:	e0213003 	eor	r3, r1, r3
    93d8:	e0220000 	eor	r0, r2, r0
    93dc:	e0231001 	eor	r1, r3, r1
    93e0:	e0202002 	eor	r2, r0, r2
    93e4:	e0213003 	eor	r3, r1, r3
    93e8:	e3550036 	cmp	r5, #54	; 0x36
    93ec:	88bd4030 	pophi	{r4, r5, lr}
    93f0:	812fff1e 	bxhi	lr
    93f4:	e3110102 	tst	r1, #-2147483648	; 0x80000000
    93f8:	e1a01601 	lsl	r1, r1, #12
    93fc:	e3a0c601 	mov	ip, #1048576	; 0x100000
    9400:	e18c1621 	orr	r1, ip, r1, lsr #12
    9404:	0a000001 	beq	9410 <__adddf3+0x7c>
    9408:	e2700000 	rsbs	r0, r0, #0
    940c:	e2e11000 	rsc	r1, r1, #0
    9410:	e3130102 	tst	r3, #-2147483648	; 0x80000000
    9414:	e1a03603 	lsl	r3, r3, #12
    9418:	e18c3623 	orr	r3, ip, r3, lsr #12
    941c:	0a000001 	beq	9428 <__adddf3+0x94>
    9420:	e2722000 	rsbs	r2, r2, #0
    9424:	e2e33000 	rsc	r3, r3, #0
    9428:	e1340005 	teq	r4, r5
    942c:	0a000069 	beq	95d8 <__adddf3+0x244>
    9430:	e2444001 	sub	r4, r4, #1
    9434:	e275e020 	rsbs	lr, r5, #32
    9438:	ba000005 	blt	9454 <__adddf3+0xc0>
    943c:	e1a0ce12 	lsl	ip, r2, lr
    9440:	e0900532 	adds	r0, r0, r2, lsr r5
    9444:	e2a11000 	adc	r1, r1, #0
    9448:	e0900e13 	adds	r0, r0, r3, lsl lr
    944c:	e0b11553 	adcs	r1, r1, r3, asr r5
    9450:	ea000006 	b	9470 <__adddf3+0xdc>
    9454:	e2455020 	sub	r5, r5, #32
    9458:	e28ee020 	add	lr, lr, #32
    945c:	e3520001 	cmp	r2, #1
    9460:	e1a0ce13 	lsl	ip, r3, lr
    9464:	238cc002 	orrcs	ip, ip, #2
    9468:	e0900553 	adds	r0, r0, r3, asr r5
    946c:	e0b11fc3 	adcs	r1, r1, r3, asr #31
    9470:	e2015102 	and	r5, r1, #-2147483648	; 0x80000000
    9474:	5a000002 	bpl	9484 <__adddf3+0xf0>
    9478:	e27cc000 	rsbs	ip, ip, #0
    947c:	e2f00000 	rscs	r0, r0, #0
    9480:	e2e11000 	rsc	r1, r1, #0
    9484:	e3510601 	cmp	r1, #1048576	; 0x100000
    9488:	3a00000f 	bcc	94cc <__adddf3+0x138>
    948c:	e3510602 	cmp	r1, #2097152	; 0x200000
    9490:	3a000006 	bcc	94b0 <__adddf3+0x11c>
    9494:	e1b010a1 	lsrs	r1, r1, #1
    9498:	e1b00060 	rrxs	r0, r0
    949c:	e1a0c06c 	rrx	ip, ip
    94a0:	e2844001 	add	r4, r4, #1
    94a4:	e1a02a84 	lsl	r2, r4, #21
    94a8:	e3720501 	cmn	r2, #4194304	; 0x400000
    94ac:	2a00006b 	bcs	9660 <__adddf3+0x2cc>
    94b0:	e35c0102 	cmp	ip, #-2147483648	; 0x80000000
    94b4:	01b0c0a0 	lsrseq	ip, r0, #1
    94b8:	e2b00000 	adcs	r0, r0, #0
    94bc:	e0a11a04 	adc	r1, r1, r4, lsl #20
    94c0:	e1811005 	orr	r1, r1, r5
    94c4:	e8bd4030 	pop	{r4, r5, lr}
    94c8:	e12fff1e 	bx	lr
    94cc:	e1b0c08c 	lsls	ip, ip, #1
    94d0:	e0b00000 	adcs	r0, r0, r0
    94d4:	e0a11001 	adc	r1, r1, r1
    94d8:	e3110601 	tst	r1, #1048576	; 0x100000
    94dc:	e2444001 	sub	r4, r4, #1
    94e0:	1afffff2 	bne	94b0 <__adddf3+0x11c>
    94e4:	e3310000 	teq	r1, #0
    94e8:	13a03014 	movne	r3, #20
    94ec:	03a03034 	moveq	r3, #52	; 0x34
    94f0:	01a01000 	moveq	r1, r0
    94f4:	03a00000 	moveq	r0, #0
    94f8:	e1a02001 	mov	r2, r1
    94fc:	e3520801 	cmp	r2, #65536	; 0x10000
    9500:	21a02822 	lsrcs	r2, r2, #16
    9504:	22433010 	subcs	r3, r3, #16
    9508:	e3520c01 	cmp	r2, #256	; 0x100
    950c:	21a02422 	lsrcs	r2, r2, #8
    9510:	22433008 	subcs	r3, r3, #8
    9514:	e3520010 	cmp	r2, #16
    9518:	21a02222 	lsrcs	r2, r2, #4
    951c:	22433004 	subcs	r3, r3, #4
    9520:	e3520004 	cmp	r2, #4
    9524:	22433002 	subcs	r3, r3, #2
    9528:	304330a2 	subcc	r3, r3, r2, lsr #1
    952c:	e04331a2 	sub	r3, r3, r2, lsr #3
    9530:	e2532020 	subs	r2, r3, #32
    9534:	aa000007 	bge	9558 <__adddf3+0x1c4>
    9538:	e292200c 	adds	r2, r2, #12
    953c:	da000004 	ble	9554 <__adddf3+0x1c0>
    9540:	e282c014 	add	ip, r2, #20
    9544:	e262200c 	rsb	r2, r2, #12
    9548:	e1a00c11 	lsl	r0, r1, ip
    954c:	e1a01231 	lsr	r1, r1, r2
    9550:	ea000004 	b	9568 <__adddf3+0x1d4>
    9554:	e2822014 	add	r2, r2, #20
    9558:	d262c020 	rsble	ip, r2, #32
    955c:	e1a01211 	lsl	r1, r1, r2
    9560:	d1811c30 	orrle	r1, r1, r0, lsr ip
    9564:	d1a00210 	lslle	r0, r0, r2
    9568:	e0544003 	subs	r4, r4, r3
    956c:	a0811a04 	addge	r1, r1, r4, lsl #20
    9570:	a1811005 	orrge	r1, r1, r5
    9574:	a8bd4030 	popge	{r4, r5, lr}
    9578:	a12fff1e 	bxge	lr
    957c:	e1e04004 	mvn	r4, r4
    9580:	e254401f 	subs	r4, r4, #31
    9584:	aa00000f 	bge	95c8 <__adddf3+0x234>
    9588:	e294400c 	adds	r4, r4, #12
    958c:	ca000006 	bgt	95ac <__adddf3+0x218>
    9590:	e2844014 	add	r4, r4, #20
    9594:	e2642020 	rsb	r2, r4, #32
    9598:	e1a00430 	lsr	r0, r0, r4
    959c:	e1800211 	orr	r0, r0, r1, lsl r2
    95a0:	e1851431 	orr	r1, r5, r1, lsr r4
    95a4:	e8bd4030 	pop	{r4, r5, lr}
    95a8:	e12fff1e 	bx	lr
    95ac:	e264400c 	rsb	r4, r4, #12
    95b0:	e2642020 	rsb	r2, r4, #32
    95b4:	e1a00230 	lsr	r0, r0, r2
    95b8:	e1800411 	orr	r0, r0, r1, lsl r4
    95bc:	e1a01005 	mov	r1, r5
    95c0:	e8bd4030 	pop	{r4, r5, lr}
    95c4:	e12fff1e 	bx	lr
    95c8:	e1a00431 	lsr	r0, r1, r4
    95cc:	e1a01005 	mov	r1, r5
    95d0:	e8bd4030 	pop	{r4, r5, lr}
    95d4:	e12fff1e 	bx	lr
    95d8:	e3340000 	teq	r4, #0
    95dc:	e2233601 	eor	r3, r3, #1048576	; 0x100000
    95e0:	02211601 	eoreq	r1, r1, #1048576	; 0x100000
    95e4:	02844001 	addeq	r4, r4, #1
    95e8:	12455001 	subne	r5, r5, #1
    95ec:	eaffff8f 	b	9430 <__adddf3+0x9c>
    95f0:	e1f0cac4 	mvns	ip, r4, asr #21
    95f4:	11f0cac5 	mvnsne	ip, r5, asr #21
    95f8:	0a00001d 	beq	9674 <__adddf3+0x2e0>
    95fc:	e1340005 	teq	r4, r5
    9600:	01300002 	teqeq	r0, r2
    9604:	0a000004 	beq	961c <__adddf3+0x288>
    9608:	e194c000 	orrs	ip, r4, r0
    960c:	01a01003 	moveq	r1, r3
    9610:	01a00002 	moveq	r0, r2
    9614:	e8bd4030 	pop	{r4, r5, lr}
    9618:	e12fff1e 	bx	lr
    961c:	e1310003 	teq	r1, r3
    9620:	13a01000 	movne	r1, #0
    9624:	13a00000 	movne	r0, #0
    9628:	18bd4030 	popne	{r4, r5, lr}
    962c:	112fff1e 	bxne	lr
    9630:	e1b0caa4 	lsrs	ip, r4, #21
    9634:	1a000004 	bne	964c <__adddf3+0x2b8>
    9638:	e1b00080 	lsls	r0, r0, #1
    963c:	e0b11001 	adcs	r1, r1, r1
    9640:	23811102 	orrcs	r1, r1, #-2147483648	; 0x80000000
    9644:	e8bd4030 	pop	{r4, r5, lr}
    9648:	e12fff1e 	bx	lr
    964c:	e2944501 	adds	r4, r4, #4194304	; 0x400000
    9650:	32811601 	addcc	r1, r1, #1048576	; 0x100000
    9654:	38bd4030 	popcc	{r4, r5, lr}
    9658:	312fff1e 	bxcc	lr
    965c:	e2015102 	and	r5, r1, #-2147483648	; 0x80000000
    9660:	e385147f 	orr	r1, r5, #2130706432	; 0x7f000000
    9664:	e381160f 	orr	r1, r1, #15728640	; 0xf00000
    9668:	e3a00000 	mov	r0, #0
    966c:	e8bd4030 	pop	{r4, r5, lr}
    9670:	e12fff1e 	bx	lr
    9674:	e1f0cac4 	mvns	ip, r4, asr #21
    9678:	11a01003 	movne	r1, r3
    967c:	11a00002 	movne	r0, r2
    9680:	01f0cac5 	mvnseq	ip, r5, asr #21
    9684:	11a03001 	movne	r3, r1
    9688:	11a02000 	movne	r2, r0
    968c:	e1904601 	orrs	r4, r0, r1, lsl #12
    9690:	01925603 	orrseq	r5, r2, r3, lsl #12
    9694:	01310003 	teqeq	r1, r3
    9698:	13811702 	orrne	r1, r1, #524288	; 0x80000
    969c:	e8bd4030 	pop	{r4, r5, lr}
    96a0:	e12fff1e 	bx	lr

000096a4 <__aeabi_ui2d>:
    96a4:	e3300000 	teq	r0, #0
    96a8:	03a01000 	moveq	r1, #0
    96ac:	012fff1e 	bxeq	lr
    96b0:	e92d4030 	push	{r4, r5, lr}
    96b4:	e3a04b01 	mov	r4, #1024	; 0x400
    96b8:	e2844032 	add	r4, r4, #50	; 0x32
    96bc:	e3a05000 	mov	r5, #0
    96c0:	e3a01000 	mov	r1, #0
    96c4:	eaffff86 	b	94e4 <__adddf3+0x150>

000096c8 <__aeabi_i2d>:
    96c8:	e3300000 	teq	r0, #0
    96cc:	03a01000 	moveq	r1, #0
    96d0:	012fff1e 	bxeq	lr
    96d4:	e92d4030 	push	{r4, r5, lr}
    96d8:	e3a04b01 	mov	r4, #1024	; 0x400
    96dc:	e2844032 	add	r4, r4, #50	; 0x32
    96e0:	e2105102 	ands	r5, r0, #-2147483648	; 0x80000000
    96e4:	42600000 	rsbmi	r0, r0, #0
    96e8:	e3a01000 	mov	r1, #0
    96ec:	eaffff7c 	b	94e4 <__adddf3+0x150>

000096f0 <__aeabi_f2d>:
    96f0:	e1b02080 	lsls	r2, r0, #1
    96f4:	e1a011c2 	asr	r1, r2, #3
    96f8:	e1a01061 	rrx	r1, r1
    96fc:	e1a00e02 	lsl	r0, r2, #28
    9700:	121234ff 	andsne	r3, r2, #-16777216	; 0xff000000
    9704:	133304ff 	teqne	r3, #-16777216	; 0xff000000
    9708:	1221130e 	eorne	r1, r1, #939524096	; 0x38000000
    970c:	112fff1e 	bxne	lr
    9710:	e3320000 	teq	r2, #0
    9714:	133304ff 	teqne	r3, #-16777216	; 0xff000000
    9718:	012fff1e 	bxeq	lr
    971c:	e92d4030 	push	{r4, r5, lr}
    9720:	e3a04d0e 	mov	r4, #896	; 0x380
    9724:	e2015102 	and	r5, r1, #-2147483648	; 0x80000000
    9728:	e3c11102 	bic	r1, r1, #-2147483648	; 0x80000000
    972c:	eaffff6c 	b	94e4 <__adddf3+0x150>

00009730 <__aeabi_ul2d>:
    9730:	e1902001 	orrs	r2, r0, r1
    9734:	012fff1e 	bxeq	lr
    9738:	e92d4030 	push	{r4, r5, lr}
    973c:	e3a05000 	mov	r5, #0
    9740:	ea000006 	b	9760 <__aeabi_l2d+0x1c>

00009744 <__aeabi_l2d>:
    9744:	e1902001 	orrs	r2, r0, r1
    9748:	012fff1e 	bxeq	lr
    974c:	e92d4030 	push	{r4, r5, lr}
    9750:	e2115102 	ands	r5, r1, #-2147483648	; 0x80000000
    9754:	5a000001 	bpl	9760 <__aeabi_l2d+0x1c>
    9758:	e2700000 	rsbs	r0, r0, #0
    975c:	e2e11000 	rsc	r1, r1, #0
    9760:	e3a04b01 	mov	r4, #1024	; 0x400
    9764:	e2844032 	add	r4, r4, #50	; 0x32
    9768:	e1b0cb21 	lsrs	ip, r1, #22
    976c:	0affff44 	beq	9484 <__adddf3+0xf0>
    9770:	e3a02003 	mov	r2, #3
    9774:	e1b0c1ac 	lsrs	ip, ip, #3
    9778:	12822003 	addne	r2, r2, #3
    977c:	e1b0c1ac 	lsrs	ip, ip, #3
    9780:	12822003 	addne	r2, r2, #3
    9784:	e08221ac 	add	r2, r2, ip, lsr #3
    9788:	e2623020 	rsb	r3, r2, #32
    978c:	e1a0c310 	lsl	ip, r0, r3
    9790:	e1a00230 	lsr	r0, r0, r2
    9794:	e1800311 	orr	r0, r0, r1, lsl r3
    9798:	e1a01231 	lsr	r1, r1, r2
    979c:	e0844002 	add	r4, r4, r2
    97a0:	eaffff37 	b	9484 <__adddf3+0xf0>

000097a4 <__aeabi_dmul>:
    97a4:	e92d4070 	push	{r4, r5, r6, lr}
    97a8:	e3a0c0ff 	mov	ip, #255	; 0xff
    97ac:	e38ccc07 	orr	ip, ip, #1792	; 0x700
    97b0:	e01c4a21 	ands	r4, ip, r1, lsr #20
    97b4:	101c5a23 	andsne	r5, ip, r3, lsr #20
    97b8:	1134000c 	teqne	r4, ip
    97bc:	1135000c 	teqne	r5, ip
    97c0:	0b000075 	bleq	999c <__aeabi_dmul+0x1f8>
    97c4:	e0844005 	add	r4, r4, r5
    97c8:	e0216003 	eor	r6, r1, r3
    97cc:	e1c11a8c 	bic	r1, r1, ip, lsl #21
    97d0:	e1c33a8c 	bic	r3, r3, ip, lsl #21
    97d4:	e1905601 	orrs	r5, r0, r1, lsl #12
    97d8:	11925603 	orrsne	r5, r2, r3, lsl #12
    97dc:	e3811601 	orr	r1, r1, #1048576	; 0x100000
    97e0:	e3833601 	orr	r3, r3, #1048576	; 0x100000
    97e4:	0a00001d 	beq	9860 <__aeabi_dmul+0xbc>
    97e8:	e08ec290 	umull	ip, lr, r0, r2
    97ec:	e3a05000 	mov	r5, #0
    97f0:	e0a5e291 	umlal	lr, r5, r1, r2
    97f4:	e2062102 	and	r2, r6, #-2147483648	; 0x80000000
    97f8:	e0a5e390 	umlal	lr, r5, r0, r3
    97fc:	e3a06000 	mov	r6, #0
    9800:	e0a65391 	umlal	r5, r6, r1, r3
    9804:	e33c0000 	teq	ip, #0
    9808:	138ee001 	orrne	lr, lr, #1
    980c:	e24440ff 	sub	r4, r4, #255	; 0xff
    9810:	e3560c02 	cmp	r6, #512	; 0x200
    9814:	e2c44c03 	sbc	r4, r4, #768	; 0x300
    9818:	2a000002 	bcs	9828 <__aeabi_dmul+0x84>
    981c:	e1b0e08e 	lsls	lr, lr, #1
    9820:	e0b55005 	adcs	r5, r5, r5
    9824:	e0a66006 	adc	r6, r6, r6
    9828:	e1821586 	orr	r1, r2, r6, lsl #11
    982c:	e1811aa5 	orr	r1, r1, r5, lsr #21
    9830:	e1a00585 	lsl	r0, r5, #11
    9834:	e1800aae 	orr	r0, r0, lr, lsr #21
    9838:	e1a0e58e 	lsl	lr, lr, #11
    983c:	e254c0fd 	subs	ip, r4, #253	; 0xfd
    9840:	835c0c07 	cmphi	ip, #1792	; 0x700
    9844:	8a000011 	bhi	9890 <__aeabi_dmul+0xec>
    9848:	e35e0102 	cmp	lr, #-2147483648	; 0x80000000
    984c:	01b0e0a0 	lsrseq	lr, r0, #1
    9850:	e2b00000 	adcs	r0, r0, #0
    9854:	e0a11a04 	adc	r1, r1, r4, lsl #20
    9858:	e8bd4070 	pop	{r4, r5, r6, lr}
    985c:	e12fff1e 	bx	lr
    9860:	e2066102 	and	r6, r6, #-2147483648	; 0x80000000
    9864:	e1861001 	orr	r1, r6, r1
    9868:	e1800002 	orr	r0, r0, r2
    986c:	e0211003 	eor	r1, r1, r3
    9870:	e05440ac 	subs	r4, r4, ip, lsr #1
    9874:	c074500c 	rsbsgt	r5, r4, ip
    9878:	c1811a04 	orrgt	r1, r1, r4, lsl #20
    987c:	c8bd4070 	popgt	{r4, r5, r6, lr}
    9880:	c12fff1e 	bxgt	lr
    9884:	e3811601 	orr	r1, r1, #1048576	; 0x100000
    9888:	e3a0e000 	mov	lr, #0
    988c:	e2544001 	subs	r4, r4, #1
    9890:	ca00005d 	bgt	9a0c <__aeabi_dmul+0x268>
    9894:	e3740036 	cmn	r4, #54	; 0x36
    9898:	d3a00000 	movle	r0, #0
    989c:	d2011102 	andle	r1, r1, #-2147483648	; 0x80000000
    98a0:	d8bd4070 	pople	{r4, r5, r6, lr}
    98a4:	d12fff1e 	bxle	lr
    98a8:	e2644000 	rsb	r4, r4, #0
    98ac:	e2544020 	subs	r4, r4, #32
    98b0:	aa00001a 	bge	9920 <__aeabi_dmul+0x17c>
    98b4:	e294400c 	adds	r4, r4, #12
    98b8:	ca00000c 	bgt	98f0 <__aeabi_dmul+0x14c>
    98bc:	e2844014 	add	r4, r4, #20
    98c0:	e2645020 	rsb	r5, r4, #32
    98c4:	e1a03510 	lsl	r3, r0, r5
    98c8:	e1a00430 	lsr	r0, r0, r4
    98cc:	e1800511 	orr	r0, r0, r1, lsl r5
    98d0:	e2012102 	and	r2, r1, #-2147483648	; 0x80000000
    98d4:	e3c11102 	bic	r1, r1, #-2147483648	; 0x80000000
    98d8:	e0900fa3 	adds	r0, r0, r3, lsr #31
    98dc:	e0a21431 	adc	r1, r2, r1, lsr r4
    98e0:	e19ee083 	orrs	lr, lr, r3, lsl #1
    98e4:	01c00fa3 	biceq	r0, r0, r3, lsr #31
    98e8:	e8bd4070 	pop	{r4, r5, r6, lr}
    98ec:	e12fff1e 	bx	lr
    98f0:	e264400c 	rsb	r4, r4, #12
    98f4:	e2645020 	rsb	r5, r4, #32
    98f8:	e1a03410 	lsl	r3, r0, r4
    98fc:	e1a00530 	lsr	r0, r0, r5
    9900:	e1800411 	orr	r0, r0, r1, lsl r4
    9904:	e2011102 	and	r1, r1, #-2147483648	; 0x80000000
    9908:	e0900fa3 	adds	r0, r0, r3, lsr #31
    990c:	e2a11000 	adc	r1, r1, #0
    9910:	e19ee083 	orrs	lr, lr, r3, lsl #1
    9914:	01c00fa3 	biceq	r0, r0, r3, lsr #31
    9918:	e8bd4070 	pop	{r4, r5, r6, lr}
    991c:	e12fff1e 	bx	lr
    9920:	e2645020 	rsb	r5, r4, #32
    9924:	e18ee510 	orr	lr, lr, r0, lsl r5
    9928:	e1a03430 	lsr	r3, r0, r4
    992c:	e1833511 	orr	r3, r3, r1, lsl r5
    9930:	e1a00431 	lsr	r0, r1, r4
    9934:	e2011102 	and	r1, r1, #-2147483648	; 0x80000000
    9938:	e1c00431 	bic	r0, r0, r1, lsr r4
    993c:	e0800fa3 	add	r0, r0, r3, lsr #31
    9940:	e19ee083 	orrs	lr, lr, r3, lsl #1
    9944:	01c00fa3 	biceq	r0, r0, r3, lsr #31
    9948:	e8bd4070 	pop	{r4, r5, r6, lr}
    994c:	e12fff1e 	bx	lr
    9950:	e3340000 	teq	r4, #0
    9954:	1a000008 	bne	997c <__aeabi_dmul+0x1d8>
    9958:	e2016102 	and	r6, r1, #-2147483648	; 0x80000000
    995c:	e1b00080 	lsls	r0, r0, #1
    9960:	e0a11001 	adc	r1, r1, r1
    9964:	e3110601 	tst	r1, #1048576	; 0x100000
    9968:	02444001 	subeq	r4, r4, #1
    996c:	0afffffa 	beq	995c <__aeabi_dmul+0x1b8>
    9970:	e1811006 	orr	r1, r1, r6
    9974:	e3350000 	teq	r5, #0
    9978:	112fff1e 	bxne	lr
    997c:	e2036102 	and	r6, r3, #-2147483648	; 0x80000000
    9980:	e1b02082 	lsls	r2, r2, #1
    9984:	e0a33003 	adc	r3, r3, r3
    9988:	e3130601 	tst	r3, #1048576	; 0x100000
    998c:	02455001 	subeq	r5, r5, #1
    9990:	0afffffa 	beq	9980 <__aeabi_dmul+0x1dc>
    9994:	e1833006 	orr	r3, r3, r6
    9998:	e12fff1e 	bx	lr
    999c:	e134000c 	teq	r4, ip
    99a0:	e00c5a23 	and	r5, ip, r3, lsr #20
    99a4:	1135000c 	teqne	r5, ip
    99a8:	0a000007 	beq	99cc <__aeabi_dmul+0x228>
    99ac:	e1906081 	orrs	r6, r0, r1, lsl #1
    99b0:	11926083 	orrsne	r6, r2, r3, lsl #1
    99b4:	1affffe5 	bne	9950 <__aeabi_dmul+0x1ac>
    99b8:	e0211003 	eor	r1, r1, r3
    99bc:	e2011102 	and	r1, r1, #-2147483648	; 0x80000000
    99c0:	e3a00000 	mov	r0, #0
    99c4:	e8bd4070 	pop	{r4, r5, r6, lr}
    99c8:	e12fff1e 	bx	lr
    99cc:	e1906081 	orrs	r6, r0, r1, lsl #1
    99d0:	01a00002 	moveq	r0, r2
    99d4:	01a01003 	moveq	r1, r3
    99d8:	11926083 	orrsne	r6, r2, r3, lsl #1
    99dc:	0a000010 	beq	9a24 <__aeabi_dmul+0x280>
    99e0:	e134000c 	teq	r4, ip
    99e4:	1a000001 	bne	99f0 <__aeabi_dmul+0x24c>
    99e8:	e1906601 	orrs	r6, r0, r1, lsl #12
    99ec:	1a00000c 	bne	9a24 <__aeabi_dmul+0x280>
    99f0:	e135000c 	teq	r5, ip
    99f4:	1a000003 	bne	9a08 <__aeabi_dmul+0x264>
    99f8:	e1926603 	orrs	r6, r2, r3, lsl #12
    99fc:	11a00002 	movne	r0, r2
    9a00:	11a01003 	movne	r1, r3
    9a04:	1a000006 	bne	9a24 <__aeabi_dmul+0x280>
    9a08:	e0211003 	eor	r1, r1, r3
    9a0c:	e2011102 	and	r1, r1, #-2147483648	; 0x80000000
    9a10:	e381147f 	orr	r1, r1, #2130706432	; 0x7f000000
    9a14:	e381160f 	orr	r1, r1, #15728640	; 0xf00000
    9a18:	e3a00000 	mov	r0, #0
    9a1c:	e8bd4070 	pop	{r4, r5, r6, lr}
    9a20:	e12fff1e 	bx	lr
    9a24:	e381147f 	orr	r1, r1, #2130706432	; 0x7f000000
    9a28:	e381173e 	orr	r1, r1, #16252928	; 0xf80000
    9a2c:	e8bd4070 	pop	{r4, r5, r6, lr}
    9a30:	e12fff1e 	bx	lr

00009a34 <__aeabi_ddiv>:
    9a34:	e92d4070 	push	{r4, r5, r6, lr}
    9a38:	e3a0c0ff 	mov	ip, #255	; 0xff
    9a3c:	e38ccc07 	orr	ip, ip, #1792	; 0x700
    9a40:	e01c4a21 	ands	r4, ip, r1, lsr #20
    9a44:	101c5a23 	andsne	r5, ip, r3, lsr #20
    9a48:	1134000c 	teqne	r4, ip
    9a4c:	1135000c 	teqne	r5, ip
    9a50:	0b00005e 	bleq	9bd0 <__aeabi_ddiv+0x19c>
    9a54:	e0444005 	sub	r4, r4, r5
    9a58:	e021e003 	eor	lr, r1, r3
    9a5c:	e1925603 	orrs	r5, r2, r3, lsl #12
    9a60:	e1a01601 	lsl	r1, r1, #12
    9a64:	0a00004c 	beq	9b9c <__aeabi_ddiv+0x168>
    9a68:	e1a03603 	lsl	r3, r3, #12
    9a6c:	e3a05201 	mov	r5, #268435456	; 0x10000000
    9a70:	e1853223 	orr	r3, r5, r3, lsr #4
    9a74:	e1833c22 	orr	r3, r3, r2, lsr #24
    9a78:	e1a02402 	lsl	r2, r2, #8
    9a7c:	e1855221 	orr	r5, r5, r1, lsr #4
    9a80:	e1855c20 	orr	r5, r5, r0, lsr #24
    9a84:	e1a06400 	lsl	r6, r0, #8
    9a88:	e20e1102 	and	r1, lr, #-2147483648	; 0x80000000
    9a8c:	e1550003 	cmp	r5, r3
    9a90:	01560002 	cmpeq	r6, r2
    9a94:	e2a440fd 	adc	r4, r4, #253	; 0xfd
    9a98:	e2844c03 	add	r4, r4, #768	; 0x300
    9a9c:	2a000001 	bcs	9aa8 <__aeabi_ddiv+0x74>
    9aa0:	e1b030a3 	lsrs	r3, r3, #1
    9aa4:	e1a02062 	rrx	r2, r2
    9aa8:	e0566002 	subs	r6, r6, r2
    9aac:	e0c55003 	sbc	r5, r5, r3
    9ab0:	e1b030a3 	lsrs	r3, r3, #1
    9ab4:	e1a02062 	rrx	r2, r2
    9ab8:	e3a00601 	mov	r0, #1048576	; 0x100000
    9abc:	e3a0c702 	mov	ip, #524288	; 0x80000
    9ac0:	e056e002 	subs	lr, r6, r2
    9ac4:	e0d5e003 	sbcs	lr, r5, r3
    9ac8:	20466002 	subcs	r6, r6, r2
    9acc:	21a0500e 	movcs	r5, lr
    9ad0:	2180000c 	orrcs	r0, r0, ip
    9ad4:	e1b030a3 	lsrs	r3, r3, #1
    9ad8:	e1a02062 	rrx	r2, r2
    9adc:	e056e002 	subs	lr, r6, r2
    9ae0:	e0d5e003 	sbcs	lr, r5, r3
    9ae4:	20466002 	subcs	r6, r6, r2
    9ae8:	21a0500e 	movcs	r5, lr
    9aec:	218000ac 	orrcs	r0, r0, ip, lsr #1
    9af0:	e1b030a3 	lsrs	r3, r3, #1
    9af4:	e1a02062 	rrx	r2, r2
    9af8:	e056e002 	subs	lr, r6, r2
    9afc:	e0d5e003 	sbcs	lr, r5, r3
    9b00:	20466002 	subcs	r6, r6, r2
    9b04:	21a0500e 	movcs	r5, lr
    9b08:	2180012c 	orrcs	r0, r0, ip, lsr #2
    9b0c:	e1b030a3 	lsrs	r3, r3, #1
    9b10:	e1a02062 	rrx	r2, r2
    9b14:	e056e002 	subs	lr, r6, r2
    9b18:	e0d5e003 	sbcs	lr, r5, r3
    9b1c:	20466002 	subcs	r6, r6, r2
    9b20:	21a0500e 	movcs	r5, lr
    9b24:	218001ac 	orrcs	r0, r0, ip, lsr #3
    9b28:	e195e006 	orrs	lr, r5, r6
    9b2c:	0a00000d 	beq	9b68 <__aeabi_ddiv+0x134>
    9b30:	e1a05205 	lsl	r5, r5, #4
    9b34:	e1855e26 	orr	r5, r5, r6, lsr #28
    9b38:	e1a06206 	lsl	r6, r6, #4
    9b3c:	e1a03183 	lsl	r3, r3, #3
    9b40:	e1833ea2 	orr	r3, r3, r2, lsr #29
    9b44:	e1a02182 	lsl	r2, r2, #3
    9b48:	e1b0c22c 	lsrs	ip, ip, #4
    9b4c:	1affffdb 	bne	9ac0 <__aeabi_ddiv+0x8c>
    9b50:	e3110601 	tst	r1, #1048576	; 0x100000
    9b54:	1a000006 	bne	9b74 <__aeabi_ddiv+0x140>
    9b58:	e1811000 	orr	r1, r1, r0
    9b5c:	e3a00000 	mov	r0, #0
    9b60:	e3a0c102 	mov	ip, #-2147483648	; 0x80000000
    9b64:	eaffffd5 	b	9ac0 <__aeabi_ddiv+0x8c>
    9b68:	e3110601 	tst	r1, #1048576	; 0x100000
    9b6c:	01811000 	orreq	r1, r1, r0
    9b70:	03a00000 	moveq	r0, #0
    9b74:	e254c0fd 	subs	ip, r4, #253	; 0xfd
    9b78:	835c0c07 	cmphi	ip, #1792	; 0x700
    9b7c:	8affff43 	bhi	9890 <__aeabi_dmul+0xec>
    9b80:	e055c003 	subs	ip, r5, r3
    9b84:	0056c002 	subseq	ip, r6, r2
    9b88:	01b0c0a0 	lsrseq	ip, r0, #1
    9b8c:	e2b00000 	adcs	r0, r0, #0
    9b90:	e0a11a04 	adc	r1, r1, r4, lsl #20
    9b94:	e8bd4070 	pop	{r4, r5, r6, lr}
    9b98:	e12fff1e 	bx	lr
    9b9c:	e20ee102 	and	lr, lr, #-2147483648	; 0x80000000
    9ba0:	e18e1621 	orr	r1, lr, r1, lsr #12
    9ba4:	e09440ac 	adds	r4, r4, ip, lsr #1
    9ba8:	c074500c 	rsbsgt	r5, r4, ip
    9bac:	c1811a04 	orrgt	r1, r1, r4, lsl #20
    9bb0:	c8bd4070 	popgt	{r4, r5, r6, lr}
    9bb4:	c12fff1e 	bxgt	lr
    9bb8:	e3811601 	orr	r1, r1, #1048576	; 0x100000
    9bbc:	e3a0e000 	mov	lr, #0
    9bc0:	e2544001 	subs	r4, r4, #1
    9bc4:	eaffff31 	b	9890 <__aeabi_dmul+0xec>
    9bc8:	e185e006 	orr	lr, r5, r6
    9bcc:	eaffff2f 	b	9890 <__aeabi_dmul+0xec>
    9bd0:	e00c5a23 	and	r5, ip, r3, lsr #20
    9bd4:	e134000c 	teq	r4, ip
    9bd8:	0135000c 	teqeq	r5, ip
    9bdc:	0affff90 	beq	9a24 <__aeabi_dmul+0x280>
    9be0:	e134000c 	teq	r4, ip
    9be4:	1a000006 	bne	9c04 <__aeabi_ddiv+0x1d0>
    9be8:	e1904601 	orrs	r4, r0, r1, lsl #12
    9bec:	1affff8c 	bne	9a24 <__aeabi_dmul+0x280>
    9bf0:	e135000c 	teq	r5, ip
    9bf4:	1affff83 	bne	9a08 <__aeabi_dmul+0x264>
    9bf8:	e1a00002 	mov	r0, r2
    9bfc:	e1a01003 	mov	r1, r3
    9c00:	eaffff87 	b	9a24 <__aeabi_dmul+0x280>
    9c04:	e135000c 	teq	r5, ip
    9c08:	1a000004 	bne	9c20 <__aeabi_ddiv+0x1ec>
    9c0c:	e1925603 	orrs	r5, r2, r3, lsl #12
    9c10:	0affff68 	beq	99b8 <__aeabi_dmul+0x214>
    9c14:	e1a00002 	mov	r0, r2
    9c18:	e1a01003 	mov	r1, r3
    9c1c:	eaffff80 	b	9a24 <__aeabi_dmul+0x280>
    9c20:	e1906081 	orrs	r6, r0, r1, lsl #1
    9c24:	11926083 	orrsne	r6, r2, r3, lsl #1
    9c28:	1affff48 	bne	9950 <__aeabi_dmul+0x1ac>
    9c2c:	e1904081 	orrs	r4, r0, r1, lsl #1
    9c30:	1affff74 	bne	9a08 <__aeabi_dmul+0x264>
    9c34:	e1925083 	orrs	r5, r2, r3, lsl #1
    9c38:	1affff5e 	bne	99b8 <__aeabi_dmul+0x214>
    9c3c:	eaffff78 	b	9a24 <__aeabi_dmul+0x280>

00009c40 <__gedf2>:
    9c40:	e3e0c000 	mvn	ip, #0
    9c44:	ea000002 	b	9c54 <__cmpdf2+0x4>

00009c48 <__ledf2>:
    9c48:	e3a0c001 	mov	ip, #1
    9c4c:	ea000000 	b	9c54 <__cmpdf2+0x4>

00009c50 <__cmpdf2>:
    9c50:	e3a0c001 	mov	ip, #1
    9c54:	e52dc004 	push	{ip}		; (str ip, [sp, #-4]!)
    9c58:	e1a0c081 	lsl	ip, r1, #1
    9c5c:	e1f0cacc 	mvns	ip, ip, asr #21
    9c60:	e1a0c083 	lsl	ip, r3, #1
    9c64:	11f0cacc 	mvnsne	ip, ip, asr #21
    9c68:	0a00000e 	beq	9ca8 <__cmpdf2+0x58>
    9c6c:	e28dd004 	add	sp, sp, #4
    9c70:	e190c081 	orrs	ip, r0, r1, lsl #1
    9c74:	0192c083 	orrseq	ip, r2, r3, lsl #1
    9c78:	11310003 	teqne	r1, r3
    9c7c:	01300002 	teqeq	r0, r2
    9c80:	03a00000 	moveq	r0, #0
    9c84:	012fff1e 	bxeq	lr
    9c88:	e3700000 	cmn	r0, #0
    9c8c:	e1310003 	teq	r1, r3
    9c90:	51510003 	cmppl	r1, r3
    9c94:	01500002 	cmpeq	r0, r2
    9c98:	21a00fc3 	asrcs	r0, r3, #31
    9c9c:	31e00fc3 	mvncc	r0, r3, asr #31
    9ca0:	e3800001 	orr	r0, r0, #1
    9ca4:	e12fff1e 	bx	lr
    9ca8:	e1a0c081 	lsl	ip, r1, #1
    9cac:	e1f0cacc 	mvns	ip, ip, asr #21
    9cb0:	1a000001 	bne	9cbc <__cmpdf2+0x6c>
    9cb4:	e190c601 	orrs	ip, r0, r1, lsl #12
    9cb8:	1a000004 	bne	9cd0 <__cmpdf2+0x80>
    9cbc:	e1a0c083 	lsl	ip, r3, #1
    9cc0:	e1f0cacc 	mvns	ip, ip, asr #21
    9cc4:	1affffe8 	bne	9c6c <__cmpdf2+0x1c>
    9cc8:	e192c603 	orrs	ip, r2, r3, lsl #12
    9ccc:	0affffe6 	beq	9c6c <__cmpdf2+0x1c>
    9cd0:	e49d0004 	pop	{r0}		; (ldr r0, [sp], #4)
    9cd4:	e12fff1e 	bx	lr

00009cd8 <__aeabi_cdrcmple>:
    9cd8:	e1a0c000 	mov	ip, r0
    9cdc:	e1a00002 	mov	r0, r2
    9ce0:	e1a0200c 	mov	r2, ip
    9ce4:	e1a0c001 	mov	ip, r1
    9ce8:	e1a01003 	mov	r1, r3
    9cec:	e1a0300c 	mov	r3, ip
    9cf0:	eaffffff 	b	9cf4 <__aeabi_cdcmpeq>

00009cf4 <__aeabi_cdcmpeq>:
    9cf4:	e92d4001 	push	{r0, lr}
    9cf8:	ebffffd4 	bl	9c50 <__cmpdf2>
    9cfc:	e3500000 	cmp	r0, #0
    9d00:	43700000 	cmnmi	r0, #0
    9d04:	e8bd4001 	pop	{r0, lr}
    9d08:	e12fff1e 	bx	lr

00009d0c <__aeabi_dcmpeq>:
    9d0c:	e52de008 	str	lr, [sp, #-8]!
    9d10:	ebfffff7 	bl	9cf4 <__aeabi_cdcmpeq>
    9d14:	03a00001 	moveq	r0, #1
    9d18:	13a00000 	movne	r0, #0
    9d1c:	e49de008 	ldr	lr, [sp], #8
    9d20:	e12fff1e 	bx	lr

00009d24 <__aeabi_dcmplt>:
    9d24:	e52de008 	str	lr, [sp, #-8]!
    9d28:	ebfffff1 	bl	9cf4 <__aeabi_cdcmpeq>
    9d2c:	33a00001 	movcc	r0, #1
    9d30:	23a00000 	movcs	r0, #0
    9d34:	e49de008 	ldr	lr, [sp], #8
    9d38:	e12fff1e 	bx	lr

00009d3c <__aeabi_dcmple>:
    9d3c:	e52de008 	str	lr, [sp, #-8]!
    9d40:	ebffffeb 	bl	9cf4 <__aeabi_cdcmpeq>
    9d44:	93a00001 	movls	r0, #1
    9d48:	83a00000 	movhi	r0, #0
    9d4c:	e49de008 	ldr	lr, [sp], #8
    9d50:	e12fff1e 	bx	lr

00009d54 <__aeabi_dcmpge>:
    9d54:	e52de008 	str	lr, [sp, #-8]!
    9d58:	ebffffde 	bl	9cd8 <__aeabi_cdrcmple>
    9d5c:	93a00001 	movls	r0, #1
    9d60:	83a00000 	movhi	r0, #0
    9d64:	e49de008 	ldr	lr, [sp], #8
    9d68:	e12fff1e 	bx	lr

00009d6c <__aeabi_dcmpgt>:
    9d6c:	e52de008 	str	lr, [sp, #-8]!
    9d70:	ebffffd8 	bl	9cd8 <__aeabi_cdrcmple>
    9d74:	33a00001 	movcc	r0, #1
    9d78:	23a00000 	movcs	r0, #0
    9d7c:	e49de008 	ldr	lr, [sp], #8
    9d80:	e12fff1e 	bx	lr

00009d84 <__aeabi_d2iz>:
    9d84:	e1a02081 	lsl	r2, r1, #1
    9d88:	e2922602 	adds	r2, r2, #2097152	; 0x200000
    9d8c:	2a00000c 	bcs	9dc4 <__aeabi_d2iz+0x40>
    9d90:	5a000009 	bpl	9dbc <__aeabi_d2iz+0x38>
    9d94:	e3e03e3e 	mvn	r3, #992	; 0x3e0
    9d98:	e0532ac2 	subs	r2, r3, r2, asr #21
    9d9c:	9a00000a 	bls	9dcc <__aeabi_d2iz+0x48>
    9da0:	e1a03581 	lsl	r3, r1, #11
    9da4:	e3833102 	orr	r3, r3, #-2147483648	; 0x80000000
    9da8:	e1833aa0 	orr	r3, r3, r0, lsr #21
    9dac:	e3110102 	tst	r1, #-2147483648	; 0x80000000
    9db0:	e1a00233 	lsr	r0, r3, r2
    9db4:	12600000 	rsbne	r0, r0, #0
    9db8:	e12fff1e 	bx	lr
    9dbc:	e3a00000 	mov	r0, #0
    9dc0:	e12fff1e 	bx	lr
    9dc4:	e1900601 	orrs	r0, r0, r1, lsl #12
    9dc8:	1a000002 	bne	9dd8 <__aeabi_d2iz+0x54>
    9dcc:	e2110102 	ands	r0, r1, #-2147483648	; 0x80000000
    9dd0:	03e00102 	mvneq	r0, #-2147483648	; 0x80000000
    9dd4:	e12fff1e 	bx	lr
    9dd8:	e3a00000 	mov	r0, #0
    9ddc:	e12fff1e 	bx	lr

Disassembly of section .data:

00009de0 <clk>:
    9de0:	20101000 	andscs	r1, r0, r0

00009de4 <pwm>:
    9de4:	2020c000 	eorcs	ip, r0, r0

00009de8 <waveform_sine>:
    9de8:	00000020 	andeq	r0, r0, r0, lsr #32
    9dec:	00000023 	andeq	r0, r0, r3, lsr #32
    9df0:	00000026 	andeq	r0, r0, r6, lsr #32
    9df4:	00000029 	andeq	r0, r0, r9, lsr #32
    9df8:	0000002c 	andeq	r0, r0, ip, lsr #32
    9dfc:	0000002f 	andeq	r0, r0, pc, lsr #32
    9e00:	00000031 	andeq	r0, r0, r1, lsr r0
    9e04:	00000034 	andeq	r0, r0, r4, lsr r0
    9e08:	00000036 	andeq	r0, r0, r6, lsr r0
    9e0c:	00000038 	andeq	r0, r0, r8, lsr r0
    9e10:	0000003a 	andeq	r0, r0, sl, lsr r0
    9e14:	0000003c 	andeq	r0, r0, ip, lsr r0
    9e18:	0000003d 	andeq	r0, r0, sp, lsr r0
    9e1c:	0000003e 	andeq	r0, r0, lr, lsr r0
    9e20:	0000003f 	andeq	r0, r0, pc, lsr r0
    9e24:	00000040 	andeq	r0, r0, r0, asr #32
    9e28:	00000040 	andeq	r0, r0, r0, asr #32
    9e2c:	0000003f 	andeq	r0, r0, pc, lsr r0
    9e30:	0000003f 	andeq	r0, r0, pc, lsr r0
    9e34:	0000003e 	andeq	r0, r0, lr, lsr r0
    9e38:	0000003d 	andeq	r0, r0, sp, lsr r0
    9e3c:	0000003c 	andeq	r0, r0, ip, lsr r0
    9e40:	0000003a 	andeq	r0, r0, sl, lsr r0
    9e44:	00000038 	andeq	r0, r0, r8, lsr r0
    9e48:	00000036 	andeq	r0, r0, r6, lsr r0
    9e4c:	00000034 	andeq	r0, r0, r4, lsr r0
    9e50:	00000031 	andeq	r0, r0, r1, lsr r0
    9e54:	0000002f 	andeq	r0, r0, pc, lsr #32
    9e58:	0000002c 	andeq	r0, r0, ip, lsr #32
    9e5c:	00000029 	andeq	r0, r0, r9, lsr #32
    9e60:	00000026 	andeq	r0, r0, r6, lsr #32
    9e64:	00000023 	andeq	r0, r0, r3, lsr #32
    9e68:	00000020 	andeq	r0, r0, r0, lsr #32
    9e6c:	0000001d 	andeq	r0, r0, sp, lsl r0
    9e70:	0000001a 	andeq	r0, r0, sl, lsl r0
    9e74:	00000017 	andeq	r0, r0, r7, lsl r0
    9e78:	00000014 	andeq	r0, r0, r4, lsl r0
    9e7c:	00000011 	andeq	r0, r0, r1, lsl r0
    9e80:	0000000f 	andeq	r0, r0, pc
    9e84:	0000000c 	andeq	r0, r0, ip
    9e88:	0000000a 	andeq	r0, r0, sl
    9e8c:	00000008 	andeq	r0, r0, r8
    9e90:	00000006 	andeq	r0, r0, r6
    9e94:	00000004 	andeq	r0, r0, r4
    9e98:	00000003 	andeq	r0, r0, r3
    9e9c:	00000002 	andeq	r0, r0, r2
    9ea0:	00000001 	andeq	r0, r0, r1
    9ea4:	00000001 	andeq	r0, r0, r1
    9ea8:	00000000 	andeq	r0, r0, r0
    9eac:	00000001 	andeq	r0, r0, r1
    9eb0:	00000001 	andeq	r0, r0, r1
    9eb4:	00000002 	andeq	r0, r0, r2
    9eb8:	00000003 	andeq	r0, r0, r3
    9ebc:	00000004 	andeq	r0, r0, r4
    9ec0:	00000006 	andeq	r0, r0, r6
    9ec4:	00000008 	andeq	r0, r0, r8
    9ec8:	0000000a 	andeq	r0, r0, sl
    9ecc:	0000000c 	andeq	r0, r0, ip
    9ed0:	0000000f 	andeq	r0, r0, pc
    9ed4:	00000011 	andeq	r0, r0, r1, lsl r0
    9ed8:	00000014 	andeq	r0, r0, r4, lsl r0
    9edc:	00000017 	andeq	r0, r0, r7, lsl r0
    9ee0:	0000001a 	andeq	r0, r0, sl, lsl r0
    9ee4:	0000001d 	andeq	r0, r0, sp, lsl r0
    9ee8:	00000020 	andeq	r0, r0, r0, lsr #32

00009eec <speed_multiplyer>:
    9eec:	00000005 	andeq	r0, r0, r5

00009ef0 <gpio>:
    9ef0:	20200000 	eorcs	r0, r0, r0

00009ef4 <spi>:
    9ef4:	20204000 	eorcs	r4, r0, r0

Disassembly of section .rodata:

00009ef8 <SYSTIMERCLO-0x5c>:
    9ef8:	656e6953 	strbvs	r6, [lr, #-2387]!	; 0x953
    9efc:	20666f20 	rsbcs	r6, r6, r0, lsr #30
    9f00:	3a362e34 	bcc	d957d8 <__bss_end__+0xd8b580>
    9f04:	0a642520 	beq	191338c <__bss_end__+0x1909134>
    9f08:	00000000 	andeq	r0, r0, r0
    9f0c:	656e6953 	strbvs	r6, [lr, #-2387]!	; 0x953
    9f10:	20666f20 	rsbcs	r6, r6, r0, lsr #30
    9f14:	34312e33 	ldrtcc	r2, [r1], #-3635	; 0xe33
    9f18:	6425203a 	strtvs	r2, [r5], #-58	; 0x3a
    9f1c:	0000000a 	andeq	r0, r0, sl
    9f20:	656e6953 	strbvs	r6, [lr, #-2387]!	; 0x953
    9f24:	20666f20 	rsbcs	r6, r6, r0, lsr #30
    9f28:	3a352e31 	bcc	d557f4 <__bss_end__+0xd4b59c>
    9f2c:	0a642520 	beq	19133b4 <__bss_end__+0x190915c>
    9f30:	00000000 	andeq	r0, r0, r0
    9f34:	656e6953 	strbvs	r6, [lr, #-2387]!	; 0x953
    9f38:	20666f20 	rsbcs	r6, r6, r0, lsr #30
    9f3c:	3a322e30 	bcc	c95804 <__bss_end__+0xc8b5ac>
    9f40:	0a642520 	beq	19133c8 <__bss_end__+0x1909170>
    9f44:	00000000 	andeq	r0, r0, r0
    9f48:	65657053 	strbvs	r7, [r5, #-83]!	; 0x53
    9f4c:	73692064 	cmnvc	r9, #100	; 0x64
    9f50:	00642520 	rsbeq	r2, r4, r0, lsr #10

00009f54 <SYSTIMERCLO>:
    9f54:	20003004 	andcs	r3, r0, r4

Disassembly of section .bss:

00009f58 <waveform_square>:
	...

0000a058 <waveform_saw>:
	...

0000a158 <waveform_triangle>:
	...

Disassembly of section .debug_info:

00000000 <.debug_info>:
       0:	0000035a 	andeq	r0, r0, sl, asr r3
       4:	00000004 	andeq	r0, r0, r4
       8:	01040000 	mrseq	r0, (UNDEF: 4)
       c:	00000075 	andeq	r0, r0, r5, ror r0
      10:	0000e101 	andeq	lr, r0, r1, lsl #2
      14:	00003700 	andeq	r3, r0, r0, lsl #14
      18:	00801000 	addeq	r1, r0, r0
      1c:	0000e400 	andeq	lr, r0, r0, lsl #8
      20:	00000000 	andeq	r0, r0, r0
      24:	04080200 	streq	r0, [r8], #-512	; 0x200
      28:	00000030 	andeq	r0, r0, r0, lsr r0
      2c:	69050403 	stmdbvs	r5, {r0, r1, sl}
      30:	0200746e 	andeq	r7, r0, #1845493760	; 0x6e000000
      34:	00150704 	andseq	r0, r5, r4, lsl #14
      38:	02040000 	andeq	r0, r4, #0
      3c:	01301602 	teqeq	r0, r2, lsl #12
      40:	42050000 	andmi	r0, r5, #0
      44:	07dc0035 			; <UNDEFINED> instruction: 0x07dc0035
      48:	73354105 	teqvc	r5, #1073741825	; 0x40000001
      4c:	0507a400 	streq	sl, [r7, #-1024]	; 0x400
      50:	f0003541 			; <UNDEFINED> instruction: 0xf0003541
      54:	35470506 	strbcc	r0, [r7, #-1286]	; 0x506
      58:	06bf0073 	sxtheq	r0, r3
      5c:	00354705 	eorseq	r4, r5, r5, lsl #14
      60:	46050690 			; <UNDEFINED> instruction: 0x46050690
      64:	ba007335 	blt	1cd40 <__bss_end__+0x12ae8>
      68:	35460505 	strbcc	r0, [r6, #-1285]	; 0x505
      6c:	0505ba00 	streq	fp, [r5, #-2560]	; 0xa00
      70:	93003545 	movwls	r3, #1349	; 0x545
      74:	35440505 	strbcc	r0, [r4, #-1285]	; 0x505
      78:	04cb0073 	strbeq	r0, [fp], #115	; 0x73
      7c:	00354405 	eorseq	r4, r5, r5, lsl #8
      80:	430504cb 	movwmi	r0, #21707	; 0x54cb
      84:	aa007335 	bge	1cd60 <__bss_end__+0x12b08>
      88:	35430504 	strbcc	r0, [r3, #-1284]	; 0x504
      8c:	05048b00 	streq	r8, [r4, #-2816]	; 0xb00
      90:	ee003442 	cdp	4, 0, cr3, cr0, cr2, {2}
      94:	34410503 	strbcc	r0, [r1], #-1283	; 0x503
      98:	03d20073 	bicseq	r0, r2, #115	; 0x73
      9c:	00344105 	eorseq	r4, r4, r5, lsl #2
      a0:	470503b8 			; <UNDEFINED> instruction: 0x470503b8
      a4:	9f007334 	svcls	0x00007334
      a8:	34470503 	strbcc	r0, [r7], #-1283	; 0x503
      ac:	05038800 	streq	r8, [r3, #-2048]	; 0x800
      b0:	00733446 	rsbseq	r3, r3, r6, asr #8
      b4:	460502f2 			; <UNDEFINED> instruction: 0x460502f2
      b8:	02dd0034 	sbcseq	r0, sp, #52	; 0x34
      bc:	00344505 	eorseq	r4, r4, r5, lsl #10
      c0:	440502ca 	strmi	r0, [r5], #-714	; 0x2ca
      c4:	b7007334 	smladxlt	r0, r4, r3, r7
      c8:	34440502 	strbcc	r0, [r4], #-1282	; 0x502
      cc:	0502a600 	streq	sl, [r2, #-1536]	; 0x600
      d0:	00733443 	rsbseq	r3, r3, r3, asr #8
      d4:	43050295 	movwmi	r0, #21141	; 0x5295
      d8:	02860034 	addeq	r0, r6, #52	; 0x34
      dc:	00334205 	eorseq	r4, r3, r5, lsl #4
      e0:	410501f7 	strdmi	r0, [r5, -r7]
      e4:	e9007333 	stmdb	r0, {r0, r1, r4, r5, r8, r9, ip, sp, lr}
      e8:	33410501 	movtcc	r0, #5377	; 0x1501
      ec:	0501dc00 	streq	sp, [r1, #-3072]	; 0xc00
      f0:	00733347 	rsbseq	r3, r3, r7, asr #6
      f4:	470501d0 			; <UNDEFINED> instruction: 0x470501d0
      f8:	01c40033 	biceq	r0, r4, r3, lsr r0
      fc:	73334605 	teqvc	r3, #5242880	; 0x500000
     100:	0501b900 	streq	fp, [r1, #-2304]	; 0x900
     104:	af003346 	svcge	0x00003346
     108:	33450501 	movtcc	r0, #21761	; 0x5501
     10c:	0501a500 	streq	sl, [r1, #-1280]	; 0x500
     110:	00733344 	rsbseq	r3, r3, r4, asr #6
     114:	4405019c 	strmi	r0, [r5], #-412	; 0x19c
     118:	01930033 	orrseq	r0, r3, r3, lsr r0
     11c:	73334305 	teqvc	r3, #335544320	; 0x14000000
     120:	05018b00 	streq	r8, [r1, #-2816]	; 0xb00
     124:	86003343 	strhi	r3, [r0], -r3, asr #6
     128:	00060602 	andeq	r0, r6, r2, lsl #12
     12c:	00000000 	andeq	r0, r0, r0
     130:	0000d107 	andeq	sp, r0, r7, lsl #2
     134:	3a410200 	bcc	104093c <__bss_end__+0x10366e4>
     138:	04000000 	streq	r0, [r0], #-0
     13c:	68430204 	stmdavs	r3, {r2, r9}^
     140:	06000001 	streq	r0, [r0], -r1
     144:	00000000 	andeq	r0, r0, r0
     148:	09c4da80 	stmibeq	r4, {r7, r9, fp, ip, lr, pc}^
     14c:	00010d06 	andeq	r0, r1, r6, lsl #26
     150:	e2ad8000 	adc	r8, sp, #0
     154:	54510504 	ldrbpl	r0, [r1], #-1284	; 0x504
     158:	96c00052 			; <UNDEFINED> instruction: 0x96c00052
     15c:	450502b1 	strmi	r0, [r5, #-689]	; 0x2b1
     160:	a0005449 	andge	r5, r0, r9, asr #8
     164:	000198cb 	andeq	r9, r1, fp, asr #17
     168:	0000d907 	andeq	sp, r0, r7, lsl #18
     16c:	3b490200 	blcc	1240974 <__bss_end__+0x123671c>
     170:	08000001 	stmdaeq	r0, {r0}
     174:	944b0208 	strbls	r0, [fp], #-520	; 0x208
     178:	09000001 	stmdbeq	r0, {r0}
     17c:	00000167 	andeq	r0, r0, r7, ror #2
     180:	01304c02 	teqeq	r0, r2, lsl #24
     184:	09000000 	stmdbeq	r0, {}	; <UNPREDICTABLE>
     188:	000004a7 	andeq	r0, r0, r7, lsr #9
     18c:	01684d02 	cmneq	r8, r2, lsl #26
     190:	00040000 	andeq	r0, r4, r0
     194:	0000ff07 	andeq	pc, r0, r7, lsl #30
     198:	734e0200 	movtvc	r0, #57856	; 0xe200
     19c:	08000001 	stmdaeq	r0, {r0}
     1a0:	c00e0304 	andgt	r0, lr, r4, lsl #6
     1a4:	09000001 	stmdbeq	r0, {r0}
     1a8:	00000070 	andeq	r0, r0, r0, ror r0
     1ac:	002c0f03 	eoreq	r0, ip, r3, lsl #30
     1b0:	09000000 	stmdbeq	r0, {}	; <UNPREDICTABLE>
     1b4:	00000107 	andeq	r0, r0, r7, lsl #2
     1b8:	01c01003 	biceq	r1, r0, r3
     1bc:	00040000 	andeq	r0, r4, r0
     1c0:	0001940a 	andeq	r9, r1, sl, lsl #8
     1c4:	0001cf00 	andeq	ip, r1, r0, lsl #30
     1c8:	01cf0b00 	biceq	r0, pc, r0, lsl #22
     1cc:	02000000 	andeq	r0, r0, #0
     1d0:	00a00704 	adceq	r0, r0, r4, lsl #14
     1d4:	21070000 	mrscs	r0, (UNDEF: 7)
     1d8:	03000001 	movweq	r0, #1
     1dc:	00019f11 	andeq	r9, r1, r1, lsl pc
     1e0:	06010200 	streq	r0, [r1], -r0, lsl #4
     1e4:	000000bb 	strheq	r0, [r0], -fp
     1e8:	b9080102 	stmdblt	r8, {r1, r8}
     1ec:	02000000 	andeq	r0, r0, #0
     1f0:	00c70502 	sbceq	r0, r7, r2, lsl #10
     1f4:	02020000 	andeq	r0, r2, #0
     1f8:	0000ec07 	andeq	lr, r0, r7, lsl #24
     1fc:	05080200 	streq	r0, [r8, #-512]	; 0x200
     200:	00000022 	andeq	r0, r0, r2, lsr #32
     204:	0b070802 	bleq	1c2214 <__bss_end__+0x1b7fbc>
     208:	02000000 	andeq	r0, r0, #0
     20c:	00270504 	eoreq	r0, r7, r4, lsl #10
     210:	04020000 	streq	r0, [r2], #-0
     214:	00001007 	andeq	r1, r0, r7
     218:	08010200 	stmdaeq	r1, {r9}
     21c:	000000c2 	andeq	r0, r0, r2, asr #1
     220:	0226040c 	eoreq	r0, r6, #12, 8	; 0xc000000
     224:	190d0000 	stmdbne	sp, {}	; <UNPREDICTABLE>
     228:	0e000002 	cdpeq	0, 0, cr0, cr0, cr2, {0}
     22c:	0000011c 	andeq	r0, r0, ip, lsl r1
     230:	80100601 	andshi	r0, r0, r1, lsl #12
     234:	00e40000 	rsceq	r0, r4, r0
     238:	9c010000 	stcls	0, cr0, [r1], {-0}
     23c:	00000315 	andeq	r0, r0, r5, lsl r3
     240:	0100780f 	tsteq	r0, pc, lsl #16
     244:	0000250f 	andeq	r2, r0, pc, lsl #10
     248:	00000000 	andeq	r0, r0, r0
     24c:	80201000 	eorhi	r1, r0, r0
     250:	03360000 	teqeq	r6, #0
     254:	026f0000 	rsbeq	r0, pc, #0
     258:	06110000 	ldreq	r0, [r1], -r0
     25c:	51049350 	tstpl	r4, r0, asr r3
     260:	f40b0493 	vst3.32	{d0-d2}, [fp :64], r3
     264:	66660825 	strbtvs	r0, [r6], -r5, lsr #16
     268:	66666666 	strbtvs	r6, [r6], -r6, ror #12
     26c:	10004012 	andne	r4, r0, r2, lsl r0
     270:	0000803c 	andeq	r8, r0, ip, lsr r0
     274:	0000034b 	andeq	r0, r0, fp, asr #6
     278:	00000286 	andeq	r0, r0, r6, lsl #5
     27c:	05500111 	ldrbeq	r0, [r0, #-273]	; 0x111
     280:	009ef803 	addseq	pc, lr, r3, lsl #16
     284:	48100000 	ldmdami	r0, {}	; <UNPREDICTABLE>
     288:	36000080 	strcc	r0, [r0], -r0, lsl #1
     28c:	a8000003 	stmdage	r0, {r0, r1}
     290:	11000002 	tstne	r0, r2
     294:	04935006 	ldreq	r5, [r3], #6
     298:	0b049351 	bleq	124fe4 <__bss_end__+0x11ad8c>
     29c:	1f0825f4 	svcne	0x000825f4
     2a0:	b851eb85 	ldmdalt	r1, {r0, r2, r7, r8, r9, fp, sp, lr, pc}^
     2a4:	0040091e 	subeq	r0, r0, lr, lsl r9
     2a8:	00806410 	addeq	r6, r0, r0, lsl r4
     2ac:	00034b00 	andeq	r4, r3, r0, lsl #22
     2b0:	0002bf00 	andeq	fp, r2, r0, lsl #30
     2b4:	50011100 	andpl	r1, r1, r0, lsl #2
     2b8:	9f0c0305 	svcls	0x000c0305
     2bc:	12000000 	andne	r0, r0, #0
     2c0:	00008070 	andeq	r8, r0, r0, ror r0
     2c4:	00000336 	andeq	r0, r0, r6, lsr r3
     2c8:	00808c10 	addeq	r8, r0, r0, lsl ip
     2cc:	00034b00 	andeq	r4, r3, r0, lsl #22
     2d0:	0002df00 	andeq	sp, r2, r0, lsl #30
     2d4:	50011100 	andpl	r1, r1, r0, lsl #2
     2d8:	9f200305 	svcls	0x00200305
     2dc:	10000000 	andne	r0, r0, r0
     2e0:	00008098 	muleq	r0, r8, r0
     2e4:	00000336 	andeq	r0, r0, r6, lsr r3
     2e8:	00000301 	andeq	r0, r0, r1, lsl #6
     2ec:	93500611 	cmpls	r0, #17825792	; 0x1100000
     2f0:	04935104 	ldreq	r5, [r3], #260	; 0x104
     2f4:	0825f40b 	stmdaeq	r5!, {r0, r1, r3, sl, ip, sp, lr, pc}
     2f8:	9999999a 	ldmibls	r9, {r1, r3, r4, r7, r8, fp, ip, pc}
     2fc:	3fc99999 	svccc	0x00c99999
     300:	80b41300 	adcshi	r1, r4, r0, lsl #6
     304:	034b0000 	movteq	r0, #45056	; 0xb000
     308:	01110000 	tsteq	r1, r0
     30c:	34030550 	strcc	r0, [r3], #-1360	; 0x550
     310:	0000009f 	muleq	r0, pc, r0	; <UNPREDICTABLE>
     314:	00611400 	rsbeq	r1, r1, r0, lsl #8
     318:	15030000 	strne	r0, [r3, #-0]
     31c:	000001d6 	ldrdeq	r0, [r0], -r6
     320:	0000a914 	andeq	sl, r0, r4, lsl r9
     324:	d6270300 	strtle	r0, [r7], -r0, lsl #6
     328:	14000001 	strne	r0, [r0], #-1
     32c:	00000112 	andeq	r0, r0, r2, lsl r1
     330:	01d65303 	bicseq	r5, r6, r3, lsl #6
     334:	e4150000 	ldr	r0, [r5], #-0
     338:	04000001 	streq	r0, [r0], #-1
     33c:	0000250f 	andeq	r2, r0, pc, lsl #10
     340:	00034b00 	andeq	r4, r3, r0, lsl #22
     344:	00251600 	eoreq	r1, r5, r0, lsl #12
     348:	17000000 	strne	r0, [r0, -r0]
     34c:	0000053e 	andeq	r0, r0, lr, lsr r5
     350:	002cb605 	eoreq	fp, ip, r5, lsl #12
     354:	20160000 	andscs	r0, r6, r0
     358:	18000002 	stmdane	r0, {r1}
     35c:	00870000 	addeq	r0, r7, r0
     360:	00040000 	andeq	r0, r4, r0
     364:	00000129 	andeq	r0, r0, r9, lsr #2
     368:	00750104 	rsbseq	r0, r5, r4, lsl #2
     36c:	3d010000 	stccc	0, cr0, [r1, #-0]
     370:	37000001 	strcc	r0, [r0, -r1]
     374:	f8000000 			; <UNDEFINED> instruction: 0xf8000000
     378:	38000080 	stmdacc	r0, {r7}
     37c:	b0000000 	andlt	r0, r0, r0
     380:	02000000 	andeq	r0, r0, #0
     384:	00000146 	andeq	r0, r0, r6, asr #2
     388:	80f80601 	rscshi	r0, r8, r1, lsl #12
     38c:	00380000 	eorseq	r0, r8, r0
     390:	9c010000 	stcls	0, cr0, [r1], {-0}
     394:	0000005e 	andeq	r0, r0, lr, asr r0
     398:	73736203 	cmnvc	r3, #805306368	; 0x30000000
     39c:	5e070100 	adfpls	f0, f7, f0
     3a0:	48000000 	stmdami	r0, {}	; <UNPREDICTABLE>
     3a4:	04000000 	streq	r0, [r0], #-0
     3a8:	00000135 	andeq	r0, r0, r5, lsr r1
     3ac:	005e0801 	subseq	r0, lr, r1, lsl #16
     3b0:	20050000 	andcs	r0, r5, r0
     3b4:	81000081 	smlabbhi	r0, r1, r0, r0
     3b8:	00000000 	andeq	r0, r0, r0
     3bc:	00640406 	rsbeq	r0, r4, r6, lsl #8
     3c0:	04070000 	streq	r0, [r7], #-0
     3c4:	746e6905 	strbtvc	r6, [lr], #-2309	; 0x905
     3c8:	014e0800 	cmpeq	lr, r0, lsl #16
     3cc:	01010000 	mrseq	r0, (UNDEF: 1)
     3d0:	00000064 	andeq	r0, r0, r4, rrx
     3d4:	00012908 	andeq	r2, r1, r8, lsl #18
     3d8:	64020100 	strvs	r0, [r2], #-256	; 0x100
     3dc:	09000000 	stmdbeq	r0, {}	; <UNPREDICTABLE>
     3e0:	0000011c 	andeq	r0, r0, ip, lsl r1
     3e4:	000a0401 	andeq	r0, sl, r1, lsl #8
     3e8:	0003c800 	andeq	ip, r3, r0, lsl #16
     3ec:	b5000400 	strlt	r0, [r0, #-1024]	; 0x400
     3f0:	04000001 	streq	r0, [r0], #-1
     3f4:	00007501 	andeq	r7, r0, r1, lsl #10
     3f8:	020f0100 	andeq	r0, pc, #0, 2
     3fc:	00370000 	eorseq	r0, r7, r0
     400:	81300000 	teqhi	r0, r0
     404:	02140000 	andseq	r0, r4, #0
     408:	00f20000 	rscseq	r0, r2, r0
     40c:	02020000 	andeq	r0, r2, #0
     410:	011b1602 	tsteq	fp, r2, lsl #12
     414:	42030000 	andmi	r0, r3, #0
     418:	07dc0035 			; <UNDEFINED> instruction: 0x07dc0035
     41c:	73354103 	teqvc	r5, #-1073741824	; 0xc0000000
     420:	0307a400 	movweq	sl, #29696	; 0x7400
     424:	f0003541 			; <UNDEFINED> instruction: 0xf0003541
     428:	35470306 	strbcc	r0, [r7, #-774]	; 0x306
     42c:	06bf0073 	sxtheq	r0, r3
     430:	00354703 	eorseq	r4, r5, r3, lsl #14
     434:	46030690 			; <UNDEFINED> instruction: 0x46030690
     438:	ba007335 	blt	1d114 <__bss_end__+0x12ebc>
     43c:	35460305 	strbcc	r0, [r6, #-773]	; 0x305
     440:	0305ba00 	movweq	fp, #23040	; 0x5a00
     444:	93003545 	movwls	r3, #1349	; 0x545
     448:	35440305 	strbcc	r0, [r4, #-773]	; 0x305
     44c:	04cb0073 	strbeq	r0, [fp], #115	; 0x73
     450:	00354403 	eorseq	r4, r5, r3, lsl #8
     454:	430304cb 	movwmi	r0, #13515	; 0x34cb
     458:	aa007335 	bge	1d134 <__bss_end__+0x12edc>
     45c:	35430304 	strbcc	r0, [r3, #-772]	; 0x304
     460:	03048b00 	movweq	r8, #19200	; 0x4b00
     464:	ee003442 	cdp	4, 0, cr3, cr0, cr2, {2}
     468:	34410303 	strbcc	r0, [r1], #-771	; 0x303
     46c:	03d20073 	bicseq	r0, r2, #115	; 0x73
     470:	00344103 	eorseq	r4, r4, r3, lsl #2
     474:	470303b8 			; <UNDEFINED> instruction: 0x470303b8
     478:	9f007334 	svcls	0x00007334
     47c:	34470303 	strbcc	r0, [r7], #-771	; 0x303
     480:	03038800 	movweq	r8, #14336	; 0x3800
     484:	00733446 	rsbseq	r3, r3, r6, asr #8
     488:	460302f2 			; <UNDEFINED> instruction: 0x460302f2
     48c:	02dd0034 	sbcseq	r0, sp, #52	; 0x34
     490:	00344503 	eorseq	r4, r4, r3, lsl #10
     494:	440302ca 	strmi	r0, [r3], #-714	; 0x2ca
     498:	b7007334 	smladxlt	r0, r4, r3, r7
     49c:	34440302 	strbcc	r0, [r4], #-770	; 0x302
     4a0:	0302a600 	movweq	sl, #9728	; 0x2600
     4a4:	00733443 	rsbseq	r3, r3, r3, asr #8
     4a8:	43030295 	movwmi	r0, #12949	; 0x3295
     4ac:	02860034 	addeq	r0, r6, #52	; 0x34
     4b0:	00334203 	eorseq	r4, r3, r3, lsl #4
     4b4:	410301f7 	strdmi	r0, [r3, -r7]
     4b8:	e9007333 	stmdb	r0, {r0, r1, r4, r5, r8, r9, ip, sp, lr}
     4bc:	33410301 	movtcc	r0, #4865	; 0x1301
     4c0:	0301dc00 	movweq	sp, #7168	; 0x1c00
     4c4:	00733347 	rsbseq	r3, r3, r7, asr #6
     4c8:	470301d0 			; <UNDEFINED> instruction: 0x470301d0
     4cc:	01c40033 	biceq	r0, r4, r3, lsr r0
     4d0:	73334603 	teqvc	r3, #3145728	; 0x300000
     4d4:	0301b900 	movweq	fp, #6400	; 0x1900
     4d8:	af003346 	svcge	0x00003346
     4dc:	33450301 	movtcc	r0, #21249	; 0x5301
     4e0:	0301a500 	movweq	sl, #5376	; 0x1500
     4e4:	00733344 	rsbseq	r3, r3, r4, asr #6
     4e8:	4403019c 	strmi	r0, [r3], #-412	; 0x19c
     4ec:	01930033 	orrseq	r0, r3, r3, lsr r0
     4f0:	73334303 	teqvc	r3, #201326592	; 0xc000000
     4f4:	03018b00 	movweq	r8, #6912	; 0x1b00
     4f8:	86003343 	strhi	r3, [r0], -r3, asr #6
     4fc:	00060402 	andeq	r0, r6, r2, lsl #8
     500:	00000000 	andeq	r0, r0, r0
     504:	0000d105 	andeq	sp, r0, r5, lsl #2
     508:	25410200 	strbcs	r0, [r1, #-512]	; 0x200
     50c:	02000000 	andeq	r0, r0, #0
     510:	53430204 	movtpl	r0, #12804	; 0x3204
     514:	04000001 	streq	r0, [r0], #-1
     518:	00000000 	andeq	r0, r0, r0
     51c:	09c4da80 	stmibeq	r4, {r7, r9, fp, ip, lr, pc}^
     520:	00010d04 	andeq	r0, r1, r4, lsl #26
     524:	e2ad8000 	adc	r8, sp, #0
     528:	54510304 	ldrbpl	r0, [r1], #-772	; 0x304
     52c:	96c00052 			; <UNDEFINED> instruction: 0x96c00052
     530:	450302b1 	strmi	r0, [r3, #-689]	; 0x2b1
     534:	a0005449 	andge	r5, r0, r9, asr #8
     538:	000198cb 	andeq	r9, r1, fp, asr #17
     53c:	0000d905 	andeq	sp, r0, r5, lsl #18
     540:	26490200 	strbcs	r0, [r9], -r0, lsl #4
     544:	06000001 	streq	r0, [r0], -r1
     548:	7f4b0208 	svcvc	0x004b0208
     54c:	07000001 	streq	r0, [r0, -r1]
     550:	00000167 	andeq	r0, r0, r7, ror #2
     554:	011b4c02 	tsteq	fp, r2, lsl #24
     558:	07000000 	streq	r0, [r0, -r0]
     55c:	000004a7 	andeq	r0, r0, r7, lsr #9
     560:	01534d02 	cmpeq	r3, r2, lsl #26
     564:	00040000 	andeq	r0, r4, r0
     568:	0000ff05 	andeq	pc, r0, r5, lsl #30
     56c:	5e4e0200 	cdppl	2, 4, cr0, cr14, cr0, {0}
     570:	08000001 	stmdaeq	r0, {r0}
     574:	00000217 	andeq	r0, r0, r7, lsl r2
     578:	01d16701 	bicseq	r6, r1, r1, lsl #14
     57c:	81300000 	teqhi	r0, r0
     580:	008c0000 	addeq	r0, ip, r0
     584:	9c010000 	stcls	0, cr0, [r1], {-0}
     588:	000001d1 	ldrdeq	r0, [r0], -r1
     58c:	00016c09 	andeq	r6, r1, r9, lsl #24
     590:	d1670100 	cmnle	r7, r0, lsl #2
     594:	68000001 	stmdavs	r0, {r0}
     598:	0a000000 	beq	5a0 <_start-0x7a60>
     59c:	00000242 	andeq	r0, r0, r2, asr #4
     5a0:	01d17001 	bicseq	r7, r1, r1
     5a4:	00960000 	addseq	r0, r6, r0
     5a8:	ff0a0000 			; <UNDEFINED> instruction: 0xff0a0000
     5ac:	01000001 	tsteq	r0, r1
     5b0:	0001d171 	andeq	sp, r1, r1, ror r1
     5b4:	0000b400 	andeq	fp, r0, r0, lsl #8
     5b8:	040b0000 	streq	r0, [fp], #-0
     5bc:	00001507 	andeq	r1, r0, r7, lsl #10
     5c0:	015c0c00 	cmpeq	ip, r0, lsl #24
     5c4:	8b010000 	blhi	405cc <__bss_end__+0x36374>
     5c8:	000081bc 			; <UNDEFINED> instruction: 0x000081bc
     5cc:	000000f0 	strdeq	r0, [r0], -r0	; <UNPREDICTABLE>
     5d0:	02b19c01 	adcseq	r9, r1, #256	; 0x100
     5d4:	ba0d0000 	blt	3405dc <__bss_end__+0x336384>
     5d8:	01000001 	tsteq	r0, r1
     5dc:	00017f8b 	andeq	r7, r1, fp, lsl #31
     5e0:	58910200 	ldmpl	r1, {r9}
     5e4:	00019109 	andeq	r9, r1, r9, lsl #2
     5e8:	b18b0100 	orrlt	r0, fp, r0, lsl #2
     5ec:	0d000002 	stceq	0, cr0, [r0, #-8]
     5f0:	0e000001 	cdpeq	0, 0, cr0, cr0, cr1, {0}
     5f4:	000001d2 	ldrdeq	r0, [r0], -r2
     5f8:	02b89201 	adcseq	r9, r8, #268435456	; 0x10000000
     5fc:	03060000 	movweq	r0, #24576	; 0x6000
     600:	00009de8 	andeq	r9, r0, r8, ror #27
     604:	81e00f9f 	strexhhi	r0, pc, [r0]	; <UNPREDICTABLE>
     608:	00b40000 	adcseq	r0, r4, r0
     60c:	029a0000 	addseq	r0, sl, #0
     610:	69100000 	ldmdbvs	r0, {}	; <UNPREDICTABLE>
     614:	b1c10100 	biclt	r0, r1, r0, lsl #2
     618:	39000002 	stmdbcc	r0, {r1}
     61c:	0a000001 	beq	628 <_start-0x79d8>
     620:	000001bf 			; <UNDEFINED> instruction: 0x000001bf
     624:	02b1c301 	adcseq	ip, r1, #67108864	; 0x4000000
     628:	01630000 	cmneq	r3, r0
     62c:	00110000 	andseq	r0, r1, r0
     630:	5e000000 	cdppl	0, 0, cr0, cr0, cr0, {0}
     634:	0a000002 	beq	644 <_start-0x79bc>
     638:	000001b3 			; <UNDEFINED> instruction: 0x000001b3
     63c:	02b1c601 	adcseq	ip, r1, #1048576	; 0x100000
     640:	01820000 	orreq	r0, r2, r0
     644:	12000000 	andne	r0, r0, #0
     648:	000081f8 	strdeq	r8, [r0], -r8	; <UNPREDICTABLE>
     64c:	000003be 			; <UNDEFINED> instruction: 0x000003be
     650:	00000273 	andeq	r0, r0, r3, ror r2
     654:	03500113 	cmpeq	r0, #-1073741820	; 0xc0000004
     658:	0007d00a 	andeq	sp, r7, sl
     65c:	00820c12 	addeq	r0, r2, r2, lsl ip
     660:	0003be00 	andeq	fp, r3, r0, lsl #28
     664:	00028800 	andeq	r8, r2, r0, lsl #16
     668:	50011300 	andpl	r1, r1, r0, lsl #6
     66c:	07d00a03 	ldrbeq	r0, [r0, r3, lsl #20]
     670:	822c1400 	eorhi	r1, ip, #0, 8
     674:	03be0000 			; <UNDEFINED> instruction: 0x03be0000
     678:	01130000 	tsteq	r3, r0
     67c:	d00a0350 	andle	r0, sl, r0, asr r3
     680:	14000007 	strne	r0, [r0], #-7
     684:	000081d8 	ldrdeq	r8, [r0], -r8	; <UNPREDICTABLE>
     688:	0000018a 	andeq	r0, r0, sl, lsl #3
     68c:	08500113 	ldmdaeq	r0, {r0, r1, r4, r8}^
     690:	0294007d 	addseq	r0, r4, #125	; 0x7d
     694:	1affff0a 	bne	2c4 <_start-0x7d3c>
     698:	04150000 	ldreq	r0, [r5], #-0
     69c:	746e6905 	strbtvc	r6, [lr], #-2309	; 0x905
     6a0:	d1041600 	tstle	r4, r0, lsl #12
     6a4:	17000001 	strne	r0, [r0, -r1]
     6a8:	00000237 	andeq	r0, r0, r7, lsr r2
     6ac:	82acd701 	adchi	sp, ip, #262144	; 0x40000
     6b0:	00940000 	addseq	r0, r4, r0
     6b4:	9c010000 	stcls	0, cr0, [r1], {-0}
     6b8:	000002f2 	strdeq	r0, [r0], -r2
     6bc:	01006910 	tsteq	r0, r0, lsl r9
     6c0:	0002b1d8 	ldrdeq	fp, [r2], -r8
     6c4:	00019500 	andeq	r9, r1, r0, lsl #10
     6c8:	82d81400 	sbcshi	r1, r8, #0, 8
     6cc:	03be0000 			; <UNDEFINED> instruction: 0x03be0000
     6d0:	01130000 	tsteq	r3, r0
     6d4:	d00a0350 	andle	r0, sl, r0, asr r3
     6d8:	18000007 	stmdane	r0, {r0, r1, r2}
     6dc:	00000227 	andeq	r0, r0, r7, lsr #4
     6e0:	40012801 	andmi	r2, r1, r1, lsl #16
     6e4:	04000083 	streq	r0, [r0], #-131	; 0x83
     6e8:	01000000 	mrseq	r0, (UNDEF: 0)
     6ec:	01fa199c 			; <UNDEFINED> instruction: 0x01fa199c
     6f0:	4e010000 	cdpmi	0, 0, cr0, cr1, cr0, {0}
     6f4:	00000315 	andeq	r0, r0, r5, lsl r3
     6f8:	9ef00305 	cdpls	3, 15, cr0, cr0, cr5, {0}
     6fc:	04160000 	ldreq	r0, [r6], #-0
     700:	0000031b 	andeq	r0, r0, fp, lsl r3
     704:	0001d11a 	andeq	sp, r1, sl, lsl r1
     708:	6c631b00 	stclvs	11, cr1, [r3], #-0
     70c:	4f01006b 	svcmi	0x0001006b
     710:	00000315 	andeq	r0, r0, r5, lsl r3
     714:	9de00305 	stclls	3, cr0, [r0, #20]!
     718:	701b0000 	andsvc	r0, fp, r0
     71c:	01006d77 	tsteq	r0, r7, ror sp
     720:	00031550 	andeq	r1, r3, r0, asr r5
     724:	e4030500 	str	r0, [r3], #-1280	; 0x500
     728:	1c00009d 	stcne	0, cr0, [r0], {157}	; 0x9d
     72c:	000001d1 	ldrdeq	r0, [r0], -r1
     730:	00000352 	andeq	r0, r0, r2, asr r3
     734:	0003521d 	andeq	r5, r3, sp, lsl r2
     738:	0b003f00 	bleq	10340 <__bss_end__+0x60e8>
     73c:	00a00704 	adceq	r0, r0, r4, lsl #14
     740:	a3190000 	tstge	r9, #0
     744:	01000001 	tsteq	r0, r1
     748:	00034253 	andeq	r4, r3, r3, asr r2
     74c:	58030500 	stmdapl	r3, {r8, sl}
     750:	1900009f 	stmdbne	r0, {r0, r1, r2, r3, r4, r7}
     754:	0000017f 	andeq	r0, r0, pc, ror r1
     758:	03425401 	movteq	r5, #9217	; 0x2401
     75c:	03050000 	movweq	r0, #20480	; 0x5000
     760:	0000a158 	andeq	sl, r0, r8, asr r1
     764:	0001c519 	andeq	ip, r1, r9, lsl r5
     768:	42550100 	subsmi	r0, r5, #0, 2
     76c:	05000003 	streq	r0, [r0, #-3]
     770:	00a05803 	adceq	r5, r0, r3, lsl #16
     774:	01d11c00 	bicseq	r1, r1, r0, lsl #24
     778:	039c0000 	orrseq	r0, ip, #0
     77c:	521d0000 	andspl	r0, sp, #0
     780:	40000003 	andmi	r0, r0, r3
     784:	01db1900 	bicseq	r1, fp, r0, lsl #18
     788:	e4010000 	str	r0, [r1], #-0
     78c:	0000038c 	andeq	r0, r0, ip, lsl #7
     790:	9de80305 	stclls	3, cr0, [r8, #20]!
     794:	e9190000 	ldmdb	r9, {}	; <UNPREDICTABLE>
     798:	01000001 	tsteq	r0, r1
     79c:	0002b158 	andeq	fp, r2, r8, asr r1
     7a0:	ec030500 	cfstr32	mvfx0, [r3], {-0}
     7a4:	1e00009e 	mcrne	0, 0, r0, cr0, cr14, {4}
     7a8:	00000176 	andeq	r0, r0, r6, ror r1
     7ac:	d11f0f03 	tstle	pc, r3, lsl #30
     7b0:	00000001 	andeq	r0, r0, r1
     7b4:	0000c800 	andeq	ip, r0, r0, lsl #16
     7b8:	6a000400 	bvs	17c0 <_start-0x6840>
     7bc:	04000003 	streq	r0, [r0], #-3
     7c0:	00007501 	andeq	r7, r0, r1, lsl #10
     7c4:	025d0100 	subseq	r0, sp, #0, 2
     7c8:	00370000 	eorseq	r0, r7, r0
     7cc:	83440000 	movthi	r0, #16384	; 0x4000
     7d0:	00200000 	eoreq	r0, r0, r0
     7d4:	01ae0000 			; <UNDEFINED> instruction: 0x01ae0000
     7d8:	04020000 	streq	r0, [r2], #-0
     7dc:	746e6905 	strbtvc	r6, [lr], #-2309	; 0x905
     7e0:	024f0300 	subeq	r0, pc, #0, 6
     7e4:	d4020000 	strle	r0, [r2], #-0
     7e8:	00000037 	andeq	r0, r0, r7, lsr r0
     7ec:	15070404 	strne	r0, [r7, #-1028]	; 0x404
     7f0:	05000000 	streq	r0, [r0, #-0]
     7f4:	00000256 	andeq	r0, r0, r6, asr r2
     7f8:	00250b01 	eoreq	r0, r5, r1, lsl #22
     7fc:	83440000 	movthi	r0, #16384	; 0x4000
     800:	00200000 	eoreq	r0, r0, r0
     804:	9c010000 	stcls	0, cr0, [r1], {-0}
     808:	000000aa 	andeq	r0, r0, sl, lsr #1
     80c:	74736406 	ldrbtvc	r6, [r3], #-1030	; 0x406
     810:	aa0b0100 	bge	2c0c18 <__bss_end__+0x2b69c0>
     814:	01000000 	mrseq	r0, (UNDEF: 0)
     818:	72730650 	rsbsvc	r0, r3, #80, 12	; 0x5000000
     81c:	0b010063 	bleq	409b0 <__bss_end__+0x36758>
     820:	000000ac 	andeq	r0, r0, ip, lsr #1
     824:	6e065101 	adfvss	f5, f6, f1
     828:	2c0b0100 	stfcss	f0, [fp], {-0}
     82c:	01000000 	mrseq	r0, (UNDEF: 0)
     830:	00640752 	rsbeq	r0, r4, r2, asr r7
     834:	00b30c01 	adcseq	r0, r3, r1, lsl #24
     838:	50010000 	andpl	r0, r1, r0
     83c:	01007307 	tsteq	r0, r7, lsl #6
     840:	0000c00d 	andeq	ip, r0, sp
     844:	08510100 	ldmdaeq	r1, {r8}^
     848:	00008344 	andeq	r8, r0, r4, asr #6
     84c:	0000001c 	andeq	r0, r0, ip, lsl r0
     850:	01006909 	tsteq	r0, r9, lsl #18
     854:	0000250e 	andeq	r2, r0, lr, lsl #10
     858:	0001b400 	andeq	fp, r1, r0, lsl #8
     85c:	0a000000 	beq	864 <_start-0x779c>
     860:	b2040b04 	andlt	r0, r4, #4, 22	; 0x1000
     864:	0c000000 	stceq	0, cr0, [r0], {-0}
     868:	00b9040b 	adcseq	r0, r9, fp, lsl #8
     86c:	01040000 	mrseq	r0, (UNDEF: 4)
     870:	0000c208 	andeq	ip, r0, r8, lsl #4
     874:	c6040b00 	strgt	r0, [r4], -r0, lsl #22
     878:	0d000000 	stceq	0, cr0, [r0, #-0]
     87c:	000000b9 	strheq	r0, [r0], -r9
     880:	00026400 	andeq	r6, r2, r0, lsl #8
     884:	0f000400 	svceq	0x00000400
     888:	04000004 	streq	r0, [r0], #-4
     88c:	00007501 	andeq	r7, r0, r1, lsl #10
     890:	02700100 	rsbseq	r0, r0, #0, 2
     894:	00370000 	eorseq	r0, r7, r0
     898:	83640000 	cmnhi	r4, #0
     89c:	003c0000 	eorseq	r0, ip, r0
     8a0:	02560000 	subseq	r0, r6, #0
     8a4:	02020000 	andeq	r0, r2, #0
     8a8:	011b1602 	tsteq	fp, r2, lsl #12
     8ac:	42030000 	andmi	r0, r3, #0
     8b0:	07dc0035 			; <UNDEFINED> instruction: 0x07dc0035
     8b4:	73354103 	teqvc	r5, #-1073741824	; 0xc0000000
     8b8:	0307a400 	movweq	sl, #29696	; 0x7400
     8bc:	f0003541 			; <UNDEFINED> instruction: 0xf0003541
     8c0:	35470306 	strbcc	r0, [r7, #-774]	; 0x306
     8c4:	06bf0073 	sxtheq	r0, r3
     8c8:	00354703 	eorseq	r4, r5, r3, lsl #14
     8cc:	46030690 			; <UNDEFINED> instruction: 0x46030690
     8d0:	ba007335 	blt	1d5ac <__bss_end__+0x13354>
     8d4:	35460305 	strbcc	r0, [r6, #-773]	; 0x305
     8d8:	0305ba00 	movweq	fp, #23040	; 0x5a00
     8dc:	93003545 	movwls	r3, #1349	; 0x545
     8e0:	35440305 	strbcc	r0, [r4, #-773]	; 0x305
     8e4:	04cb0073 	strbeq	r0, [fp], #115	; 0x73
     8e8:	00354403 	eorseq	r4, r5, r3, lsl #8
     8ec:	430304cb 	movwmi	r0, #13515	; 0x34cb
     8f0:	aa007335 	bge	1d5cc <__bss_end__+0x13374>
     8f4:	35430304 	strbcc	r0, [r3, #-772]	; 0x304
     8f8:	03048b00 	movweq	r8, #19200	; 0x4b00
     8fc:	ee003442 	cdp	4, 0, cr3, cr0, cr2, {2}
     900:	34410303 	strbcc	r0, [r1], #-771	; 0x303
     904:	03d20073 	bicseq	r0, r2, #115	; 0x73
     908:	00344103 	eorseq	r4, r4, r3, lsl #2
     90c:	470303b8 			; <UNDEFINED> instruction: 0x470303b8
     910:	9f007334 	svcls	0x00007334
     914:	34470303 	strbcc	r0, [r7], #-771	; 0x303
     918:	03038800 	movweq	r8, #14336	; 0x3800
     91c:	00733446 	rsbseq	r3, r3, r6, asr #8
     920:	460302f2 			; <UNDEFINED> instruction: 0x460302f2
     924:	02dd0034 	sbcseq	r0, sp, #52	; 0x34
     928:	00344503 	eorseq	r4, r4, r3, lsl #10
     92c:	440302ca 	strmi	r0, [r3], #-714	; 0x2ca
     930:	b7007334 	smladxlt	r0, r4, r3, r7
     934:	34440302 	strbcc	r0, [r4], #-770	; 0x302
     938:	0302a600 	movweq	sl, #9728	; 0x2600
     93c:	00733443 	rsbseq	r3, r3, r3, asr #8
     940:	43030295 	movwmi	r0, #12949	; 0x3295
     944:	02860034 	addeq	r0, r6, #52	; 0x34
     948:	00334203 	eorseq	r4, r3, r3, lsl #4
     94c:	410301f7 	strdmi	r0, [r3, -r7]
     950:	e9007333 	stmdb	r0, {r0, r1, r4, r5, r8, r9, ip, sp, lr}
     954:	33410301 	movtcc	r0, #4865	; 0x1301
     958:	0301dc00 	movweq	sp, #7168	; 0x1c00
     95c:	00733347 	rsbseq	r3, r3, r7, asr #6
     960:	470301d0 			; <UNDEFINED> instruction: 0x470301d0
     964:	01c40033 	biceq	r0, r4, r3, lsr r0
     968:	73334603 	teqvc	r3, #3145728	; 0x300000
     96c:	0301b900 	movweq	fp, #6400	; 0x1900
     970:	af003346 	svcge	0x00003346
     974:	33450301 	movtcc	r0, #21249	; 0x5301
     978:	0301a500 	movweq	sl, #5376	; 0x1500
     97c:	00733344 	rsbseq	r3, r3, r4, asr #6
     980:	4403019c 	strmi	r0, [r3], #-412	; 0x19c
     984:	01930033 	orrseq	r0, r3, r3, lsr r0
     988:	73334303 	teqvc	r3, #201326592	; 0xc000000
     98c:	03018b00 	movweq	r8, #6912	; 0x1b00
     990:	86003343 	strhi	r3, [r0], -r3, asr #6
     994:	00060402 	andeq	r0, r6, r2, lsl #8
     998:	00000000 	andeq	r0, r0, r0
     99c:	0000d105 	andeq	sp, r0, r5, lsl #2
     9a0:	25410200 	strbcs	r0, [r1, #-512]	; 0x200
     9a4:	02000000 	andeq	r0, r0, #0
     9a8:	53430204 	movtpl	r0, #12804	; 0x3204
     9ac:	04000001 	streq	r0, [r0], #-1
     9b0:	00000000 	andeq	r0, r0, r0
     9b4:	09c4da80 	stmibeq	r4, {r7, r9, fp, ip, lr, pc}^
     9b8:	00010d04 	andeq	r0, r1, r4, lsl #26
     9bc:	e2ad8000 	adc	r8, sp, #0
     9c0:	54510304 	ldrbpl	r0, [r1], #-772	; 0x304
     9c4:	96c00052 			; <UNDEFINED> instruction: 0x96c00052
     9c8:	450302b1 	strmi	r0, [r3, #-689]	; 0x2b1
     9cc:	a0005449 	andge	r5, r0, r9, asr #8
     9d0:	000198cb 	andeq	r9, r1, fp, asr #17
     9d4:	0000d905 	andeq	sp, r0, r5, lsl #18
     9d8:	26490200 	strbcs	r0, [r9], -r0, lsl #4
     9dc:	06000001 	streq	r0, [r0], -r1
     9e0:	7f4b0208 	svcvc	0x004b0208
     9e4:	07000001 	streq	r0, [r0, -r1]
     9e8:	00000167 	andeq	r0, r0, r7, ror #2
     9ec:	011b4c02 	tsteq	fp, r2, lsl #24
     9f0:	07000000 	streq	r0, [r0, -r0]
     9f4:	000004a7 	andeq	r0, r0, r7, lsr #9
     9f8:	01534d02 	cmpeq	r3, r2, lsl #26
     9fc:	00040000 	andeq	r0, r4, r0
     a00:	0000ff05 	andeq	pc, r0, r5, lsl #30
     a04:	5e4e0200 	cdppl	2, 4, cr0, cr14, cr0, {0}
     a08:	06000001 	streq	r0, [r0], -r1
     a0c:	ab0e0304 	blge	381624 <__bss_end__+0x3773cc>
     a10:	07000001 	streq	r0, [r0, -r1]
     a14:	00000070 	andeq	r0, r0, r0, ror r0
     a18:	01ab0f03 			; <UNDEFINED> instruction: 0x01ab0f03
     a1c:	07000000 	streq	r0, [r0, -r0]
     a20:	00000107 	andeq	r0, r0, r7, lsl #2
     a24:	01b21003 			; <UNDEFINED> instruction: 0x01b21003
     a28:	00040000 	andeq	r0, r4, r0
     a2c:	69050408 	stmdbvs	r5, {r3, sl}
     a30:	0900746e 	stmdbeq	r0, {r1, r2, r3, r5, r6, sl, ip, sp, lr}
     a34:	0000017f 	andeq	r0, r0, pc, ror r1
     a38:	000001c1 	andeq	r0, r0, r1, asr #3
     a3c:	0001c10a 	andeq	ip, r1, sl, lsl #2
     a40:	040b0000 	streq	r0, [fp], #-0
     a44:	0000a007 	andeq	sl, r0, r7
     a48:	01210500 	teqeq	r1, r0, lsl #10
     a4c:	11030000 	mrsne	r0, (UNDEF: 3)
     a50:	0000018a 	andeq	r0, r0, sl, lsl #3
     a54:	0002660c 	andeq	r6, r2, ip, lsl #12
     a58:	640e0100 	strvs	r0, [lr], #-256	; 0x100
     a5c:	3c000083 	stccc	0, cr0, [r0], {131}	; 0x83
     a60:	01000000 	mrseq	r0, (UNDEF: 0)
     a64:	00022e9c 	muleq	r2, ip, lr
     a68:	01070d00 	tsteq	r7, r0, lsl #26
     a6c:	0e010000 	cdpeq	0, 0, cr0, cr1, cr0, {0}
     a70:	0000022e 	andeq	r0, r0, lr, lsr #4
     a74:	000001d3 	ldrdeq	r0, [r0], -r3
     a78:	0000700d 	andeq	r7, r0, sp
     a7c:	ab0e0100 	blge	380e84 <__bss_end__+0x376c2c>
     a80:	ff000001 			; <UNDEFINED> instruction: 0xff000001
     a84:	0e000001 	cdpeq	0, 0, cr0, cr0, cr1, {0}
     a88:	00008370 	andeq	r8, r0, r0, ror r3
     a8c:	00000028 	andeq	r0, r0, r8, lsr #32
     a90:	0100690f 	tsteq	r0, pc, lsl #18
     a94:	0001ab0f 	andeq	sl, r1, pc, lsl #22
     a98:	00022b00 	andeq	r2, r2, r0, lsl #22
     a9c:	838c1000 	orrhi	r1, ip, #0
     aa0:	02550000 	subseq	r0, r5, #0
     aa4:	01110000 	tsteq	r1, r0
     aa8:	00760252 	rsbseq	r0, r6, r2, asr r2
     aac:	12000000 	andne	r0, r0, #0
     ab0:	00017f04 	andeq	r7, r1, r4, lsl #30
     ab4:	00611300 	rsbeq	r1, r1, r0, lsl #6
     ab8:	15030000 	strne	r0, [r3, #-0]
     abc:	000001c8 	andeq	r0, r0, r8, asr #3
     ac0:	0000a913 	andeq	sl, r0, r3, lsl r9
     ac4:	c8270300 	stmdagt	r7!, {r8, r9}
     ac8:	13000001 	movwne	r0, #1
     acc:	00000112 	andeq	r0, r0, r2, lsl r1
     ad0:	01c85303 	biceq	r5, r8, r3, lsl #6
     ad4:	5c140000 	ldcpl	0, cr0, [r4], {-0}
     ad8:	02000001 	andeq	r0, r0, #1
     adc:	017f1552 	cmneq	pc, r2, asr r5	; <UNPREDICTABLE>
     ae0:	ab150000 	blge	540ae8 <__bss_end__+0x536890>
     ae4:	00000001 	andeq	r0, r0, r1
     ae8:	00017400 	andeq	r7, r1, r0, lsl #8
     aec:	17000400 	strne	r0, [r0, -r0, lsl #8]
     af0:	04000005 	streq	r0, [r0], #-5
     af4:	00007501 	andeq	r7, r0, r1, lsl #10
     af8:	02c20100 	sbceq	r0, r2, #0, 2
     afc:	00370000 	eorseq	r0, r7, r0
     b00:	83a00000 	movhi	r0, #0
     b04:	00bc0000 	adcseq	r0, ip, r0
     b08:	02b60000 	adcseq	r0, r6, #0
     b0c:	9b020000 	blls	80b14 <__bss_end__+0x768bc>
     b10:	01000002 	tsteq	r0, r2
     b14:	00009b07 	andeq	r9, r0, r7, lsl #22
     b18:	0083a000 	addeq	sl, r3, r0
     b1c:	00006000 	andeq	r6, r0, r0
     b20:	9b9c0100 	blls	fe700f28 <__bss_end__+0xfe6f6cd0>
     b24:	03000000 	movweq	r0, #0
     b28:	000002ae 	andeq	r0, r0, lr, lsr #5
     b2c:	00a20901 	adceq	r0, r2, r1, lsl #18
     b30:	024a0000 	subeq	r0, sl, #0
     b34:	84030000 	strhi	r0, [r3], #-0
     b38:	01000002 	tsteq	r0, r2
     b3c:	00009b0a 	andeq	r9, r0, sl, lsl #22
     b40:	00026200 	andeq	r6, r2, r0, lsl #4
     b44:	02a50300 	adceq	r0, r5, #0, 6
     b48:	0d010000 	stceq	0, cr0, [r1, #-0]
     b4c:	0000009b 	muleq	r0, fp, r0
     b50:	00000275 	andeq	r0, r0, r5, ror r2
     b54:	00001804 	andeq	r1, r0, r4, lsl #16
     b58:	00008200 	andeq	r8, r0, r0, lsl #4
     b5c:	00690500 	rsbeq	r0, r9, r0, lsl #10
     b60:	009b0e01 	addseq	r0, fp, r1, lsl #28
     b64:	02940000 	addseq	r0, r4, #0
     b68:	06000000 	streq	r0, [r0], -r0
     b6c:	000083a8 	andeq	r8, r0, r8, lsr #7
     b70:	00000126 	andeq	r0, r0, r6, lsr #2
     b74:	0083b007 	addeq	fp, r3, r7
     b78:	00013300 	andeq	r3, r1, r0, lsl #6
     b7c:	50010800 	andpl	r0, r1, r0, lsl #16
     b80:	00003001 	andeq	r3, r0, r1
     b84:	69050409 	stmdbvs	r5, {r0, r3, sl}
     b88:	0a00746e 	beq	1dd48 <__bss_end__+0x13af0>
     b8c:	00300408 	eorseq	r0, r0, r8, lsl #8
     b90:	d00b0000 	andle	r0, fp, r0
     b94:	01000002 	tsteq	r0, r2
     b98:	00009b14 	andeq	r9, r0, r4, lsl fp
     b9c:	00840000 	addeq	r0, r4, r0
     ba0:	00005c00 	andeq	r5, r0, r0, lsl #24
     ba4:	269c0100 	ldrcs	r0, [ip], r0, lsl #2
     ba8:	0c000001 	stceq	0, cr0, [r0], {1}
     bac:	0000028d 	andeq	r0, r0, sp, lsl #5
     bb0:	009b1401 	addseq	r1, fp, r1, lsl #8
     bb4:	02b30000 	adcseq	r0, r3, #0
     bb8:	95030000 	strls	r0, [r3, #-0]
     bbc:	01000002 	tsteq	r0, r2
     bc0:	0000a216 	andeq	sl, r0, r6, lsl r2
     bc4:	0002df00 	andeq	sp, r2, r0, lsl #30
     bc8:	02840300 	addeq	r0, r4, #0, 6
     bcc:	17010000 	strne	r0, [r1, -r0]
     bd0:	0000009b 	muleq	r0, fp, r0
     bd4:	000002f7 	strdeq	r0, [r0], -r7
     bd8:	00840c06 	addeq	r0, r4, r6, lsl #24
     bdc:	00012600 	andeq	r2, r1, r0, lsl #12
     be0:	84140d00 	ldrhi	r0, [r4], #-3328	; 0xd00
     be4:	01330000 	teqeq	r3, r0
     be8:	010c0000 	mrseq	r0, (UNDEF: 12)
     bec:	01080000 	mrseq	r0, (UNDEF: 8)
     bf0:	00740250 	rsbseq	r0, r4, r0, asr r2
     bf4:	84440700 	strbhi	r0, [r4], #-1792	; 0x700
     bf8:	014f0000 	mrseq	r0, SPSR
     bfc:	01080000 	mrseq	r0, (UNDEF: 8)
     c00:	00740251 	rsbseq	r0, r4, r1, asr r2
     c04:	05500108 	ldrbeq	r0, [r0, #-264]	; 0x108
     c08:	009f4803 	addseq	r4, pc, r3, lsl #16
     c0c:	0e000000 	cdpeq	0, 0, cr0, cr0, cr0, {0}
     c10:	000002b5 			; <UNDEFINED> instruction: 0x000002b5
     c14:	01330402 	teqeq	r3, r2, lsl #8
     c18:	000f0000 	andeq	r0, pc, r0
     c1c:	00027710 	andeq	r7, r2, r0, lsl r7
     c20:	48050200 	stmdami	r5, {r9}
     c24:	48000001 	stmdami	r0, {r0}
     c28:	11000001 	tstne	r0, r1
     c2c:	00000148 	andeq	r0, r0, r8, asr #2
     c30:	07040a00 	streq	r0, [r4, -r0, lsl #20]
     c34:	00000015 	andeq	r0, r0, r5, lsl r0
     c38:	00053e10 	andeq	r3, r5, r0, lsl lr
     c3c:	9b120300 	blls	481844 <__bss_end__+0x4775ec>
     c40:	65000000 	strvs	r0, [r0, #-0]
     c44:	11000001 	tstne	r0, r1
     c48:	00000165 	andeq	r0, r0, r5, ror #2
     c4c:	0412000f 	ldreq	r0, [r2], #-15
     c50:	0000016b 	andeq	r0, r0, fp, ror #2
     c54:	00017013 	andeq	r7, r1, r3, lsl r0
     c58:	08010a00 	stmdaeq	r1, {r9, fp}
     c5c:	000000c2 	andeq	r0, r0, r2, asr #1
     c60:	00010800 	andeq	r0, r1, r0, lsl #16
     c64:	1e000400 	cfcpysne	mvf0, mvf0
     c68:	04000006 	streq	r0, [r0], #-6
     c6c:	00007501 	andeq	r7, r0, r1, lsl #10
     c70:	02e20100 	rsceq	r0, r2, #0, 2
     c74:	00370000 	eorseq	r0, r7, r0
     c78:	845c0000 	ldrbhi	r0, [ip], #-0
     c7c:	006c0000 	rsbeq	r0, ip, r0
     c80:	034a0000 	movteq	r0, #40960	; 0xa000
     c84:	b5020000 	strlt	r0, [r2, #-0]
     c88:	01000002 	tsteq	r0, r2
     c8c:	00845c04 	addeq	r5, r4, r4, lsl #24
     c90:	00001800 	andeq	r1, r0, r0, lsl #16
     c94:	519c0100 	orrspl	r0, ip, r0, lsl #2
     c98:	03000000 	movweq	r0, #0
     c9c:	0000846c 	andeq	r8, r0, ip, ror #8
     ca0:	000000d4 	ldrdeq	r0, [r0], -r4
     ca4:	03510104 	cmpeq	r1, #4, 2
     ca8:	0404000a 	streq	r0, [r4], #-10
     cac:	30015001 	andcc	r5, r1, r1
     cb0:	77050000 	strvc	r0, [r5, -r0]
     cb4:	01000002 	tsteq	r0, r2
     cb8:	0000af08 	andeq	sl, r0, r8, lsl #30
     cbc:	00847400 	addeq	r7, r4, r0, lsl #8
     cc0:	00005400 	andeq	r5, r0, r0, lsl #8
     cc4:	af9c0100 	svcge	0x009c0100
     cc8:	06000000 	streq	r0, [r0], -r0
     ccc:	0000028d 	andeq	r0, r0, sp, lsl #5
     cd0:	00af0801 	adceq	r0, pc, r1, lsl #16
     cd4:	03150000 	tsteq	r5, #0
     cd8:	74070000 	strvc	r0, [r7], #-0
     cdc:	09010078 	stmdbeq	r1, {r3, r4, r5, r6}
     ce0:	000000b6 	strheq	r0, [r0], -r6
     ce4:	07749102 	ldrbeq	r9, [r4, -r2, lsl #2]!
     ce8:	01007872 	tsteq	r0, r2, ror r8
     cec:	0000b60a 	andeq	fp, r0, sl, lsl #12
     cf0:	70910200 	addsvc	r0, r1, r0, lsl #4
     cf4:	0084ac03 	addeq	sl, r4, r3, lsl #24
     cf8:	0000ea00 	andeq	lr, r0, r0, lsl #20
     cfc:	52010400 	andpl	r0, r1, #0, 8
     d00:	01043301 	tsteq	r4, r1, lsl #6
     d04:	007d0251 	rsbseq	r0, sp, r1, asr r2
     d08:	02500104 	subseq	r0, r0, #4, 2
     d0c:	00006c91 	muleq	r0, r1, ip
     d10:	15070408 	strne	r0, [r7, #-1032]	; 0x408
     d14:	09000000 	stmdbeq	r0, {}	; <UNPREDICTABLE>
     d18:	000000cd 	andeq	r0, r0, sp, asr #1
     d1c:	000000c6 	andeq	r0, r0, r6, asr #1
     d20:	0000c60a 	andeq	ip, r0, sl, lsl #12
     d24:	08000200 	stmdaeq	r0, {r9}
     d28:	00a00704 	adceq	r0, r0, r4, lsl #14
     d2c:	01080000 	mrseq	r0, (UNDEF: 8)
     d30:	0000b908 	andeq	fp, r0, r8, lsl #18
     d34:	02d90b00 	sbcseq	r0, r9, #0, 22
     d38:	0d020000 	stceq	0, cr0, [r2, #-0]
     d3c:	000000ea 	andeq	r0, r0, sl, ror #1
     d40:	0000af0c 	andeq	sl, r0, ip, lsl #30
     d44:	00af0c00 	adceq	r0, pc, r0, lsl #24
     d48:	0b000000 	bleq	d50 <_start-0x72b0>
     d4c:	000002ec 	andeq	r0, r0, ip, ror #5
     d50:	01050e02 	tsteq	r5, r2, lsl #28
     d54:	050c0000 	streq	r0, [ip, #-0]
     d58:	0c000001 	stceq	0, cr0, [r0], {1}
     d5c:	00000105 	andeq	r0, r0, r5, lsl #2
     d60:	0000af0c 	andeq	sl, r0, ip, lsl #30
     d64:	040d0000 	streq	r0, [sp], #-0
     d68:	000000cd 	andeq	r0, r0, sp, asr #1
     d6c:	00023700 	andeq	r3, r2, r0, lsl #14
     d70:	db000400 	blle	1d78 <_start-0x6288>
     d74:	04000006 	streq	r0, [r0], #-6
     d78:	00007501 	andeq	r7, r0, r1, lsl #10
     d7c:	00e50100 	rsceq	r0, r5, r0, lsl #2
     d80:	00370000 	eorseq	r0, r7, r0
     d84:	84c80000 	strbhi	r0, [r8], #0
     d88:	02600000 	rsbeq	r0, r0, #0
     d8c:	03930000 	orrseq	r0, r3, #0
     d90:	08020000 	stmdaeq	r2, {}	; <UNPREDICTABLE>
     d94:	00003004 	andeq	r3, r0, r4
     d98:	07040200 	streq	r0, [r4, -r0, lsl #4]
     d9c:	00000015 	andeq	r0, r0, r5, lsl r0
     da0:	bb060102 	bllt	1811b0 <__bss_end__+0x176f58>
     da4:	02000000 	andeq	r0, r0, #0
     da8:	00b90801 	adcseq	r0, r9, r1, lsl #16
     dac:	02020000 	andeq	r0, r2, #0
     db0:	0000c705 	andeq	ip, r0, r5, lsl #14
     db4:	07020200 	streq	r0, [r2, -r0, lsl #4]
     db8:	000000ec 	andeq	r0, r0, ip, ror #1
     dbc:	69050403 	stmdbvs	r5, {r0, r1, sl}
     dc0:	0200746e 	andeq	r7, r0, #1845493760	; 0x6e000000
     dc4:	00220508 	eoreq	r0, r2, r8, lsl #10
     dc8:	08020000 	stmdaeq	r2, {}	; <UNPREDICTABLE>
     dcc:	00000b07 	andeq	r0, r0, r7, lsl #22
     dd0:	05040200 	streq	r0, [r4, #-512]	; 0x200
     dd4:	00000027 	andeq	r0, r0, r7, lsr #32
     dd8:	a0070402 	andge	r0, r7, r2, lsl #8
     ddc:	02000000 	andeq	r0, r0, #0
     de0:	00100704 	andseq	r0, r0, r4, lsl #14
     de4:	01020000 	mrseq	r0, (UNDEF: 2)
     de8:	0000c208 	andeq	ip, r0, r8, lsl #4
     dec:	03090400 	movweq	r0, #37888	; 0x9400
     df0:	12010000 	andne	r0, r1, #0
     df4:	00000025 	andeq	r0, r0, r5, lsr #32
     df8:	000084c8 	andeq	r8, r0, r8, asr #9
     dfc:	00000074 	andeq	r0, r0, r4, ror r0
     e00:	00d89c01 	sbcseq	r9, r8, r1, lsl #24
     e04:	78050000 	stmdavc	r5, {}	; <UNPREDICTABLE>
     e08:	25120100 	ldrcs	r0, [r2, #-256]	; 0x100
     e0c:	36000000 	strcc	r0, [r0], -r0
     e10:	06000003 	streq	r0, [r0], -r3
     e14:	00000359 	andeq	r0, r0, r9, asr r3
     e18:	00251201 	eoreq	r1, r5, r1, lsl #4
     e1c:	035e0000 	cmpeq	lr, #0
     e20:	4c070000 	stcmi	0, cr0, [r7], {-0}
     e24:	01000003 	tsteq	r0, r3
     e28:	00002513 	andeq	r2, r0, r3, lsl r5
     e2c:	00038600 	andeq	r8, r3, r0, lsl #12
     e30:	00300800 	eorseq	r0, r0, r0, lsl #16
     e34:	69090000 	stmdbvs	r9, {}	; <UNPREDICTABLE>
     e38:	4f140100 	svcmi	0x00140100
     e3c:	c2000000 	andgt	r0, r0, #0
     e40:	00000003 	andeq	r0, r0, r3
     e44:	03810400 	orreq	r0, r1, #0, 8
     e48:	27010000 	strcs	r0, [r1, -r0]
     e4c:	00000025 	andeq	r0, r0, r5, lsr #32
     e50:	0000853c 	andeq	r8, r0, ip, lsr r5
     e54:	00000090 	muleq	r0, r0, r0
     e58:	011b9c01 	tsteq	fp, r1, lsl #24
     e5c:	78050000 	stmdavc	r5, {}	; <UNPREDICTABLE>
     e60:	25270100 	strcs	r0, [r7, #-256]!	; 0x100
     e64:	e1000000 	mrs	r0, (UNDEF: 0)
     e68:	05000003 	streq	r0, [r0, #-3]
     e6c:	27010079 	smlsdxcs	r1, r9, r0, r0
     e70:	00000025 	andeq	r0, r0, r5, lsr #32
     e74:	00000409 	andeq	r0, r0, r9, lsl #8
     e78:	00034207 	andeq	r4, r3, r7, lsl #4
     e7c:	4f280100 	svcmi	0x00280100
     e80:	31000000 	mrscc	r0, (UNDEF: 0)
     e84:	00000004 	andeq	r0, r0, r4
     e88:	0001e404 	andeq	lr, r1, r4, lsl #8
     e8c:	251a0100 	ldrcs	r0, [sl, #-256]	; 0x100
     e90:	cc000000 	stcgt	0, cr0, [r0], {-0}
     e94:	5c000085 	stcpl	0, cr0, [r0], {133}	; 0x85
     e98:	01000001 	tsteq	r0, r1
     e9c:	0001bd9c 	muleq	r1, ip, sp
     ea0:	00780500 	rsbseq	r0, r8, r0, lsl #10
     ea4:	00251a01 	eoreq	r1, r5, r1, lsl #20
     ea8:	044f0000 	strbeq	r0, [pc], #-0	; eb0 <_start-0x7150>
     eac:	53070000 	movwpl	r0, #28672	; 0x7000
     eb0:	01000003 	tsteq	r0, r3
     eb4:	0000251b 	andeq	r2, r0, fp, lsl r5
     eb8:	00047700 	andeq	r7, r4, r0, lsl #14
     ebc:	034c0700 	movteq	r0, #50944	; 0xc700
     ec0:	1c010000 	stcne	0, cr0, [r1], {-0}
     ec4:	00000025 	andeq	r0, r0, r5, lsr #32
     ec8:	0000048f 	andeq	r0, r0, pc, lsl #9
     ecc:	0085dc0a 	addeq	sp, r5, sl, lsl #24
     ed0:	0000d800 	andeq	sp, r0, r0, lsl #16
     ed4:	00018f00 	andeq	r8, r1, r0, lsl #30
     ed8:	52060b00 	andpl	r0, r6, #0, 22
     edc:	93530493 	cmpls	r3, #-1828716544	; 0x93000000
     ee0:	25f40b04 	ldrbcs	r0, [r4, #2820]!	; 0xb04
     ee4:	12d84a08 	sbcsne	r4, r8, #8, 20	; 0x8000
     ee8:	0921fb4d 	stmdbeq	r1!, {r0, r2, r3, r6, r8, r9, fp, ip, sp, lr, pc}
     eec:	50060b40 	andpl	r0, r6, r0, asr #22
     ef0:	93510493 	cmpls	r1, #-1828716544	; 0x93000000
     ef4:	03f30504 	mvnseq	r0, #4, 10	; 0x1000000
     ef8:	002500f5 	strdeq	r0, [r5], -r5	; <UNPREDICTABLE>
     efc:	0085f00c 	addeq	pc, r5, ip
     f00:	00008000 	andeq	r8, r0, r0
     f04:	862c0c00 	strthi	r0, [ip], -r0, lsl #24
     f08:	00800000 	addeq	r0, r0, r0
     f0c:	600c0000 	andvs	r0, ip, r0
     f10:	80000086 	andhi	r0, r0, r6, lsl #1
     f14:	0c000000 	stceq	0, cr0, [r0], {-0}
     f18:	0000869c 	muleq	r0, ip, r6
     f1c:	00000080 	andeq	r0, r0, r0, lsl #1
     f20:	0086d00c 	addeq	sp, r6, ip
     f24:	00008000 	andeq	r8, r0, r0
     f28:	710d0000 	mrsvc	r0, (UNDEF: 13)
     f2c:	01000003 	tsteq	r0, r3
     f30:	0001d10b 	andeq	sp, r1, fp, lsl #2
     f34:	00000800 	andeq	r0, r0, r0, lsl #16
     f38:	00000000 	andeq	r0, r0, r0
     f3c:	250e4018 	strcs	r4, [lr, #-24]
     f40:	0d000000 	stceq	0, cr0, [r0, #-0]
     f44:	00000333 	andeq	r0, r0, r3, lsr r3
     f48:	01d10c01 	bicseq	r0, r1, r1, lsl #24
     f4c:	00080000 	andeq	r0, r8, r0
     f50:	00000000 	andeq	r0, r0, r0
     f54:	0d405e00 	stcleq	14, cr5, [r0, #-0]
     f58:	000002f9 	strdeq	r0, [r0], -r9
     f5c:	01d10d01 	bicseq	r0, r1, r1, lsl #26
     f60:	00080000 	andeq	r0, r8, r0
     f64:	00000000 	andeq	r0, r0, r0
     f68:	0d40b3b0 	stcleq	3, cr11, [r0, #-704]	; 0xfffffd40
     f6c:	00000362 	andeq	r0, r0, r2, ror #6
     f70:	01d10e01 	bicseq	r0, r1, r1, lsl #28
     f74:	00080000 	andeq	r0, r8, r0
     f78:	00000000 	andeq	r0, r0, r0
     f7c:	0d411626 	stcleq	6, cr1, [r1, #-152]	; 0xffffff68
     f80:	0000030f 	andeq	r0, r0, pc, lsl #6
     f84:	01d10f01 	bicseq	r0, r1, r1, lsl #30
     f88:	00080000 	andeq	r0, r8, r0
     f8c:	a8000000 	stmdage	r0, {}	; <UNPREDICTABLE>
     f90:	0d418308 	stcleq	3, cr8, [r1, #-32]	; 0xffffffe0
     f94:	00000320 	andeq	r0, r0, r0, lsr #6
     f98:	00251001 	eoreq	r1, r5, r1
     f9c:	00080000 	andeq	r0, r8, r0
     fa0:	8cc00000 	stclhi	0, cr0, [r0], {0}
     fa4:	0041f732 	subeq	pc, r1, r2, lsr r7	; <UNPREDICTABLE>
     fa8:	000002be 			; <UNDEFINED> instruction: 0x000002be
     fac:	079e0004 	ldreq	r0, [lr, r4]
     fb0:	01040000 	mrseq	r0, (UNDEF: 4)
     fb4:	0000039c 	muleq	r0, ip, r3
     fb8:	00047401 	andeq	r7, r4, r1, lsl #8
     fbc:	48002e00 	stmdami	r0, {r9, sl, fp, sp}
     fc0:	00000000 	andeq	r0, r0, r0
     fc4:	f7000000 			; <UNDEFINED> instruction: 0xf7000000
     fc8:	02000003 	andeq	r0, r0, #3
     fcc:	000b0708 	andeq	r0, fp, r8, lsl #14
     fd0:	04020000 	streq	r0, [r2], #-0
     fd4:	00001507 	andeq	r1, r0, r7, lsl #10
     fd8:	02010300 	andeq	r0, r1, #0, 6
     fdc:	0000704f 	andeq	r7, r0, pc, asr #32
     fe0:	047b0400 	ldrbteq	r0, [fp], #-1024	; 0x400
     fe4:	04000000 	streq	r0, [r0], #-0
     fe8:	000003a8 	andeq	r0, r0, r8, lsr #7
     fec:	03c30401 	biceq	r0, r3, #16777216	; 0x1000000
     ff0:	04040000 	streq	r0, [r4], #-0
     ff4:	0000045b 	andeq	r0, r0, fp, asr r4
     ff8:	03d20405 	bicseq	r0, r2, #83886080	; 0x5000000
     ffc:	04060000 	streq	r0, [r6], #-0
    1000:	000003e1 	andeq	r0, r0, r1, ror #7
    1004:	03f00407 	mvnseq	r0, #117440512	; 0x7000000
    1008:	04030000 	streq	r0, [r3], #-0
    100c:	000003ff 	strdeq	r0, [r0], -pc	; <UNPREDICTABLE>
    1010:	04220402 	strteq	r0, [r2], #-1026	; 0x402
    1014:	00080000 	andeq	r0, r8, r0
    1018:	00046a05 	andeq	r6, r4, r5, lsl #20
    101c:	58210100 	stmdapl	r1!, {r8}
    1020:	10000087 	andne	r0, r0, r7, lsl #1
    1024:	01000000 	mrseq	r0, (UNDEF: 0)
    1028:	048b069c 	streq	r0, [fp], #1692	; 0x69c
    102c:	24010000 	strcs	r0, [r1], #-0
    1030:	00008768 	andeq	r8, r0, r8, ror #14
    1034:	00000064 	andeq	r0, r0, r4, rrx
    1038:	00ea9c01 	rsceq	r9, sl, r1, lsl #24
    103c:	70070000 	andvc	r0, r7, r0
    1040:	01006e69 	tsteq	r0, r9, ror #28
    1044:	00002a24 	andeq	r2, r0, r4, lsr #20
    1048:	08500100 	ldmdaeq	r0, {r8}^
    104c:	00000444 	andeq	r0, r0, r4, asr #8
    1050:	002a2401 	eoreq	r2, sl, r1, lsl #8
    1054:	04f70000 	ldrbteq	r0, [r7], #0
    1058:	1d090000 	stcne	0, cr0, [r9, #-0]
    105c:	01000004 	tsteq	r0, r4
    1060:	00002a2c 	andeq	r2, r0, ip, lsr #20
    1064:	0a5c0100 	beq	170146c <__bss_end__+0x16f7214>
    1068:	00676572 	rsbeq	r6, r7, r2, ror r5
    106c:	00ea2d01 	rsceq	r2, sl, r1, lsl #26
    1070:	5c010000 	stcpl	0, cr0, [r1], {-0}
    1074:	0061720b 	rsbeq	r7, r1, fp, lsl #4
    1078:	002a2e01 	eoreq	r2, sl, r1, lsl #28
    107c:	05180000 	ldreq	r0, [r8, #-0]
    1080:	8b0c0000 	blhi	301088 <__bss_end__+0x2f6e30>
    1084:	01000003 	tsteq	r0, r3
    1088:	00002a2f 	andeq	r2, r0, pc, lsr #20
    108c:	00054100 	andeq	r4, r5, r0, lsl #2
    1090:	040d0000 	streq	r0, [sp], #-0
    1094:	000000f0 	strdeq	r0, [r0], -r0	; <UNPREDICTABLE>
    1098:	00002a0e 	andeq	r2, r0, lr, lsl #20
    109c:	04490f00 	strbeq	r0, [r9], #-3840	; 0xf00
    10a0:	36010000 	strcc	r0, [r1], -r0
    10a4:	0000002a 	andeq	r0, r0, sl, lsr #32
    10a8:	000087cc 	andeq	r8, r0, ip, asr #15
    10ac:	00000058 	andeq	r0, r0, r8, asr r0
    10b0:	01599c01 	cmpeq	r9, r1, lsl #24
    10b4:	70100000 	andsvc	r0, r0, r0
    10b8:	01006e69 	tsteq	r0, r9, ror #28
    10bc:	00002a36 	andeq	r2, r0, r6, lsr sl
    10c0:	00058300 	andeq	r8, r5, r0, lsl #6
    10c4:	041d0c00 	ldreq	r0, [sp], #-3072	; 0xc00
    10c8:	3b010000 	blcc	410d0 <__bss_end__+0x36e78>
    10cc:	0000002a 	andeq	r0, r0, sl, lsr #32
    10d0:	000005bd 			; <UNDEFINED> instruction: 0x000005bd
    10d4:	6765720b 	strbvs	r7, [r5, -fp, lsl #4]!
    10d8:	ea3c0100 	b	f014e0 <__bss_end__+0xef7288>
    10dc:	bd000000 	stclt	0, cr0, [r0, #-0]
    10e0:	0b000005 	bleq	10fc <_start-0x6f04>
    10e4:	01006172 	tsteq	r0, r2, ror r1
    10e8:	00002a3d 	andeq	r2, r0, sp, lsr sl
    10ec:	00062b00 	andeq	r2, r6, r0, lsl #22
    10f0:	038b0c00 	orreq	r0, fp, #0, 24
    10f4:	3e010000 	cdpcc	0, 0, cr0, cr1, cr0, {0}
    10f8:	0000002a 	andeq	r0, r0, sl, lsr #32
    10fc:	0000063e 	andeq	r0, r0, lr, lsr r6
    1100:	040e0600 	streq	r0, [lr], #-1536	; 0x600
    1104:	43010000 	movwmi	r0, #4096	; 0x1000
    1108:	00008824 	andeq	r8, r0, r4, lsr #16
    110c:	00000018 	andeq	r0, r0, r8, lsl r0
    1110:	01949c01 	orrseq	r9, r4, r1, lsl #24
    1114:	70100000 	andsvc	r0, r0, r0
    1118:	01006e69 	tsteq	r0, r9, ror #28
    111c:	00002a43 	andeq	r2, r0, r3, asr #20
    1120:	00065100 	andeq	r5, r6, r0, lsl #2
    1124:	88381100 	ldmdahi	r8!, {r8, ip}
    1128:	00810000 	addeq	r0, r1, r0
    112c:	01120000 	tsteq	r2, r0
    1130:	12300151 	eorsne	r0, r0, #1073741844	; 0x40000014
    1134:	f3035001 	vhadd.u8	d5, d3, d1
    1138:	00005001 	andeq	r5, r0, r1
    113c:	00043406 	andeq	r3, r4, r6, lsl #8
    1140:	3c470100 	stfcce	f0, [r7], {-0}
    1144:	18000088 	stmdane	r0, {r3, r7}
    1148:	01000000 	mrseq	r0, (UNDEF: 0)
    114c:	0001cf9c 	muleq	r1, ip, pc	; <UNPREDICTABLE>
    1150:	69701000 	ldmdbvs	r0!, {ip}^
    1154:	4701006e 	strmi	r0, [r1, -lr, rrx]
    1158:	0000002a 	andeq	r0, r0, sl, lsr #32
    115c:	00000672 	andeq	r0, r0, r2, ror r6
    1160:	00885011 	addeq	r5, r8, r1, lsl r0
    1164:	00008100 	andeq	r8, r0, r0, lsl #2
    1168:	51011200 	mrspl	r1, R9_usr
    116c:	01123101 	tsteq	r2, r1, lsl #2
    1170:	01f30350 	mvnseq	r0, r0, asr r3
    1174:	06000050 			; <UNDEFINED> instruction: 0x06000050
    1178:	00000391 	muleq	r0, r1, r3
    117c:	88544c01 	ldmdahi	r4, {r0, sl, fp, lr}^
    1180:	00600000 	rsbeq	r0, r0, r0
    1184:	9c010000 	stcls	0, cr0, [r1], {-0}
    1188:	00000260 	andeq	r0, r0, r0, ror #4
    118c:	6e697010 	mcrvs	0, 3, r7, cr9, cr0, {0}
    1190:	2a4c0100 	bcs	1301598 <__bss_end__+0x12f7340>
    1194:	93000000 	movwls	r0, #0
    1198:	07000006 	streq	r0, [r0, -r6]
    119c:	006c6176 	rsbeq	r6, ip, r6, ror r1
    11a0:	002a4c01 	eoreq	r4, sl, r1, lsl #24
    11a4:	51010000 	mrspl	r0, (UNDEF: 1)
    11a8:	00038b0c 	andeq	r8, r3, ip, lsl #22
    11ac:	2a510100 	bcs	14415b4 <__bss_end__+0x143735c>
    11b0:	cd000000 	stcgt	0, cr0, [r0, #-0]
    11b4:	13000006 	movwne	r0, #6
    11b8:	00008874 	andeq	r8, r0, r4, ror r8
    11bc:	00000018 	andeq	r0, r0, r8, lsl r0
    11c0:	0000023b 	andeq	r0, r0, fp, lsr r2
    11c4:	00041d0c 	andeq	r1, r4, ip, lsl #26
    11c8:	2a540100 	bcs	15015d0 <__bss_end__+0x14f7378>
    11cc:	0b000000 	bleq	11d4 <_start-0x6e2c>
    11d0:	0b000007 	bleq	11f4 <_start-0x6e0c>
    11d4:	00676572 	rsbeq	r6, r7, r2, ror r5
    11d8:	00ea5501 	rsceq	r5, sl, r1, lsl #10
    11dc:	070b0000 	streq	r0, [fp, -r0]
    11e0:	14000000 	strne	r0, [r0], #-0
    11e4:	00008890 	muleq	r0, r0, r8
    11e8:	00000024 	andeq	r0, r0, r4, lsr #32
    11ec:	00041d09 	andeq	r1, r4, r9, lsl #26
    11f0:	2a580100 	bcs	16015f8 <__bss_end__+0x15f73a0>
    11f4:	01000000 	mrseq	r0, (UNDEF: 0)
    11f8:	65720a50 	ldrbvs	r0, [r2, #-2640]!	; 0xa50
    11fc:	59010067 	stmdbpl	r1, {r0, r1, r2, r5, r6}
    1200:	000000ea 	andeq	r0, r0, sl, ror #1
    1204:	00005001 	andeq	r5, r0, r1
    1208:	0003b915 	andeq	fp, r3, r5, lsl r9
    120c:	2a5e0100 	bcs	1781614 <__bss_end__+0x17773bc>
    1210:	b4000000 	strlt	r0, [r0], #-0
    1214:	48000088 	stmdami	r0, {r3, r7}
    1218:	01000000 	mrseq	r0, (UNDEF: 0)
    121c:	6970109c 	ldmdbvs	r0!, {r2, r3, r4, r7, ip}^
    1220:	5e01006e 	cdppl	0, 0, cr0, cr1, cr14, {3}
    1224:	0000002a 	andeq	r0, r0, sl, lsr #32
    1228:	0000071e 	andeq	r0, r0, lr, lsl r7
    122c:	00041d0c 	andeq	r1, r4, ip, lsl #26
    1230:	2a630100 	bcs	18c1638 <__bss_end__+0x18b73e0>
    1234:	58000000 	stmdapl	r0, {}	; <UNPREDICTABLE>
    1238:	0b000007 	bleq	125c <_start-0x6da4>
    123c:	00676572 	rsbeq	r6, r7, r2, ror r5
    1240:	00ea6401 	rsceq	r6, sl, r1, lsl #8
    1244:	07580000 	ldrbeq	r0, [r8, -r0]
    1248:	760b0000 	strvc	r0, [fp], -r0
    124c:	01006c61 	tsteq	r0, r1, ror #24
    1250:	00002a65 	andeq	r2, r0, r5, ror #20
    1254:	00079800 	andeq	r9, r7, r0, lsl #16
    1258:	038b0c00 	orreq	r0, fp, #0, 24
    125c:	66010000 	strvs	r0, [r1], -r0
    1260:	0000002a 	andeq	r0, r0, sl, lsr #32
    1264:	000007ab 	andeq	r0, r0, fp, lsr #15
    1268:	01ad0000 			; <UNDEFINED> instruction: 0x01ad0000
    126c:	00040000 	andeq	r0, r4, r0
    1270:	000008df 	ldrdeq	r0, [r0], -pc	; <UNPREDICTABLE>
    1274:	039c0104 	orrseq	r0, ip, #4, 2
    1278:	c5010000 	strgt	r0, [r1, #-0]
    127c:	2e000004 	cdpcs	0, 0, cr0, cr0, cr4, {0}
    1280:	00008800 	andeq	r8, r0, r0, lsl #16
    1284:	00000000 	andeq	r0, r0, r0
    1288:	0004c800 	andeq	ip, r4, r0, lsl #16
    128c:	04b50200 	ldrteq	r0, [r5], #512	; 0x200
    1290:	08010000 	stmdaeq	r1, {}	; <UNPREDICTABLE>
    1294:	000088fc 	strdeq	r8, [r0], -ip
    1298:	00000010 	andeq	r0, r0, r0, lsl r0
    129c:	9d039c01 	stcls	12, cr9, [r3, #-4]
    12a0:	01000004 	tsteq	r0, r4
    12a4:	00005d0a 	andeq	r5, r0, sl, lsl #26
    12a8:	00890c00 	addeq	r0, r9, r0, lsl #24
    12ac:	00001c00 	andeq	r1, r0, r0, lsl #24
    12b0:	5d9c0100 	ldfpls	f0, [ip]
    12b4:	04000000 	streq	r0, [r0], #-0
    12b8:	000004cd 	andeq	r0, r0, sp, asr #9
    12bc:	00640b01 	rsbeq	r0, r4, r1, lsl #22
    12c0:	30040000 	andcc	r0, r4, r0
    12c4:	05002000 	streq	r2, [r0, #-0]
    12c8:	00150704 	andseq	r0, r5, r4, lsl #14
    12cc:	04060000 	streq	r0, [r6], #-0
    12d0:	0000006a 	andeq	r0, r0, sl, rrx
    12d4:	00005d07 	andeq	r5, r0, r7, lsl #26
    12d8:	01760800 	cmneq	r6, r0, lsl #16
    12dc:	0f010000 	svceq	0x00010000
    12e0:	00008928 	andeq	r8, r0, r8, lsr #18
    12e4:	0000002c 	andeq	r0, r0, ip, lsr #32
    12e8:	00cd9c01 	sbceq	r9, sp, r1, lsl #24
    12ec:	75090000 	strvc	r0, [r9, #-0]
    12f0:	0f010073 	svceq	0x00010073
    12f4:	0000005d 	andeq	r0, r0, sp, asr r0
    12f8:	000007ce 	andeq	r0, r0, lr, asr #15
    12fc:	0062720a 	rsbeq	r7, r2, sl, lsl #4
    1300:	005d1001 	subseq	r1, sp, r1
    1304:	54010000 	strpl	r0, [r1], #-0
    1308:	0089400b 	addeq	r4, r9, fp
    130c:	00001000 	andeq	r1, r0, r0
    1310:	0000c300 	andeq	ip, r0, r0, lsl #6
    1314:	61720c00 	cmnvs	r2, r0, lsl #24
    1318:	5d120100 	ldfpls	f0, [r2, #-0]
    131c:	ec000000 	stc	0, cr0, [r0], {-0}
    1320:	0d000007 	stceq	0, cr0, [r0, #-28]	; 0xffffffe4
    1324:	00008944 	andeq	r8, r0, r4, asr #18
    1328:	00000034 	andeq	r0, r0, r4, lsr r0
    132c:	893c0d00 	ldmdbhi	ip!, {r8, sl, fp}
    1330:	00340000 	eorseq	r0, r4, r0
    1334:	08000000 	stmdaeq	r0, {}	; <UNPREDICTABLE>
    1338:	000004e7 	andeq	r0, r0, r7, ror #9
    133c:	89541901 	ldmdbhi	r4, {r0, r8, fp, ip}^
    1340:	00340000 	eorseq	r0, r4, r0
    1344:	9c010000 	stcls	0, cr0, [r1], {-0}
    1348:	0000010e 	andeq	r0, r0, lr, lsl #2
    134c:	00736d09 	rsbseq	r6, r3, r9, lsl #26
    1350:	005d1901 	subseq	r1, sp, r1, lsl #18
    1354:	07ff0000 	ldrbeq	r0, [pc, r0]!
    1358:	690c0000 	stmdbvs	ip, {}	; <UNPREDICTABLE>
    135c:	0e1a0100 	mufeqe	f0, f2, f0
    1360:	1d000001 	stcne	0, cr0, [r0, #-4]
    1364:	0e000008 	cdpeq	0, 0, cr0, cr0, cr8, {0}
    1368:	00008978 	andeq	r8, r0, r8, ror r9
    136c:	0000006f 	andeq	r0, r0, pc, rrx
    1370:	0250010f 	subseq	r0, r0, #-1073741821	; 0xc0000003
    1374:	00000076 	andeq	r0, r0, r6, ror r0
    1378:	69050410 	stmdbvs	r5, {r4, sl}
    137c:	0800746e 	stmdaeq	r0, {r1, r2, r3, r5, r6, sl, ip, sp, lr}
    1380:	000004e1 	andeq	r0, r0, r1, ror #9
    1384:	89882001 	stmibhi	r8, {r0, sp}
    1388:	00340000 	eorseq	r0, r4, r0
    138c:	9c010000 	stcls	0, cr0, [r1], {-0}
    1390:	00000155 	andeq	r0, r0, r5, asr r1
    1394:	01007309 	tsteq	r0, r9, lsl #6
    1398:	00005d20 	andeq	r5, r0, r0, lsr #26
    139c:	00083c00 	andeq	r3, r8, r0, lsl #24
    13a0:	00690c00 	rsbeq	r0, r9, r0, lsl #24
    13a4:	010e2101 	tsteq	lr, r1, lsl #2
    13a8:	085a0000 	ldmdaeq	sl, {}^	; <UNPREDICTABLE>
    13ac:	ac0e0000 	stcge	0, cr0, [lr], {-0}
    13b0:	cd000089 	stcgt	0, cr0, [r0, #-548]	; 0xfffffddc
    13b4:	0f000000 	svceq	0x00000000
    13b8:	76025001 	strvc	r5, [r2], -r1
    13bc:	08000000 	stmdaeq	r0, {}	; <UNPREDICTABLE>
    13c0:	000004ac 	andeq	r0, r0, ip, lsr #9
    13c4:	89bc2701 	ldmibhi	ip!, {r0, r8, r9, sl, sp}
    13c8:	00200000 	eoreq	r0, r0, r0
    13cc:	9c010000 	stcls	0, cr0, [r1], {-0}
    13d0:	0000019a 	muleq	r0, sl, r1
    13d4:	0004c011 	andeq	ip, r4, r1, lsl r0
    13d8:	5d270100 	stfpls	f0, [r7, #-0]
    13dc:	79000000 	stmdbvc	r0, {}	; <UNPREDICTABLE>
    13e0:	12000008 	andne	r0, r0, #8
    13e4:	000089cc 	andeq	r8, r0, ip, asr #19
    13e8:	0000000c 	andeq	r0, r0, ip
    13ec:	0004a713 	andeq	sl, r4, r3, lsl r7
    13f0:	5d290100 	stfpls	f0, [r9, #-0]
    13f4:	01000000 	mrseq	r0, (UNDEF: 0)
    13f8:	89d00d50 	ldmibhi	r0, {r4, r6, r8, sl, fp}^
    13fc:	00340000 	eorseq	r0, r4, r0
    1400:	00000000 	andeq	r0, r0, r0
    1404:	0004d514 	andeq	sp, r4, r4, lsl r5
    1408:	ab050100 	blge	141810 <__bss_end__+0x1375b8>
    140c:	05000001 	streq	r0, [r0, #-1]
    1410:	009f5403 	addseq	r5, pc, r3, lsl #8
    1414:	005d1500 	subseq	r1, sp, r0, lsl #10
    1418:	e8000000 	stmda	r0, {}	; <UNPREDICTABLE>
    141c:	04000005 	streq	r0, [r0], #-5
    1420:	000a0f00 	andeq	r0, sl, r0, lsl #30
    1424:	9c010400 	cfstrsls	mvf0, [r1], {-0}
    1428:	01000003 	tsteq	r0, r3
    142c:	00000579 	andeq	r0, r0, r9, ror r5
    1430:	0150002e 	cmpeq	r0, lr, lsr #32
    1434:	00000000 	andeq	r0, r0, r0
    1438:	057c0000 	ldrbeq	r0, [ip, #-0]!
    143c:	82020000 	andhi	r0, r2, #0
    1440:	02000005 	andeq	r0, r0, #5
    1444:	00002e28 	andeq	r2, r0, r8, lsr #28
    1448:	051f0300 	ldreq	r0, [pc, #-768]	; 1150 <_start-0x6eb0>
    144c:	03040000 	movweq	r0, #16384	; 0x4000
    1450:	00004500 	andeq	r4, r0, r0, lsl #10
    1454:	05450400 	strbeq	r0, [r5, #-1024]	; 0x400
    1458:	00450000 	subeq	r0, r5, r0
    145c:	00000000 	andeq	r0, r0, r0
    1460:	21020405 	tstcs	r2, r5, lsl #8
    1464:	02000005 	andeq	r0, r0, #5
    1468:	00002362 	andeq	r2, r0, r2, ror #6
    146c:	05580600 	ldrbeq	r0, [r8, #-1536]	; 0x600
    1470:	0f010000 	svceq	0x00010000
    1474:	000089dc 	ldrdeq	r8, [r0], -ip
    1478:	00000014 	andeq	r0, r0, r4, lsl r0
    147c:	00719c01 	rsbseq	r9, r1, r1, lsl #24
    1480:	ec070000 	stc	0, cr0, [r7], {-0}
    1484:	d7000089 	strle	r0, [r0, -r9, lsl #1]
    1488:	00000005 	andeq	r0, r0, r5
    148c:	00050108 	andeq	r0, r5, r8, lsl #2
    1490:	be160100 	muflts	f0, f6, f0
    1494:	f0000000 			; <UNDEFINED> instruction: 0xf0000000
    1498:	38000089 	stmdacc	r0, {r0, r3, r7}
    149c:	01000000 	mrseq	r0, (UNDEF: 0)
    14a0:	0000be9c 	muleq	r0, ip, lr
    14a4:	05530900 	ldrbeq	r0, [r3, #-2304]	; 0x900
    14a8:	16010000 	strne	r0, [r1], -r0
    14ac:	000000be 	strheq	r0, [r0], -lr
    14b0:	00000897 	muleq	r0, r7, r8
    14b4:	776f700a 	strbvc	r7, [pc, -sl]!
    14b8:	be160100 	muflts	f0, f6, f0
    14bc:	01000000 	mrseq	r0, (UNDEF: 0)
    14c0:	89fc0b51 	ldmibhi	ip!, {r0, r4, r6, r8, r9, fp}^
    14c4:	00240000 	eoreq	r0, r4, r0
    14c8:	690c0000 	stmdbvs	ip, {}	; <UNPREDICTABLE>
    14cc:	be170100 	muflts	f0, f7, f0
    14d0:	b5000000 	strlt	r0, [r0, #-0]
    14d4:	00000008 	andeq	r0, r0, r8
    14d8:	05040d00 	streq	r0, [r4, #-3328]	; 0xd00
    14dc:	00746e69 	rsbseq	r6, r4, r9, ror #28
    14e0:	00053208 	andeq	r3, r5, r8, lsl #4
    14e4:	be210100 	suflts	f0, f1, f0
    14e8:	28000000 	stmdacs	r0, {}	; <UNPREDICTABLE>
    14ec:	c800008a 	stmdagt	r0, {r1, r3, r7}
    14f0:	01000000 	mrseq	r0, (UNDEF: 0)
    14f4:	0001899c 	muleq	r1, ip, r9
    14f8:	75620e00 	strbvc	r0, [r2, #-3584]!	; 0xe00
    14fc:	21010066 	tstcs	r1, r6, rrx
    1500:	00000189 	andeq	r0, r0, r9, lsl #3
    1504:	000008d4 	ldrdeq	r0, [r0], -r4
    1508:	01006e0e 	tsteq	r0, lr, lsl #28
    150c:	0000be21 	andeq	fp, r0, r1, lsr #28
    1510:	0008f200 	andeq	pc, r8, r0, lsl #4
    1514:	61760a00 	cmnvs	r6, r0, lsl #20
    1518:	2101006c 	tstcs	r1, ip, rrx
    151c:	00000196 	muleq	r0, r6, r1
    1520:	12095201 	andne	r5, r9, #268435456	; 0x10000000
    1524:	01000005 	tsteq	r0, r5
    1528:	0000be21 	andeq	fp, r0, r1, lsr #28
    152c:	00091200 	andeq	r1, r9, r0, lsl #4
    1530:	056f0f00 	strbeq	r0, [pc, #-3840]!	; 638 <_start-0x79c8>
    1534:	23010000 	movwcs	r0, #4096	; 0x1000
    1538:	000000be 	strheq	r0, [r0], -lr
    153c:	00000933 	andeq	r0, r0, r3, lsr r9
    1540:	00054a0f 	andeq	r4, r5, pc, lsl #20
    1544:	be2b0100 	suflte	f0, f3, f0
    1548:	52000000 	andpl	r0, r0, #0
    154c:	0f000009 	svceq	0x00000009
    1550:	000005a1 	andeq	r0, r0, r1, lsr #11
    1554:	00be3101 	adcseq	r3, lr, r1, lsl #2
    1558:	09750000 	ldmdbeq	r5!, {}^	; <UNPREDICTABLE>
    155c:	c0100000 	andsgt	r0, r0, r0
    1560:	5a000000 	bpl	1568 <_start-0x6a98>
    1564:	0c000001 	stceq	0, cr0, [r0], {1}
    1568:	26010074 			; <UNDEFINED> instruction: 0x26010074
    156c:	00000196 	muleq	r0, r6, r1
    1570:	00000994 	muleq	r0, r4, r9
    1574:	00d81000 	sbcseq	r1, r8, r0
    1578:	01710000 	cmneq	r1, r0
    157c:	690c0000 	stmdbvs	ip, {}	; <UNPREDICTABLE>
    1580:	be320100 	rsflts	f0, f2, f0
    1584:	b2000000 	andlt	r0, r0, #0
    1588:	00000009 	andeq	r0, r0, r9
    158c:	008a940b 	addeq	r9, sl, fp, lsl #8
    1590:	00003800 	andeq	r3, r0, r0, lsl #16
    1594:	00690c00 	rsbeq	r0, r9, r0, lsl #24
    1598:	00be3701 	adcseq	r3, lr, r1, lsl #14
    159c:	09d10000 	ldmibeq	r1, {}^	; <UNPREDICTABLE>
    15a0:	00000000 	andeq	r0, r0, r0
    15a4:	018f0411 	orreq	r0, pc, r1, lsl r4	; <UNPREDICTABLE>
    15a8:	01120000 	tsteq	r2, r0
    15ac:	0000c208 	andeq	ip, r0, r8, lsl #4
    15b0:	07041200 	streq	r1, [r4, -r0, lsl #4]
    15b4:	00000015 	andeq	r0, r0, r5, lsl r0
    15b8:	0005aa08 	andeq	sl, r5, r8, lsl #20
    15bc:	be450100 	dvflts	f0, f5, f0
    15c0:	f0000000 			; <UNDEFINED> instruction: 0xf0000000
    15c4:	d800008a 	stmdale	r0, {r1, r3, r7}
    15c8:	01000000 	mrseq	r0, (UNDEF: 0)
    15cc:	0002769c 	muleq	r2, ip, r6
    15d0:	75620e00 	strbvc	r0, [r2, #-3584]!	; 0xe00
    15d4:	45010066 	strmi	r0, [r1, #-102]	; 0x66
    15d8:	00000189 	andeq	r0, r0, r9, lsl #3
    15dc:	000009ef 	andeq	r0, r0, pc, ror #19
    15e0:	01006e0e 	tsteq	r0, lr, lsl #28
    15e4:	0000be45 	andeq	fp, r0, r5, asr #28
    15e8:	000a0d00 	andeq	r0, sl, r0, lsl #26
    15ec:	61760a00 	cmnvs	r6, r0, lsl #20
    15f0:	4501006c 	strmi	r0, [r1, #-108]	; 0x6c
    15f4:	00000196 	muleq	r0, r6, r1
    15f8:	12095201 	andne	r5, r9, #268435456	; 0x10000000
    15fc:	01000005 	tsteq	r0, r5
    1600:	0000be45 	andeq	fp, r0, r5, asr #28
    1604:	000a2d00 	andeq	r2, sl, r0, lsl #26
    1608:	056f0f00 	strbeq	r0, [pc, #-3840]!	; 710 <_start-0x78f0>
    160c:	48010000 	stmdami	r1, {}	; <UNPREDICTABLE>
    1610:	000000be 	strheq	r0, [r0], -lr
    1614:	00000a4e 	andeq	r0, r0, lr, asr #20
    1618:	00054a0f 	andeq	r4, r5, pc, lsl #20
    161c:	be4f0100 	dvflte	f0, f7, f0
    1620:	6d000000 	stcvs	0, cr0, [r0, #-0]
    1624:	0f00000a 	svceq	0x0000000a
    1628:	000005a1 	andeq	r0, r0, r1, lsr #11
    162c:	00be5501 	adcseq	r5, lr, r1, lsl #10
    1630:	0a900000 	beq	fe401638 <__bss_end__+0xfe3f73e0>
    1634:	f0100000 			; <UNDEFINED> instruction: 0xf0100000
    1638:	32000000 	andcc	r0, r0, #0
    163c:	0c000002 	stceq	0, cr0, [r0], {2}
    1640:	4a010074 	bmi	41818 <__bss_end__+0x375c0>
    1644:	00000196 	muleq	r0, r6, r1
    1648:	00000aaf 	andeq	r0, r0, pc, lsr #21
    164c:	01081000 	mrseq	r1, (UNDEF: 8)
    1650:	02490000 	subeq	r0, r9, #0
    1654:	690c0000 	stmdbvs	ip, {}	; <UNPREDICTABLE>
    1658:	be560100 	rdflts	f0, f6, f0
    165c:	cd000000 	stcgt	0, cr0, [r0, #-0]
    1660:	0000000a 	andeq	r0, r0, sl
    1664:	008b5c0b 	addeq	r5, fp, fp, lsl #24
    1668:	00004800 	andeq	r4, r0, r0, lsl #16
    166c:	00690c00 	rsbeq	r0, r9, r0, lsl #24
    1670:	00be5b01 	adcseq	r5, lr, r1, lsl #22
    1674:	0aec0000 	beq	ffb0167c <__bss_end__+0xffaf7424>
    1678:	20130000 	andscs	r0, r3, r0
    167c:	0f000001 	svceq	0x00000001
    1680:	0000059b 	muleq	r0, fp, r5
    1684:	00be5d01 	adcseq	r5, lr, r1, lsl #26
    1688:	0b0a0000 	bleq	281690 <__bss_end__+0x277438>
    168c:	00000000 	andeq	r0, r0, r0
    1690:	05290800 	streq	r0, [r9, #-2048]!	; 0x800
    1694:	6f010000 	svcvs	0x00010000
    1698:	000000be 	strheq	r0, [r0], -lr
    169c:	00008bc8 	andeq	r8, r0, r8, asr #23
    16a0:	0000014c 	andeq	r0, r0, ip, asr #2
    16a4:	03689c01 	cmneq	r8, #256	; 0x100
    16a8:	620e0000 	andvs	r0, lr, #0
    16ac:	01006675 	tsteq	r0, r5, ror r6
    16b0:	0001896f 	andeq	r8, r1, pc, ror #18
    16b4:	000b4300 	andeq	r4, fp, r0, lsl #6
    16b8:	006e0e00 	rsbeq	r0, lr, r0, lsl #28
    16bc:	00be6f01 	adcseq	r6, lr, r1, lsl #30
    16c0:	0b6f0000 	bleq	1bc16c8 <__bss_end__+0x1bb7470>
    16c4:	760e0000 	strvc	r0, [lr], -r0
    16c8:	01006c61 	tsteq	r0, r1, ror #24
    16cc:	0000be6f 	andeq	fp, r0, pc, ror #28
    16d0:	000b9a00 	andeq	r9, fp, r0, lsl #20
    16d4:	05120900 	ldreq	r0, [r2, #-2304]	; 0x900
    16d8:	6f010000 	svcvs	0x00010000
    16dc:	000000be 	strheq	r0, [r0], -lr
    16e0:	00000bb8 			; <UNDEFINED> instruction: 0x00000bb8
    16e4:	0005640f 	andeq	r6, r5, pc, lsl #8
    16e8:	8f700100 	svchi	0x00700100
    16ec:	d9000001 	stmdble	r0, {r0}
    16f0:	0f00000b 	svceq	0x0000000b
    16f4:	0000056f 	andeq	r0, r0, pc, ror #10
    16f8:	00be7701 	adcseq	r7, lr, r1, lsl #14
    16fc:	0c000000 	stceq	0, cr0, [r0], {-0}
    1700:	4a0f0000 	bmi	3c1708 <__bss_end__+0x3b74b0>
    1704:	01000005 	tsteq	r0, r5
    1708:	0000be7d 	andeq	fp, r0, sp, ror lr
    170c:	000c2900 	andeq	r2, ip, r0, lsl #18
    1710:	05a10f00 	streq	r0, [r1, #3840]!	; 0xf00
    1714:	83010000 	movwhi	r0, #4096	; 0x1000
    1718:	000000be 	strheq	r0, [r0], -lr
    171c:	00000c4c 	andeq	r0, r0, ip, asr #24
    1720:	00013810 	andeq	r3, r1, r0, lsl r8
    1724:	00031c00 	andeq	r1, r3, r0, lsl #24
    1728:	00740c00 	rsbseq	r0, r4, r0, lsl #24
    172c:	00be7801 	adcseq	r7, lr, r1, lsl #16
    1730:	0c760000 	ldcleq	0, cr0, [r6], #-0
    1734:	14000000 	strne	r0, [r0], #-0
    1738:	00008c5c 	andeq	r8, r0, ip, asr ip
    173c:	00000028 	andeq	r0, r0, r8, lsr #32
    1740:	00000337 	andeq	r0, r0, r7, lsr r3
    1744:	0100690c 	tsteq	r0, ip, lsl #18
    1748:	0000be8a 	andeq	fp, r0, sl, lsl #29
    174c:	000caa00 	andeq	sl, ip, r0, lsl #20
    1750:	880b0000 	stmdahi	fp, {}	; <UNPREDICTABLE>
    1754:	5c00008c 	stcpl	0, cr0, [r0], {140}	; 0x8c
    1758:	0c000000 	stceq	0, cr0, [r0], {-0}
    175c:	91010069 	tstls	r1, r9, rrx
    1760:	000000be 	strheq	r0, [r0], -lr
    1764:	00000cbd 			; <UNDEFINED> instruction: 0x00000cbd
    1768:	008cb015 	addeq	fp, ip, r5, lsl r0
    176c:	00007100 	andeq	r7, r0, r0, lsl #2
    1770:	51011600 	tstpl	r1, r0, lsl #12
    1774:	75007a05 	strvc	r7, [r0, #-2565]	; 0xa05
    1778:	01161c00 	tsteq	r6, r0, lsl #24
    177c:	00790250 	rsbseq	r0, r9, r0, asr r2
    1780:	08000000 	stmdaeq	r0, {}	; <UNPREDICTABLE>
    1784:	0000053b 	andeq	r0, r0, fp, lsr r5
    1788:	00be9f01 	adcseq	r9, lr, r1, lsl #30
    178c:	8d140000 	ldchi	0, cr0, [r4, #-0]
    1790:	01e00000 	mvneq	r0, r0
    1794:	9c010000 	stcls	0, cr0, [r1], {-0}
    1798:	0000047e 	andeq	r0, r0, lr, ror r4
    179c:	6675620e 	ldrbtvs	r6, [r5], -lr, lsl #4
    17a0:	899f0100 	ldmibhi	pc, {r8}	; <UNPREDICTABLE>
    17a4:	dc000001 	stcle	0, cr0, [r0], {1}
    17a8:	0900000c 	stmdbeq	r0, {r2, r3}
    17ac:	00000070 	andeq	r0, r0, r0, ror r0
    17b0:	00be9f01 	adcseq	r9, lr, r1, lsl #30
    17b4:	0d260000 	stceq	0, cr0, [r6, #-0]
    17b8:	18090000 	stmdane	r9, {}	; <UNPREDICTABLE>
    17bc:	01000005 	tsteq	r0, r5
    17c0:	00047e9f 	muleq	r4, pc, lr	; <UNPREDICTABLE>
    17c4:	000d4f00 	andeq	r4, sp, r0, lsl #30
    17c8:	70610e00 	rsbvc	r0, r1, r0, lsl #28
    17cc:	479f0100 	ldrmi	r0, [pc, r0, lsl #2]
    17d0:	7b000000 	blvc	17d8 <_start-0x6828>
    17d4:	0f00000d 	svceq	0x0000000d
    17d8:	000005a1 	andeq	r0, r0, r1, lsr #11
    17dc:	00bea001 	adcseq	sl, lr, r1
    17e0:	0daf0000 	stceq	0, cr0, [pc]	; 17e8 <_start-0x6818>
    17e4:	fa0f0000 	blx	3c17ec <__bss_end__+0x3b7594>
    17e8:	01000004 	tsteq	r0, r4
    17ec:	00047ea1 	andeq	r7, r4, r1, lsr #29
    17f0:	000dda00 	andeq	sp, sp, r0, lsl #20
    17f4:	00630c00 	rsbeq	r0, r3, r0, lsl #24
    17f8:	018fa201 	orreq	sl, pc, r1, lsl #4
    17fc:	0e500000 	cdpeq	0, 5, cr0, cr0, cr0, {0}
    1800:	730c0000 	movwvc	r0, #49152	; 0xc000
    1804:	01007274 	tsteq	r0, r4, ror r2
    1808:	000189a2 	andeq	r8, r1, r2, lsr #19
    180c:	000f0600 	andeq	r0, pc, r0, lsl #12
    1810:	05120f00 	ldreq	r0, [r2, #-3840]	; 0xf00
    1814:	a3010000 	movwge	r0, #4096	; 0x1000
    1818:	000000be 	strheq	r0, [r0], -lr
    181c:	00000f19 	andeq	r0, r0, r9, lsl pc
    1820:	00059b0f 	andeq	r9, r5, pc, lsl #22
    1824:	bea30100 	fdvlts	f0, f3, f0
    1828:	86000000 	strhi	r0, [r0], -r0
    182c:	0c00000f 	stceq	0, cr0, [r0], {15}
    1830:	a4010065 	strge	r0, [r1], #-101	; 0x65
    1834:	000000be 	strheq	r0, [r0], -lr
    1838:	00000f99 	muleq	r0, r9, pc	; <UNPREDICTABLE>
    183c:	008e8417 	addeq	r8, lr, r7, lsl r4
    1840:	00027600 	andeq	r7, r2, r0, lsl #12
    1844:	00044100 	andeq	r4, r4, r0, lsl #2
    1848:	51011600 	tstpl	r1, r0, lsl #12
    184c:	74007805 	strvc	r7, [r0], #-2053	; 0x805
    1850:	01161c00 	tsteq	r6, r0, lsl #24
    1854:	00770550 	rsbseq	r0, r7, r0, asr r5
    1858:	00220074 	eoreq	r0, r2, r4, ror r0
    185c:	008ea417 	addeq	sl, lr, r7, lsl r4
    1860:	00019d00 	andeq	r9, r1, r0, lsl #26
    1864:	00046100 	andeq	r6, r4, r0, lsl #2
    1868:	51011600 	tstpl	r1, r0, lsl #12
    186c:	74007805 	strvc	r7, [r0], #-2053	; 0x805
    1870:	01161c00 	tsteq	r6, r0, lsl #24
    1874:	00770550 	rsbseq	r0, r7, r0, asr r5
    1878:	00220074 	eoreq	r0, r2, r4, ror r0
    187c:	008ec415 	addeq	ip, lr, r5, lsl r4
    1880:	0000c500 	andeq	ip, r0, r0, lsl #10
    1884:	51011600 	tstpl	r1, r0, lsl #12
    1888:	74007805 	strvc	r7, [r0], #-2053	; 0x805
    188c:	01161c00 	tsteq	r6, r0, lsl #24
    1890:	00770550 	rsbseq	r0, r7, r0, asr r5
    1894:	00220074 	eoreq	r0, r2, r4, ror r0
    1898:	84041100 	strhi	r1, [r4], #-256	; 0x100
    189c:	18000004 	stmdane	r0, {r2}
    18a0:	0000018f 	andeq	r0, r0, pc, lsl #3
    18a4:	00053c19 	andeq	r3, r5, r9, lsl ip
    18a8:	01010100 	mrseq	r0, (UNDEF: 17)
    18ac:	000000be 	strheq	r0, [r0], -lr
    18b0:	00008ef4 	strdeq	r8, [r0], -r4
    18b4:	0000002c 	andeq	r0, r0, ip, lsr #32
    18b8:	05159c01 	ldreq	r9, [r5, #-3073]	; 0xc01
    18bc:	621a0000 	andsvs	r0, sl, #0
    18c0:	01006675 	tsteq	r0, r5, ror r6
    18c4:	01890101 	orreq	r0, r9, r1, lsl #2
    18c8:	0fd80000 	svceq	0x00d80000
    18cc:	701b0000 	andsvc	r0, fp, r0
    18d0:	01000000 	mrseq	r0, (UNDEF: 0)
    18d4:	00be0101 	adcseq	r0, lr, r1, lsl #2
    18d8:	0ff90000 	svceq	0x00f90000
    18dc:	181c0000 	ldmdane	ip, {}	; <UNPREDICTABLE>
    18e0:	01000005 	tsteq	r0, r5
    18e4:	047e0101 	ldrbteq	r0, [lr], #-257	; 0x101
    18e8:	91020000 	mrsls	r0, (UNDEF: 2)
    18ec:	611e1d78 	tstvs	lr, r8, ror sp
    18f0:	02010070 	andeq	r0, r1, #112	; 0x70
    18f4:	00004701 	andeq	r4, r0, r1, lsl #14
    18f8:	64910200 	ldrvs	r0, [r1], #512	; 0x200
    18fc:	0005a11f 	andeq	sl, r5, pc, lsl r1
    1900:	01040100 	mrseq	r0, (UNDEF: 20)
    1904:	000000be 	strheq	r0, [r0], -lr
    1908:	18155001 	ldmdane	r5, {r0, ip, lr}
    190c:	6800008f 	stmdavs	r0, {r0, r1, r2, r3, r7}
    1910:	16000003 	strne	r0, [r0], -r3
    1914:	91025301 	tstls	r2, r1, lsl #6
    1918:	5201167c 	andpl	r1, r1, #124, 12	; 0x7c00000
    191c:	06789103 	ldrbteq	r9, [r8], -r3, lsl #2
    1920:	03510116 	cmpeq	r1, #-2147483643	; 0x80000005
    1924:	165101f3 			; <UNDEFINED> instruction: 0x165101f3
    1928:	f3035001 	vhadd.u8	d5, d3, d1
    192c:	00005001 	andeq	r5, r0, r1
    1930:	00053e19 	andeq	r3, r5, r9, lsl lr
    1934:	01090100 	mrseq	r0, (UNDEF: 25)
    1938:	000000be 	strheq	r0, [r0], -lr
    193c:	00008f20 	andeq	r8, r0, r0, lsr #30
    1940:	00000068 	andeq	r0, r0, r8, rrx
    1944:	05bf9c01 	ldreq	r9, [pc, #3073]!	; 254d <_start-0x5ab3>
    1948:	181c0000 	ldmdane	ip, {}	; <UNPREDICTABLE>
    194c:	01000005 	tsteq	r0, r5
    1950:	047e0109 	ldrbteq	r0, [lr], #-265	; 0x109
    1954:	91020000 	mrsls	r0, (UNDEF: 2)
    1958:	621e1d70 	andsvs	r1, lr, #112, 26	; 0x1c00
    195c:	01006675 	tsteq	r0, r5, ror r6
    1960:	05bf010a 	ldreq	r0, [pc, #266]!	; 1a72 <_start-0x658e>
    1964:	91030000 	mrsls	r0, (UNDEF: 3)
    1968:	632077d8 	teqvs	r0, #216, 14	; 0x3600000
    196c:	010b0100 	mrseq	r0, (UNDEF: 27)
    1970:	0000018f 	andeq	r0, r0, pc, lsl #3
    1974:	0000101a 	andeq	r1, r0, sl, lsl r0
    1978:	72747020 	rsbsvc	r7, r4, #32
    197c:	010b0100 	mrseq	r0, (UNDEF: 27)
    1980:	00000189 	andeq	r0, r0, r9, lsl #3
    1984:	0000103a 	andeq	r1, r0, sl, lsr r0
    1988:	0070611e 	rsbseq	r6, r0, lr, lsl r1
    198c:	47010c01 	strmi	r0, [r1, -r1, lsl #24]
    1990:	03000000 	movweq	r0, #0
    1994:	2177d491 			; <UNDEFINED> instruction: 0x2177d491
    1998:	000005a1 	andeq	r0, r0, r1, lsr #11
    199c:	be010e01 	cdplt	14, 0, cr0, cr1, cr1, {0}
    19a0:	71000000 	mrsvc	r0, (UNDEF: 0)
    19a4:	17000010 	smladne	r0, r0, r0, r0
    19a8:	00008f54 	andeq	r8, r0, r4, asr pc
    19ac:	00000368 	andeq	r0, r0, r8, ror #6
    19b0:	000005b5 			; <UNDEFINED> instruction: 0x000005b5
    19b4:	02530116 	subseq	r0, r3, #-2147483643	; 0x80000005
    19b8:	01167491 			; <UNDEFINED> instruction: 0x01167491
    19bc:	70910352 	addsvc	r0, r1, r2, asr r3
    19c0:	51011606 	tstpl	r1, r6, lsl #12
    19c4:	04000a03 	streq	r0, [r0], #-2563	; 0xa03
    19c8:	03500116 	cmpeq	r0, #-2147483643	; 0x80000005
    19cc:	0077d891 			; <UNDEFINED> instruction: 0x0077d891
    19d0:	008f6807 	addeq	r6, pc, r7, lsl #16
    19d4:	0005de00 	andeq	sp, r5, r0, lsl #28
    19d8:	8f220000 	svchi	0x00220000
    19dc:	d0000001 	andle	r0, r0, r1
    19e0:	23000005 	movwcs	r0, #5
    19e4:	000005d0 	ldrdeq	r0, [r0], -r0	; <UNPREDICTABLE>
    19e8:	120003ff 	andne	r0, r0, #-67108861	; 0xfc000003
    19ec:	00a00704 	adceq	r0, r0, r4, lsl #14
    19f0:	f0240000 			; <UNDEFINED> instruction: 0xf0240000
    19f4:	04000004 	streq	r0, [r0], #-4
    19f8:	0591250b 	ldreq	r2, [r1, #1291]	; 0x50b
    19fc:	0d040000 	stceq	0, cr0, [r4, #-0]
    1a00:	00019626 	andeq	r9, r1, r6, lsr #12
    1a04:	de000000 	cdple	0, 0, cr0, cr0, cr0, {0}
    1a08:	04000001 	streq	r0, [r0], #-1
    1a0c:	000c1000 	andeq	r1, ip, r0
    1a10:	9c010400 	cfstrsls	mvf0, [r1], {-0}
    1a14:	01000003 	tsteq	r0, r3
    1a18:	000005bd 			; <UNDEFINED> instruction: 0x000005bd
    1a1c:	0198002e 	orrseq	r0, r8, lr, lsr #32
    1a20:	00000000 	andeq	r0, r0, r0
    1a24:	07ee0000 	strbeq	r0, [lr, r0]!
    1a28:	01020000 	mrseq	r0, (UNDEF: 2)
    1a2c:	00624f02 	rsbeq	r4, r2, r2, lsl #30
    1a30:	7b030000 	blvc	c1a38 <__bss_end__+0xb77e0>
    1a34:	00000004 	andeq	r0, r0, r4
    1a38:	0003a803 	andeq	sl, r3, r3, lsl #16
    1a3c:	c3030100 	movwgt	r0, #12544	; 0x3100
    1a40:	04000003 	streq	r0, [r0], #-3
    1a44:	00045b03 	andeq	r5, r4, r3, lsl #22
    1a48:	d2030500 	andle	r0, r3, #0, 10
    1a4c:	06000003 	streq	r0, [r0], -r3
    1a50:	0003e103 	andeq	lr, r3, r3, lsl #2
    1a54:	f0030700 			; <UNDEFINED> instruction: 0xf0030700
    1a58:	03000003 	movweq	r0, #3
    1a5c:	0003ff03 	andeq	pc, r3, r3, lsl #30
    1a60:	22030200 	andcs	r0, r3, #0, 4
    1a64:	08000004 	stmdaeq	r0, {r2}
    1a68:	05f00400 	ldrbeq	r0, [r0, #1024]!	; 0x400
    1a6c:	012c0000 	teqeq	ip, r0
    1a70:	0000f305 	andeq	pc, r0, r5, lsl #6
    1a74:	05b80500 	ldreq	r0, [r8, #1280]!	; 0x500
    1a78:	06010000 	streq	r0, [r1], -r0
    1a7c:	000000f3 	strdeq	r0, [r0], -r3
    1a80:	65690600 	strbvs	r0, [r9, #-1536]!	; 0x600
    1a84:	07010072 	smlsdxeq	r1, r2, r0, r0
    1a88:	000000f3 	strdeq	r0, [r0], -r3
    1a8c:	69690604 	stmdbvs	r9!, {r2, r9, sl}^
    1a90:	08010072 	stmdaeq	r1, {r1, r4, r5, r6}
    1a94:	000000f3 	strdeq	r0, [r0], -r3
    1a98:	636c0608 	cmnvs	ip, #8, 12	; 0x800000
    1a9c:	09010072 	stmdbeq	r1, {r1, r4, r5, r6}
    1aa0:	000000f3 	strdeq	r0, [r0], -r3
    1aa4:	636d060c 	cmnvs	sp, #12, 12	; 0xc00000
    1aa8:	0a010072 	beq	41c78 <__bss_end__+0x37a20>
    1aac:	000000f3 	strdeq	r0, [r0], -r3
    1ab0:	736c0610 	cmnvc	ip, #16, 12	; 0x1000000
    1ab4:	0b010072 	bleq	41c84 <__bss_end__+0x37a2c>
    1ab8:	000000f3 	strdeq	r0, [r0], -r3
    1abc:	736d0614 	cmnvc	sp, #20, 12	; 0x1400000
    1ac0:	0c010072 	stceq	0, cr0, [r1], {114}	; 0x72
    1ac4:	000000f3 	strdeq	r0, [r0], -r3
    1ac8:	05e30518 	strbeq	r0, [r3, #1304]!	; 0x518
    1acc:	0d010000 	stceq	0, cr0, [r1, #-0]
    1ad0:	000000f3 	strdeq	r0, [r0], -r3
    1ad4:	05de051c 	ldrbeq	r0, [lr, #1308]	; 0x51c
    1ad8:	0e010000 	cdpeq	0, 0, cr0, cr1, cr0, {0}
    1adc:	000000f3 	strdeq	r0, [r0], -r3
    1ae0:	05b30520 	ldreq	r0, [r3, #1312]!	; 0x520
    1ae4:	0f010000 	svceq	0x00010000
    1ae8:	000000f3 	strdeq	r0, [r0], -r3
    1aec:	05d90524 	ldrbeq	r0, [r9, #1316]	; 0x524
    1af0:	10010000 	andne	r0, r1, r0
    1af4:	000000f3 	strdeq	r0, [r0], -r3
    1af8:	04070028 	streq	r0, [r7], #-40	; 0x28
    1afc:	00001507 	andeq	r1, r0, r7, lsl #10
    1b00:	04f00800 	ldrbteq	r0, [r0], #2048	; 0x800
    1b04:	2a010000 	bcs	41b0c <__bss_end__+0x378b4>
    1b08:	00008f88 	andeq	r8, r0, r8, lsl #31
    1b0c:	00000068 	andeq	r0, r0, r8, rrx
    1b10:	014b9c01 	cmpeq	fp, r1, lsl #24
    1b14:	61090000 	mrsvs	r0, (UNDEF: 9)
    1b18:	01007875 	tsteq	r0, r5, ror r8
    1b1c:	00014b2b 	andeq	r4, r1, fp, lsr #22
    1b20:	21500400 	cmpcs	r0, r0, lsl #8
    1b24:	8fd40a20 	svchi	0x00d40a20
    1b28:	01cf0000 	biceq	r0, pc, r0
    1b2c:	01360000 	teqeq	r6, r0
    1b30:	010b0000 	mrseq	r0, (UNDEF: 11)
    1b34:	0b320151 	bleq	c82080 <__bss_end__+0xc77e28>
    1b38:	3e015001 	cdpcc	0, 0, cr5, cr1, cr1, {0}
    1b3c:	8fe00c00 	svchi	0x00e00c00
    1b40:	01cf0000 	biceq	r0, pc, r0
    1b44:	010b0000 	mrseq	r0, (UNDEF: 11)
    1b48:	0b320151 	bleq	c82094 <__bss_end__+0xc77e3c>
    1b4c:	3f015001 	svccc	0x00015001
    1b50:	040d0000 	streq	r0, [sp], #-0
    1b54:	00000151 	andeq	r0, r0, r1, asr r1
    1b58:	6905040e 	stmdbvs	r5, {r1, r2, r3, sl}
    1b5c:	0f00746e 	svceq	0x0000746e
    1b60:	000005cf 	andeq	r0, r0, pc, asr #11
    1b64:	01514101 	cmpeq	r1, r1, lsl #2
    1b68:	8ff00000 	svchi	0x00f00000	; IMB
    1b6c:	00300000 	eorseq	r0, r0, r0
    1b70:	9c010000 	stcls	0, cr0, [r1], {-0}
    1b74:	00059108 	andeq	r9, r5, r8, lsl #2
    1b78:	20460100 	subcs	r0, r6, r0, lsl #2
    1b7c:	40000090 	mulmi	r0, r0, r0
    1b80:	01000000 	mrseq	r0, (UNDEF: 0)
    1b84:	00019f9c 	muleq	r1, ip, pc	; <UNPREDICTABLE>
    1b88:	00631000 	rsbeq	r1, r3, r0
    1b8c:	00f34601 	rscseq	r4, r3, r1, lsl #12
    1b90:	108f0000 	addne	r0, pc, r0
    1b94:	400c0000 	andmi	r0, ip, r0
    1b98:	6d000090 	stcvs	0, cr0, [r0, #-576]	; 0xfffffdc0
    1b9c:	0b000001 	bleq	1ba8 <_start-0x6458>
    1ba0:	3d015001 	stccc	0, cr5, [r1, #-4]
    1ba4:	c4110000 	ldrgt	r0, [r1], #-0
    1ba8:	01000005 	tsteq	r0, r5
    1bac:	0090604e 	addseq	r6, r0, lr, asr #32
    1bb0:	00002400 	andeq	r2, r0, r0, lsl #8
    1bb4:	129c0100 	addsne	r0, ip, #0, 2
    1bb8:	000005eb 	andeq	r0, r0, fp, ror #11
    1bbc:	01bf2801 			; <UNDEFINED> instruction: 0x01bf2801
    1bc0:	50400000 	subpl	r0, r0, r0
    1bc4:	c4132021 	ldrgt	r2, [r3], #-33	; 0x21
    1bc8:	0d000001 	stceq	0, cr0, [r0, #-4]
    1bcc:	0001ca04 	andeq	ip, r1, r4, lsl #20
    1bd0:	00621400 	rsbeq	r1, r2, r0, lsl #8
    1bd4:	8b150000 	blhi	541bdc <__bss_end__+0x537984>
    1bd8:	02000004 	andeq	r0, r0, #4
    1bdc:	00f3165a 	rscseq	r1, r3, sl, asr r6
    1be0:	f3160000 	vhadd.u16	d0, d6, d0
    1be4:	00000000 	andeq	r0, r0, r0
    1be8:	00016a00 	andeq	r6, r1, r0, lsl #20
    1bec:	49000400 	stmdbmi	r0, {sl}
    1bf0:	0400000d 	streq	r0, [r0], #-13
    1bf4:	00039c01 	andeq	r9, r3, r1, lsl #24
    1bf8:	06050100 	streq	r0, [r5], -r0, lsl #2
    1bfc:	002e0000 	eoreq	r0, lr, r0
    1c00:	000001c0 	andeq	r0, r0, r0, asr #3
    1c04:	00000000 	andeq	r0, r0, r0
    1c08:	0000088f 	andeq	r0, r0, pc, lsl #17
    1c0c:	04020102 	streq	r0, [r2], #-258	; 0x102
    1c10:	0000003e 	andeq	r0, r0, lr, lsr r0
    1c14:	00063b03 	andeq	r3, r6, r3, lsl #22
    1c18:	29030000 	stmdbcs	r3, {}	; <UNPREDICTABLE>
    1c1c:	01000006 	tsteq	r0, r6
    1c20:	00061903 	andeq	r1, r6, r3, lsl #18
    1c24:	04000200 	streq	r0, [r0], #-512	; 0x200
    1c28:	00000666 	andeq	r0, r0, r6, ror #12
    1c2c:	90841301 	addls	r1, r4, r1, lsl #6
    1c30:	00680000 	rsbeq	r0, r8, r0
    1c34:	9c010000 	stcls	0, cr0, [r1], {-0}
    1c38:	000000d8 	ldrdeq	r0, [r0], -r8
    1c3c:	6e697005 	cdpvs	0, 6, cr7, cr9, cr5, {0}
    1c40:	d8130100 	ldmdale	r3, {r8}
    1c44:	ad000000 	stcge	0, cr0, [r0, #-0]
    1c48:	05000010 	streq	r0, [r0, #-16]
    1c4c:	00647570 	rsbeq	r7, r4, r0, ror r5
    1c50:	00d81301 	sbcseq	r1, r8, r1, lsl #6
    1c54:	10d90000 	sbcsne	r0, r9, r0
    1c58:	11060000 	mrsne	r0, (UNDEF: 6)
    1c5c:	01000006 	tsteq	r0, r6
    1c60:	0000df17 	andeq	sp, r0, r7, lsl pc
    1c64:	20009400 	andcs	r9, r0, r0, lsl #8
    1c68:	064c0620 	strbeq	r0, [ip], -r0, lsr #12
    1c6c:	1b010000 	blne	41c74 <__bss_end__+0x37a1c>
    1c70:	000000df 	ldrdeq	r0, [r0], -pc	; <UNPREDICTABLE>
    1c74:	20200098 	mlacs	r0, r8, r0, r0
    1c78:	0090b007 	addseq	fp, r0, r7
    1c7c:	00016000 	andeq	r6, r1, r0
    1c80:	0000a200 	andeq	sl, r0, r0, lsl #4
    1c84:	50010800 	andpl	r0, r1, r0, lsl #16
    1c88:	07003501 	streq	r3, [r0, -r1, lsl #10]
    1c8c:	000090c8 	andeq	r9, r0, r8, asr #1
    1c90:	00000160 	andeq	r0, r0, r0, ror #2
    1c94:	000000b5 	strheq	r0, [r0], -r5
    1c98:	01500108 	cmpeq	r0, r8, lsl #2
    1c9c:	d8070035 	stmdale	r7, {r0, r2, r4, r5}
    1ca0:	60000090 	mulvs	r0, r0, r0
    1ca4:	c8000001 	stmdagt	r0, {r0}
    1ca8:	08000000 	stmdaeq	r0, {}	; <UNPREDICTABLE>
    1cac:	35015001 	strcc	r5, [r1, #-1]
    1cb0:	90e40900 	rscls	r0, r4, r0, lsl #18
    1cb4:	01600000 	cmneq	r0, r0
    1cb8:	01080000 	mrseq	r0, (UNDEF: 8)
    1cbc:	00350150 	eorseq	r0, r5, r0, asr r1
    1cc0:	07040a00 	streq	r0, [r4, -r0, lsl #20]
    1cc4:	00000015 	andeq	r0, r0, r5, lsl r0
    1cc8:	00e5040b 	rsceq	r0, r5, fp, lsl #8
    1ccc:	d80c0000 	stmdale	ip, {}	; <UNPREDICTABLE>
    1cd0:	04000000 	streq	r0, [r0], #-0
    1cd4:	000005f5 	strdeq	r0, [r0], -r5
    1cd8:	90ec2601 	rscls	r2, ip, r1, lsl #12
    1cdc:	00200000 	eoreq	r0, r0, r0
    1ce0:	9c010000 	stcls	0, cr0, [r1], {-0}
    1ce4:	00000125 	andeq	r0, r0, r5, lsr #2
    1ce8:	6e697005 	cdpvs	0, 6, cr7, cr9, cr5, {0}
    1cec:	d8260100 	stmdale	r6!, {r8}
    1cf0:	fa000000 	blx	1cf8 <_start-0x6308>
    1cf4:	09000010 	stmdbeq	r0, {r4}
    1cf8:	00009108 	andeq	r9, r0, r8, lsl #2
    1cfc:	0000003e 	andeq	r0, r0, lr, lsr r0
    1d00:	01510108 	cmpeq	r1, r8, lsl #2
    1d04:	50010832 	andpl	r0, r1, r2, lsr r8
    1d08:	5001f303 	andpl	pc, r1, r3, lsl #6
    1d0c:	54040000 	strpl	r0, [r4], #-0
    1d10:	01000006 	tsteq	r0, r6
    1d14:	00910c2e 	addseq	r0, r1, lr, lsr #24
    1d18:	00001800 	andeq	r1, r0, r0, lsl #16
    1d1c:	609c0100 	addsvs	r0, ip, r0, lsl #2
    1d20:	05000001 	streq	r0, [r0, #-1]
    1d24:	006e6970 	rsbeq	r6, lr, r0, ror r9
    1d28:	00d82e01 	sbcseq	r2, r8, r1, lsl #28
    1d2c:	111b0000 	tstne	fp, r0
    1d30:	20090000 	andcs	r0, r9, r0
    1d34:	3e000091 	mcrcc	0, 0, r0, cr0, cr1, {4}
    1d38:	08000000 	stmdaeq	r0, {}	; <UNPREDICTABLE>
    1d3c:	31015101 	tstcc	r1, r1, lsl #2
    1d40:	03500108 	cmpeq	r0, #8, 2
    1d44:	005001f3 	ldrsheq	r0, [r0], #-19	; 0xffffffed
    1d48:	01760d00 	cmneq	r6, r0, lsl #26
    1d4c:	0f030000 	svceq	0x00030000
    1d50:	0000d80e 	andeq	sp, r0, lr, lsl #16
    1d54:	50000000 	andpl	r0, r0, r0
    1d58:	04000003 	streq	r0, [r0], #-3
    1d5c:	000e0200 	andeq	r0, lr, r0, lsl #4
    1d60:	9c010400 	cfstrsls	mvf0, [r1], {-0}
    1d64:	01000003 	tsteq	r0, r3
    1d68:	000006aa 	andeq	r0, r0, sl, lsr #13
    1d6c:	01e0002e 	mvneq	r0, lr, lsr #32
    1d70:	00000000 	andeq	r0, r0, r0
    1d74:	09190000 	ldmdbeq	r9, {}	; <UNPREDICTABLE>
    1d78:	01020000 	mrseq	r0, (UNDEF: 2)
    1d7c:	017c1202 	cmneq	ip, r2, lsl #4
    1d80:	de030000 	cdple	0, 0, cr0, cr3, cr0, {0}
    1d84:	00000007 	andeq	r0, r0, r7
    1d88:	0007ed03 	andeq	lr, r7, r3, lsl #26
    1d8c:	f7030000 			; <UNDEFINED> instruction: 0xf7030000
    1d90:	01000007 	tsteq	r0, r7
    1d94:	00080103 	andeq	r0, r8, r3, lsl #2
    1d98:	0b030200 	bleq	c25a0 <__bss_end__+0xb8348>
    1d9c:	03000008 	movweq	r0, #8
    1da0:	00081503 	andeq	r1, r8, r3, lsl #10
    1da4:	1f030400 	svcne	0x00030400
    1da8:	05000008 	streq	r0, [r0, #-8]
    1dac:	00082903 	andeq	r2, r8, r3, lsl #18
    1db0:	33030600 	movwcc	r0, #13824	; 0x3600
    1db4:	07000008 	streq	r0, [r0, -r8]
    1db8:	00083d03 	andeq	r3, r8, r3, lsl #26
    1dbc:	47030800 	strmi	r0, [r3, -r0, lsl #16]
    1dc0:	09000008 	stmdbeq	r0, {r3}
    1dc4:	0006fe03 	andeq	pc, r6, r3, lsl #28
    1dc8:	09030a00 	stmdbeq	r3, {r9, fp}
    1dcc:	0b000007 	bleq	1df0 <_start-0x6210>
    1dd0:	00071403 	andeq	r1, r7, r3, lsl #8
    1dd4:	1f030c00 	svcne	0x00030c00
    1dd8:	0d000007 	stceq	0, cr0, [r0, #-28]	; 0xffffffe4
    1ddc:	00072a03 	andeq	r2, r7, r3, lsl #20
    1de0:	35030e00 	strcc	r0, [r3, #-3584]	; 0xe00
    1de4:	0f000007 	svceq	0x00000007
    1de8:	00074003 	andeq	r4, r7, r3
    1dec:	4b031000 	blmi	c5df4 <__bss_end__+0xbbb9c>
    1df0:	11000007 	tstne	r0, r7
    1df4:	00075603 	andeq	r5, r7, r3, lsl #12
    1df8:	61031200 	mrsvs	r1, R11_usr
    1dfc:	13000007 	movwne	r0, #7
    1e00:	0008b703 	andeq	fp, r8, r3, lsl #14
    1e04:	c2031400 	andgt	r1, r3, #0, 8
    1e08:	15000008 	strne	r0, [r0, #-8]
    1e0c:	0008cd03 	andeq	ip, r8, r3, lsl #26
    1e10:	e6031600 	str	r1, [r3], -r0, lsl #12
    1e14:	17000008 	strne	r0, [r0, -r8]
    1e18:	0008fc03 	andeq	pc, r8, r3, lsl #24
    1e1c:	7e031800 	cdpvc	8, 0, cr1, cr3, cr0, {0}
    1e20:	19000006 	stmdbne	r0, {r1, r2}
    1e24:	00069403 	andeq	r9, r6, r3, lsl #8
    1e28:	9f031a00 	svcls	0x00031a00
    1e2c:	1b000006 	blne	1e4c <_start-0x61b4>
    1e30:	0006b003 	andeq	fp, r6, r3
    1e34:	51031c00 	tstpl	r3, r0, lsl #24
    1e38:	1d000008 	stcne	0, cr0, [r0, #-32]	; 0xffffffe0
    1e3c:	0008f103 	andeq	pc, r8, r3, lsl #2
    1e40:	73031e00 	movwvc	r1, #15872	; 0x3e00
    1e44:	1f000006 	svcne	0x00000006
    1e48:	00068903 	andeq	r8, r6, r3, lsl #18
    1e4c:	6c032000 	stcvs	0, cr2, [r3], {-0}
    1e50:	21000007 	tstcs	r0, r7
    1e54:	00077703 	andeq	r7, r7, r3, lsl #14
    1e58:	82032200 	andhi	r2, r3, #0, 4
    1e5c:	23000007 	movwcs	r0, #7
    1e60:	00078d03 	andeq	r8, r7, r3, lsl #26
    1e64:	98032400 	stmdals	r3, {sl, sp}
    1e68:	25000007 	strcs	r0, [r0, #-7]
    1e6c:	0007a303 	andeq	sl, r7, r3, lsl #6
    1e70:	ae032600 	cfmadd32ge	mvax0, mvfx2, mvfx3, mvfx0
    1e74:	27000007 	strcs	r0, [r0, -r7]
    1e78:	0007c903 	andeq	ip, r7, r3, lsl #18
    1e7c:	bb032800 	bllt	cbe84 <__bss_end__+0xc1c2c>
    1e80:	29000006 	stmdbcs	r0, {r1, r2}
    1e84:	0006c603 	andeq	ip, r6, r3, lsl #12
    1e88:	5c032a00 	stcpl	10, cr2, [r3], {-0}
    1e8c:	2b000008 	blcs	1eb4 <_start-0x614c>
    1e90:	00086703 	andeq	r6, r8, r3, lsl #14
    1e94:	72032c00 	andvc	r2, r3, #0, 24
    1e98:	2d000008 	stccs	0, cr0, [r0, #-32]	; 0xffffffe0
    1e9c:	00087d03 	andeq	r7, r8, r3, lsl #26
    1ea0:	88032e00 	stmdahi	r3, {r9, sl, fp, sp}
    1ea4:	2f000008 	svccs	0x00000008
    1ea8:	00089303 	andeq	r9, r8, r3, lsl #6
    1eac:	9e033000 	cdpls	0, 0, cr3, cr3, cr0, {0}
    1eb0:	31000008 	tstcc	r0, r8
    1eb4:	0006d103 	andeq	sp, r6, r3, lsl #2
    1eb8:	dc033200 	sfmle	f3, 4, [r3], {-0}
    1ebc:	33000006 	movwcc	r0, #6
    1ec0:	0006e703 	andeq	lr, r6, r3, lsl #14
    1ec4:	b9033400 	stmdblt	r3, {sl, ip, sp}
    1ec8:	35000007 	strcc	r0, [r0, #-7]
    1ecc:	0008a903 	andeq	sl, r8, r3, lsl #18
    1ed0:	02003500 	andeq	r3, r0, #0, 10
    1ed4:	bb4f0201 	bllt	13c26e0 <__bss_end__+0x13b8488>
    1ed8:	03000001 	movweq	r0, #1
    1edc:	0000047b 	andeq	r0, r0, fp, ror r4
    1ee0:	03a80300 			; <UNDEFINED> instruction: 0x03a80300
    1ee4:	03010000 	movweq	r0, #4096	; 0x1000
    1ee8:	000003c3 	andeq	r0, r0, r3, asr #7
    1eec:	045b0304 	ldrbeq	r0, [fp], #-772	; 0x304
    1ef0:	03050000 	movweq	r0, #20480	; 0x5000
    1ef4:	000003d2 	ldrdeq	r0, [r0], -r2
    1ef8:	03e10306 	mvneq	r0, #402653184	; 0x18000000
    1efc:	03070000 	movweq	r0, #28672	; 0x7000
    1f00:	000003f0 	strdeq	r0, [r0], -r0	; <UNPREDICTABLE>
    1f04:	03ff0303 	mvnseq	r0, #201326592	; 0xc000000
    1f08:	03020000 	movweq	r0, #8192	; 0x2000
    1f0c:	00000422 	andeq	r0, r0, r2, lsr #8
    1f10:	73040008 	movwvc	r0, #16392	; 0x4008
    1f14:	18006970 	stmdane	r0, {r4, r5, r6, r8, fp, sp, lr}
    1f18:	020e0401 	andeq	r0, lr, #16777216	; 0x1000000
    1f1c:	63050000 	movwvs	r0, #20480	; 0x5000
    1f20:	05010073 	streq	r0, [r1, #-115]	; 0x73
    1f24:	0000020e 	andeq	r0, r0, lr, lsl #4
    1f28:	07d40600 	ldrbeq	r0, [r4, r0, lsl #12]
    1f2c:	06010000 	streq	r0, [r1], -r0
    1f30:	0000020e 	andeq	r0, r0, lr, lsl #4
    1f34:	6c630504 	cfstr64vs	mvdx0, [r3], #-16
    1f38:	0701006b 	streq	r0, [r1, -fp, rrx]
    1f3c:	0000020e 	andeq	r0, r0, lr, lsl #4
    1f40:	07c40608 	strbeq	r0, [r4, r8, lsl #12]
    1f44:	08010000 	stmdaeq	r1, {}	; <UNPREDICTABLE>
    1f48:	0000020e 	andeq	r0, r0, lr, lsl #4
    1f4c:	07d9060c 	ldrbeq	r0, [r9, ip, lsl #12]
    1f50:	09010000 	stmdbeq	r1, {}	; <UNPREDICTABLE>
    1f54:	0000020e 	andeq	r0, r0, lr, lsl #4
    1f58:	63640510 	cmnvs	r4, #16, 10	; 0x4000000
    1f5c:	0e0a0100 	adfeqe	f0, f2, f0
    1f60:	14000002 	strne	r0, [r0], #-2
    1f64:	07040700 	streq	r0, [r4, -r0, lsl #14]
    1f68:	00000015 	andeq	r0, r0, r5, lsl r0
    1f6c:	0002d908 	andeq	sp, r2, r8, lsl #18
    1f70:	24160100 	ldrcs	r0, [r6], #-256	; 0x100
    1f74:	bc000091 	stclt	0, cr0, [r0], {145}	; 0x91
    1f78:	01000000 	mrseq	r0, (UNDEF: 0)
    1f7c:	0002bd9c 	muleq	r2, ip, sp
    1f80:	06f20900 	ldrbteq	r0, [r2], r0, lsl #18
    1f84:	16010000 	strne	r0, [r1], -r0
    1f88:	0000020e 	andeq	r0, r0, lr, lsl #4
    1f8c:	0000113c 	andeq	r1, r0, ip, lsr r1
    1f90:	0008d809 	andeq	sp, r8, r9, lsl #16
    1f94:	0e160100 	mufeqs	f0, f6, f0
    1f98:	5a000002 	bpl	1fa8 <_start-0x6058>
    1f9c:	0a000011 	beq	1fe8 <_start-0x6018>
    1fa0:	00009144 	andeq	r9, r0, r4, asr #2
    1fa4:	00000341 	andeq	r0, r0, r1, asr #6
    1fa8:	00000260 	andeq	r0, r0, r0, ror #4
    1fac:	0151010b 	cmpeq	r1, fp, lsl #2
    1fb0:	50010b34 	andpl	r0, r1, r4, lsr fp
    1fb4:	0a003701 	beq	fbc0 <__bss_end__+0x5968>
    1fb8:	00009150 	andeq	r9, r0, r0, asr r1
    1fbc:	00000341 	andeq	r0, r0, r1, asr #6
    1fc0:	00000278 	andeq	r0, r0, r8, ror r2
    1fc4:	0151010b 	cmpeq	r1, fp, lsl #2
    1fc8:	50010b34 	andpl	r0, r1, r4, lsr fp
    1fcc:	0a003801 	beq	ffd8 <__bss_end__+0x5d80>
    1fd0:	0000915c 	andeq	r9, r0, ip, asr r1
    1fd4:	00000341 	andeq	r0, r0, r1, asr #6
    1fd8:	00000290 	muleq	r0, r0, r2
    1fdc:	0151010b 	cmpeq	r1, fp, lsl #2
    1fe0:	50010b34 	andpl	r0, r1, r4, lsr fp
    1fe4:	0a003901 	beq	103f0 <__bss_end__+0x6198>
    1fe8:	00009168 	andeq	r9, r0, r8, ror #2
    1fec:	00000341 	andeq	r0, r0, r1, asr #6
    1ff0:	000002a8 	andeq	r0, r0, r8, lsr #5
    1ff4:	0151010b 	cmpeq	r1, fp, lsl #2
    1ff8:	50010b34 	andpl	r0, r1, r4, lsr fp
    1ffc:	0c003a01 	stceq	10, cr3, [r0], {1}
    2000:	00009174 	andeq	r9, r0, r4, ror r1
    2004:	00000341 	andeq	r0, r0, r1, asr #6
    2008:	0151010b 	cmpeq	r1, fp, lsl #2
    200c:	50010b34 	andpl	r0, r1, r4, lsr fp
    2010:	00003b01 	andeq	r3, r0, r1, lsl #22
    2014:	0002ec08 	andeq	lr, r2, r8, lsl #24
    2018:	e0290100 	eor	r0, r9, r0, lsl #2
    201c:	90000091 	mulls	r0, r1, r0
    2020:	01000000 	mrseq	r0, (UNDEF: 0)
    2024:	0003119c 	muleq	r3, ip, r1
    2028:	78740d00 	ldmdavc	r4!, {r8, sl, fp}^
    202c:	11290100 	teqne	r9, r0, lsl #2
    2030:	01000003 	tsteq	r0, r3
    2034:	78720d50 	ldmdavc	r2!, {r4, r6, r8, sl, fp}^
    2038:	11290100 	teqne	r9, r0, lsl #2
    203c:	01000003 	tsteq	r0, r3
    2040:	656c0e51 	strbvs	r0, [ip, #-3665]!	; 0xe51
    2044:	2901006e 	stmdbcs	r1, {r1, r2, r3, r5, r6}
    2048:	0000020e 	andeq	r0, r0, lr, lsl #4
    204c:	00001178 	andeq	r1, r0, r8, ror r1
    2050:	0092000f 	addseq	r0, r2, pc
    2054:	00005400 	andeq	r5, r0, r0, lsl #8
    2058:	00691000 	rsbeq	r1, r9, r0
    205c:	031e2c01 	tsteq	lr, #256	; 0x100
    2060:	11990000 	orrsne	r0, r9, r0
    2064:	00000000 	andeq	r0, r0, r0
    2068:	03170411 	tsteq	r7, #285212672	; 0x11000000
    206c:	01070000 	mrseq	r0, (UNDEF: 7)
    2070:	0000b908 	andeq	fp, r0, r8, lsl #18
    2074:	05041200 	streq	r1, [r4, #-512]	; 0x200
    2078:	00746e69 	rsbseq	r6, r4, r9, ror #28
    207c:	69707313 	ldmdbvs	r0!, {r0, r1, r4, r8, r9, ip, sp, lr}^
    2080:	36140100 	ldrcc	r0, [r4], -r0, lsl #2
    2084:	05000003 	streq	r0, [r0, #-3]
    2088:	009ef403 	addseq	pc, lr, r3, lsl #8
    208c:	3c041100 	stfccs	f1, [r4], {-0}
    2090:	14000003 	strne	r0, [r0], #-3
    2094:	000001bb 			; <UNDEFINED> instruction: 0x000001bb
    2098:	00048b15 	andeq	r8, r4, r5, lsl fp
    209c:	165a0200 	ldrbne	r0, [sl], -r0, lsl #4
    20a0:	0000020e 	andeq	r0, r0, lr, lsl #4
    20a4:	00020e16 	andeq	r0, r2, r6, lsl lr
    20a8:	a8000000 	stmdage	r0, {}	; <UNPREDICTABLE>
    20ac:	02000000 	andeq	r0, r0, #0
    20b0:	000f2b00 	andeq	r2, pc, r0, lsl #22
    20b4:	a0010400 	andge	r0, r1, r0, lsl #8
    20b8:	70000009 	andvc	r0, r0, r9
    20bc:	84000092 	strhi	r0, [r0], #-146	; 0x92
    20c0:	2e000093 	mcrcs	0, 0, r0, cr0, cr3, {4}
    20c4:	2e2e2f2e 	cdpcs	15, 2, cr2, cr14, cr14, {1}
    20c8:	2f2e2e2f 	svccs	0x002e2e2f
    20cc:	2d636367 	stclcs	3, cr6, [r3, #-412]!	; 0xfffffe64
    20d0:	2e382e34 	mrccs	14, 1, r2, cr8, cr4, {1}
    20d4:	696c2f33 	stmdbvs	ip!, {r0, r1, r4, r5, r8, r9, sl, fp, sp}^
    20d8:	63636762 	cmnvs	r3, #25690112	; 0x1880000
    20dc:	6e6f632f 	cdpvs	3, 6, cr6, cr15, cr15, {1}
    20e0:	2f676966 	svccs	0x00676966
    20e4:	2f6d7261 	svccs	0x006d7261
    20e8:	3162696c 	cmncc	r2, ip, ror #18
    20ec:	636e7566 	cmnvs	lr, #427819008	; 0x19800000
    20f0:	00532e73 	subseq	r2, r3, r3, ror lr
    20f4:	6573552f 	ldrbvs	r5, [r3, #-1327]!	; 0x52f
    20f8:	692f7372 	stmdbvs	pc!, {r1, r4, r5, r6, r8, r9, ip, sp, lr}	; <UNPREDICTABLE>
    20fc:	68737562 	ldmdavs	r3!, {r1, r5, r6, r8, sl, ip, sp, lr}^
    2100:	636f442f 	cmnvs	pc, #788529152	; 0x2f000000
    2104:	6e656d75 	mcrvs	13, 3, r6, cr5, cr5, {3}
    2108:	532f7374 	teqpl	pc, #116, 6	; 0xd0000001
    210c:	666e6174 			; <UNDEFINED> instruction: 0x666e6174
    2110:	2f64726f 	svccs	0x0064726f
    2114:	30315343 	eorscc	r5, r1, r3, asr #6
    2118:	632f4537 	teqvs	pc, #230686720	; 0xdc00000
    211c:	73736f72 	cmnvc	r3, #456	; 0x1c8
    2120:	6d6f635f 	stclvs	3, cr6, [pc, #-380]!	; 1fac <_start-0x6054>
    2124:	656c6970 	strbvs	r6, [ip, #-2416]!	; 0x970
    2128:	75622f72 	strbvc	r2, [r2, #-3954]!	; 0xf72
    212c:	2d646c69 	stclcs	12, cr6, [r4, #-420]!	; 0xfffffe5c
    2130:	2f636367 	svccs	0x00636367
    2134:	2d6d7261 	sfmcs	f7, 2, [sp, #-388]!	; 0xfffffe7c
    2138:	656e6f6e 	strbvs	r6, [lr, #-3950]!	; 0xf6e
    213c:	6261652d 	rsbvs	r6, r1, #188743680	; 0xb400000
    2140:	696c2f69 	stmdbvs	ip!, {r0, r3, r5, r6, r8, r9, sl, fp, sp}^
    2144:	63636762 	cmnvs	r3, #25690112	; 0x1880000
    2148:	554e4700 	strbpl	r4, [lr, #-1792]	; 0x700
    214c:	20534120 	subscs	r4, r3, r0, lsr #2
    2150:	34322e32 	ldrtcc	r2, [r2], #-3634	; 0xe32
    2154:	a8800100 	stmge	r0, {r8}
    2158:	02000000 	andeq	r0, r0, #0
    215c:	000f3f00 	andeq	r3, pc, r0, lsl #30
    2160:	2a010400 	bcs	43168 <__bss_end__+0x38f10>
    2164:	8400000a 	strhi	r0, [r0], #-10
    2168:	88000093 	stmdahi	r0, {r0, r1, r4, r7}
    216c:	2e000093 	mcrcs	0, 0, r0, cr0, cr3, {4}
    2170:	2e2e2f2e 	cdpcs	15, 2, cr2, cr14, cr14, {1}
    2174:	2f2e2e2f 	svccs	0x002e2e2f
    2178:	2d636367 	stclcs	3, cr6, [r3, #-412]!	; 0xfffffe64
    217c:	2e382e34 	mrccs	14, 1, r2, cr8, cr4, {1}
    2180:	696c2f33 	stmdbvs	ip!, {r0, r1, r4, r5, r8, r9, sl, fp, sp}^
    2184:	63636762 	cmnvs	r3, #25690112	; 0x1880000
    2188:	6e6f632f 	cdpvs	3, 6, cr6, cr15, cr15, {1}
    218c:	2f676966 	svccs	0x00676966
    2190:	2f6d7261 	svccs	0x006d7261
    2194:	3162696c 	cmncc	r2, ip, ror #18
    2198:	636e7566 	cmnvs	lr, #427819008	; 0x19800000
    219c:	00532e73 	subseq	r2, r3, r3, ror lr
    21a0:	6573552f 	ldrbvs	r5, [r3, #-1327]!	; 0x52f
    21a4:	692f7372 	stmdbvs	pc!, {r1, r4, r5, r6, r8, r9, ip, sp, lr}	; <UNPREDICTABLE>
    21a8:	68737562 	ldmdavs	r3!, {r1, r5, r6, r8, sl, ip, sp, lr}^
    21ac:	636f442f 	cmnvs	pc, #788529152	; 0x2f000000
    21b0:	6e656d75 	mcrvs	13, 3, r6, cr5, cr5, {3}
    21b4:	532f7374 	teqpl	pc, #116, 6	; 0xd0000001
    21b8:	666e6174 			; <UNDEFINED> instruction: 0x666e6174
    21bc:	2f64726f 	svccs	0x0064726f
    21c0:	30315343 	eorscc	r5, r1, r3, asr #6
    21c4:	632f4537 	teqvs	pc, #230686720	; 0xdc00000
    21c8:	73736f72 	cmnvc	r3, #456	; 0x1c8
    21cc:	6d6f635f 	stclvs	3, cr6, [pc, #-380]!	; 2058 <_start-0x5fa8>
    21d0:	656c6970 	strbvs	r6, [ip, #-2416]!	; 0x970
    21d4:	75622f72 	strbvc	r2, [r2, #-3954]!	; 0xf72
    21d8:	2d646c69 	stclcs	12, cr6, [r4, #-420]!	; 0xfffffe5c
    21dc:	2f636367 	svccs	0x00636367
    21e0:	2d6d7261 	sfmcs	f7, 2, [sp, #-388]!	; 0xfffffe7c
    21e4:	656e6f6e 	strbvs	r6, [lr, #-3950]!	; 0xf6e
    21e8:	6261652d 	rsbvs	r6, r1, #188743680	; 0xb400000
    21ec:	696c2f69 	stmdbvs	ip!, {r0, r3, r5, r6, r8, r9, sl, fp, sp}^
    21f0:	63636762 	cmnvs	r3, #25690112	; 0x1880000
    21f4:	554e4700 	strbpl	r4, [lr, #-1792]	; 0x700
    21f8:	20534120 	subscs	r4, r3, r0, lsr #2
    21fc:	34322e32 	ldrtcc	r2, [r2], #-3634	; 0xe32
    2200:	a9800100 	stmibge	r0, {r8}
    2204:	02000000 	andeq	r0, r0, #0
    2208:	000f5300 	andeq	r5, pc, r0, lsl #6
    220c:	8b010400 	blhi	43214 <__bss_end__+0x38fbc>
    2210:	8800000a 	stmdahi	r0, {r1, r3}
    2214:	a4000093 	strge	r0, [r0], #-147	; 0x93
    2218:	2e000097 	mcrcs	0, 0, r0, cr0, cr7, {4}
    221c:	2e2e2f2e 	cdpcs	15, 2, cr2, cr14, cr14, {1}
    2220:	2f2e2e2f 	svccs	0x002e2e2f
    2224:	2d636367 	stclcs	3, cr6, [r3, #-412]!	; 0xfffffe64
    2228:	2e382e34 	mrccs	14, 1, r2, cr8, cr4, {1}
    222c:	696c2f33 	stmdbvs	ip!, {r0, r1, r4, r5, r8, r9, sl, fp, sp}^
    2230:	63636762 	cmnvs	r3, #25690112	; 0x1880000
    2234:	6e6f632f 	cdpvs	3, 6, cr6, cr15, cr15, {1}
    2238:	2f676966 	svccs	0x00676966
    223c:	2f6d7261 	svccs	0x006d7261
    2240:	65656569 	strbvs	r6, [r5, #-1385]!	; 0x569
    2244:	2d343537 	cfldr32cs	mvfx3, [r4, #-220]!	; 0xffffff24
    2248:	532e6664 	teqpl	lr, #100, 12	; 0x6400000
    224c:	73552f00 	cmpvc	r5, #0, 30
    2250:	2f737265 	svccs	0x00737265
    2254:	73756269 	cmnvc	r5, #-1879048186	; 0x90000006
    2258:	6f442f68 	svcvs	0x00442f68
    225c:	656d7563 	strbvs	r7, [sp, #-1379]!	; 0x563
    2260:	2f73746e 	svccs	0x0073746e
    2264:	6e617453 	mcrvs	4, 3, r7, cr1, cr3, {2}
    2268:	64726f66 	ldrbtvs	r6, [r2], #-3942	; 0xf66
    226c:	3153432f 	cmpcc	r3, pc, lsr #6
    2270:	2f453730 	svccs	0x00453730
    2274:	736f7263 	cmnvc	pc, #805306374	; 0x30000006
    2278:	6f635f73 	svcvs	0x00635f73
    227c:	6c69706d 	stclvs	0, cr7, [r9], #-436	; 0xfffffe4c
    2280:	622f7265 	eorvs	r7, pc, #1342177286	; 0x50000006
    2284:	646c6975 	strbtvs	r6, [ip], #-2421	; 0x975
    2288:	6363672d 	cmnvs	r3, #11796480	; 0xb40000
    228c:	6d72612f 	ldfvse	f6, [r2, #-188]!	; 0xffffff44
    2290:	6e6f6e2d 	cdpvs	14, 6, cr6, cr15, cr13, {1}
    2294:	61652d65 	cmnvs	r5, r5, ror #26
    2298:	6c2f6962 	stcvs	9, cr6, [pc], #-392	; 2118 <_start-0x5ee8>
    229c:	63676269 	cmnvs	r7, #-1879048186	; 0x90000006
    22a0:	4e470063 	cdpmi	0, 4, cr0, cr7, cr3, {3}
    22a4:	53412055 	movtpl	r2, #4181	; 0x1055
    22a8:	322e3220 	eorcc	r3, lr, #32, 4
    22ac:	80010034 	andhi	r0, r1, r4, lsr r0
    22b0:	000000a9 	andeq	r0, r0, r9, lsr #1
    22b4:	0f670002 	svceq	0x00670002
    22b8:	01040000 	mrseq	r0, (UNDEF: 4)
    22bc:	00000bef 	andeq	r0, r0, pc, ror #23
    22c0:	000097a4 	andeq	r9, r0, r4, lsr #15
    22c4:	00009c40 	andeq	r9, r0, r0, asr #24
    22c8:	2e2f2e2e 	cdpcs	14, 2, cr2, cr15, cr14, {1}
    22cc:	2e2e2f2e 	cdpcs	15, 2, cr2, cr14, cr14, {1}
    22d0:	6363672f 	cmnvs	r3, #12320768	; 0xbc0000
    22d4:	382e342d 	stmdacc	lr!, {r0, r2, r3, r5, sl, ip, sp}
    22d8:	6c2f332e 	stcvs	3, cr3, [pc], #-184	; 2228 <_start-0x5dd8>
    22dc:	63676269 	cmnvs	r7, #-1879048186	; 0x90000006
    22e0:	6f632f63 	svcvs	0x00632f63
    22e4:	6769666e 	strbvs	r6, [r9, -lr, ror #12]!
    22e8:	6d72612f 	ldfvse	f6, [r2, #-188]!	; 0xffffff44
    22ec:	6565692f 	strbvs	r6, [r5, #-2351]!	; 0x92f
    22f0:	34353765 	ldrtcc	r3, [r5], #-1893	; 0x765
    22f4:	2e66642d 	cdpcs	4, 6, cr6, cr6, cr13, {1}
    22f8:	552f0053 	strpl	r0, [pc, #-83]!	; 22ad <_start-0x5d53>
    22fc:	73726573 	cmnvc	r2, #482344960	; 0x1cc00000
    2300:	7562692f 	strbvc	r6, [r2, #-2351]!	; 0x92f
    2304:	442f6873 	strtmi	r6, [pc], #-2163	; 230c <_start-0x5cf4>
    2308:	6d75636f 	ldclvs	3, cr6, [r5, #-444]!	; 0xfffffe44
    230c:	73746e65 	cmnvc	r4, #1616	; 0x650
    2310:	6174532f 	cmnvs	r4, pc, lsr #6
    2314:	726f666e 	rsbvc	r6, pc, #115343360	; 0x6e00000
    2318:	53432f64 	movtpl	r2, #16228	; 0x3f64
    231c:	45373031 	ldrmi	r3, [r7, #-49]!	; 0x31
    2320:	6f72632f 	svcvs	0x0072632f
    2324:	635f7373 	cmpvs	pc, #-872415231	; 0xcc000001
    2328:	69706d6f 	ldmdbvs	r0!, {r0, r1, r2, r3, r5, r6, r8, sl, fp, sp, lr}^
    232c:	2f72656c 	svccs	0x0072656c
    2330:	6c697562 	cfstr64vs	mvdx7, [r9], #-392	; 0xfffffe78
    2334:	63672d64 	cmnvs	r7, #100, 26	; 0x1900
    2338:	72612f63 	rsbvc	r2, r1, #396	; 0x18c
    233c:	6f6e2d6d 	svcvs	0x006e2d6d
    2340:	652d656e 	strvs	r6, [sp, #-1390]!	; 0x56e
    2344:	2f696261 	svccs	0x00696261
    2348:	6762696c 	strbvs	r6, [r2, -ip, ror #18]!
    234c:	47006363 	strmi	r6, [r0, -r3, ror #6]
    2350:	4120554e 	teqmi	r0, lr, asr #10
    2354:	2e322053 	mrccs	0, 1, r2, cr2, cr3, {2}
    2358:	01003432 	tsteq	r0, r2, lsr r4
    235c:	0000a980 	andeq	sl, r0, r0, lsl #19
    2360:	7b000200 	blvc	2b68 <_start-0x5498>
    2364:	0400000f 	streq	r0, [r0], #-15
    2368:	000d6f01 	andeq	r6, sp, r1, lsl #30
    236c:	009c4000 	addseq	r4, ip, r0
    2370:	009d8400 	addseq	r8, sp, r0, lsl #8
    2374:	2f2e2e00 	svccs	0x002e2e00
    2378:	2e2f2e2e 	cdpcs	14, 2, cr2, cr15, cr14, {1}
    237c:	63672f2e 	cmnvs	r7, #46, 30	; 0xb8
    2380:	2e342d63 	cdpcs	13, 3, cr2, cr4, cr3, {3}
    2384:	2f332e38 	svccs	0x00332e38
    2388:	6762696c 	strbvs	r6, [r2, -ip, ror #18]!
    238c:	632f6363 	teqvs	pc, #-1946157055	; 0x8c000001
    2390:	69666e6f 	stmdbvs	r6!, {r0, r1, r2, r3, r5, r6, r9, sl, fp, sp, lr}^
    2394:	72612f67 	rsbvc	r2, r1, #412	; 0x19c
    2398:	65692f6d 	strbvs	r2, [r9, #-3949]!	; 0xf6d
    239c:	35376565 	ldrcc	r6, [r7, #-1381]!	; 0x565
    23a0:	66642d34 			; <UNDEFINED> instruction: 0x66642d34
    23a4:	2f00532e 	svccs	0x0000532e
    23a8:	72657355 	rsbvc	r7, r5, #1409286145	; 0x54000001
    23ac:	62692f73 	rsbvs	r2, r9, #460	; 0x1cc
    23b0:	2f687375 	svccs	0x00687375
    23b4:	75636f44 	strbvc	r6, [r3, #-3908]!	; 0xf44
    23b8:	746e656d 	strbtvc	r6, [lr], #-1389	; 0x56d
    23bc:	74532f73 	ldrbvc	r2, [r3], #-3955	; 0xf73
    23c0:	6f666e61 	svcvs	0x00666e61
    23c4:	432f6472 	teqmi	pc, #1912602624	; 0x72000000
    23c8:	37303153 			; <UNDEFINED> instruction: 0x37303153
    23cc:	72632f45 	rsbvc	r2, r3, #276	; 0x114
    23d0:	5f73736f 	svcpl	0x0073736f
    23d4:	706d6f63 	rsbvc	r6, sp, r3, ror #30
    23d8:	72656c69 	rsbvc	r6, r5, #26880	; 0x6900
    23dc:	6975622f 	ldmdbvs	r5!, {r0, r1, r2, r3, r5, r9, sp, lr}^
    23e0:	672d646c 	strvs	r6, [sp, -ip, ror #8]!
    23e4:	612f6363 	teqvs	pc, r3, ror #6
    23e8:	6e2d6d72 	mcrvs	13, 1, r6, cr13, cr2, {3}
    23ec:	2d656e6f 	stclcs	14, cr6, [r5, #-444]!	; 0xfffffe44
    23f0:	69626165 	stmdbvs	r2!, {r0, r2, r5, r6, r8, sp, lr}^
    23f4:	62696c2f 	rsbvs	r6, r9, #12032	; 0x2f00
    23f8:	00636367 	rsbeq	r6, r3, r7, ror #6
    23fc:	20554e47 	subscs	r4, r5, r7, asr #28
    2400:	32205341 	eorcc	r5, r0, #67108865	; 0x4000001
    2404:	0034322e 	eorseq	r3, r4, lr, lsr #4
    2408:	00a98001 	adceq	r8, r9, r1
    240c:	00020000 	andeq	r0, r2, r0
    2410:	00000f8f 	andeq	r0, r0, pc, lsl #31
    2414:	0e1d0104 	mufeqe	f0, f5, f4
    2418:	9d840000 	stcls	0, cr0, [r4]
    241c:	9de00000 	stclls	0, cr0, [r0]
    2420:	2e2e0000 	cdpcs	0, 2, cr0, cr14, cr0, {0}
    2424:	2f2e2e2f 	svccs	0x002e2e2f
    2428:	672f2e2e 	strvs	r2, [pc, -lr, lsr #28]!
    242c:	342d6363 	strtcc	r6, [sp], #-867	; 0x363
    2430:	332e382e 	teqcc	lr, #3014656	; 0x2e0000
    2434:	62696c2f 	rsbvs	r6, r9, #12032	; 0x2f00
    2438:	2f636367 	svccs	0x00636367
    243c:	666e6f63 	strbtvs	r6, [lr], -r3, ror #30
    2440:	612f6769 	teqvs	pc, r9, ror #14
    2444:	692f6d72 	stmdbvs	pc!, {r1, r4, r5, r6, r8, sl, fp, sp, lr}	; <UNPREDICTABLE>
    2448:	37656565 	strbcc	r6, [r5, -r5, ror #10]!
    244c:	642d3435 	strtvs	r3, [sp], #-1077	; 0x435
    2450:	00532e66 	subseq	r2, r3, r6, ror #28
    2454:	6573552f 	ldrbvs	r5, [r3, #-1327]!	; 0x52f
    2458:	692f7372 	stmdbvs	pc!, {r1, r4, r5, r6, r8, r9, ip, sp, lr}	; <UNPREDICTABLE>
    245c:	68737562 	ldmdavs	r3!, {r1, r5, r6, r8, sl, ip, sp, lr}^
    2460:	636f442f 	cmnvs	pc, #788529152	; 0x2f000000
    2464:	6e656d75 	mcrvs	13, 3, r6, cr5, cr5, {3}
    2468:	532f7374 	teqpl	pc, #116, 6	; 0xd0000001
    246c:	666e6174 			; <UNDEFINED> instruction: 0x666e6174
    2470:	2f64726f 	svccs	0x0064726f
    2474:	30315343 	eorscc	r5, r1, r3, asr #6
    2478:	632f4537 	teqvs	pc, #230686720	; 0xdc00000
    247c:	73736f72 	cmnvc	r3, #456	; 0x1c8
    2480:	6d6f635f 	stclvs	3, cr6, [pc, #-380]!	; 230c <_start-0x5cf4>
    2484:	656c6970 	strbvs	r6, [ip, #-2416]!	; 0x970
    2488:	75622f72 	strbvc	r2, [r2, #-3954]!	; 0xf72
    248c:	2d646c69 	stclcs	12, cr6, [r4, #-420]!	; 0xfffffe5c
    2490:	2f636367 	svccs	0x00636367
    2494:	2d6d7261 	sfmcs	f7, 2, [sp, #-388]!	; 0xfffffe7c
    2498:	656e6f6e 	strbvs	r6, [lr, #-3950]!	; 0xf6e
    249c:	6261652d 	rsbvs	r6, r1, #188743680	; 0xb400000
    24a0:	696c2f69 	stmdbvs	ip!, {r0, r3, r5, r6, r8, r9, sl, fp, sp}^
    24a4:	63636762 	cmnvs	r3, #25690112	; 0x1880000
    24a8:	554e4700 	strbpl	r4, [lr, #-1792]	; 0x700
    24ac:	20534120 	subscs	r4, r3, r0, lsr #2
    24b0:	34322e32 	ldrtcc	r2, [r2], #-3634	; 0xe32
    24b4:	Address 0x00000000000024b4 is out of bounds.


Disassembly of section .debug_abbrev:

00000000 <.debug_abbrev>:
   0:	25011101 	strcs	r1, [r1, #-257]	; 0x101
   4:	030b130e 	movweq	r1, #45838	; 0xb30e
   8:	110e1b0e 	tstne	lr, lr, lsl #22
   c:	10061201 	andne	r1, r6, r1, lsl #4
  10:	02000017 	andeq	r0, r0, #23
  14:	0b0b0024 	bleq	2c00ac <__bss_end__+0x2b5e54>
  18:	0e030b3e 	vmoveq.16	d3[0], r0
  1c:	24030000 	strcs	r0, [r3], #-0
  20:	3e0b0b00 	vmlacc.f64	d0, d11, d0
  24:	0008030b 	andeq	r0, r8, fp, lsl #6
  28:	01040400 	tsteq	r4, r0, lsl #8
  2c:	0b3a0b0b 	bleq	e82c60 <__bss_end__+0xe78a08>
  30:	13010b3b 	movwne	r0, #6971	; 0x1b3b
  34:	28050000 	stmdacs	r5, {}	; <UNPREDICTABLE>
  38:	1c080300 	stcne	3, cr0, [r8], {-0}
  3c:	0600000d 	streq	r0, [r0], -sp
  40:	0e030028 	cdpeq	0, 0, cr0, cr3, cr8, {1}
  44:	00000d1c 	andeq	r0, r0, ip, lsl sp
  48:	03001607 	movweq	r1, #1543	; 0x607
  4c:	3b0b3a0e 	blcc	2ce88c <__bss_end__+0x2c4634>
  50:	0013490b 	andseq	r4, r3, fp, lsl #18
  54:	01130800 	tsteq	r3, r0, lsl #16
  58:	0b3a0b0b 	bleq	e82c8c <__bss_end__+0xe78a34>
  5c:	13010b3b 	movwne	r0, #6971	; 0x1b3b
  60:	0d090000 	stceq	0, cr0, [r9, #-0]
  64:	3a0e0300 	bcc	380c6c <__bss_end__+0x376a14>
  68:	490b3b0b 	stmdbmi	fp, {r0, r1, r3, r8, r9, fp, ip, sp}
  6c:	000b3813 	andeq	r3, fp, r3, lsl r8
  70:	01010a00 	tsteq	r1, r0, lsl #20
  74:	13011349 	movwne	r1, #4937	; 0x1349
  78:	210b0000 	mrscs	r0, (UNDEF: 11)
  7c:	00134900 	andseq	r4, r3, r0, lsl #18
  80:	000f0c00 	andeq	r0, pc, r0, lsl #24
  84:	13490b0b 	movtne	r0, #39691	; 0x9b0b
  88:	260d0000 	strcs	r0, [sp], -r0
  8c:	00134900 	andseq	r4, r3, r0, lsl #18
  90:	012e0e00 	teqeq	lr, r0, lsl #28
  94:	0e03193f 	mcreq	9, 0, r1, cr3, cr15, {1}
  98:	0b3b0b3a 	bleq	ec2d88 <__bss_end__+0xeb8b30>
  9c:	06120111 			; <UNDEFINED> instruction: 0x06120111
  a0:	42961840 	addsmi	r1, r6, #64, 16	; 0x400000
  a4:	00130119 	andseq	r0, r3, r9, lsl r1
  a8:	00340f00 	eorseq	r0, r4, r0, lsl #30
  ac:	0b3a0803 	bleq	e820c0 <__bss_end__+0xe77e68>
  b0:	13490b3b 	movtne	r0, #39739	; 0x9b3b
  b4:	00001702 	andeq	r1, r0, r2, lsl #14
  b8:	01828910 	orreq	r8, r2, r0, lsl r9
  bc:	31011101 	tstcc	r1, r1, lsl #2
  c0:	00130113 	andseq	r0, r3, r3, lsl r1
  c4:	828a1100 	addhi	r1, sl, #0, 2
  c8:	18020001 	stmdane	r2, {r0}
  cc:	00184291 	mulseq	r8, r1, r2
  d0:	82891200 	addhi	r1, r9, #0, 4
  d4:	01110001 	tsteq	r1, r1
  d8:	00001331 	andeq	r1, r0, r1, lsr r3
  dc:	01828913 	orreq	r8, r2, r3, lsl r9
  e0:	31011101 	tstcc	r1, r1, lsl #2
  e4:	14000013 	strne	r0, [r0], #-19
  e8:	0e030034 	mcreq	0, 0, r0, cr3, cr4, {1}
  ec:	0b3b0b3a 	bleq	ec2ddc <__bss_end__+0xeb8b84>
  f0:	00001349 	andeq	r1, r0, r9, asr #6
  f4:	3f012e15 	svccc	0x00012e15
  f8:	3a0e0319 	bcc	380d64 <__bss_end__+0x376b0c>
  fc:	270b3b0b 	strcs	r3, [fp, -fp, lsl #22]
 100:	3c134919 	ldccc	9, cr4, [r3], {25}
 104:	00130119 	andseq	r0, r3, r9, lsl r1
 108:	00051600 	andeq	r1, r5, r0, lsl #12
 10c:	00001349 	andeq	r1, r0, r9, asr #6
 110:	3f012e17 	svccc	0x00012e17
 114:	3a0e0319 	bcc	380d80 <__bss_end__+0x376b28>
 118:	270b3b0b 	strcs	r3, [fp, -fp, lsl #22]
 11c:	3c134919 	ldccc	9, cr4, [r3], {25}
 120:	18000019 	stmdane	r0, {r0, r3, r4}
 124:	00000018 	andeq	r0, r0, r8, lsl r0
 128:	01110100 	tsteq	r1, r0, lsl #2
 12c:	0b130e25 	bleq	4c39c8 <__bss_end__+0x4b9770>
 130:	0e1b0e03 	cdpeq	14, 1, cr0, cr11, cr3, {0}
 134:	06120111 			; <UNDEFINED> instruction: 0x06120111
 138:	00001710 	andeq	r1, r0, r0, lsl r7
 13c:	3f012e02 	svccc	0x00012e02
 140:	3a0e0319 	bcc	380dac <__bss_end__+0x376b54>
 144:	110b3b0b 	tstne	fp, fp, lsl #22
 148:	40061201 	andmi	r1, r6, r1, lsl #4
 14c:	19429718 	stmdbne	r2, {r3, r4, r8, r9, sl, ip, pc}^
 150:	00001301 	andeq	r1, r0, r1, lsl #6
 154:	03003403 	movweq	r3, #1027	; 0x403
 158:	3b0b3a08 	blcc	2ce980 <__bss_end__+0x2c4728>
 15c:	0213490b 	andseq	r4, r3, #180224	; 0x2c000
 160:	04000017 	streq	r0, [r0], #-23
 164:	0e030034 	mcreq	0, 0, r0, cr3, cr4, {1}
 168:	0b3b0b3a 	bleq	ec2e58 <__bss_end__+0xeb8c00>
 16c:	00001349 	andeq	r1, r0, r9, asr #6
 170:	01828905 	orreq	r8, r2, r5, lsl #18
 174:	31011100 	mrscc	r1, (UNDEF: 17)
 178:	06000013 			; <UNDEFINED> instruction: 0x06000013
 17c:	0b0b000f 	bleq	2c01c0 <__bss_end__+0x2b5f68>
 180:	00001349 	andeq	r1, r0, r9, asr #6
 184:	0b002407 	bleq	91a8 <spi_init+0x84>
 188:	030b3e0b 	movweq	r3, #48651	; 0xbe0b
 18c:	08000008 	stmdaeq	r0, {r3}
 190:	0e030034 	mcreq	0, 0, r0, cr3, cr4, {1}
 194:	0b3b0b3a 	bleq	ec2e84 <__bss_end__+0xeb8c2c>
 198:	193f1349 	ldmdbne	pc!, {r0, r3, r6, r8, r9, ip}	; <UNPREDICTABLE>
 19c:	0000193c 	andeq	r1, r0, ip, lsr r9
 1a0:	3f012e09 	svccc	0x00012e09
 1a4:	3a0e0319 	bcc	380e10 <__bss_end__+0x376bb8>
 1a8:	3c0b3b0b 	stccc	11, cr3, [fp], {11}
 1ac:	0a000019 	beq	218 <_start-0x7de8>
 1b0:	00000018 	andeq	r0, r0, r8, lsl r0
 1b4:	01110100 	tsteq	r1, r0, lsl #2
 1b8:	0b130e25 	bleq	4c3a54 <__bss_end__+0x4b97fc>
 1bc:	0e1b0e03 	cdpeq	14, 1, cr0, cr11, cr3, {0}
 1c0:	06120111 			; <UNDEFINED> instruction: 0x06120111
 1c4:	00001710 	andeq	r1, r0, r0, lsl r7
 1c8:	0b010402 	bleq	411d8 <__bss_end__+0x36f80>
 1cc:	3b0b3a0b 	blcc	2cea00 <__bss_end__+0x2c47a8>
 1d0:	0013010b 	andseq	r0, r3, fp, lsl #2
 1d4:	00280300 	eoreq	r0, r8, r0, lsl #6
 1d8:	0d1c0803 	ldceq	8, cr0, [ip, #-12]
 1dc:	28040000 	stmdacs	r4, {}	; <UNPREDICTABLE>
 1e0:	1c0e0300 	stcne	3, cr0, [lr], {-0}
 1e4:	0500000d 	streq	r0, [r0, #-13]
 1e8:	0e030016 	mcreq	0, 0, r0, cr3, cr6, {0}
 1ec:	0b3b0b3a 	bleq	ec2edc <__bss_end__+0xeb8c84>
 1f0:	00001349 	andeq	r1, r0, r9, asr #6
 1f4:	0b011306 	bleq	44e14 <__bss_end__+0x3abbc>
 1f8:	3b0b3a0b 	blcc	2cea2c <__bss_end__+0x2c47d4>
 1fc:	0013010b 	andseq	r0, r3, fp, lsl #2
 200:	000d0700 	andeq	r0, sp, r0, lsl #14
 204:	0b3a0e03 	bleq	e83a18 <__bss_end__+0xe797c0>
 208:	13490b3b 	movtne	r0, #39739	; 0x9b3b
 20c:	00000b38 	andeq	r0, r0, r8, lsr fp
 210:	3f012e08 	svccc	0x00012e08
 214:	3a0e0319 	bcc	380e80 <__bss_end__+0x376c28>
 218:	270b3b0b 	strcs	r3, [fp, -fp, lsl #22]
 21c:	11134919 	tstne	r3, r9, lsl r9
 220:	40061201 	andmi	r1, r6, r1, lsl #4
 224:	19429618 	stmdbne	r2, {r3, r4, r9, sl, ip, pc}^
 228:	00001301 	andeq	r1, r0, r1, lsl #6
 22c:	03000509 	movweq	r0, #1289	; 0x509
 230:	3b0b3a0e 	blcc	2cea70 <__bss_end__+0x2c4818>
 234:	0213490b 	andseq	r4, r3, #180224	; 0x2c000
 238:	0a000017 	beq	29c <_start-0x7d64>
 23c:	0e030034 	mcreq	0, 0, r0, cr3, cr4, {1}
 240:	0b3b0b3a 	bleq	ec2f30 <__bss_end__+0xeb8cd8>
 244:	17021349 	strne	r1, [r2, -r9, asr #6]
 248:	240b0000 	strcs	r0, [fp], #-0
 24c:	3e0b0b00 	vmlacc.f64	d0, d11, d0
 250:	000e030b 	andeq	r0, lr, fp, lsl #6
 254:	012e0c00 	teqeq	lr, r0, lsl #24
 258:	0e03193f 	mcreq	9, 0, r1, cr3, cr15, {1}
 25c:	0b3b0b3a 	bleq	ec2f4c <__bss_end__+0xeb8cf4>
 260:	01111927 	tsteq	r1, r7, lsr #18
 264:	18400612 	stmdane	r0, {r1, r4, r9, sl}^
 268:	01194296 			; <UNDEFINED> instruction: 0x01194296
 26c:	0d000013 	stceq	0, cr0, [r0, #-76]	; 0xffffffb4
 270:	0e030005 	cdpeq	0, 0, cr0, cr3, cr5, {0}
 274:	0b3b0b3a 	bleq	ec2f64 <__bss_end__+0xeb8d0c>
 278:	18021349 	stmdane	r2, {r0, r3, r6, r8, r9, ip}
 27c:	340e0000 	strcc	r0, [lr], #-0
 280:	3a0e0300 	bcc	380e88 <__bss_end__+0x376c30>
 284:	490b3b0b 	stmdbmi	fp, {r0, r1, r3, r8, r9, fp, ip, sp}
 288:	00180213 	andseq	r0, r8, r3, lsl r2
 28c:	010b0f00 	tsteq	fp, r0, lsl #30
 290:	06120111 			; <UNDEFINED> instruction: 0x06120111
 294:	00001301 	andeq	r1, r0, r1, lsl #6
 298:	03003410 	movweq	r3, #1040	; 0x410
 29c:	3b0b3a08 	blcc	2ceac4 <__bss_end__+0x2c486c>
 2a0:	0213490b 	andseq	r4, r3, #180224	; 0x2c000
 2a4:	11000017 	tstne	r0, r7, lsl r0
 2a8:	1755010b 	ldrbne	r0, [r5, -fp, lsl #2]
 2ac:	00001301 	andeq	r1, r0, r1, lsl #6
 2b0:	01828912 	orreq	r8, r2, r2, lsl r9
 2b4:	31011101 	tstcc	r1, r1, lsl #2
 2b8:	00130113 	andseq	r0, r3, r3, lsl r1
 2bc:	828a1300 	addhi	r1, sl, #0, 6
 2c0:	18020001 	stmdane	r2, {r0}
 2c4:	00184291 	mulseq	r8, r1, r2
 2c8:	82891400 	addhi	r1, r9, #0, 8
 2cc:	01110101 	tsteq	r1, r1, lsl #2
 2d0:	00001331 	andeq	r1, r0, r1, lsr r3
 2d4:	0b002415 	bleq	9330 <__aeabi_uidiv+0xc0>
 2d8:	030b3e0b 	movweq	r3, #48651	; 0xbe0b
 2dc:	16000008 	strne	r0, [r0], -r8
 2e0:	0b0b000f 	bleq	2c0324 <__bss_end__+0x2b60cc>
 2e4:	00001349 	andeq	r1, r0, r9, asr #6
 2e8:	3f012e17 	svccc	0x00012e17
 2ec:	3a0e0319 	bcc	380f58 <__bss_end__+0x376d00>
 2f0:	110b3b0b 	tstne	fp, fp, lsl #22
 2f4:	40061201 	andmi	r1, r6, r1, lsl #4
 2f8:	19429718 	stmdbne	r2, {r3, r4, r8, r9, sl, ip, pc}^
 2fc:	00001301 	andeq	r1, r0, r1, lsl #6
 300:	3f002e18 	svccc	0x00002e18
 304:	3a0e0319 	bcc	380f70 <__bss_end__+0x376d18>
 308:	11053b0b 	tstne	r5, fp, lsl #22
 30c:	40061201 	andmi	r1, r6, r1, lsl #4
 310:	19429718 	stmdbne	r2, {r3, r4, r8, r9, sl, ip, pc}^
 314:	34190000 	ldrcc	r0, [r9], #-0
 318:	3a0e0300 	bcc	380f20 <__bss_end__+0x376cc8>
 31c:	490b3b0b 	stmdbmi	fp, {r0, r1, r3, r8, r9, fp, ip, sp}
 320:	02193f13 	andseq	r3, r9, #19, 30	; 0x4c
 324:	1a000018 	bne	38c <_start-0x7c74>
 328:	13490035 	movtne	r0, #36917	; 0x9035
 32c:	341b0000 	ldrcc	r0, [fp], #-0
 330:	3a080300 	bcc	200f38 <__bss_end__+0x1f6ce0>
 334:	490b3b0b 	stmdbmi	fp, {r0, r1, r3, r8, r9, fp, ip, sp}
 338:	02193f13 	andseq	r3, r9, #19, 30	; 0x4c
 33c:	1c000018 	stcne	0, cr0, [r0], {24}
 340:	13490101 	movtne	r0, #37121	; 0x9101
 344:	00001301 	andeq	r1, r0, r1, lsl #6
 348:	4900211d 	stmdbmi	r0, {r0, r2, r3, r4, r8, sp}
 34c:	000b2f13 	andeq	r2, fp, r3, lsl pc
 350:	012e1e00 	teqeq	lr, r0, lsl #28
 354:	0e03193f 	mcreq	9, 0, r1, cr3, cr15, {1}
 358:	0b3b0b3a 	bleq	ec3048 <__bss_end__+0xeb8df0>
 35c:	193c1927 	ldmdbne	ip!, {r0, r1, r2, r5, r8, fp, ip}
 360:	051f0000 	ldreq	r0, [pc, #-0]	; 368 <_start-0x7c98>
 364:	00134900 	andseq	r4, r3, r0, lsl #18
 368:	11010000 	mrsne	r0, (UNDEF: 1)
 36c:	130e2501 	movwne	r2, #58625	; 0xe501
 370:	1b0e030b 	blne	380fa4 <__bss_end__+0x376d4c>
 374:	1201110e 	andne	r1, r1, #-2147483645	; 0x80000003
 378:	00171006 	andseq	r1, r7, r6
 37c:	00240200 	eoreq	r0, r4, r0, lsl #4
 380:	0b3e0b0b 	bleq	f82fb4 <__bss_end__+0xf78d5c>
 384:	00000803 	andeq	r0, r0, r3, lsl #16
 388:	03001603 	movweq	r1, #1539	; 0x603
 38c:	3b0b3a0e 	blcc	2cebcc <__bss_end__+0x2c4974>
 390:	0013490b 	andseq	r4, r3, fp, lsl #18
 394:	00240400 	eoreq	r0, r4, r0, lsl #8
 398:	0b3e0b0b 	bleq	f82fcc <__bss_end__+0xf78d74>
 39c:	00000e03 	andeq	r0, r0, r3, lsl #28
 3a0:	3f012e05 	svccc	0x00012e05
 3a4:	3a0e0319 	bcc	381010 <__bss_end__+0x376db8>
 3a8:	270b3b0b 	strcs	r3, [fp, -fp, lsl #22]
 3ac:	11134919 	tstne	r3, r9, lsl r9
 3b0:	40061201 	andmi	r1, r6, r1, lsl #4
 3b4:	19429718 	stmdbne	r2, {r3, r4, r8, r9, sl, ip, pc}^
 3b8:	00001301 	andeq	r1, r0, r1, lsl #6
 3bc:	03000506 	movweq	r0, #1286	; 0x506
 3c0:	3b0b3a08 	blcc	2cebe8 <__bss_end__+0x2c4990>
 3c4:	0213490b 	andseq	r4, r3, #180224	; 0x2c000
 3c8:	07000018 	smladeq	r0, r8, r0, r0
 3cc:	08030034 	stmdaeq	r3, {r2, r4, r5}
 3d0:	0b3b0b3a 	bleq	ec30c0 <__bss_end__+0xeb8e68>
 3d4:	18021349 	stmdane	r2, {r0, r3, r6, r8, r9, ip}
 3d8:	0b080000 	bleq	2003e0 <__bss_end__+0x1f6188>
 3dc:	12011101 	andne	r1, r1, #1073741824	; 0x40000000
 3e0:	09000006 	stmdbeq	r0, {r1, r2}
 3e4:	08030034 	stmdaeq	r3, {r2, r4, r5}
 3e8:	0b3b0b3a 	bleq	ec30d8 <__bss_end__+0xeb8e80>
 3ec:	17021349 	strne	r1, [r2, -r9, asr #6]
 3f0:	0f0a0000 	svceq	0x000a0000
 3f4:	000b0b00 	andeq	r0, fp, r0, lsl #22
 3f8:	000f0b00 	andeq	r0, pc, r0, lsl #22
 3fc:	13490b0b 	movtne	r0, #39691	; 0x9b0b
 400:	260c0000 	strcs	r0, [ip], -r0
 404:	0d000000 	stceq	0, cr0, [r0, #-0]
 408:	13490026 	movtne	r0, #36902	; 0x9026
 40c:	01000000 	mrseq	r0, (UNDEF: 0)
 410:	0e250111 	mcreq	1, 1, r0, cr5, cr1, {0}
 414:	0e030b13 	vmoveq.32	d3[0], r0
 418:	01110e1b 	tsteq	r1, fp, lsl lr
 41c:	17100612 			; <UNDEFINED> instruction: 0x17100612
 420:	04020000 	streq	r0, [r2], #-0
 424:	3a0b0b01 	bcc	2c3030 <__bss_end__+0x2b8dd8>
 428:	010b3b0b 	tsteq	fp, fp, lsl #22
 42c:	03000013 	movweq	r0, #19
 430:	08030028 	stmdaeq	r3, {r3, r5}
 434:	00000d1c 	andeq	r0, r0, ip, lsl sp
 438:	03002804 	movweq	r2, #2052	; 0x804
 43c:	000d1c0e 	andeq	r1, sp, lr, lsl #24
 440:	00160500 	andseq	r0, r6, r0, lsl #10
 444:	0b3a0e03 	bleq	e83c58 <__bss_end__+0xe79a00>
 448:	13490b3b 	movtne	r0, #39739	; 0x9b3b
 44c:	13060000 	movwne	r0, #24576	; 0x6000
 450:	3a0b0b01 	bcc	2c305c <__bss_end__+0x2b8e04>
 454:	010b3b0b 	tsteq	fp, fp, lsl #22
 458:	07000013 	smladeq	r0, r3, r0, r0
 45c:	0e03000d 	cdpeq	0, 0, cr0, cr3, cr13, {0}
 460:	0b3b0b3a 	bleq	ec3150 <__bss_end__+0xeb8ef8>
 464:	0b381349 	bleq	e05190 <__bss_end__+0xdfaf38>
 468:	24080000 	strcs	r0, [r8], #-0
 46c:	3e0b0b00 	vmlacc.f64	d0, d11, d0
 470:	0008030b 	andeq	r0, r8, fp, lsl #6
 474:	01010900 	tsteq	r1, r0, lsl #18
 478:	13011349 	movwne	r1, #4937	; 0x1349
 47c:	210a0000 	mrscs	r0, (UNDEF: 10)
 480:	00134900 	andseq	r4, r3, r0, lsl #18
 484:	00240b00 	eoreq	r0, r4, r0, lsl #22
 488:	0b3e0b0b 	bleq	f830bc <__bss_end__+0xf78e64>
 48c:	00000e03 	andeq	r0, r0, r3, lsl #28
 490:	3f012e0c 	svccc	0x00012e0c
 494:	3a0e0319 	bcc	381100 <__bss_end__+0x376ea8>
 498:	270b3b0b 	strcs	r3, [fp, -fp, lsl #22]
 49c:	12011119 	andne	r1, r1, #1073741830	; 0x40000006
 4a0:	97184006 	ldrls	r4, [r8, -r6]
 4a4:	13011942 	movwne	r1, #6466	; 0x1942
 4a8:	050d0000 	streq	r0, [sp, #-0]
 4ac:	3a0e0300 	bcc	3810b4 <__bss_end__+0x376e5c>
 4b0:	490b3b0b 	stmdbmi	fp, {r0, r1, r3, r8, r9, fp, ip, sp}
 4b4:	00170213 	andseq	r0, r7, r3, lsl r2
 4b8:	010b0e00 	tsteq	fp, r0, lsl #28
 4bc:	06120111 			; <UNDEFINED> instruction: 0x06120111
 4c0:	340f0000 	strcc	r0, [pc], #-0	; 4c8 <_start-0x7b38>
 4c4:	3a080300 	bcc	2010cc <__bss_end__+0x1f6e74>
 4c8:	490b3b0b 	stmdbmi	fp, {r0, r1, r3, r8, r9, fp, ip, sp}
 4cc:	00170213 	andseq	r0, r7, r3, lsl r2
 4d0:	82891000 	addhi	r1, r9, #0
 4d4:	01110101 	tsteq	r1, r1, lsl #2
 4d8:	00001331 	andeq	r1, r0, r1, lsr r3
 4dc:	01828a11 	orreq	r8, r2, r1, lsl sl
 4e0:	91180200 	tstls	r8, r0, lsl #4
 4e4:	00001842 	andeq	r1, r0, r2, asr #16
 4e8:	0b000f12 	bleq	4138 <_start-0x3ec8>
 4ec:	0013490b 	andseq	r4, r3, fp, lsl #18
 4f0:	00341300 	eorseq	r1, r4, r0, lsl #6
 4f4:	0b3a0e03 	bleq	e83d08 <__bss_end__+0xe79ab0>
 4f8:	13490b3b 	movtne	r0, #39739	; 0x9b3b
 4fc:	2e140000 	cdpcs	0, 1, cr0, cr4, cr0, {0}
 500:	03193f01 	tsteq	r9, #1, 30
 504:	3b0b3a0e 	blcc	2ced44 <__bss_end__+0x2c4aec>
 508:	3c19270b 	ldccc	7, cr2, [r9], {11}
 50c:	15000019 	strne	r0, [r0, #-25]
 510:	13490005 	movtne	r0, #36869	; 0x9005
 514:	01000000 	mrseq	r0, (UNDEF: 0)
 518:	0e250111 	mcreq	1, 1, r0, cr5, cr1, {0}
 51c:	0e030b13 	vmoveq.32	d3[0], r0
 520:	01110e1b 	tsteq	r1, fp, lsl lr
 524:	17100612 			; <UNDEFINED> instruction: 0x17100612
 528:	2e020000 	cdpcs	0, 0, cr0, cr2, cr0, {0}
 52c:	03193f01 	tsteq	r9, #1, 30
 530:	3b0b3a0e 	blcc	2ced70 <__bss_end__+0x2c4b18>
 534:	1113490b 	tstne	r3, fp, lsl #18
 538:	40061201 	andmi	r1, r6, r1, lsl #4
 53c:	19429618 	stmdbne	r2, {r3, r4, r9, sl, ip, pc}^
 540:	00001301 	andeq	r1, r0, r1, lsl #6
 544:	03003403 	movweq	r3, #1027	; 0x403
 548:	3b0b3a0e 	blcc	2ced88 <__bss_end__+0x2c4b30>
 54c:	0213490b 	andseq	r4, r3, #180224	; 0x2c000
 550:	04000017 	streq	r0, [r0], #-23
 554:	1755010b 	ldrbne	r0, [r5, -fp, lsl #2]
 558:	00001301 	andeq	r1, r0, r1, lsl #6
 55c:	03003405 	movweq	r3, #1029	; 0x405
 560:	3b0b3a08 	blcc	2ced88 <__bss_end__+0x2c4b30>
 564:	0213490b 	andseq	r4, r3, #180224	; 0x2c000
 568:	06000017 			; <UNDEFINED> instruction: 0x06000017
 56c:	00018289 	andeq	r8, r1, r9, lsl #5
 570:	13310111 	teqne	r1, #1073741828	; 0x40000004
 574:	89070000 	stmdbhi	r7, {}	; <UNPREDICTABLE>
 578:	11010182 	smlabbne	r1, r2, r1, r0
 57c:	00133101 	andseq	r3, r3, r1, lsl #2
 580:	828a0800 	addhi	r0, sl, #0, 16
 584:	18020001 	stmdane	r2, {r0}
 588:	00184291 	mulseq	r8, r1, r2
 58c:	00240900 	eoreq	r0, r4, r0, lsl #18
 590:	0b3e0b0b 	bleq	f831c4 <__bss_end__+0xf78f6c>
 594:	00000803 	andeq	r0, r0, r3, lsl #16
 598:	0b00240a 	bleq	95c8 <__adddf3+0x234>
 59c:	030b3e0b 	movweq	r3, #48651	; 0xbe0b
 5a0:	0b00000e 	bleq	5e0 <_start-0x7a20>
 5a4:	193f012e 	ldmdbne	pc!, {r1, r2, r3, r5, r8}	; <UNPREDICTABLE>
 5a8:	0b3a0e03 	bleq	e83dbc <__bss_end__+0xe79b64>
 5ac:	19270b3b 	stmdbne	r7!, {r0, r1, r3, r4, r5, r8, r9, fp}
 5b0:	01111349 	tsteq	r1, r9, asr #6
 5b4:	18400612 	stmdane	r0, {r1, r4, r9, sl}^
 5b8:	01194296 			; <UNDEFINED> instruction: 0x01194296
 5bc:	0c000013 	stceq	0, cr0, [r0], {19}
 5c0:	0e030005 	cdpeq	0, 0, cr0, cr3, cr5, {0}
 5c4:	0b3b0b3a 	bleq	ec32b4 <__bss_end__+0xeb905c>
 5c8:	17021349 	strne	r1, [r2, -r9, asr #6]
 5cc:	890d0000 	stmdbhi	sp, {}	; <UNPREDICTABLE>
 5d0:	11010182 	smlabbne	r1, r2, r1, r0
 5d4:	01133101 	tsteq	r3, r1, lsl #2
 5d8:	0e000013 	mcreq	0, 0, r0, cr0, cr3, {0}
 5dc:	193f012e 	ldmdbne	pc!, {r1, r2, r3, r5, r8}	; <UNPREDICTABLE>
 5e0:	0b3a0e03 	bleq	e83df4 <__bss_end__+0xe79b9c>
 5e4:	193c0b3b 	ldmdbne	ip!, {r0, r1, r3, r4, r5, r8, r9, fp}
 5e8:	00001301 	andeq	r1, r0, r1, lsl #6
 5ec:	0000180f 	andeq	r1, r0, pc, lsl #16
 5f0:	012e1000 	teqeq	lr, r0
 5f4:	0e03193f 	mcreq	9, 0, r1, cr3, cr15, {1}
 5f8:	0b3b0b3a 	bleq	ec32e8 <__bss_end__+0xeb9090>
 5fc:	13491927 	movtne	r1, #39207	; 0x9927
 600:	1301193c 	movwne	r1, #6460	; 0x193c
 604:	05110000 	ldreq	r0, [r1, #-0]
 608:	00134900 	andseq	r4, r3, r0, lsl #18
 60c:	000f1200 	andeq	r1, pc, r0, lsl #4
 610:	13490b0b 	movtne	r0, #39691	; 0x9b0b
 614:	26130000 	ldrcs	r0, [r3], -r0
 618:	00134900 	andseq	r4, r3, r0, lsl #18
 61c:	11010000 	mrsne	r0, (UNDEF: 1)
 620:	130e2501 	movwne	r2, #58625	; 0xe501
 624:	1b0e030b 	blne	381258 <__bss_end__+0x377000>
 628:	1201110e 	andne	r1, r1, #-2147483645	; 0x80000003
 62c:	00171006 	andseq	r1, r7, r6
 630:	012e0200 	teqeq	lr, r0, lsl #4
 634:	0e03193f 	mcreq	9, 0, r1, cr3, cr15, {1}
 638:	0b3b0b3a 	bleq	ec3328 <__bss_end__+0xeb90d0>
 63c:	06120111 			; <UNDEFINED> instruction: 0x06120111
 640:	42971840 	addsmi	r1, r7, #64, 16	; 0x400000
 644:	00130119 	andseq	r0, r3, r9, lsl r1
 648:	82890300 	addhi	r0, r9, #0, 6
 64c:	01110101 	tsteq	r1, r1, lsl #2
 650:	00001331 	andeq	r1, r0, r1, lsr r3
 654:	01828a04 	orreq	r8, r2, r4, lsl #20
 658:	91180200 	tstls	r8, r0, lsl #4
 65c:	00001842 	andeq	r1, r0, r2, asr #16
 660:	3f012e05 	svccc	0x00012e05
 664:	3a0e0319 	bcc	3812d0 <__bss_end__+0x377078>
 668:	270b3b0b 	strcs	r3, [fp, -fp, lsl #22]
 66c:	11134919 	tstne	r3, r9, lsl r9
 670:	40061201 	andmi	r1, r6, r1, lsl #4
 674:	19429718 	stmdbne	r2, {r3, r4, r8, r9, sl, ip, pc}^
 678:	00001301 	andeq	r1, r0, r1, lsl #6
 67c:	03000506 	movweq	r0, #1286	; 0x506
 680:	3b0b3a0e 	blcc	2ceec0 <__bss_end__+0x2c4c68>
 684:	0213490b 	andseq	r4, r3, #180224	; 0x2c000
 688:	07000017 	smladeq	r0, r7, r0, r0
 68c:	08030034 	stmdaeq	r3, {r2, r4, r5}
 690:	0b3b0b3a 	bleq	ec3380 <__bss_end__+0xeb9128>
 694:	18021349 	stmdane	r2, {r0, r3, r6, r8, r9, ip}
 698:	24080000 	strcs	r0, [r8], #-0
 69c:	3e0b0b00 	vmlacc.f64	d0, d11, d0
 6a0:	000e030b 	andeq	r0, lr, fp, lsl #6
 6a4:	01010900 	tsteq	r1, r0, lsl #18
 6a8:	13011349 	movwne	r1, #4937	; 0x1349
 6ac:	210a0000 	mrscs	r0, (UNDEF: 10)
 6b0:	2f134900 	svccs	0x00134900
 6b4:	0b00000b 	bleq	6e8 <_start-0x7918>
 6b8:	193f012e 	ldmdbne	pc!, {r1, r2, r3, r5, r8}	; <UNPREDICTABLE>
 6bc:	0b3a0e03 	bleq	e83ed0 <__bss_end__+0xe79c78>
 6c0:	19270b3b 	stmdbne	r7!, {r0, r1, r3, r4, r5, r8, r9, fp}
 6c4:	1301193c 	movwne	r1, #6460	; 0x193c
 6c8:	050c0000 	streq	r0, [ip, #-0]
 6cc:	00134900 	andseq	r4, r3, r0, lsl #18
 6d0:	000f0d00 	andeq	r0, pc, r0, lsl #26
 6d4:	13490b0b 	movtne	r0, #39691	; 0x9b0b
 6d8:	01000000 	mrseq	r0, (UNDEF: 0)
 6dc:	0e250111 	mcreq	1, 1, r0, cr5, cr1, {0}
 6e0:	0e030b13 	vmoveq.32	d3[0], r0
 6e4:	01110e1b 	tsteq	r1, fp, lsl lr
 6e8:	17100612 			; <UNDEFINED> instruction: 0x17100612
 6ec:	24020000 	strcs	r0, [r2], #-0
 6f0:	3e0b0b00 	vmlacc.f64	d0, d11, d0
 6f4:	000e030b 	andeq	r0, lr, fp, lsl #6
 6f8:	00240300 	eoreq	r0, r4, r0, lsl #6
 6fc:	0b3e0b0b 	bleq	f83330 <__bss_end__+0xf790d8>
 700:	00000803 	andeq	r0, r0, r3, lsl #16
 704:	3f012e04 	svccc	0x00012e04
 708:	3a0e0319 	bcc	381374 <__bss_end__+0x37711c>
 70c:	270b3b0b 	strcs	r3, [fp, -fp, lsl #22]
 710:	11134919 	tstne	r3, r9, lsl r9
 714:	40061201 	andmi	r1, r6, r1, lsl #4
 718:	19429618 	stmdbne	r2, {r3, r4, r9, sl, ip, pc}^
 71c:	00001301 	andeq	r1, r0, r1, lsl #6
 720:	03000505 	movweq	r0, #1285	; 0x505
 724:	3b0b3a08 	blcc	2cef4c <__bss_end__+0x2c4cf4>
 728:	0213490b 	andseq	r4, r3, #180224	; 0x2c000
 72c:	06000017 			; <UNDEFINED> instruction: 0x06000017
 730:	0e030005 	cdpeq	0, 0, cr0, cr3, cr5, {0}
 734:	0b3b0b3a 	bleq	ec3424 <__bss_end__+0xeb91cc>
 738:	17021349 	strne	r1, [r2, -r9, asr #6]
 73c:	34070000 	strcc	r0, [r7], #-0
 740:	3a0e0300 	bcc	381348 <__bss_end__+0x3770f0>
 744:	490b3b0b 	stmdbmi	fp, {r0, r1, r3, r8, r9, fp, ip, sp}
 748:	00170213 	andseq	r0, r7, r3, lsl r2
 74c:	010b0800 	tsteq	fp, r0, lsl #16
 750:	00001755 	andeq	r1, r0, r5, asr r7
 754:	03003409 	movweq	r3, #1033	; 0x409
 758:	3b0b3a08 	blcc	2cef80 <__bss_end__+0x2c4d28>
 75c:	0213490b 	andseq	r4, r3, #180224	; 0x2c000
 760:	0a000017 	beq	7c4 <_start-0x783c>
 764:	01018289 	smlabbeq	r1, r9, r2, r8
 768:	13310111 	teqne	r1, #1073741828	; 0x40000004
 76c:	00001301 	andeq	r1, r0, r1, lsl #6
 770:	01828a0b 	orreq	r8, r2, fp, lsl #20
 774:	91180200 	tstls	r8, r0, lsl #4
 778:	00001842 	andeq	r1, r0, r2, asr #16
 77c:	0182890c 	orreq	r8, r2, ip, lsl #18
 780:	31011100 	mrscc	r1, (UNDEF: 17)
 784:	0d000013 	stceq	0, cr0, [r0, #-76]	; 0xffffffb4
 788:	0e030034 	mcreq	0, 0, r0, cr3, cr4, {1}
 78c:	0b3b0b3a 	bleq	ec347c <__bss_end__+0xeb9224>
 790:	0a1c1349 	beq	7054bc <__bss_end__+0x6fb264>
 794:	260e0000 	strcs	r0, [lr], -r0
 798:	00134900 	andseq	r4, r3, r0, lsl #18
 79c:	11010000 	mrsne	r0, (UNDEF: 1)
 7a0:	130e2501 	movwne	r2, #58625	; 0xe501
 7a4:	1b0e030b 	blne	3813d8 <__bss_end__+0x377180>
 7a8:	11175508 	tstne	r7, r8, lsl #10
 7ac:	00171001 	andseq	r1, r7, r1
 7b0:	00240200 	eoreq	r0, r4, r0, lsl #4
 7b4:	0b3e0b0b 	bleq	f833e8 <__bss_end__+0xf79190>
 7b8:	00000e03 	andeq	r0, r0, r3, lsl #28
 7bc:	0b010403 	bleq	417d0 <__bss_end__+0x37578>
 7c0:	3b0b3a0b 	blcc	2ceff4 <__bss_end__+0x2c4d9c>
 7c4:	0013010b 	andseq	r0, r3, fp, lsl #2
 7c8:	00280400 	eoreq	r0, r8, r0, lsl #8
 7cc:	0d1c0e03 	ldceq	14, cr0, [ip, #-12]
 7d0:	2e050000 	cdpcs	0, 0, cr0, cr5, cr0, {0}
 7d4:	03193f00 	tsteq	r9, #0, 30
 7d8:	3b0b3a0e 	blcc	2cf018 <__bss_end__+0x2c4dc0>
 7dc:	1119270b 	tstne	r9, fp, lsl #14
 7e0:	40061201 	andmi	r1, r6, r1, lsl #4
 7e4:	19429718 	stmdbne	r2, {r3, r4, r8, r9, sl, ip, pc}^
 7e8:	2e060000 	cdpcs	0, 0, cr0, cr6, cr0, {0}
 7ec:	03193f01 	tsteq	r9, #1, 30
 7f0:	3b0b3a0e 	blcc	2cf030 <__bss_end__+0x2c4dd8>
 7f4:	1119270b 	tstne	r9, fp, lsl #14
 7f8:	40061201 	andmi	r1, r6, r1, lsl #4
 7fc:	19429718 	stmdbne	r2, {r3, r4, r8, r9, sl, ip, pc}^
 800:	00001301 	andeq	r1, r0, r1, lsl #6
 804:	03000507 	movweq	r0, #1287	; 0x507
 808:	3b0b3a08 	blcc	2cf030 <__bss_end__+0x2c4dd8>
 80c:	0213490b 	andseq	r4, r3, #180224	; 0x2c000
 810:	08000018 	stmdaeq	r0, {r3, r4}
 814:	0e030005 	cdpeq	0, 0, cr0, cr3, cr5, {0}
 818:	0b3b0b3a 	bleq	ec3508 <__bss_end__+0xeb92b0>
 81c:	17021349 	strne	r1, [r2, -r9, asr #6]
 820:	34090000 	strcc	r0, [r9], #-0
 824:	3a0e0300 	bcc	38142c <__bss_end__+0x3771d4>
 828:	490b3b0b 	stmdbmi	fp, {r0, r1, r3, r8, r9, fp, ip, sp}
 82c:	00180213 	andseq	r0, r8, r3, lsl r2
 830:	00340a00 	eorseq	r0, r4, r0, lsl #20
 834:	0b3a0803 	bleq	e82848 <__bss_end__+0xe785f0>
 838:	13490b3b 	movtne	r0, #39739	; 0x9b3b
 83c:	00001802 	andeq	r1, r0, r2, lsl #16
 840:	0300340b 	movweq	r3, #1035	; 0x40b
 844:	3b0b3a08 	blcc	2cf06c <__bss_end__+0x2c4e14>
 848:	0213490b 	andseq	r4, r3, #180224	; 0x2c000
 84c:	0c000017 	stceq	0, cr0, [r0], {23}
 850:	0e030034 	mcreq	0, 0, r0, cr3, cr4, {1}
 854:	0b3b0b3a 	bleq	ec3544 <__bss_end__+0xeb92ec>
 858:	17021349 	strne	r1, [r2, -r9, asr #6]
 85c:	0f0d0000 	svceq	0x000d0000
 860:	490b0b00 	stmdbmi	fp, {r8, r9, fp}
 864:	0e000013 	mcreq	0, 0, r0, cr0, cr3, {0}
 868:	13490035 	movtne	r0, #36917	; 0x9035
 86c:	2e0f0000 	cdpcs	0, 0, cr0, cr15, cr0, {0}
 870:	03193f01 	tsteq	r9, #1, 30
 874:	3b0b3a0e 	blcc	2cf0b4 <__bss_end__+0x2c4e5c>
 878:	4919270b 	ldmdbmi	r9, {r0, r1, r3, r8, r9, sl, sp}
 87c:	12011113 	andne	r1, r1, #-1073741820	; 0xc0000004
 880:	97184006 	ldrls	r4, [r8, -r6]
 884:	13011942 	movwne	r1, #6466	; 0x1942
 888:	05100000 	ldreq	r0, [r0, #-0]
 88c:	3a080300 	bcc	201494 <__bss_end__+0x1f723c>
 890:	490b3b0b 	stmdbmi	fp, {r0, r1, r3, r8, r9, fp, ip, sp}
 894:	00170213 	andseq	r0, r7, r3, lsl r2
 898:	82891100 	addhi	r1, r9, #0, 2
 89c:	01110101 	tsteq	r1, r1, lsl #2
 8a0:	00001331 	andeq	r1, r0, r1, lsr r3
 8a4:	01828a12 	orreq	r8, r2, r2, lsl sl
 8a8:	91180200 	tstls	r8, r0, lsl #4
 8ac:	00001842 	andeq	r1, r0, r2, asr #16
 8b0:	11010b13 	tstne	r1, r3, lsl fp
 8b4:	01061201 	tsteq	r6, r1, lsl #4
 8b8:	14000013 	strne	r0, [r0], #-19
 8bc:	0111010b 	tsteq	r1, fp, lsl #2
 8c0:	00000612 	andeq	r0, r0, r2, lsl r6
 8c4:	3f012e15 	svccc	0x00012e15
 8c8:	3a0e0319 	bcc	381534 <__bss_end__+0x3772dc>
 8cc:	270b3b0b 	strcs	r3, [fp, -fp, lsl #22]
 8d0:	11134919 	tstne	r3, r9, lsl r9
 8d4:	40061201 	andmi	r1, r6, r1, lsl #4
 8d8:	19429718 	stmdbne	r2, {r3, r4, r8, r9, sl, ip, pc}^
 8dc:	01000000 	mrseq	r0, (UNDEF: 0)
 8e0:	0e250111 	mcreq	1, 1, r0, cr5, cr1, {0}
 8e4:	0e030b13 	vmoveq.32	d3[0], r0
 8e8:	1755081b 	smmlane	r5, fp, r8, r0
 8ec:	17100111 			; <UNDEFINED> instruction: 0x17100111
 8f0:	2e020000 	cdpcs	0, 0, cr0, cr2, cr0, {0}
 8f4:	03193f00 	tsteq	r9, #0, 30
 8f8:	3b0b3a0e 	blcc	2cf138 <__bss_end__+0x2c4ee0>
 8fc:	1119270b 	tstne	r9, fp, lsl #14
 900:	40061201 	andmi	r1, r6, r1, lsl #4
 904:	19429718 	stmdbne	r2, {r3, r4, r8, r9, sl, ip, pc}^
 908:	2e030000 	cdpcs	0, 0, cr0, cr3, cr0, {0}
 90c:	03193f01 	tsteq	r9, #1, 30
 910:	3b0b3a0e 	blcc	2cf150 <__bss_end__+0x2c4ef8>
 914:	4919270b 	ldmdbmi	r9, {r0, r1, r3, r8, r9, sl, sp}
 918:	12011113 	andne	r1, r1, #-1073741820	; 0xc0000004
 91c:	97184006 	ldrls	r4, [r8, -r6]
 920:	13011942 	movwne	r1, #6466	; 0x1942
 924:	34040000 	strcc	r0, [r4], #-0
 928:	3a0e0300 	bcc	381530 <__bss_end__+0x3772d8>
 92c:	490b3b0b 	stmdbmi	fp, {r0, r1, r3, r8, r9, fp, ip, sp}
 930:	00061c13 	andeq	r1, r6, r3, lsl ip
 934:	00240500 	eoreq	r0, r4, r0, lsl #10
 938:	0b3e0b0b 	bleq	f8356c <__bss_end__+0xf79314>
 93c:	00000e03 	andeq	r0, r0, r3, lsl #28
 940:	0b000f06 	bleq	4560 <_start-0x3aa0>
 944:	0013490b 	andseq	r4, r3, fp, lsl #18
 948:	00350700 	eorseq	r0, r5, r0, lsl #14
 94c:	00001349 	andeq	r1, r0, r9, asr #6
 950:	3f012e08 	svccc	0x00012e08
 954:	3a0e0319 	bcc	3815c0 <__bss_end__+0x377368>
 958:	270b3b0b 	strcs	r3, [fp, -fp, lsl #22]
 95c:	12011119 	andne	r1, r1, #1073741830	; 0x40000006
 960:	97184006 	ldrls	r4, [r8, -r6]
 964:	13011942 	movwne	r1, #6466	; 0x1942
 968:	05090000 	streq	r0, [r9, #-0]
 96c:	3a080300 	bcc	201574 <__bss_end__+0x1f731c>
 970:	490b3b0b 	stmdbmi	fp, {r0, r1, r3, r8, r9, fp, ip, sp}
 974:	00170213 	andseq	r0, r7, r3, lsl r2
 978:	00340a00 	eorseq	r0, r4, r0, lsl #20
 97c:	0b3a0803 	bleq	e82990 <__bss_end__+0xe78738>
 980:	13490b3b 	movtne	r0, #39739	; 0x9b3b
 984:	00001802 	andeq	r1, r0, r2, lsl #16
 988:	11010b0b 	tstne	r1, fp, lsl #22
 98c:	01061201 	tsteq	r6, r1, lsl #4
 990:	0c000013 	stceq	0, cr0, [r0], {19}
 994:	08030034 	stmdaeq	r3, {r2, r4, r5}
 998:	0b3b0b3a 	bleq	ec3688 <__bss_end__+0xeb9430>
 99c:	17021349 	strne	r1, [r2, -r9, asr #6]
 9a0:	890d0000 	stmdbhi	sp, {}	; <UNPREDICTABLE>
 9a4:	11000182 	smlabbne	r0, r2, r1, r0
 9a8:	00133101 	andseq	r3, r3, r1, lsl #2
 9ac:	82890e00 	addhi	r0, r9, #0, 28
 9b0:	01110101 	tsteq	r1, r1, lsl #2
 9b4:	00001331 	andeq	r1, r0, r1, lsr r3
 9b8:	01828a0f 	orreq	r8, r2, pc, lsl #20
 9bc:	91180200 	tstls	r8, r0, lsl #4
 9c0:	00001842 	andeq	r1, r0, r2, asr #16
 9c4:	0b002410 	bleq	9a0c <__aeabi_dmul+0x268>
 9c8:	030b3e0b 	movweq	r3, #48651	; 0xbe0b
 9cc:	11000008 	tstne	r0, r8
 9d0:	0e030005 	cdpeq	0, 0, cr0, cr3, cr5, {0}
 9d4:	0b3b0b3a 	bleq	ec36c4 <__bss_end__+0xeb946c>
 9d8:	17021349 	strne	r1, [r2, -r9, asr #6]
 9dc:	0b120000 	bleq	4809e4 <__bss_end__+0x47678c>
 9e0:	12011101 	andne	r1, r1, #1073741824	; 0x40000000
 9e4:	13000006 	movwne	r0, #6
 9e8:	0e030034 	mcreq	0, 0, r0, cr3, cr4, {1}
 9ec:	0b3b0b3a 	bleq	ec36dc <__bss_end__+0xeb9484>
 9f0:	18021349 	stmdane	r2, {r0, r3, r6, r8, r9, ip}
 9f4:	34140000 	ldrcc	r0, [r4], #-0
 9f8:	3a0e0300 	bcc	381600 <__bss_end__+0x3773a8>
 9fc:	490b3b0b 	stmdbmi	fp, {r0, r1, r3, r8, r9, fp, ip, sp}
 a00:	02193f13 	andseq	r3, r9, #19, 30	; 0x4c
 a04:	15000018 	strne	r0, [r0, #-24]
 a08:	13490026 	movtne	r0, #36902	; 0x9026
 a0c:	01000000 	mrseq	r0, (UNDEF: 0)
 a10:	0e250111 	mcreq	1, 1, r0, cr5, cr1, {0}
 a14:	0e030b13 	vmoveq.32	d3[0], r0
 a18:	1755081b 	smmlane	r5, fp, r8, r0
 a1c:	17100111 			; <UNDEFINED> instruction: 0x17100111
 a20:	16020000 	strne	r0, [r2], -r0
 a24:	3a0e0300 	bcc	38162c <__bss_end__+0x3773d4>
 a28:	490b3b0b 	stmdbmi	fp, {r0, r1, r3, r8, r9, fp, ip, sp}
 a2c:	03000013 	movweq	r0, #19
 a30:	0e030113 	mcreq	1, 0, r0, cr3, cr3, {0}
 a34:	0b3a0b0b 	bleq	e83668 <__bss_end__+0xe79410>
 a38:	13010b3b 	movwne	r0, #6971	; 0x1b3b
 a3c:	0d040000 	stceq	0, cr0, [r4, #-0]
 a40:	490e0300 	stmdbmi	lr, {r8, r9}
 a44:	340b3813 	strcc	r3, [fp], #-2067	; 0x813
 a48:	05000019 	streq	r0, [r0, #-25]
 a4c:	0b0b000f 	bleq	2c0a90 <__bss_end__+0x2b6838>
 a50:	2e060000 	cdpcs	0, 0, cr0, cr6, cr0, {0}
 a54:	03193f01 	tsteq	r9, #1, 30
 a58:	3b0b3a0e 	blcc	2cf298 <__bss_end__+0x2c5040>
 a5c:	1201110b 	andne	r1, r1, #-1073741822	; 0xc0000002
 a60:	97184006 	ldrls	r4, [r8, -r6]
 a64:	13011942 	movwne	r1, #6466	; 0x1942
 a68:	89070000 	stmdbhi	r7, {}	; <UNPREDICTABLE>
 a6c:	11000182 	smlabbne	r0, r2, r1, r0
 a70:	00133101 	andseq	r3, r3, r1, lsl #2
 a74:	012e0800 	teqeq	lr, r0, lsl #16
 a78:	0e03193f 	mcreq	9, 0, r1, cr3, cr15, {1}
 a7c:	0b3b0b3a 	bleq	ec376c <__bss_end__+0xeb9514>
 a80:	13491927 	movtne	r1, #39207	; 0x9927
 a84:	06120111 			; <UNDEFINED> instruction: 0x06120111
 a88:	42971840 	addsmi	r1, r7, #64, 16	; 0x400000
 a8c:	00130119 	andseq	r0, r3, r9, lsl r1
 a90:	00050900 	andeq	r0, r5, r0, lsl #18
 a94:	0b3a0e03 	bleq	e842a8 <__bss_end__+0xe7a050>
 a98:	13490b3b 	movtne	r0, #39739	; 0x9b3b
 a9c:	00001702 	andeq	r1, r0, r2, lsl #14
 aa0:	0300050a 	movweq	r0, #1290	; 0x50a
 aa4:	3b0b3a08 	blcc	2cf2cc <__bss_end__+0x2c5074>
 aa8:	0213490b 	andseq	r4, r3, #180224	; 0x2c000
 aac:	0b000018 	bleq	b14 <_start-0x74ec>
 ab0:	0111010b 	tsteq	r1, fp, lsl #2
 ab4:	00000612 	andeq	r0, r0, r2, lsl r6
 ab8:	0300340c 	movweq	r3, #1036	; 0x40c
 abc:	3b0b3a08 	blcc	2cf2e4 <__bss_end__+0x2c508c>
 ac0:	0213490b 	andseq	r4, r3, #180224	; 0x2c000
 ac4:	0d000017 	stceq	0, cr0, [r0, #-92]	; 0xffffffa4
 ac8:	0b0b0024 	bleq	2c0b60 <__bss_end__+0x2b6908>
 acc:	08030b3e 	stmdaeq	r3, {r1, r2, r3, r4, r5, r8, r9, fp}
 ad0:	050e0000 	streq	r0, [lr, #-0]
 ad4:	3a080300 	bcc	2016dc <__bss_end__+0x1f7484>
 ad8:	490b3b0b 	stmdbmi	fp, {r0, r1, r3, r8, r9, fp, ip, sp}
 adc:	00170213 	andseq	r0, r7, r3, lsl r2
 ae0:	00340f00 	eorseq	r0, r4, r0, lsl #30
 ae4:	0b3a0e03 	bleq	e842f8 <__bss_end__+0xe7a0a0>
 ae8:	13490b3b 	movtne	r0, #39739	; 0x9b3b
 aec:	00001702 	andeq	r1, r0, r2, lsl #14
 af0:	55010b10 	strpl	r0, [r1, #-2832]	; 0xb10
 af4:	00130117 	andseq	r0, r3, r7, lsl r1
 af8:	000f1100 	andeq	r1, pc, r0, lsl #2
 afc:	13490b0b 	movtne	r0, #39691	; 0x9b0b
 b00:	24120000 	ldrcs	r0, [r2], #-0
 b04:	3e0b0b00 	vmlacc.f64	d0, d11, d0
 b08:	000e030b 	andeq	r0, lr, fp, lsl #6
 b0c:	010b1300 	mrseq	r1, (UNDEF: 59)
 b10:	00001755 	andeq	r1, r0, r5, asr r7
 b14:	11010b14 	tstne	r1, r4, lsl fp
 b18:	01061201 	tsteq	r6, r1, lsl #4
 b1c:	15000013 	strne	r0, [r0, #-19]
 b20:	01018289 	smlabbeq	r1, r9, r2, r8
 b24:	13310111 	teqne	r1, #1073741828	; 0x40000004
 b28:	8a160000 	bhi	580b30 <__bss_end__+0x5768d8>
 b2c:	02000182 	andeq	r0, r0, #-2147483616	; 0x80000020
 b30:	18429118 	stmdane	r2, {r3, r4, r8, ip, pc}^
 b34:	89170000 	ldmdbhi	r7, {}	; <UNPREDICTABLE>
 b38:	11010182 	smlabbne	r1, r2, r1, r0
 b3c:	01133101 	tsteq	r3, r1, lsl #2
 b40:	18000013 	stmdane	r0, {r0, r1, r4}
 b44:	13490026 	movtne	r0, #36902	; 0x9026
 b48:	2e190000 	cdpcs	0, 1, cr0, cr9, cr0, {0}
 b4c:	03193f01 	tsteq	r9, #1, 30
 b50:	3b0b3a0e 	blcc	2cf390 <__bss_end__+0x2c5138>
 b54:	49192705 	ldmdbmi	r9, {r0, r2, r8, r9, sl, sp}
 b58:	12011113 	andne	r1, r1, #-1073741820	; 0xc0000004
 b5c:	97184006 	ldrls	r4, [r8, -r6]
 b60:	13011942 	movwne	r1, #6466	; 0x1942
 b64:	051a0000 	ldreq	r0, [sl, #-0]
 b68:	3a080300 	bcc	201770 <__bss_end__+0x1f7518>
 b6c:	49053b0b 	stmdbmi	r5, {r0, r1, r3, r8, r9, fp, ip, sp}
 b70:	00170213 	andseq	r0, r7, r3, lsl r2
 b74:	00051b00 	andeq	r1, r5, r0, lsl #22
 b78:	0b3a0e03 	bleq	e8438c <__bss_end__+0xe7a134>
 b7c:	1349053b 	movtne	r0, #38203	; 0x953b
 b80:	00001702 	andeq	r1, r0, r2, lsl #14
 b84:	0300051c 	movweq	r0, #1308	; 0x51c
 b88:	3b0b3a0e 	blcc	2cf3c8 <__bss_end__+0x2c5170>
 b8c:	02134905 	andseq	r4, r3, #81920	; 0x14000
 b90:	1d000018 	stcne	0, cr0, [r0, #-96]	; 0xffffffa0
 b94:	00000018 	andeq	r0, r0, r8, lsl r0
 b98:	0300341e 	movweq	r3, #1054	; 0x41e
 b9c:	3b0b3a08 	blcc	2cf3c4 <__bss_end__+0x2c516c>
 ba0:	02134905 	andseq	r4, r3, #81920	; 0x14000
 ba4:	1f000018 	svcne	0x00000018
 ba8:	0e030034 	mcreq	0, 0, r0, cr3, cr4, {1}
 bac:	053b0b3a 	ldreq	r0, [fp, #-2874]!	; 0xb3a
 bb0:	18021349 	stmdane	r2, {r0, r3, r6, r8, r9, ip}
 bb4:	34200000 	strtcc	r0, [r0], #-0
 bb8:	3a080300 	bcc	2017c0 <__bss_end__+0x1f7568>
 bbc:	49053b0b 	stmdbmi	r5, {r0, r1, r3, r8, r9, fp, ip, sp}
 bc0:	00170213 	andseq	r0, r7, r3, lsl r2
 bc4:	00342100 	eorseq	r2, r4, r0, lsl #2
 bc8:	0b3a0e03 	bleq	e843dc <__bss_end__+0xe7a184>
 bcc:	1349053b 	movtne	r0, #38203	; 0x953b
 bd0:	00001702 	andeq	r1, r0, r2, lsl #14
 bd4:	49010122 	stmdbmi	r1, {r1, r5, r8}
 bd8:	00130113 	andseq	r0, r3, r3, lsl r1
 bdc:	00212300 	eoreq	r2, r1, r0, lsl #6
 be0:	052f1349 	streq	r1, [pc, #-841]!	; 89f <_start-0x7761>
 be4:	2e240000 	cdpcs	0, 2, cr0, cr4, cr0, {0}
 be8:	03193f00 	tsteq	r9, #0, 30
 bec:	3b0b3a0e 	blcc	2cf42c <__bss_end__+0x2c51d4>
 bf0:	3c19270b 	ldccc	7, cr2, [r9], {11}
 bf4:	25000019 	strcs	r0, [r0, #-25]
 bf8:	193f012e 	ldmdbne	pc!, {r1, r2, r3, r5, r8}	; <UNPREDICTABLE>
 bfc:	0b3a0e03 	bleq	e84410 <__bss_end__+0xe7a1b8>
 c00:	19270b3b 	stmdbne	r7!, {r0, r1, r3, r4, r5, r8, r9, fp}
 c04:	0000193c 	andeq	r1, r0, ip, lsr r9
 c08:	49000526 	stmdbmi	r0, {r1, r2, r5, r8, sl}
 c0c:	00000013 	andeq	r0, r0, r3, lsl r0
 c10:	25011101 	strcs	r1, [r1, #-257]	; 0x101
 c14:	030b130e 	movweq	r1, #45838	; 0xb30e
 c18:	55081b0e 	strpl	r1, [r8, #-2830]	; 0xb0e
 c1c:	10011117 	andne	r1, r1, r7, lsl r1
 c20:	02000017 	andeq	r0, r0, #23
 c24:	0b0b0104 	bleq	2c103c <__bss_end__+0x2b6de4>
 c28:	0b3b0b3a 	bleq	ec3918 <__bss_end__+0xeb96c0>
 c2c:	00001301 	andeq	r1, r0, r1, lsl #6
 c30:	03002803 	movweq	r2, #2051	; 0x803
 c34:	000d1c0e 	andeq	r1, sp, lr, lsl #24
 c38:	01130400 	tsteq	r3, r0, lsl #8
 c3c:	0b0b0e03 	bleq	2c4450 <__bss_end__+0x2ba1f8>
 c40:	0b3b0b3a 	bleq	ec3930 <__bss_end__+0xeb96d8>
 c44:	00001301 	andeq	r1, r0, r1, lsl #6
 c48:	03000d05 	movweq	r0, #3333	; 0xd05
 c4c:	3b0b3a0e 	blcc	2cf48c <__bss_end__+0x2c5234>
 c50:	3813490b 	ldmdacc	r3, {r0, r1, r3, r8, fp, lr}
 c54:	0600000b 	streq	r0, [r0], -fp
 c58:	0803000d 	stmdaeq	r3, {r0, r2, r3}
 c5c:	0b3b0b3a 	bleq	ec394c <__bss_end__+0xeb96f4>
 c60:	0b381349 	bleq	e0598c <__bss_end__+0xdfb734>
 c64:	24070000 	strcs	r0, [r7], #-0
 c68:	3e0b0b00 	vmlacc.f64	d0, d11, d0
 c6c:	000e030b 	andeq	r0, lr, fp, lsl #6
 c70:	012e0800 	teqeq	lr, r0, lsl #16
 c74:	0e03193f 	mcreq	9, 0, r1, cr3, cr15, {1}
 c78:	0b3b0b3a 	bleq	ec3968 <__bss_end__+0xeb9710>
 c7c:	01111927 	tsteq	r1, r7, lsr #18
 c80:	18400612 	stmdane	r0, {r1, r4, r9, sl}^
 c84:	01194297 			; <UNDEFINED> instruction: 0x01194297
 c88:	09000013 	stmdbeq	r0, {r0, r1, r4}
 c8c:	08030034 	stmdaeq	r3, {r2, r4, r5}
 c90:	0b3b0b3a 	bleq	ec3980 <__bss_end__+0xeb9728>
 c94:	061c1349 	ldreq	r1, [ip], -r9, asr #6
 c98:	890a0000 	stmdbhi	sl, {}	; <UNPREDICTABLE>
 c9c:	11010182 	smlabbne	r1, r2, r1, r0
 ca0:	01133101 	tsteq	r3, r1, lsl #2
 ca4:	0b000013 	bleq	cf8 <_start-0x7308>
 ca8:	0001828a 	andeq	r8, r1, sl, lsl #5
 cac:	42911802 	addsmi	r1, r1, #131072	; 0x20000
 cb0:	0c000018 	stceq	0, cr0, [r0], {24}
 cb4:	01018289 	smlabbeq	r1, r9, r2, r8
 cb8:	13310111 	teqne	r1, #1073741828	; 0x40000004
 cbc:	0f0d0000 	svceq	0x000d0000
 cc0:	490b0b00 	stmdbmi	fp, {r8, r9, fp}
 cc4:	0e000013 	mcreq	0, 0, r0, cr0, cr3, {0}
 cc8:	0b0b0024 	bleq	2c0d60 <__bss_end__+0x2b6b08>
 ccc:	08030b3e 	stmdaeq	r3, {r1, r2, r3, r4, r5, r8, r9, fp}
 cd0:	2e0f0000 	cdpcs	0, 0, cr0, cr15, cr0, {0}
 cd4:	03193f00 	tsteq	r9, #0, 30
 cd8:	3b0b3a0e 	blcc	2cf518 <__bss_end__+0x2c52c0>
 cdc:	4919270b 	ldmdbmi	r9, {r0, r1, r3, r8, r9, sl, sp}
 ce0:	12011113 	andne	r1, r1, #-1073741820	; 0xc0000004
 ce4:	97184006 	ldrls	r4, [r8, -r6]
 ce8:	00001942 	andeq	r1, r0, r2, asr #18
 cec:	03000510 	movweq	r0, #1296	; 0x510
 cf0:	3b0b3a08 	blcc	2cf518 <__bss_end__+0x2c52c0>
 cf4:	0213490b 	andseq	r4, r3, #180224	; 0x2c000
 cf8:	11000017 	tstne	r0, r7, lsl r0
 cfc:	193f002e 	ldmdbne	pc!, {r1, r2, r3, r5}	; <UNPREDICTABLE>
 d00:	0b3a0e03 	bleq	e84514 <__bss_end__+0xe7a2bc>
 d04:	19270b3b 	stmdbne	r7!, {r0, r1, r3, r4, r5, r8, r9, fp}
 d08:	06120111 			; <UNDEFINED> instruction: 0x06120111
 d0c:	42971840 	addsmi	r1, r7, #64, 16	; 0x400000
 d10:	12000019 	andne	r0, r0, #25
 d14:	0e030034 	mcreq	0, 0, r0, cr3, cr4, {1}
 d18:	0b3b0b3a 	bleq	ec3a08 <__bss_end__+0xeb97b0>
 d1c:	061c1349 	ldreq	r1, [ip], -r9, asr #6
 d20:	26130000 	ldrcs	r0, [r3], -r0
 d24:	00134900 	andseq	r4, r3, r0, lsl #18
 d28:	00351400 	eorseq	r1, r5, r0, lsl #8
 d2c:	00001349 	andeq	r1, r0, r9, asr #6
 d30:	3f012e15 	svccc	0x00012e15
 d34:	3a0e0319 	bcc	3819a0 <__bss_end__+0x377748>
 d38:	270b3b0b 	strcs	r3, [fp, -fp, lsl #22]
 d3c:	00193c19 	andseq	r3, r9, r9, lsl ip
 d40:	00051600 	andeq	r1, r5, r0, lsl #12
 d44:	00001349 	andeq	r1, r0, r9, asr #6
 d48:	01110100 	tsteq	r1, r0, lsl #2
 d4c:	0b130e25 	bleq	4c45e8 <__bss_end__+0x4ba390>
 d50:	081b0e03 	ldmdaeq	fp, {r0, r1, r9, sl, fp}
 d54:	01111755 	tsteq	r1, r5, asr r7
 d58:	00001710 	andeq	r1, r0, r0, lsl r7
 d5c:	0b010402 	bleq	41d6c <__bss_end__+0x37b14>
 d60:	3b0b3a0b 	blcc	2cf594 <__bss_end__+0x2c533c>
 d64:	0013010b 	andseq	r0, r3, fp, lsl #2
 d68:	00280300 	eoreq	r0, r8, r0, lsl #6
 d6c:	0d1c0e03 	ldceq	14, cr0, [ip, #-12]
 d70:	2e040000 	cdpcs	0, 0, cr0, cr4, cr0, {0}
 d74:	03193f01 	tsteq	r9, #1, 30
 d78:	3b0b3a0e 	blcc	2cf5b8 <__bss_end__+0x2c5360>
 d7c:	1119270b 	tstne	r9, fp, lsl #14
 d80:	40061201 	andmi	r1, r6, r1, lsl #4
 d84:	19429718 	stmdbne	r2, {r3, r4, r8, r9, sl, ip, pc}^
 d88:	00001301 	andeq	r1, r0, r1, lsl #6
 d8c:	03000505 	movweq	r0, #1285	; 0x505
 d90:	3b0b3a08 	blcc	2cf5b8 <__bss_end__+0x2c5360>
 d94:	0213490b 	andseq	r4, r3, #180224	; 0x2c000
 d98:	06000017 			; <UNDEFINED> instruction: 0x06000017
 d9c:	0e030034 	mcreq	0, 0, r0, cr3, cr4, {1}
 da0:	0b3b0b3a 	bleq	ec3a90 <__bss_end__+0xeb9838>
 da4:	061c1349 	ldreq	r1, [ip], -r9, asr #6
 da8:	89070000 	stmdbhi	r7, {}	; <UNPREDICTABLE>
 dac:	11010182 	smlabbne	r1, r2, r1, r0
 db0:	01133101 	tsteq	r3, r1, lsl #2
 db4:	08000013 	stmdaeq	r0, {r0, r1, r4}
 db8:	0001828a 	andeq	r8, r1, sl, lsl #5
 dbc:	42911802 	addsmi	r1, r1, #131072	; 0x20000
 dc0:	09000018 	stmdbeq	r0, {r3, r4}
 dc4:	01018289 	smlabbeq	r1, r9, r2, r8
 dc8:	13310111 	teqne	r1, #1073741828	; 0x40000004
 dcc:	240a0000 	strcs	r0, [sl], #-0
 dd0:	3e0b0b00 	vmlacc.f64	d0, d11, d0
 dd4:	000e030b 	andeq	r0, lr, fp, lsl #6
 dd8:	000f0b00 	andeq	r0, pc, r0, lsl #22
 ddc:	13490b0b 	movtne	r0, #39691	; 0x9b0b
 de0:	350c0000 	strcc	r0, [ip, #-0]
 de4:	00134900 	andseq	r4, r3, r0, lsl #18
 de8:	012e0d00 	teqeq	lr, r0, lsl #26
 dec:	0e03193f 	mcreq	9, 0, r1, cr3, cr15, {1}
 df0:	0b3b0b3a 	bleq	ec3ae0 <__bss_end__+0xeb9888>
 df4:	193c1927 	ldmdbne	ip!, {r0, r1, r2, r5, r8, fp, ip}
 df8:	050e0000 	streq	r0, [lr, #-0]
 dfc:	00134900 	andseq	r4, r3, r0, lsl #18
 e00:	11010000 	mrsne	r0, (UNDEF: 1)
 e04:	130e2501 	movwne	r2, #58625	; 0xe501
 e08:	1b0e030b 	blne	381a3c <__bss_end__+0x3777e4>
 e0c:	11175508 	tstne	r7, r8, lsl #10
 e10:	00171001 	andseq	r1, r7, r1
 e14:	01040200 	mrseq	r0, R12_usr
 e18:	0b3a0b0b 	bleq	e83a4c <__bss_end__+0xe797f4>
 e1c:	13010b3b 	movwne	r0, #6971	; 0x1b3b
 e20:	28030000 	stmdacs	r3, {}	; <UNPREDICTABLE>
 e24:	1c0e0300 	stcne	3, cr0, [lr], {-0}
 e28:	0400000d 	streq	r0, [r0], #-13
 e2c:	08030113 	stmdaeq	r3, {r0, r1, r4, r8}
 e30:	0b3a0b0b 	bleq	e83a64 <__bss_end__+0xe7980c>
 e34:	13010b3b 	movwne	r0, #6971	; 0x1b3b
 e38:	0d050000 	stceq	0, cr0, [r5, #-0]
 e3c:	3a080300 	bcc	201a44 <__bss_end__+0x1f77ec>
 e40:	490b3b0b 	stmdbmi	fp, {r0, r1, r3, r8, r9, fp, ip, sp}
 e44:	000b3813 	andeq	r3, fp, r3, lsl r8
 e48:	000d0600 	andeq	r0, sp, r0, lsl #12
 e4c:	0b3a0e03 	bleq	e84660 <__bss_end__+0xe7a408>
 e50:	13490b3b 	movtne	r0, #39739	; 0x9b3b
 e54:	00000b38 	andeq	r0, r0, r8, lsr fp
 e58:	0b002407 	bleq	9e7c <waveform_sine+0x94>
 e5c:	030b3e0b 	movweq	r3, #48651	; 0xbe0b
 e60:	0800000e 	stmdaeq	r0, {r1, r2, r3}
 e64:	193f012e 	ldmdbne	pc!, {r1, r2, r3, r5, r8}	; <UNPREDICTABLE>
 e68:	0b3a0e03 	bleq	e8467c <__bss_end__+0xe7a424>
 e6c:	19270b3b 	stmdbne	r7!, {r0, r1, r3, r4, r5, r8, r9, fp}
 e70:	06120111 			; <UNDEFINED> instruction: 0x06120111
 e74:	42971840 	addsmi	r1, r7, #64, 16	; 0x400000
 e78:	00130119 	andseq	r0, r3, r9, lsl r1
 e7c:	00050900 	andeq	r0, r5, r0, lsl #18
 e80:	0b3a0e03 	bleq	e84694 <__bss_end__+0xe7a43c>
 e84:	13490b3b 	movtne	r0, #39739	; 0x9b3b
 e88:	00001702 	andeq	r1, r0, r2, lsl #14
 e8c:	0182890a 	orreq	r8, r2, sl, lsl #18
 e90:	31011101 	tstcc	r1, r1, lsl #2
 e94:	00130113 	andseq	r0, r3, r3, lsl r1
 e98:	828a0b00 	addhi	r0, sl, #0, 22
 e9c:	18020001 	stmdane	r2, {r0}
 ea0:	00184291 	mulseq	r8, r1, r2
 ea4:	82890c00 	addhi	r0, r9, #0, 24
 ea8:	01110101 	tsteq	r1, r1, lsl #2
 eac:	00001331 	andeq	r1, r0, r1, lsr r3
 eb0:	0300050d 	movweq	r0, #1293	; 0x50d
 eb4:	3b0b3a08 	blcc	2cf6dc <__bss_end__+0x2c5484>
 eb8:	0213490b 	andseq	r4, r3, #180224	; 0x2c000
 ebc:	0e000018 	mcreq	0, 0, r0, cr0, cr8, {0}
 ec0:	08030005 	stmdaeq	r3, {r0, r2}
 ec4:	0b3b0b3a 	bleq	ec3bb4 <__bss_end__+0xeb995c>
 ec8:	17021349 	strne	r1, [r2, -r9, asr #6]
 ecc:	0b0f0000 	bleq	3c0ed4 <__bss_end__+0x3b6c7c>
 ed0:	12011101 	andne	r1, r1, #1073741824	; 0x40000000
 ed4:	10000006 	andne	r0, r0, r6
 ed8:	08030034 	stmdaeq	r3, {r2, r4, r5}
 edc:	0b3b0b3a 	bleq	ec3bcc <__bss_end__+0xeb9974>
 ee0:	17021349 	strne	r1, [r2, -r9, asr #6]
 ee4:	0f110000 	svceq	0x00110000
 ee8:	490b0b00 	stmdbmi	fp, {r8, r9, fp}
 eec:	12000013 	andne	r0, r0, #19
 ef0:	0b0b0024 	bleq	2c0f88 <__bss_end__+0x2b6d30>
 ef4:	08030b3e 	stmdaeq	r3, {r1, r2, r3, r4, r5, r8, r9, fp}
 ef8:	34130000 	ldrcc	r0, [r3], #-0
 efc:	3a080300 	bcc	201b04 <__bss_end__+0x1f78ac>
 f00:	490b3b0b 	stmdbmi	fp, {r0, r1, r3, r8, r9, fp, ip, sp}
 f04:	02193f13 	andseq	r3, r9, #19, 30	; 0x4c
 f08:	14000018 	strne	r0, [r0], #-24
 f0c:	13490035 	movtne	r0, #36917	; 0x9035
 f10:	2e150000 	cdpcs	0, 1, cr0, cr5, cr0, {0}
 f14:	03193f01 	tsteq	r9, #1, 30
 f18:	3b0b3a0e 	blcc	2cf758 <__bss_end__+0x2c5500>
 f1c:	3c19270b 	ldccc	7, cr2, [r9], {11}
 f20:	16000019 			; <UNDEFINED> instruction: 0x16000019
 f24:	13490005 	movtne	r0, #36869	; 0x9005
 f28:	01000000 	mrseq	r0, (UNDEF: 0)
 f2c:	06100011 			; <UNDEFINED> instruction: 0x06100011
 f30:	01120111 	tsteq	r2, r1, lsl r1
 f34:	081b0803 	ldmdaeq	fp, {r0, r1, fp}
 f38:	05130825 	ldreq	r0, [r3, #-2085]	; 0x825
 f3c:	01000000 	mrseq	r0, (UNDEF: 0)
 f40:	06100011 			; <UNDEFINED> instruction: 0x06100011
 f44:	01120111 	tsteq	r2, r1, lsl r1
 f48:	081b0803 	ldmdaeq	fp, {r0, r1, fp}
 f4c:	05130825 	ldreq	r0, [r3, #-2085]	; 0x825
 f50:	01000000 	mrseq	r0, (UNDEF: 0)
 f54:	06100011 			; <UNDEFINED> instruction: 0x06100011
 f58:	01120111 	tsteq	r2, r1, lsl r1
 f5c:	081b0803 	ldmdaeq	fp, {r0, r1, fp}
 f60:	05130825 	ldreq	r0, [r3, #-2085]	; 0x825
 f64:	01000000 	mrseq	r0, (UNDEF: 0)
 f68:	06100011 			; <UNDEFINED> instruction: 0x06100011
 f6c:	01120111 	tsteq	r2, r1, lsl r1
 f70:	081b0803 	ldmdaeq	fp, {r0, r1, fp}
 f74:	05130825 	ldreq	r0, [r3, #-2085]	; 0x825
 f78:	01000000 	mrseq	r0, (UNDEF: 0)
 f7c:	06100011 			; <UNDEFINED> instruction: 0x06100011
 f80:	01120111 	tsteq	r2, r1, lsl r1
 f84:	081b0803 	ldmdaeq	fp, {r0, r1, fp}
 f88:	05130825 	ldreq	r0, [r3, #-2085]	; 0x825
 f8c:	01000000 	mrseq	r0, (UNDEF: 0)
 f90:	06100011 			; <UNDEFINED> instruction: 0x06100011
 f94:	01120111 	tsteq	r2, r1, lsl r1
 f98:	081b0803 	ldmdaeq	fp, {r0, r1, fp}
 f9c:	05130825 	ldreq	r0, [r3, #-2085]	; 0x825
 fa0:	Address 0x0000000000000fa0 is out of bounds.


Disassembly of section .debug_loc:

00000000 <.debug_loc>:
       0:	00000010 	andeq	r0, r0, r0, lsl r0
       4:	0000001b 	andeq	r0, r0, fp, lsl r0
       8:	93500006 	cmpls	r0, #6
       c:	04935104 	ldreq	r5, [r3], #260	; 0x104
      10:	00000038 	andeq	r0, r0, r8, lsr r0
      14:	00000043 	andeq	r0, r0, r3, asr #32
      18:	93500006 	cmpls	r0, #6
      1c:	04935104 	ldreq	r5, [r3], #260	; 0x104
      20:	00000060 	andeq	r0, r0, r0, rrx
      24:	0000006b 	andeq	r0, r0, fp, rrx
      28:	93500006 	cmpls	r0, #6
      2c:	04935104 	ldreq	r5, [r3], #260	; 0x104
      30:	00000088 	andeq	r0, r0, r8, lsl #1
      34:	00000093 	muleq	r0, r3, r0
      38:	93500006 	cmpls	r0, #6
      3c:	04935104 	ldreq	r5, [r3], #260	; 0x104
	...
      48:	00000014 	andeq	r0, r0, r4, lsl r0
      4c:	0000001c 	andeq	r0, r0, ip, lsl r0
      50:	04730003 	ldrbteq	r0, [r3], #-3
      54:	00001c9f 	muleq	r0, pc, ip	; <UNPREDICTABLE>
      58:	00002700 	andeq	r2, r0, r0, lsl #14
      5c:	53000100 	movwpl	r0, #256	; 0x100
	...
      6c:	00000008 	andeq	r0, r0, r8
      70:	08500001 	ldmdaeq	r0, {r0}^
      74:	78000000 	stmdavc	r0, {}	; <UNPREDICTABLE>
      78:	01000000 	mrseq	r0, (UNDEF: 0)
      7c:	00785400 	rsbseq	r5, r8, r0, lsl #8
      80:	008c0000 	addeq	r0, ip, r0
      84:	00060000 	andeq	r0, r6, r0
      88:	3c5001f3 	ldfcce	f0, [r0], {243}	; 0xf3
      8c:	00009f24 	andeq	r9, r0, r4, lsr #30
      90:	00000000 	andeq	r0, r0, r0
      94:	00180000 	andseq	r0, r8, r0
      98:	001c0000 	andseq	r0, ip, r0
      9c:	00010000 	andeq	r0, r1, r0
      a0:	00001c50 	andeq	r1, r0, r0, asr ip
      a4:	00007800 	andeq	r7, r0, r0, lsl #16
      a8:	55000100 	strpl	r0, [r0, #-256]	; 0x100
	...
      b4:	00000020 	andeq	r0, r0, r0, lsr #32
      b8:	00000024 	andeq	r0, r0, r4, lsr #32
      bc:	80700005 	rsbshi	r0, r0, r5
      c0:	249f03f0 	ldrcs	r0, [pc], #1008	; c8 <_start-0x7f38>
      c4:	2b000000 	blcs	cc <_start-0x7f34>
      c8:	01000000 	mrseq	r0, (UNDEF: 0)
      cc:	002b5000 	eoreq	r5, fp, r0
      d0:	002c0000 	eoreq	r0, ip, r0
      d4:	000c0000 	andeq	r0, ip, r0
      d8:	24f8000c 	ldrbtcs	r0, [r8], #12
      dc:	74007501 	strvc	r7, [r0], #-1281	; 0x501
      e0:	9f1c1e00 	svcls	0x001c1e00
      e4:	0000002c 	andeq	r0, r0, ip, lsr #32
      e8:	00000058 	andeq	r0, r0, r8, asr r0
      ec:	68500001 	ldmdavs	r0, {r0}^
      f0:	6c000000 	stcvs	0, cr0, [r0], {-0}
      f4:	01000000 	mrseq	r0, (UNDEF: 0)
      f8:	00705000 	rsbseq	r5, r0, r0
      fc:	00740000 	rsbseq	r0, r4, r0
     100:	00010000 	andeq	r0, r1, r0
     104:	00000050 	andeq	r0, r0, r0, asr r0
     108:	00000000 	andeq	r0, r0, r0
     10c:	00008c00 	andeq	r8, r0, r0, lsl #24
     110:	0000a700 	andeq	sl, r0, r0, lsl #14
     114:	52000100 	andpl	r0, r0, #0, 2
     118:	000000a7 	andeq	r0, r0, r7, lsr #1
     11c:	0000016c 	andeq	r0, r0, ip, ror #2
     120:	6c590001 	mrrcvs	0, 0, r0, r9, cr1
     124:	7c000001 	stcvc	0, cr0, [r0], {1}
     128:	04000001 	streq	r0, [r0], #-1
     12c:	5201f300 	andpl	pc, r1, #0, 6
     130:	0000009f 	muleq	r0, pc, r0	; <UNPREDICTABLE>
     134:	00000000 	andeq	r0, r0, r0
     138:	0000fc00 	andeq	pc, r0, r0, lsl #24
     13c:	00010c00 	andeq	r0, r1, r0, lsl #24
     140:	30000200 	andcc	r0, r0, r0, lsl #4
     144:	00010c9f 	muleq	r1, pc, ip	; <UNPREDICTABLE>
     148:	00014000 	andeq	r4, r1, r0
     14c:	58000100 	stmdapl	r0, {r8}
     150:	00000148 	andeq	r0, r0, r8, asr #2
     154:	00000164 	andeq	r0, r0, r4, ror #2
     158:	00580001 	subseq	r0, r8, r1
     15c:	00000000 	andeq	r0, r0, r0
     160:	fc000000 	stc2	0, cr0, [r0], {-0}
     164:	0c000000 	stceq	0, cr0, [r0], {-0}
     168:	02000001 	andeq	r0, r0, #1
     16c:	0c9f3000 	ldceq	0, cr3, [pc], {0}
     170:	64000001 	strvs	r0, [r0], #-1
     174:	01000001 	tsteq	r0, r1
     178:	00005400 	andeq	r5, r0, r0, lsl #8
     17c:	00000000 	andeq	r0, r0, r0
     180:	01140000 	tsteq	r4, r0
     184:	01580000 	cmpeq	r8, r0
     188:	00010000 	andeq	r0, r1, r0
     18c:	00000056 	andeq	r0, r0, r6, asr r0
     190:	00000000 	andeq	r0, r0, r0
     194:	0001a800 	andeq	sl, r1, r0, lsl #16
     198:	0001c400 	andeq	ip, r1, r0, lsl #8
     19c:	30000200 	andcc	r0, r0, r0, lsl #4
     1a0:	0001c49f 	muleq	r1, pc, r4	; <UNPREDICTABLE>
     1a4:	0001fc00 	andeq	pc, r1, r0, lsl #24
     1a8:	53000100 	movwpl	r0, #256	; 0x100
	...
     1b8:	00000008 	andeq	r0, r0, r8
     1bc:	9f300002 	svcls	0x00300002
     1c0:	00000008 	andeq	r0, r0, r8
     1c4:	00000020 	andeq	r0, r0, r0, lsr #32
     1c8:	00530001 	subseq	r0, r3, r1
	...
     1d4:	18000000 	stmdane	r0, {}	; <UNPREDICTABLE>
     1d8:	01000000 	mrseq	r0, (UNDEF: 0)
     1dc:	00185000 	andseq	r5, r8, r0
     1e0:	00380000 	eorseq	r0, r8, r0
     1e4:	00010000 	andeq	r0, r1, r0
     1e8:	00003857 	andeq	r3, r0, r7, asr r8
     1ec:	00003c00 	andeq	r3, r0, r0, lsl #24
     1f0:	f3000400 	vshl.u8	d0, d0, d0
     1f4:	009f5001 	addseq	r5, pc, r1
	...
     200:	18000000 	stmdane	r0, {}	; <UNPREDICTABLE>
     204:	01000000 	mrseq	r0, (UNDEF: 0)
     208:	00185100 	andseq	r5, r8, r0, lsl #2
     20c:	00380000 	eorseq	r0, r8, r0
     210:	00010000 	andeq	r0, r1, r0
     214:	00003855 	andeq	r3, r0, r5, asr r8
     218:	00003c00 	andeq	r3, r0, r0, lsl #24
     21c:	f3000400 	vshl.u8	d0, d0, d0
     220:	009f5101 	addseq	r5, pc, r1, lsl #2
     224:	00000000 	andeq	r0, r0, r0
     228:	0c000000 	stceq	0, cr0, [r0], {-0}
     22c:	18000000 	stmdane	r0, {}	; <UNPREDICTABLE>
     230:	02000000 	andeq	r0, r0, #0
     234:	189f3000 	ldmne	pc, {ip, sp}	; <UNPREDICTABLE>
     238:	38000000 	stmdacc	r0, {}	; <UNPREDICTABLE>
     23c:	01000000 	mrseq	r0, (UNDEF: 0)
     240:	00005400 	andeq	r5, r0, r0, lsl #8
     244:	00000000 	andeq	r0, r0, r0
     248:	00140000 	andseq	r0, r4, r0
     24c:	001f0000 	andseq	r0, pc, r0
     250:	00060000 	andeq	r0, r6, r0
     254:	51049350 	tstpl	r4, r0, asr r3
     258:	00000493 	muleq	r0, r3, r4
     25c:	00000000 	andeq	r0, r0, r0
     260:	00300000 	eorseq	r0, r0, r0
     264:	00500000 	subseq	r0, r0, r0
     268:	00010000 	andeq	r0, r1, r0
     26c:	00000050 	andeq	r0, r0, r0, asr r0
     270:	00000000 	andeq	r0, r0, r0
     274:	00003000 	andeq	r3, r0, r0
     278:	00003c00 	andeq	r3, r0, r0, lsl #24
     27c:	31000200 	mrscc	r0, R8_usr
     280:	00003c9f 	muleq	r0, pc, ip	; <UNPREDICTABLE>
     284:	00006000 	andeq	r6, r0, r0
     288:	52000100 	andpl	r0, r0, #0, 2
	...
     294:	00000030 	andeq	r0, r0, r0, lsr r0
     298:	0000003c 	andeq	r0, r0, ip, lsr r0
     29c:	9f300002 	svcls	0x00300002
     2a0:	0000003c 	andeq	r0, r0, ip, lsr r0
     2a4:	00000054 	andeq	r0, r0, r4, asr r0
     2a8:	00530001 	subseq	r0, r3, r1
     2ac:	00000000 	andeq	r0, r0, r0
     2b0:	60000000 	andvs	r0, r0, r0
     2b4:	6b000000 	blvs	2bc <_start-0x7d44>
     2b8:	01000000 	mrseq	r0, (UNDEF: 0)
     2bc:	006b5000 	rsbeq	r5, fp, r0
     2c0:	00980000 	addseq	r0, r8, r0
     2c4:	00010000 	andeq	r0, r1, r0
     2c8:	00009854 	andeq	r9, r0, r4, asr r8
     2cc:	0000bc00 	andeq	fp, r0, r0, lsl #24
     2d0:	f3000400 	vshl.u8	d0, d0, d0
     2d4:	009f5001 	addseq	r5, pc, r1
     2d8:	00000000 	andeq	r0, r0, r0
     2dc:	78000000 	stmdavc	r0, {}	; <UNPREDICTABLE>
     2e0:	83000000 	movwhi	r0, #0
     2e4:	06000000 	streq	r0, [r0], -r0
     2e8:	04935000 	ldreq	r5, [r3], #0
     2ec:	00049351 	andeq	r9, r4, r1, asr r3
     2f0:	00000000 	andeq	r0, r0, r0
     2f4:	98000000 	stmdals	r0, {}	; <UNPREDICTABLE>
     2f8:	ac000000 	stcge	0, cr0, [r0], {-0}
     2fc:	01000000 	mrseq	r0, (UNDEF: 0)
     300:	00ac5400 	adceq	r5, ip, r0, lsl #8
     304:	00bc0000 	adcseq	r0, ip, r0
     308:	00010000 	andeq	r0, r1, r0
     30c:	00000050 	andeq	r0, r0, r0, asr r0
     310:	00000000 	andeq	r0, r0, r0
     314:	00001800 	andeq	r1, r0, r0, lsl #16
     318:	00002c00 	andeq	r2, r0, r0, lsl #24
     31c:	50000100 	andpl	r0, r0, r0, lsl #2
     320:	0000002c 	andeq	r0, r0, ip, lsr #32
     324:	0000006c 	andeq	r0, r0, ip, rrx
     328:	01f30004 	mvnseq	r0, r4
     32c:	00009f50 	andeq	r9, r0, r0, asr pc
	...
     338:	00240000 	eoreq	r0, r4, r0
     33c:	00060000 	andeq	r0, r6, r0
     340:	51049350 	tstpl	r4, r0, asr r3
     344:	00240493 	mlaeq	r4, r3, r4, r0
     348:	00740000 	rsbseq	r0, r4, r0
     34c:	00060000 	andeq	r0, r6, r0
     350:	00f503f3 	ldrshteq	r0, [r5], #51	; 0x33
     354:	00009f25 	andeq	r9, r0, r5, lsr #30
	...
     360:	00240000 	eoreq	r0, r4, r0
     364:	00060000 	andeq	r0, r6, r0
     368:	53049352 	movwpl	r9, #17234	; 0x4352
     36c:	00240493 	mlaeq	r4, r3, r4, r0
     370:	00740000 	rsbseq	r0, r4, r0
     374:	00060000 	andeq	r0, r6, r0
     378:	02f503f3 	rscseq	r0, r5, #-872415229	; 0xcc000003
     37c:	00009f25 	andeq	r9, r0, r5, lsr #30
     380:	00000000 	andeq	r0, r0, r0
     384:	00140000 	andseq	r0, r4, r0
     388:	00240000 	eoreq	r0, r4, r0
     38c:	000a0000 	andeq	r0, sl, r0
     390:	0000089e 	muleq	r0, lr, r8
     394:	00000000 	andeq	r0, r0, r0
     398:	00243ff0 	strdeq	r3, [r4], -r0	; <UNPREDICTABLE>
     39c:	003c0000 	eorseq	r0, ip, r0
     3a0:	00060000 	andeq	r0, r6, r0
     3a4:	55049354 	strpl	r9, [r4, #-852]	; 0x354
     3a8:	00400493 	umaaleq	r0, r0, r3, r4
     3ac:	006c0000 	rsbeq	r0, ip, r0
     3b0:	00060000 	andeq	r0, r6, r0
     3b4:	55049354 	strpl	r9, [r4, #-852]	; 0x354
     3b8:	00000493 	muleq	r0, r3, r4
     3bc:	00000000 	andeq	r0, r0, r0
     3c0:	00140000 	andseq	r0, r4, r0
     3c4:	00240000 	eoreq	r0, r4, r0
     3c8:	00020000 	andeq	r0, r2, r0
     3cc:	00249f30 	eoreq	r9, r4, r0, lsr pc
     3d0:	006c0000 	rsbeq	r0, ip, r0
     3d4:	00010000 	andeq	r0, r1, r0
     3d8:	0000005a 	andeq	r0, r0, sl, asr r0
     3dc:	00000000 	andeq	r0, r0, r0
     3e0:	00007400 	andeq	r7, r0, r0, lsl #8
     3e4:	00008b00 	andeq	r8, r0, r0, lsl #22
     3e8:	50000600 	andpl	r0, r0, r0, lsl #12
     3ec:	93510493 	cmpls	r1, #-1828716544	; 0x93000000
     3f0:	00008b04 	andeq	r8, r0, r4, lsl #22
     3f4:	00010400 	andeq	r0, r1, r0, lsl #8
     3f8:	f3000600 	vmax.u8	d0, d0, d0
     3fc:	2500f503 	strcs	pc, [r0, #-1283]	; 0x503
     400:	0000009f 	muleq	r0, pc, r0	; <UNPREDICTABLE>
     404:	00000000 	andeq	r0, r0, r0
     408:	00007400 	andeq	r7, r0, r0, lsl #8
     40c:	00008b00 	andeq	r8, r0, r0, lsl #22
     410:	52000600 	andpl	r0, r0, #0, 12
     414:	93530493 	cmpls	r3, #-1828716544	; 0x93000000
     418:	00008b04 	andeq	r8, r0, r4, lsl #22
     41c:	00010400 	andeq	r0, r1, r0, lsl #8
     420:	f3000600 	vmax.u8	d0, d0, d0
     424:	2502f503 	strcs	pc, [r2, #-1283]	; 0x503
     428:	0000009f 	muleq	r0, pc, r0	; <UNPREDICTABLE>
     42c:	00000000 	andeq	r0, r0, r0
     430:	00009000 	andeq	r9, r0, r0
     434:	00009b00 	andeq	r9, r0, r0, lsl #22
     438:	50000100 	andpl	r0, r0, r0, lsl #2
     43c:	000000c8 	andeq	r0, r0, r8, asr #1
     440:	000000cb 	andeq	r0, r0, fp, asr #1
     444:	00500001 	subseq	r0, r0, r1
     448:	00000000 	andeq	r0, r0, r0
     44c:	04000000 	streq	r0, [r0], #-0
     450:	13000001 	movwne	r0, #1
     454:	06000001 	streq	r0, [r0], -r1
     458:	04935000 	ldreq	r5, [r3], #0
     45c:	13049351 	movwne	r9, #17233	; 0x4351
     460:	60000001 	andvs	r0, r0, r1
     464:	06000002 	streq	r0, [r0], -r2
     468:	f503f300 			; <UNDEFINED> instruction: 0xf503f300
     46c:	009f2500 	addseq	r2, pc, r0, lsl #10
     470:	00000000 	andeq	r0, r0, r0
     474:	1c000000 	stcne	0, cr0, [r0], {-0}
     478:	2c000001 	stccs	0, cr0, [r0], {1}
     47c:	06000002 	streq	r0, [r0], -r2
     480:	04935400 	ldreq	r5, [r3], #1024	; 0x400
     484:	00049355 	andeq	r9, r4, r5, asr r3
     488:	00000000 	andeq	r0, r0, r0
     48c:	1c000000 	stcne	0, cr0, [r0], {-0}
     490:	50000001 	andpl	r0, r0, r1
     494:	06000001 	streq	r0, [r0], -r1
     498:	04935400 	ldreq	r5, [r3], #1024	; 0x400
     49c:	50049355 	andpl	r9, r4, r5, asr r3
     4a0:	80000001 	andhi	r0, r0, r1
     4a4:	06000001 	streq	r0, [r0], -r1
     4a8:	04935600 	ldreq	r5, [r3], #1536	; 0x600
     4ac:	84049357 	strhi	r9, [r4], #-855	; 0x357
     4b0:	bc000001 	stclt	0, cr0, [r0], {1}
     4b4:	06000001 	streq	r0, [r0], -r1
     4b8:	04935600 	ldreq	r5, [r3], #1536	; 0x600
     4bc:	c0049357 	andgt	r9, r4, r7, asr r3
     4c0:	f0000001 			; <UNDEFINED> instruction: 0xf0000001
     4c4:	06000001 	streq	r0, [r0], -r1
     4c8:	04935600 	ldreq	r5, [r3], #1536	; 0x600
     4cc:	f4049357 	vst2.16	{d9-d12}, [r4 :64], r7
     4d0:	28000001 	stmdacs	r0, {r0}
     4d4:	06000002 	streq	r0, [r0], -r2
     4d8:	04935600 	ldreq	r5, [r3], #1536	; 0x600
     4dc:	28049357 	stmdacs	r4, {r0, r1, r2, r4, r6, r8, r9, ip, pc}
     4e0:	60000002 	andvs	r0, r0, r2
     4e4:	06000002 	streq	r0, [r0], -r2
     4e8:	04935000 	ldreq	r5, [r3], #0
     4ec:	00049351 	andeq	r9, r4, r1, asr r3
     4f0:	00000000 	andeq	r0, r0, r0
     4f4:	68000000 	stmdavs	r0, {}	; <UNPREDICTABLE>
     4f8:	bc000087 	stclt	0, cr0, [r0], {135}	; 0x87
     4fc:	01000087 	smlabbeq	r0, r7, r0, r0
     500:	87bc5100 	ldrhi	r5, [ip, r0, lsl #2]!
     504:	87cc0000 	strbhi	r0, [ip, r0]
     508:	00040000 	andeq	r0, r4, r0
     50c:	9f5101f3 	svcls	0x005101f3
	...
     518:	000087a0 	andeq	r8, r0, r0, lsr #15
     51c:	000087b8 			; <UNDEFINED> instruction: 0x000087b8
     520:	b8540001 	ldmdalt	r4, {r0}^
     524:	c0000087 	andgt	r0, r0, r7, lsl #1
     528:	01000087 	smlabbeq	r0, r7, r0, r0
     52c:	87c05300 	strbhi	r5, [r0, r0, lsl #6]
     530:	87cc0000 	strbhi	r0, [ip, r0]
     534:	00010000 	andeq	r0, r1, r0
     538:	00000052 	andeq	r0, r0, r2, asr r0
     53c:	00000000 	andeq	r0, r0, r0
     540:	0087b000 	addeq	fp, r7, r0
     544:	0087c000 	addeq	ip, r7, r0
     548:	52000100 	andpl	r0, r0, #0, 2
     54c:	000087c0 	andeq	r8, r0, r0, asr #15
     550:	000087cc 	andeq	r8, r0, ip, asr #15
     554:	00700025 	rsbseq	r0, r0, r5, lsr #32
     558:	2af70070 	bcs	ffdc0720 <__bss_end__+0xffdb64c8>
     55c:	23f423f7 	mvnscs	r2, #-603979773	; 0xdc000003
     560:	cccccd08 	stclgt	13, cr12, [ip], {8}
     564:	000000cc 	andeq	r0, r0, ip, asr #1
     568:	20081e00 	andcs	r1, r8, r0, lsl #28
     56c:	f72523f7 			; <UNDEFINED> instruction: 0xf72523f7
     570:	3525332a 	strcc	r3, [r5, #-810]!	; 0x32a
     574:	1c24311e 	stfnes	f3, [r4], #-120	; 0xffffff88
     578:	009f1e33 	addseq	r1, pc, r3, lsr lr	; <UNPREDICTABLE>
     57c:	00000000 	andeq	r0, r0, r0
     580:	cc000000 	stcgt	0, cr0, [r0], {-0}
     584:	10000087 	andne	r0, r0, r7, lsl #1
     588:	01000088 	smlabbeq	r0, r8, r0, r0
     58c:	88105000 	ldmdahi	r0, {ip, lr}
     590:	88180000 	ldmdahi	r8, {}	; <UNPREDICTABLE>
     594:	00040000 	andeq	r0, r4, r0
     598:	9f5001f3 	svcls	0x005001f3
     59c:	00008818 	andeq	r8, r0, r8, lsl r8
     5a0:	0000881c 	andeq	r8, r0, ip, lsl r8
     5a4:	1c500001 	mrrcne	0, 0, r0, r0, cr1	; <UNPREDICTABLE>
     5a8:	24000088 	strcs	r0, [r0], #-136	; 0x88
     5ac:	04000088 	streq	r0, [r0], #-136	; 0x88
     5b0:	5001f300 	andpl	pc, r1, r0, lsl #6
     5b4:	0000009f 	muleq	r0, pc, r0	; <UNPREDICTABLE>
     5b8:	00000000 	andeq	r0, r0, r0
     5bc:	0087f800 	addeq	pc, r7, r0, lsl #16
     5c0:	00880800 	addeq	r0, r8, r0, lsl #16
     5c4:	52000100 	andpl	r0, r0, #0, 2
     5c8:	00008808 	andeq	r8, r0, r8, lsl #16
     5cc:	00008810 	andeq	r8, r0, r0, lsl r8
     5d0:	00700023 	rsbseq	r0, r0, r3, lsr #32
     5d4:	23f72af7 	mvnscs	r2, #1011712	; 0xf7000
     5d8:	cd0823f4 	stcgt	3, cr2, [r8, #-976]	; 0xfffffc30
     5dc:	00cccccc 	sbceq	ip, ip, ip, asr #25
     5e0:	1e000000 	cdpne	0, 0, cr0, cr0, cr0, {0}
     5e4:	23f72008 	mvnscs	r2, #8
     5e8:	332af725 	msrcc	CPSR_fx, #9699328	; 0x940000
     5ec:	80802325 	addhi	r2, r0, r5, lsr #6
     5f0:	243240a0 	ldrtcs	r4, [r2], #-160	; 0xa0
     5f4:	0088109f 	umulleq	r1, r8, pc, r0	; <UNPREDICTABLE>
     5f8:	00881800 	addeq	r1, r8, r0, lsl #16
     5fc:	f3002400 	vshl.u8	d2, d0, d0
     600:	2af75001 	bcs	ffdd460c <__bss_end__+0xffdca3b4>
     604:	23f423f7 	mvnscs	r2, #-603979773	; 0xdc000003
     608:	cccccd08 	stclgt	13, cr12, [ip], {8}
     60c:	000000cc 	andeq	r0, r0, ip, asr #1
     610:	20081e00 	andcs	r1, r8, r0, lsl #28
     614:	f72523f7 			; <UNDEFINED> instruction: 0xf72523f7
     618:	2325332a 	teqcs	r5, #-1476395008	; 0xa8000000
     61c:	40a08080 	adcmi	r8, r0, r0, lsl #1
     620:	009f2432 	addseq	r2, pc, r2, lsr r4	; <UNPREDICTABLE>
     624:	00000000 	andeq	r0, r0, r0
     628:	fc000000 	stc2	0, cr0, [r0], {-0}
     62c:	18000087 	stmdane	r0, {r0, r1, r2, r7}
     630:	01000088 	smlabbeq	r0, r8, r0, r0
     634:	00005100 	andeq	r5, r0, r0, lsl #2
     638:	00000000 	andeq	r0, r0, r0
     63c:	880c0000 	stmdahi	ip, {}	; <UNPREDICTABLE>
     640:	88180000 	ldmdahi	r8, {}	; <UNPREDICTABLE>
     644:	00010000 	andeq	r0, r1, r0
     648:	00000052 	andeq	r0, r0, r2, asr r0
     64c:	00000000 	andeq	r0, r0, r0
     650:	00882400 	addeq	r2, r8, r0, lsl #8
     654:	00883700 	addeq	r3, r8, r0, lsl #14
     658:	50000100 	andpl	r0, r0, r0, lsl #2
     65c:	00008837 	andeq	r8, r0, r7, lsr r8
     660:	0000883c 	andeq	r8, r0, ip, lsr r8
     664:	01f30004 	mvnseq	r0, r4
     668:	00009f50 	andeq	r9, r0, r0, asr pc
     66c:	00000000 	andeq	r0, r0, r0
     670:	883c0000 	ldmdahi	ip!, {}	; <UNPREDICTABLE>
     674:	884f0000 	stmdahi	pc, {}^	; <UNPREDICTABLE>
     678:	00010000 	andeq	r0, r1, r0
     67c:	00884f50 	addeq	r4, r8, r0, asr pc
     680:	00885400 	addeq	r5, r8, r0, lsl #8
     684:	f3000400 	vshl.u8	d0, d0, d0
     688:	009f5001 	addseq	r5, pc, r1
     68c:	00000000 	andeq	r0, r0, r0
     690:	54000000 	strpl	r0, [r0], #-0
     694:	7c000088 	stcvc	0, cr0, [r0], {136}	; 0x88
     698:	01000088 	smlabbeq	r0, r8, r0, r0
     69c:	887c5000 	ldmdahi	ip!, {ip, lr}^
     6a0:	88900000 	ldmhi	r0, {}	; <UNPREDICTABLE>
     6a4:	00040000 	andeq	r0, r4, r0
     6a8:	9f5001f3 	svcls	0x005001f3
     6ac:	00008890 	muleq	r0, r0, r8
     6b0:	00008898 	muleq	r0, r8, r8
     6b4:	98500001 	ldmdals	r0, {r0}^
     6b8:	b4000088 	strlt	r0, [r0], #-136	; 0x88
     6bc:	04000088 	streq	r0, [r0], #-136	; 0x88
     6c0:	5001f300 	andpl	pc, r1, r0, lsl #6
     6c4:	0000009f 	muleq	r0, pc, r0	; <UNPREDICTABLE>
     6c8:	00000000 	andeq	r0, r0, r0
     6cc:	00886c00 	addeq	r6, r8, r0, lsl #24
     6d0:	00888800 	addeq	r8, r8, r0, lsl #16
     6d4:	53000100 	movwpl	r0, #256	; 0x100
     6d8:	00008888 	andeq	r8, r0, r8, lsl #17
     6dc:	00008890 	muleq	r0, r0, r8
     6e0:	01f30006 	mvnseq	r0, r6
     6e4:	9f1a4f50 	svcls	0x001a4f50
     6e8:	00008890 	muleq	r0, r0, r8
     6ec:	000088a4 	andeq	r8, r0, r4, lsr #17
     6f0:	a4530001 	ldrbge	r0, [r3], #-1
     6f4:	b4000088 	strlt	r0, [r0], #-136	; 0x88
     6f8:	06000088 	streq	r0, [r0], -r8, lsl #1
     6fc:	5001f300 	andpl	pc, r1, r0, lsl #6
     700:	009f1a4f 	addseq	r1, pc, pc, asr #20
     704:	00000000 	andeq	r0, r0, r0
     708:	80000000 	andhi	r0, r0, r0
     70c:	90000088 	andls	r0, r0, r8, lsl #1
     710:	01000088 	smlabbeq	r0, r8, r0, r0
     714:	00005000 	andeq	r5, r0, r0
     718:	00000000 	andeq	r0, r0, r0
     71c:	88b40000 	ldmhi	r4!, {}	; <UNPREDICTABLE>
     720:	88dc0000 	ldmhi	ip, {}^	; <UNPREDICTABLE>
     724:	00010000 	andeq	r0, r1, r0
     728:	0088dc50 	addeq	sp, r8, r0, asr ip
     72c:	0088f000 	addeq	pc, r8, r0
     730:	f3000400 	vshl.u8	d0, d0, d0
     734:	f09f5001 			; <UNDEFINED> instruction: 0xf09f5001
     738:	f4000088 	vst4.32	{d0-d3}, [r0], r8
     73c:	01000088 	smlabbeq	r0, r8, r0, r0
     740:	88f45000 	ldmhi	r4!, {ip, lr}^
     744:	88fc0000 	ldmhi	ip!, {}^	; <UNPREDICTABLE>
     748:	00040000 	andeq	r0, r4, r0
     74c:	9f5001f3 	svcls	0x005001f3
	...
     758:	000088d4 	ldrdeq	r8, [r0], -r4
     75c:	000088d8 	ldrdeq	r8, [r0], -r8	; <UNPREDICTABLE>
     760:	d8530001 	ldmdale	r3, {r0}^
     764:	dc000088 	stcle	0, cr0, [r0], {136}	; 0x88
     768:	0c000088 	stceq	0, cr0, [r0], {136}	; 0x88
     76c:	35007000 	strcc	r7, [r0, #-0]
     770:	808d2325 	addhi	r2, sp, r5, lsr #6
     774:	243240a0 	ldrtcs	r4, [r2], #-160	; 0xa0
     778:	0088dc9f 	umulleq	sp, r8, pc, ip	; <UNPREDICTABLE>
     77c:	0088f000 	addeq	pc, r8, r0
     780:	f3000d00 	vpadd.f32	d0, d0, d0
     784:	25355001 	ldrcs	r5, [r5, #-1]!
     788:	a0808d23 	addge	r8, r0, r3, lsr #26
     78c:	9f243240 	svcls	0x00243240
	...
     798:	000088d8 	ldrdeq	r8, [r0], -r8	; <UNPREDICTABLE>
     79c:	000088f0 	strdeq	r8, [r0], -r0
     7a0:	00530001 	subseq	r0, r3, r1
     7a4:	00000000 	andeq	r0, r0, r0
     7a8:	dc000000 	stcle	0, cr0, [r0], {-0}
     7ac:	ec000088 	stc	0, cr0, [r0], {136}	; 0x88
     7b0:	01000088 	smlabbeq	r0, r8, r0, r0
     7b4:	88ec5000 	stmiahi	ip!, {ip, lr}^
     7b8:	88f00000 	ldmhi	r0!, {}^	; <UNPREDICTABLE>
     7bc:	00060000 	andeq	r0, r6, r0
     7c0:	4f5001f3 	svcmi	0x005001f3
     7c4:	00009f1a 	andeq	r9, r0, sl, lsl pc
     7c8:	00000000 	andeq	r0, r0, r0
     7cc:	89280000 	stmdbhi	r8!, {}	; <UNPREDICTABLE>
     7d0:	893b0000 	ldmdbhi	fp!, {}	; <UNPREDICTABLE>
     7d4:	00010000 	andeq	r0, r1, r0
     7d8:	00893b50 	addeq	r3, r9, r0, asr fp
     7dc:	00895400 	addeq	r5, r9, r0, lsl #8
     7e0:	55000100 	strpl	r0, [r0, #-256]	; 0x100
	...
     7ec:	00008944 	andeq	r8, r0, r4, asr #18
     7f0:	00008948 	andeq	r8, r0, r8, asr #18
     7f4:	00500001 	subseq	r0, r0, r1
     7f8:	00000000 	andeq	r0, r0, r0
     7fc:	54000000 	strpl	r0, [r0], #-0
     800:	70000089 	andvc	r0, r0, r9, lsl #1
     804:	01000089 	smlabbeq	r0, r9, r0, r0
     808:	89705000 	ldmdbhi	r0!, {ip, lr}^
     80c:	89880000 	stmibhi	r8, {}	; <UNPREDICTABLE>
     810:	00010000 	andeq	r0, r1, r0
     814:	00000055 	andeq	r0, r0, r5, asr r0
     818:	00000000 	andeq	r0, r0, r0
     81c:	00896400 	addeq	r6, r9, r0, lsl #8
     820:	00897000 	addeq	r7, r9, r0
     824:	30000200 	andcc	r0, r0, r0, lsl #4
     828:	0089709f 	umulleq	r7, r9, pc, r0	; <UNPREDICTABLE>
     82c:	00898800 	addeq	r8, r9, r0, lsl #16
     830:	54000100 	strpl	r0, [r0], #-256	; 0x100
	...
     83c:	00008988 	andeq	r8, r0, r8, lsl #19
     840:	000089a4 	andeq	r8, r0, r4, lsr #19
     844:	a4500001 	ldrbge	r0, [r0], #-1
     848:	bc000089 	stclt	0, cr0, [r0], {137}	; 0x89
     84c:	01000089 	smlabbeq	r0, r9, r0, r0
     850:	00005500 	andeq	r5, r0, r0, lsl #10
     854:	00000000 	andeq	r0, r0, r0
     858:	89980000 	ldmibhi	r8, {}	; <UNPREDICTABLE>
     85c:	89a40000 	stmibhi	r4!, {}	; <UNPREDICTABLE>
     860:	00020000 	andeq	r0, r2, r0
     864:	89a49f30 	stmibhi	r4!, {r4, r5, r8, r9, sl, fp, ip, pc}
     868:	89bc0000 	ldmibhi	ip!, {}	; <UNPREDICTABLE>
     86c:	00010000 	andeq	r0, r1, r0
     870:	00000054 	andeq	r0, r0, r4, asr r0
     874:	00000000 	andeq	r0, r0, r0
     878:	0089bc00 	addeq	fp, r9, r0, lsl #24
     87c:	0089cc00 	addeq	ip, r9, r0, lsl #24
     880:	50000100 	andpl	r0, r0, r0, lsl #2
     884:	000089cc 	andeq	r8, r0, ip, asr #19
     888:	000089dc 	ldrdeq	r8, [r0], -ip
     88c:	00540001 	subseq	r0, r4, r1
     890:	00000000 	andeq	r0, r0, r0
     894:	f0000000 			; <UNDEFINED> instruction: 0xf0000000
     898:	10000089 	andne	r0, r0, r9, lsl #1
     89c:	0100008a 	smlabbeq	r0, sl, r0, r0
     8a0:	8a145000 	bhi	5148a8 <__bss_end__+0x50a650>
     8a4:	8a280000 	bhi	a008ac <__bss_end__+0x9f6654>
     8a8:	00010000 	andeq	r0, r1, r0
     8ac:	00000050 	andeq	r0, r0, r0, asr r0
     8b0:	00000000 	andeq	r0, r0, r0
     8b4:	0089fc00 	addeq	pc, r9, r0, lsl #24
     8b8:	008a0800 	addeq	r0, sl, r0, lsl #16
     8bc:	30000200 	andcc	r0, r0, r0, lsl #4
     8c0:	008a089f 	umulleq	r0, sl, pc, r8	; <UNPREDICTABLE>
     8c4:	008a2800 	addeq	r2, sl, r0, lsl #16
     8c8:	53000100 	movwpl	r0, #256	; 0x100
	...
     8d4:	00008a28 	andeq	r8, r0, r8, lsr #20
     8d8:	00008a6c 	andeq	r8, r0, ip, ror #20
     8dc:	6c500001 	mrrcvs	0, 0, r0, r0, cr1	; <UNPREDICTABLE>
     8e0:	f000008a 			; <UNDEFINED> instruction: 0xf000008a
     8e4:	0100008a 	smlabbeq	r0, sl, r0, r0
     8e8:	00005500 	andeq	r5, r0, r0, lsl #10
     8ec:	00000000 	andeq	r0, r0, r0
     8f0:	8a280000 	bhi	a008f8 <__bss_end__+0x9f66a0>
     8f4:	8ae40000 	bhi	ff9008fc <__bss_end__+0xff8f66a4>
     8f8:	00010000 	andeq	r0, r1, r0
     8fc:	008ae451 	addeq	lr, sl, r1, asr r4
     900:	008af000 	addeq	pc, sl, r0
     904:	74000300 	strvc	r0, [r0], #-768	; 0x300
     908:	00009f01 	andeq	r9, r0, r1, lsl #30
     90c:	00000000 	andeq	r0, r0, r0
     910:	8a280000 	bhi	a00918 <__bss_end__+0x9f66c0>
     914:	8a600000 	bhi	180091c <__bss_end__+0x17f66c4>
     918:	00010000 	andeq	r0, r1, r0
     91c:	008a6053 	addeq	r6, sl, r3, asr r0
     920:	008af000 	addeq	pc, sl, r0
     924:	f3000400 	vshl.u8	d0, d0, d0
     928:	009f5301 	addseq	r5, pc, r1, lsl #6
     92c:	00000000 	andeq	r0, r0, r0
     930:	38000000 	stmdacc	r0, {}	; <UNPREDICTABLE>
     934:	4400008a 	strmi	r0, [r0], #-138	; 0x8a
     938:	0200008a 	andeq	r0, r0, #138	; 0x8a
     93c:	449f3000 	ldrmi	r3, [pc], #0	; 944 <_start-0x76bc>
     940:	f000008a 			; <UNDEFINED> instruction: 0xf000008a
     944:	0100008a 	smlabbeq	r0, sl, r0, r0
     948:	00005c00 	andeq	r5, r0, r0, lsl #24
     94c:	00000000 	andeq	r0, r0, r0
     950:	8a5c0000 	bhi	1700958 <__bss_end__+0x16f6700>
     954:	8a600000 	bhi	180095c <__bss_end__+0x17f6704>
     958:	00060000 	andeq	r0, r6, r0
     95c:	007c0073 	rsbseq	r0, ip, r3, ror r0
     960:	8a609f1c 	bhi	18285d8 <__bss_end__+0x181e380>
     964:	8a940000 	bhi	fe50096c <__bss_end__+0xfe4f6714>
     968:	00010000 	andeq	r0, r1, r0
     96c:	00000053 	andeq	r0, r0, r3, asr r0
     970:	00000000 	andeq	r0, r0, r0
     974:	008a6400 	addeq	r6, sl, r0, lsl #8
     978:	008a7800 	addeq	r7, sl, r0, lsl #16
     97c:	30000200 	andcc	r0, r0, r0, lsl #4
     980:	008a789f 	umulleq	r7, sl, pc, r8	; <UNPREDICTABLE>
     984:	008af000 	addeq	pc, sl, r0
     988:	50000100 	andpl	r0, r0, r0, lsl #2
	...
     994:	00008a38 	andeq	r8, r0, r8, lsr sl
     998:	00008a44 	andeq	r8, r0, r4, asr #20
     99c:	44520001 	ldrbmi	r0, [r2], #-1
     9a0:	6800008a 	stmdavs	r0, {r1, r3, r7}
     9a4:	0100008a 	smlabbeq	r0, sl, r0, r0
     9a8:	00005400 	andeq	r5, r0, r0, lsl #8
     9ac:	00000000 	andeq	r0, r0, r0
     9b0:	8a640000 	bhi	19009b8 <__bss_end__+0x18f6760>
     9b4:	8a780000 	bhi	1e009bc <__bss_end__+0x1df6764>
     9b8:	00020000 	andeq	r0, r2, r0
     9bc:	8a789f30 	bhi	1e28684 <__bss_end__+0x1e1e42c>
     9c0:	8a980000 	bhi	fe6009c8 <__bss_end__+0xfe5f6770>
     9c4:	00010000 	andeq	r0, r1, r0
     9c8:	00000054 	andeq	r0, r0, r4, asr r0
     9cc:	00000000 	andeq	r0, r0, r0
     9d0:	008aa000 	addeq	sl, sl, r0
     9d4:	008ad800 	addeq	sp, sl, r0, lsl #16
     9d8:	53000100 	movwpl	r0, #256	; 0x100
     9dc:	00008ae0 	andeq	r8, r0, r0, ror #21
     9e0:	00008ae8 	andeq	r8, r0, r8, ror #21
     9e4:	00530001 	subseq	r0, r3, r1
     9e8:	00000000 	andeq	r0, r0, r0
     9ec:	f0000000 			; <UNDEFINED> instruction: 0xf0000000
     9f0:	3400008a 	strcc	r0, [r0], #-138	; 0x8a
     9f4:	0100008b 	smlabbeq	r0, fp, r0, r0
     9f8:	8b345000 	blhi	d14a00 <__bss_end__+0xd0a7a8>
     9fc:	8bc80000 	blhi	ff200a04 <__bss_end__+0xff1f67ac>
     a00:	00010000 	andeq	r0, r1, r0
     a04:	00000055 	andeq	r0, r0, r5, asr r0
     a08:	00000000 	andeq	r0, r0, r0
     a0c:	008af000 	addeq	pc, sl, r0
     a10:	008bbc00 	addeq	fp, fp, r0, lsl #24
     a14:	51000100 	mrspl	r0, (UNDEF: 16)
     a18:	00008bbc 			; <UNDEFINED> instruction: 0x00008bbc
     a1c:	00008bc8 	andeq	r8, r0, r8, asr #23
     a20:	01760003 	cmneq	r6, r3
     a24:	0000009f 	muleq	r0, pc, r0	; <UNPREDICTABLE>
     a28:	00000000 	andeq	r0, r0, r0
     a2c:	008af000 	addeq	pc, sl, r0
     a30:	008b2800 	addeq	r2, fp, r0, lsl #16
     a34:	53000100 	movwpl	r0, #256	; 0x100
     a38:	00008b28 	andeq	r8, r0, r8, lsr #22
     a3c:	00008bc8 	andeq	r8, r0, r8, asr #23
     a40:	01f30004 	mvnseq	r0, r4
     a44:	00009f53 	andeq	r9, r0, r3, asr pc
     a48:	00000000 	andeq	r0, r0, r0
     a4c:	8b000000 	blhi	a54 <_start-0x75ac>
     a50:	8b0c0000 	blhi	300a58 <__bss_end__+0x2f6800>
     a54:	00020000 	andeq	r0, r2, r0
     a58:	8b0c9f30 	blhi	328720 <__bss_end__+0x31e4c8>
     a5c:	8bc80000 	blhi	ff200a64 <__bss_end__+0xff1f680c>
     a60:	00010000 	andeq	r0, r1, r0
     a64:	0000005c 	andeq	r0, r0, ip, asr r0
     a68:	00000000 	andeq	r0, r0, r0
     a6c:	008b2400 	addeq	r2, fp, r0, lsl #8
     a70:	008b2800 	addeq	r2, fp, r0, lsl #16
     a74:	73000600 	movwvc	r0, #1536	; 0x600
     a78:	1c007c00 	stcne	12, cr7, [r0], {-0}
     a7c:	008b289f 	umulleq	r2, fp, pc, r8	; <UNPREDICTABLE>
     a80:	008b5c00 	addeq	r5, fp, r0, lsl #24
     a84:	53000100 	movwpl	r0, #256	; 0x100
	...
     a90:	00008b2c 	andeq	r8, r0, ip, lsr #22
     a94:	00008b40 	andeq	r8, r0, r0, asr #22
     a98:	9f300002 	svcls	0x00300002
     a9c:	00008b40 	andeq	r8, r0, r0, asr #22
     aa0:	00008bc8 	andeq	r8, r0, r8, asr #23
     aa4:	00500001 	subseq	r0, r0, r1
	...
     ab0:	0c00008b 	stceq	0, cr0, [r0], {139}	; 0x8b
     ab4:	0100008b 	smlabbeq	r0, fp, r0, r0
     ab8:	8b0c5200 	blhi	3152c0 <__bss_end__+0x30b068>
     abc:	8b300000 	blhi	c00ac4 <__bss_end__+0xbf686c>
     ac0:	00010000 	andeq	r0, r1, r0
     ac4:	00000054 	andeq	r0, r0, r4, asr r0
     ac8:	00000000 	andeq	r0, r0, r0
     acc:	008b2c00 	addeq	r2, fp, r0, lsl #24
     ad0:	008b4000 	addeq	r4, fp, r0
     ad4:	30000200 	andcc	r0, r0, r0, lsl #4
     ad8:	008b409f 	umulleq	r4, fp, pc, r0	; <UNPREDICTABLE>
     adc:	008b6800 	addeq	r6, fp, r0, lsl #16
     ae0:	54000100 	strpl	r0, [r0], #-256	; 0x100
	...
     aec:	00008b68 	andeq	r8, r0, r8, ror #22
     af0:	00008bb0 			; <UNDEFINED> instruction: 0x00008bb0
     af4:	b8530001 	ldmdalt	r3, {r0}^
     af8:	c000008b 	andgt	r0, r0, fp, lsl #1
     afc:	0100008b 	smlabbeq	r0, fp, r0, r0
     b00:	00005300 	andeq	r5, r0, r0, lsl #6
     b04:	00000000 	andeq	r0, r0, r0
     b08:	8b800000 	blhi	fe000b10 <__bss_end__+0xfdff68b8>
     b0c:	8b880000 	blhi	fe200b14 <__bss_end__+0xfe1f68bc>
     b10:	00010000 	andeq	r0, r1, r0
     b14:	008b8854 	addeq	r8, fp, r4, asr r8
     b18:	008b8c00 	addeq	r8, fp, r0, lsl #24
     b1c:	74000300 	strvc	r0, [r0], #-768	; 0x300
     b20:	8b8c9f50 	blhi	fe328868 <__bss_end__+0xfe31e610>
     b24:	8b900000 	blhi	fe400b2c <__bss_end__+0xfe3f68d4>
     b28:	00010000 	andeq	r0, r1, r0
     b2c:	008b9054 	addeq	r9, fp, r4, asr r0
     b30:	008b9400 	addeq	r9, fp, r0, lsl #8
     b34:	74000400 	strvc	r0, [r0], #-1024	; 0x400
     b38:	009f7fa9 	addseq	r7, pc, r9, lsr #31
     b3c:	00000000 	andeq	r0, r0, r0
     b40:	c8000000 	stmdagt	r0, {}	; <UNPREDICTABLE>
     b44:	fc00008b 	stc2	0, cr0, [r0], {139}	; 0x8b
     b48:	0100008b 	smlabbeq	r0, fp, r0, r0
     b4c:	8bfc5000 	blhi	fff14b54 <__bss_end__+0xfff0a8fc>
     b50:	8d100000 	ldchi	0, cr0, [r0, #-0]
     b54:	00010000 	andeq	r0, r1, r0
     b58:	008d1057 	addeq	r1, sp, r7, asr r0
     b5c:	008d1400 	addeq	r1, sp, r0, lsl #8
     b60:	f3000400 	vshl.u8	d0, d0, d0
     b64:	009f5001 	addseq	r5, pc, r1
     b68:	00000000 	andeq	r0, r0, r0
     b6c:	c8000000 	stmdagt	r0, {}	; <UNPREDICTABLE>
     b70:	f400008b 	vst4.32	{d0-d3}, [r0], fp
     b74:	0100008b 	smlabbeq	r0, fp, r0, r0
     b78:	8bf45100 	blhi	ffd14f80 <__bss_end__+0xffd0ad28>
     b7c:	8d100000 	ldchi	0, cr0, [r0, #-0]
     b80:	00020000 	andeq	r0, r2, r0
     b84:	8d10507b 	ldchi	0, cr5, [r0, #-492]	; 0xfffffe14
     b88:	8d140000 	ldchi	0, cr0, [r4, #-0]
     b8c:	00020000 	andeq	r0, r2, r0
     b90:	00004c91 	muleq	r0, r1, ip
     b94:	00000000 	andeq	r0, r0, r0
     b98:	8bc80000 	blhi	ff200ba0 <__bss_end__+0xff1f6948>
     b9c:	8bec0000 	blhi	ffb00ba4 <__bss_end__+0xffaf694c>
     ba0:	00010000 	andeq	r0, r1, r0
     ba4:	008bec52 	addeq	lr, fp, r2, asr ip
     ba8:	008d1000 	addeq	r1, sp, r0
     bac:	59000100 	stmdbpl	r0, {r8}
	...
     bb8:	00008bc8 	andeq	r8, r0, r8, asr #23
     bbc:	00008c20 	andeq	r8, r0, r0, lsr #24
     bc0:	20530001 	subscs	r0, r3, r1
     bc4:	1400008c 	strne	r0, [r0], #-140	; 0x8c
     bc8:	0400008d 	streq	r0, [r0], #-141	; 0x8d
     bcc:	5301f300 	movwpl	pc, #4864	; 0x1300	; <UNPREDICTABLE>
     bd0:	0000009f 	muleq	r0, pc, r0	; <UNPREDICTABLE>
     bd4:	00000000 	andeq	r0, r0, r0
     bd8:	008be400 	addeq	lr, fp, r0, lsl #8
     bdc:	008bf000 	addeq	pc, fp, r0
     be0:	72000500 	andvc	r0, r0, #0, 10
     be4:	9f254f00 	svcls	0x00254f00
     be8:	00008bf0 	strdeq	r8, [r0], -r0
     bec:	00008d14 	andeq	r8, r0, r4, lsl sp
     bf0:	01f30006 	mvnseq	r0, r6
     bf4:	9f254f52 	svcls	0x00254f52
	...
     c00:	00008bec 	andeq	r8, r0, ip, ror #23
     c04:	00008bfc 	strdeq	r8, [r0], -ip
     c08:	fc560001 	mrrc2	0, 0, r0, r6, cr1
     c0c:	8800008b 	stmdahi	r0, {r0, r1, r3, r7}
     c10:	0100008c 	smlabbeq	r0, ip, r0, r0
     c14:	8c885100 	stfhis	f5, [r8], {0}
     c18:	8d100000 	ldchi	0, cr0, [r0, #-0]
     c1c:	00010000 	andeq	r0, r1, r0
     c20:	00000056 	andeq	r0, r0, r6, asr r0
     c24:	00000000 	andeq	r0, r0, r0
     c28:	008c1c00 	addeq	r1, ip, r0, lsl #24
     c2c:	008c2000 	addeq	r2, ip, r0
     c30:	73000600 	movwvc	r0, #1536	; 0x600
     c34:	1c007100 	stfnes	f7, [r0], {-0}
     c38:	008c209f 	umulleq	r2, ip, pc, r0	; <UNPREDICTABLE>
     c3c:	008c9c00 	addeq	r9, ip, r0, lsl #24
     c40:	53000100 	movwpl	r0, #256	; 0x100
	...
     c4c:	00008c24 	andeq	r8, r0, r4, lsr #24
     c50:	00008c6c 	andeq	r8, r0, ip, ror #24
     c54:	9f300002 	svcls	0x00300002
     c58:	00008c6c 	andeq	r8, r0, ip, ror #24
     c5c:	00008d10 	andeq	r8, r0, r0, lsl sp
     c60:	10540001 	subsne	r0, r4, r1
     c64:	1400008d 	strne	r0, [r0], #-141	; 0x8d
     c68:	0100008d 	smlabbeq	r0, sp, r0, r0
     c6c:	00005000 	andeq	r5, r0, r0
     c70:	00000000 	andeq	r0, r0, r0
     c74:	8bec0000 	blhi	ffb00c7c <__bss_end__+0xffaf6a24>
     c78:	8bfc0000 	blhi	fff00c80 <__bss_end__+0xffef6a28>
     c7c:	00010000 	andeq	r0, r1, r0
     c80:	008bfc59 	addeq	pc, fp, r9, asr ip	; <UNPREDICTABLE>
     c84:	008c0800 	addeq	r0, ip, r0, lsl #16
     c88:	52000100 	andpl	r0, r0, #0, 2
     c8c:	00008c0c 	andeq	r8, r0, ip, lsl #24
     c90:	00008c34 	andeq	r8, r0, r4, lsr ip
     c94:	4c520001 	mrrcmi	0, 0, r0, r2, cr1
     c98:	5400008c 	strpl	r0, [r0], #-140	; 0x8c
     c9c:	0100008c 	smlabbeq	r0, ip, r0, r0
     ca0:	00005200 	andeq	r5, r0, r0, lsl #4
     ca4:	00000000 	andeq	r0, r0, r0
     ca8:	8c6c0000 	stclhi	0, cr0, [ip], #-0
     cac:	8c9c0000 	ldchi	0, cr0, [ip], {0}
     cb0:	00010000 	andeq	r0, r1, r0
     cb4:	00000052 	andeq	r0, r0, r2, asr r0
     cb8:	00000000 	andeq	r0, r0, r0
     cbc:	008c8800 	addeq	r8, ip, r0, lsl #16
     cc0:	008c9c00 	addeq	r9, ip, r0, lsl #24
     cc4:	30000200 	andcc	r0, r0, r0, lsl #4
     cc8:	008c9c9f 	umulleq	r9, ip, pc, ip	; <UNPREDICTABLE>
     ccc:	008d1000 	addeq	r1, sp, r0
     cd0:	55000100 	strpl	r0, [r0, #-256]	; 0x100
	...
     cdc:	00008d14 	andeq	r8, r0, r4, lsl sp
     ce0:	00008d40 	andeq	r8, r0, r0, asr #26
     ce4:	40500001 	subsmi	r0, r0, r1
     ce8:	4800008d 	stmdami	r0, {r0, r2, r3, r7}
     cec:	0100008d 	smlabbeq	r0, sp, r0, r0
     cf0:	8d485700 	stclhi	7, cr5, [r8, #-0]
     cf4:	8d640000 	stclhi	0, cr0, [r4, #-0]
     cf8:	00010000 	andeq	r0, r1, r0
     cfc:	008d6450 	addeq	r6, sp, r0, asr r4
     d00:	008eec00 	addeq	lr, lr, r0, lsl #24
     d04:	57000100 	strpl	r0, [r0, -r0, lsl #2]
     d08:	00008eec 	andeq	r8, r0, ip, ror #29
     d0c:	00008ef0 	strdeq	r8, [r0], -r0
     d10:	f0500001 			; <UNDEFINED> instruction: 0xf0500001
     d14:	f400008e 	vst4.32	{d0-d3}, [r0], lr
     d18:	0100008e 	smlabbeq	r0, lr, r0, r0
     d1c:	00005700 	andeq	r5, r0, r0, lsl #14
     d20:	00000000 	andeq	r0, r0, r0
     d24:	8d140000 	ldchi	0, cr0, [r4, #-0]
     d28:	8d640000 	stclhi	0, cr0, [r4, #-0]
     d2c:	00010000 	andeq	r0, r1, r0
     d30:	008d6451 	addeq	r6, sp, r1, asr r4
     d34:	008eec00 	addeq	lr, lr, r0, lsl #24
     d38:	58000100 	stmdapl	r0, {r8}
     d3c:	00008eec 	andeq	r8, r0, ip, ror #29
     d40:	00008ef4 	strdeq	r8, [r0], -r4
     d44:	00510001 	subseq	r0, r1, r1
     d48:	00000000 	andeq	r0, r0, r0
     d4c:	14000000 	strne	r0, [r0], #-0
     d50:	6400008d 	strvs	r0, [r0], #-141	; 0x8d
     d54:	0100008d 	smlabbeq	r0, sp, r0, r0
     d58:	8d645200 	sfmhi	f5, 2, [r4, #-0]
     d5c:	8eec0000 	cdphi	0, 14, cr0, cr12, cr0, {0}
     d60:	00040000 	andeq	r0, r4, r0
     d64:	9f5201f3 	svcls	0x005201f3
     d68:	00008eec 	andeq	r8, r0, ip, ror #29
     d6c:	00008ef4 	strdeq	r8, [r0], -r4
     d70:	00520001 	subseq	r0, r2, r1
     d74:	00000000 	andeq	r0, r0, r0
     d78:	14000000 	strne	r0, [r0], #-0
     d7c:	5000008d 	andpl	r0, r0, sp, lsl #1
     d80:	0100008d 	smlabbeq	r0, sp, r0, r0
     d84:	8d545300 	ldclhi	3, cr5, [r4, #-0]
     d88:	8d640000 	stclhi	0, cr0, [r4, #-0]
     d8c:	00010000 	andeq	r0, r1, r0
     d90:	008ed453 	addeq	sp, lr, r3, asr r4
     d94:	008edc00 	addeq	sp, lr, r0, lsl #24
     d98:	53000100 	movwpl	r0, #256	; 0x100
     d9c:	00008eec 	andeq	r8, r0, ip, ror #29
     da0:	00008ef4 	strdeq	r8, [r0], -r4
     da4:	00530001 	subseq	r0, r3, r1
     da8:	00000000 	andeq	r0, r0, r0
     dac:	2c000000 	stccs	0, cr0, [r0], {-0}
     db0:	6400008d 	strvs	r0, [r0], #-141	; 0x8d
     db4:	0200008d 	andeq	r0, r0, #141	; 0x8d
     db8:	649f3000 	ldrvs	r3, [pc], #0	; dc0 <_start-0x7240>
     dbc:	ec00008d 	stc	0, cr0, [r0], {141}	; 0x8d
     dc0:	0100008e 	smlabbeq	r0, lr, r0, r0
     dc4:	8eec5400 	cdphi	4, 14, cr5, cr12, cr0, {0}
     dc8:	8ef40000 	cdphi	0, 15, cr0, cr4, cr0, {0}
     dcc:	00020000 	andeq	r0, r2, r0
     dd0:	00009f30 	andeq	r9, r0, r0, lsr pc
     dd4:	00000000 	andeq	r0, r0, r0
     dd8:	8d2c0000 	stchi	0, cr0, [ip, #-0]
     ddc:	8d640000 	stclhi	0, cr0, [r4, #-0]
     de0:	00010000 	andeq	r0, r1, r0
     de4:	008d6452 	addeq	r6, sp, r2, asr r4
     de8:	008d8c00 	addeq	r8, sp, r0, lsl #24
     dec:	51000100 	mrspl	r0, (UNDEF: 16)
     df0:	00008d8c 	andeq	r8, r0, ip, lsl #27
     df4:	00008dc4 	andeq	r8, r0, r4, asr #27
     df8:	c4550001 	ldrbgt	r0, [r5], #-1
     dfc:	f000008d 			; <UNDEFINED> instruction: 0xf000008d
     e00:	0100008d 	smlabbeq	r0, sp, r0, r0
     e04:	8df05200 	lfmhi	f5, 2, [r0]
     e08:	8df80000 	ldclhi	0, cr0, [r8]
     e0c:	00010000 	andeq	r0, r1, r0
     e10:	008df855 	addeq	pc, sp, r5, asr r8	; <UNPREDICTABLE>
     e14:	008dfc00 	addeq	pc, sp, r0, lsl #24
     e18:	52000100 	andpl	r0, r0, #0, 2
     e1c:	00008dfc 	strdeq	r8, [r0], -ip
     e20:	00008ed4 	ldrdeq	r8, [r0], -r4
     e24:	d4550001 	ldrble	r0, [r5], #-1
     e28:	d800008e 	stmdale	r0, {r1, r2, r3, r7}
     e2c:	0100008e 	smlabbeq	r0, lr, r0, r0
     e30:	8ed85200 	cdphi	2, 13, cr5, cr8, cr0, {0}
     e34:	8eec0000 	cdphi	0, 14, cr0, cr12, cr0, {0}
     e38:	00010000 	andeq	r0, r1, r0
     e3c:	008eec51 	addeq	lr, lr, r1, asr ip
     e40:	008ef400 	addeq	pc, lr, r0, lsl #8
     e44:	52000100 	andpl	r0, r0, #0, 2
	...
     e50:	00008d64 	andeq	r8, r0, r4, ror #26
     e54:	00008d74 	andeq	r8, r0, r4, ror sp
     e58:	00720002 	rsbseq	r0, r2, r2
     e5c:	00008d74 	andeq	r8, r0, r4, ror sp
     e60:	00008d88 	andeq	r8, r0, r8, lsl #27
     e64:	88530001 	ldmdahi	r3, {r0}^
     e68:	9000008d 	andls	r0, r0, sp, lsl #1
     e6c:	0200008d 	andeq	r0, r0, #141	; 0x8d
     e70:	90007200 	andls	r7, r0, r0, lsl #4
     e74:	a000008d 	andge	r0, r0, sp, lsl #1
     e78:	0200008d 	andeq	r0, r0, #141	; 0x8d
     e7c:	a0017200 	andge	r7, r1, r0, lsl #4
     e80:	b400008d 	strlt	r0, [r0], #-141	; 0x8d
     e84:	0100008d 	smlabbeq	r0, sp, r0, r0
     e88:	8db45100 	ldfhis	f5, [r4]
     e8c:	8dc00000 	stclhi	0, cr0, [r0]
     e90:	00020000 	andeq	r0, r2, r0
     e94:	8dc80172 	stfhie	f0, [r8, #456]	; 0x1c8
     e98:	8dec0000 	stclhi	0, cr0, [ip]
     e9c:	00020000 	andeq	r0, r2, r0
     ea0:	8dec0075 	stclhi	0, cr0, [ip, #468]!	; 0x1d4
     ea4:	8df00000 	ldclhi	0, cr0, [r0]
     ea8:	00020000 	andeq	r0, r2, r0
     eac:	8df07f72 	ldclhi	15, cr7, [r0, #456]!	; 0x1c8
     eb0:	8df80000 	ldclhi	0, cr0, [r8]
     eb4:	00020000 	andeq	r0, r2, r0
     eb8:	8df80172 	ldfhie	f0, [r8, #456]!	; 0x1c8
     ebc:	8dfc0000 	ldclhi	0, cr0, [ip]
     ec0:	00020000 	andeq	r0, r2, r0
     ec4:	8dfc0075 	ldclhi	0, cr0, [ip, #468]!	; 0x1d4
     ec8:	8e800000 	cdphi	0, 8, cr0, cr0, cr0, {0}
     ecc:	00010000 	andeq	r0, r1, r0
     ed0:	008e9051 	addeq	r9, lr, r1, asr r0
     ed4:	008ea000 	addeq	sl, lr, r0
     ed8:	51000100 	mrspl	r0, (UNDEF: 16)
     edc:	00008eb0 			; <UNDEFINED> instruction: 0x00008eb0
     ee0:	00008ec0 	andeq	r8, r0, r0, asr #29
     ee4:	d0510001 	subsle	r0, r1, r1
     ee8:	d400008e 	strle	r0, [r0], #-142	; 0x8e
     eec:	0100008e 	smlabbeq	r0, lr, r0, r0
     ef0:	8edc5100 	cdphi	1, 13, cr5, cr12, cr0, {0}
     ef4:	8eec0000 	cdphi	0, 14, cr0, cr12, cr0, {0}
     ef8:	00020000 	andeq	r0, r2, r0
     efc:	00000072 	andeq	r0, r0, r2, ror r0
     f00:	00000000 	andeq	r0, r0, r0
     f04:	8e0c0000 	cdphi	0, 0, cr0, cr12, cr0, {0}
     f08:	8e440000 	cdphi	0, 4, cr0, cr4, cr0, {0}
     f0c:	00010000 	andeq	r0, r1, r0
     f10:	00000053 	andeq	r0, r0, r3, asr r0
     f14:	00000000 	andeq	r0, r0, r0
     f18:	008db400 	addeq	fp, sp, r0, lsl #8
     f1c:	008dc000 	addeq	ip, sp, r0
     f20:	30000200 	andcc	r0, r0, r0, lsl #4
     f24:	008dc09f 	umulleq	ip, sp, pc, r0	; <UNPREDICTABLE>
     f28:	008de000 	addeq	lr, sp, r0
     f2c:	53000100 	movwpl	r0, #256	; 0x100
     f30:	00008de4 	andeq	r8, r0, r4, ror #27
     f34:	00008df0 	strdeq	r8, [r0], -r0
     f38:	f0530001 			; <UNDEFINED> instruction: 0xf0530001
     f3c:	f800008d 			; <UNDEFINED> instruction: 0xf800008d
     f40:	0200008d 	andeq	r0, r0, #141	; 0x8d
     f44:	f89f3000 			; <UNDEFINED> instruction: 0xf89f3000
     f48:	0800008d 	stmdaeq	r0, {r0, r2, r3, r7}
     f4c:	0100008e 	smlabbeq	r0, lr, r0, r0
     f50:	8e445300 	cdphi	3, 4, cr5, cr4, cr0, {0}
     f54:	8e830000 	cdphi	0, 8, cr0, cr3, cr0, {0}
     f58:	00010000 	andeq	r0, r1, r0
     f5c:	008e9053 	addeq	r9, lr, r3, asr r0
     f60:	008ea300 	addeq	sl, lr, r0, lsl #6
     f64:	53000100 	movwpl	r0, #256	; 0x100
     f68:	00008eb0 			; <UNDEFINED> instruction: 0x00008eb0
     f6c:	00008ec3 	andeq	r8, r0, r3, asr #29
     f70:	d0530001 	subsle	r0, r3, r1
     f74:	d400008e 	strle	r0, [r0], #-142	; 0x8e
     f78:	0100008e 	smlabbeq	r0, lr, r0, r0
     f7c:	00005300 	andeq	r5, r0, r0, lsl #6
     f80:	00000000 	andeq	r0, r0, r0
     f84:	8ddc0000 	ldclhi	0, cr0, [ip]
     f88:	8df00000 	ldclhi	0, cr0, [r0]
     f8c:	00010000 	andeq	r0, r1, r0
     f90:	00000051 	andeq	r0, r0, r1, asr r0
     f94:	00000000 	andeq	r0, r0, r0
     f98:	008e4c00 	addeq	r4, lr, r0, lsl #24
     f9c:	008e6c00 	addeq	r6, lr, r0, lsl #24
     fa0:	52000100 	andpl	r0, r0, #0, 2
     fa4:	00008e70 	andeq	r8, r0, r0, ror lr
     fa8:	00008e83 	andeq	r8, r0, r3, lsl #29
     fac:	90520001 	subsls	r0, r2, r1
     fb0:	a300008e 	movwge	r0, #142	; 0x8e
     fb4:	0100008e 	smlabbeq	r0, lr, r0, r0
     fb8:	8eb05200 	cdphi	2, 11, cr5, cr0, cr0, {0}
     fbc:	8ec30000 	cdphi	0, 12, cr0, cr3, cr0, {0}
     fc0:	00010000 	andeq	r0, r1, r0
     fc4:	008ed052 	addeq	sp, lr, r2, asr r0
     fc8:	008ed400 	addeq	sp, lr, r0, lsl #8
     fcc:	52000100 	andpl	r0, r0, #0, 2
	...
     fd8:	00008ef4 	strdeq	r8, [r0], -r4
     fdc:	00008f17 	andeq	r8, r0, r7, lsl pc
     fe0:	17500001 	ldrbne	r0, [r0, -r1]
     fe4:	2000008f 	andcs	r0, r0, pc, lsl #1
     fe8:	0400008f 	streq	r0, [r0], #-143	; 0x8f
     fec:	5001f300 	andpl	pc, r1, r0, lsl #6
     ff0:	0000009f 	muleq	r0, pc, r0	; <UNPREDICTABLE>
     ff4:	00000000 	andeq	r0, r0, r0
     ff8:	008ef400 	addeq	pc, lr, r0, lsl #8
     ffc:	008f1700 	addeq	r1, pc, r0, lsl #14
    1000:	51000100 	mrspl	r0, (UNDEF: 16)
    1004:	00008f17 	andeq	r8, r0, r7, lsl pc
    1008:	00008f20 	andeq	r8, r0, r0, lsr #30
    100c:	01f30004 	mvnseq	r0, r4
    1010:	00009f51 	andeq	r9, r0, r1, asr pc
    1014:	00000000 	andeq	r0, r0, r0
    1018:	8f640000 	svchi	0x00640000
    101c:	8f670000 	svchi	0x00670000
    1020:	00020000 	andeq	r0, r2, r0
    1024:	8f740073 	svchi	0x00740073
    1028:	8f880000 	svchi	0x00880000
    102c:	00020000 	andeq	r0, r2, r0
    1030:	00000073 	andeq	r0, r0, r3, ror r0
    1034:	00000000 	andeq	r0, r0, r0
    1038:	8f380000 	svchi	0x00380000
    103c:	8f640000 	svchi	0x00640000
    1040:	00040000 	andeq	r0, r4, r0
    1044:	9f77d891 	svcls	0x0077d891
    1048:	00008f64 	andeq	r8, r0, r4, ror #30
    104c:	00008f6c 	andeq	r8, r0, ip, ror #30
    1050:	6c540001 	mrrcvs	0, 0, r0, r4, cr1
    1054:	7000008f 	andvc	r0, r0, pc, lsl #1
    1058:	0100008f 	smlabbeq	r0, pc, r0, r0	; <UNPREDICTABLE>
    105c:	8f705300 	svchi	0x00705300
    1060:	8f880000 	svchi	0x00880000
    1064:	00010000 	andeq	r0, r1, r0
    1068:	00000054 	andeq	r0, r0, r4, asr r0
    106c:	00000000 	andeq	r0, r0, r0
    1070:	008f5800 	addeq	r5, pc, r0, lsl #16
    1074:	008f6400 	addeq	r6, pc, r0, lsl #8
    1078:	50000100 	andpl	r0, r0, r0, lsl #2
    107c:	00008f64 	andeq	r8, r0, r4, ror #30
    1080:	00008f88 	andeq	r8, r0, r8, lsl #31
    1084:	00550001 	subseq	r0, r5, r1
    1088:	00000000 	andeq	r0, r0, r0
    108c:	20000000 	andcs	r0, r0, r0
    1090:	3c000090 	stccc	0, cr0, [r0], {144}	; 0x90
    1094:	01000090 	swpeq	r0, r0, [r0]	; <UNPREDICTABLE>
    1098:	903c5000 	eorsls	r5, ip, r0
    109c:	90600000 	rsbls	r0, r0, r0
    10a0:	00010000 	andeq	r0, r1, r0
    10a4:	00000054 	andeq	r0, r0, r4, asr r0
    10a8:	00000000 	andeq	r0, r0, r0
    10ac:	00908400 	addseq	r8, r0, r0, lsl #8
    10b0:	0090ac00 	addseq	sl, r0, r0, lsl #24
    10b4:	50000100 	andpl	r0, r0, r0, lsl #2
    10b8:	000090ac 	andeq	r9, r0, ip, lsr #1
    10bc:	000090b4 	strheq	r9, [r0], -r4
    10c0:	b4540001 	ldrblt	r0, [r4], #-1
    10c4:	ec000090 	stc	0, cr0, [r0], {144}	; 0x90
    10c8:	04000090 	streq	r0, [r0], #-144	; 0x90
    10cc:	5001f300 	andpl	pc, r1, r0, lsl #6
    10d0:	0000009f 	muleq	r0, pc, r0	; <UNPREDICTABLE>
    10d4:	00000000 	andeq	r0, r0, r0
    10d8:	00908400 	addseq	r8, r0, r0, lsl #8
    10dc:	0090a000 	addseq	sl, r0, r0
    10e0:	51000100 	mrspl	r0, (UNDEF: 16)
    10e4:	000090a0 	andeq	r9, r0, r0, lsr #1
    10e8:	000090ec 	andeq	r9, r0, ip, ror #1
    10ec:	01f30004 	mvnseq	r0, r4
    10f0:	00009f51 	andeq	r9, r0, r1, asr pc
    10f4:	00000000 	andeq	r0, r0, r0
    10f8:	90ec0000 	rscls	r0, ip, r0
    10fc:	91070000 	mrsls	r0, (UNDEF: 7)
    1100:	00010000 	andeq	r0, r1, r0
    1104:	00910750 	addseq	r0, r1, r0, asr r7
    1108:	00910c00 	addseq	r0, r1, r0, lsl #24
    110c:	f3000400 	vshl.u8	d0, d0, d0
    1110:	009f5001 	addseq	r5, pc, r1
    1114:	00000000 	andeq	r0, r0, r0
    1118:	0c000000 	stceq	0, cr0, [r0], {-0}
    111c:	1f000091 	svcne	0x00000091
    1120:	01000091 	swpeq	r0, r1, [r0]	; <UNPREDICTABLE>
    1124:	911f5000 	tstls	pc, r0
    1128:	91240000 	teqls	r4, r0
    112c:	00040000 	andeq	r0, r4, r0
    1130:	9f5001f3 	svcls	0x005001f3
	...
    113c:	00009124 	andeq	r9, r0, r4, lsr #2
    1140:	0000913c 	andeq	r9, r0, ip, lsr r1
    1144:	3c500001 	mrrccc	0, 0, r0, r0, cr1	; <UNPREDICTABLE>
    1148:	e0000091 	mul	r0, r1, r0
    114c:	01000091 	swpeq	r0, r1, [r0]	; <UNPREDICTABLE>
    1150:	00005400 	andeq	r5, r0, r0, lsl #8
    1154:	00000000 	andeq	r0, r0, r0
    1158:	91240000 	teqls	r4, r0
    115c:	91400000 	mrsls	r0, (UNDEF: 64)
    1160:	00010000 	andeq	r0, r1, r0
    1164:	00914051 	addseq	r4, r1, r1, asr r0
    1168:	0091e000 	addseq	lr, r1, r0
    116c:	55000100 	strpl	r0, [r0, #-256]	; 0x100
	...
    1178:	000091e0 	andeq	r9, r0, r0, ror #3
    117c:	00009260 	andeq	r9, r0, r0, ror #4
    1180:	60520001 	subsvs	r0, r2, r1
    1184:	70000092 	mulvc	r0, r2, r0
    1188:	04000092 	streq	r0, [r0], #-146	; 0x92
    118c:	5201f300 	andpl	pc, r1, #0, 6
    1190:	0000009f 	muleq	r0, pc, r0	; <UNPREDICTABLE>
    1194:	00000000 	andeq	r0, r0, r0
    1198:	00920000 	addseq	r0, r2, r0
    119c:	00920c00 	addseq	r0, r2, r0, lsl #24
    11a0:	30000200 	andcc	r0, r0, r0, lsl #4
    11a4:	00920c9f 	umullseq	r0, r2, pc, ip	; <UNPREDICTABLE>
    11a8:	00927000 	addseq	r7, r2, r0
    11ac:	55000100 	strpl	r0, [r0, #-256]	; 0x100
	...

Disassembly of section .debug_aranges:

00000000 <.debug_aranges>:
   0:	0000001c 	andeq	r0, r0, ip, lsl r0
   4:	00000002 	andeq	r0, r0, r2
   8:	00040000 	andeq	r0, r4, r0
   c:	00000000 	andeq	r0, r0, r0
  10:	00008010 	andeq	r8, r0, r0, lsl r0
  14:	000000e4 	andeq	r0, r0, r4, ror #1
	...
  20:	0000001c 	andeq	r0, r0, ip, lsl r0
  24:	035e0002 	cmpeq	lr, #2
  28:	00040000 	andeq	r0, r4, r0
  2c:	00000000 	andeq	r0, r0, r0
  30:	000080f8 	strdeq	r8, [r0], -r8	; <UNPREDICTABLE>
  34:	00000038 	andeq	r0, r0, r8, lsr r0
	...
  40:	0000001c 	andeq	r0, r0, ip, lsl r0
  44:	03e90002 	mvneq	r0, #2
  48:	00040000 	andeq	r0, r4, r0
  4c:	00000000 	andeq	r0, r0, r0
  50:	00008130 	andeq	r8, r0, r0, lsr r1
  54:	00000214 	andeq	r0, r0, r4, lsl r2
	...
  60:	0000001c 	andeq	r0, r0, ip, lsl r0
  64:	07b50002 	ldreq	r0, [r5, r2]!
  68:	00040000 	andeq	r0, r4, r0
  6c:	00000000 	andeq	r0, r0, r0
  70:	00008344 	andeq	r8, r0, r4, asr #6
  74:	00000020 	andeq	r0, r0, r0, lsr #32
	...
  80:	0000001c 	andeq	r0, r0, ip, lsl r0
  84:	08810002 	stmeq	r1, {r1}
  88:	00040000 	andeq	r0, r4, r0
  8c:	00000000 	andeq	r0, r0, r0
  90:	00008364 	andeq	r8, r0, r4, ror #6
  94:	0000003c 	andeq	r0, r0, ip, lsr r0
	...
  a0:	0000001c 	andeq	r0, r0, ip, lsl r0
  a4:	0ae90002 	beq	ffa400b4 <__bss_end__+0xffa35e5c>
  a8:	00040000 	andeq	r0, r4, r0
  ac:	00000000 	andeq	r0, r0, r0
  b0:	000083a0 	andeq	r8, r0, r0, lsr #7
  b4:	000000bc 	strheq	r0, [r0], -ip
	...
  c0:	0000001c 	andeq	r0, r0, ip, lsl r0
  c4:	0c610002 	stcleq	0, cr0, [r1], #-8
  c8:	00040000 	andeq	r0, r4, r0
  cc:	00000000 	andeq	r0, r0, r0
  d0:	0000845c 	andeq	r8, r0, ip, asr r4
  d4:	0000006c 	andeq	r0, r0, ip, rrx
	...
  e0:	0000001c 	andeq	r0, r0, ip, lsl r0
  e4:	0d6d0002 	stcleq	0, cr0, [sp, #-8]!
  e8:	00040000 	andeq	r0, r4, r0
  ec:	00000000 	andeq	r0, r0, r0
  f0:	000084c8 	andeq	r8, r0, r8, asr #9
  f4:	00000260 	andeq	r0, r0, r0, ror #4
	...
 100:	0000004c 	andeq	r0, r0, ip, asr #32
 104:	0fa80002 	svceq	0x00a80002
 108:	00040000 	andeq	r0, r4, r0
 10c:	00000000 	andeq	r0, r0, r0
 110:	00008758 	andeq	r8, r0, r8, asr r7
 114:	00000010 	andeq	r0, r0, r0, lsl r0
 118:	00008768 	andeq	r8, r0, r8, ror #14
 11c:	00000064 	andeq	r0, r0, r4, rrx
 120:	000087cc 	andeq	r8, r0, ip, asr #15
 124:	00000058 	andeq	r0, r0, r8, asr r0
 128:	00008824 	andeq	r8, r0, r4, lsr #16
 12c:	00000018 	andeq	r0, r0, r8, lsl r0
 130:	0000883c 	andeq	r8, r0, ip, lsr r8
 134:	00000018 	andeq	r0, r0, r8, lsl r0
 138:	00008854 	andeq	r8, r0, r4, asr r8
 13c:	00000060 	andeq	r0, r0, r0, rrx
 140:	000088b4 			; <UNDEFINED> instruction: 0x000088b4
 144:	00000048 	andeq	r0, r0, r8, asr #32
	...
 150:	00000044 	andeq	r0, r0, r4, asr #32
 154:	126a0002 	rsbne	r0, sl, #2
 158:	00040000 	andeq	r0, r4, r0
 15c:	00000000 	andeq	r0, r0, r0
 160:	000088fc 	strdeq	r8, [r0], -ip
 164:	00000010 	andeq	r0, r0, r0, lsl r0
 168:	0000890c 	andeq	r8, r0, ip, lsl #18
 16c:	0000001c 	andeq	r0, r0, ip, lsl r0
 170:	00008928 	andeq	r8, r0, r8, lsr #18
 174:	0000002c 	andeq	r0, r0, ip, lsr #32
 178:	00008954 	andeq	r8, r0, r4, asr r9
 17c:	00000034 	andeq	r0, r0, r4, lsr r0
 180:	00008988 	andeq	r8, r0, r8, lsl #19
 184:	00000034 	andeq	r0, r0, r4, lsr r0
 188:	000089bc 			; <UNDEFINED> instruction: 0x000089bc
 18c:	00000020 	andeq	r0, r0, r0, lsr #32
	...
 198:	00000054 	andeq	r0, r0, r4, asr r0
 19c:	141b0002 	ldrne	r0, [fp], #-2
 1a0:	00040000 	andeq	r0, r4, r0
 1a4:	00000000 	andeq	r0, r0, r0
 1a8:	000089dc 	ldrdeq	r8, [r0], -ip
 1ac:	00000014 	andeq	r0, r0, r4, lsl r0
 1b0:	000089f0 	strdeq	r8, [r0], -r0
 1b4:	00000038 	andeq	r0, r0, r8, lsr r0
 1b8:	00008a28 	andeq	r8, r0, r8, lsr #20
 1bc:	000000c8 	andeq	r0, r0, r8, asr #1
 1c0:	00008af0 	strdeq	r8, [r0], -r0
 1c4:	000000d8 	ldrdeq	r0, [r0], -r8
 1c8:	00008bc8 	andeq	r8, r0, r8, asr #23
 1cc:	0000014c 	andeq	r0, r0, ip, asr #2
 1d0:	00008d14 	andeq	r8, r0, r4, lsl sp
 1d4:	000001e0 	andeq	r0, r0, r0, ror #3
 1d8:	00008ef4 	strdeq	r8, [r0], -r4
 1dc:	0000002c 	andeq	r0, r0, ip, lsr #32
 1e0:	00008f20 	andeq	r8, r0, r0, lsr #30
 1e4:	00000068 	andeq	r0, r0, r8, rrx
	...
 1f0:	00000034 	andeq	r0, r0, r4, lsr r0
 1f4:	1a070002 	bne	1c0204 <__bss_end__+0x1b5fac>
 1f8:	00040000 	andeq	r0, r4, r0
 1fc:	00000000 	andeq	r0, r0, r0
 200:	00008f88 	andeq	r8, r0, r8, lsl #31
 204:	00000068 	andeq	r0, r0, r8, rrx
 208:	00008ff0 	strdeq	r8, [r0], -r0
 20c:	00000030 	andeq	r0, r0, r0, lsr r0
 210:	00009020 	andeq	r9, r0, r0, lsr #32
 214:	00000040 	andeq	r0, r0, r0, asr #32
 218:	00009060 	andeq	r9, r0, r0, rrx
 21c:	00000024 	andeq	r0, r0, r4, lsr #32
	...
 228:	0000002c 	andeq	r0, r0, ip, lsr #32
 22c:	1be90002 	blne	ffa4023c <__bss_end__+0xffa35fe4>
 230:	00040000 	andeq	r0, r4, r0
 234:	00000000 	andeq	r0, r0, r0
 238:	00009084 	andeq	r9, r0, r4, lsl #1
 23c:	00000068 	andeq	r0, r0, r8, rrx
 240:	000090ec 	andeq	r9, r0, ip, ror #1
 244:	00000020 	andeq	r0, r0, r0, lsr #32
 248:	0000910c 	andeq	r9, r0, ip, lsl #2
 24c:	00000018 	andeq	r0, r0, r8, lsl r0
	...
 258:	00000024 	andeq	r0, r0, r4, lsr #32
 25c:	1d570002 	ldclne	0, cr0, [r7, #-8]
 260:	00040000 	andeq	r0, r4, r0
 264:	00000000 	andeq	r0, r0, r0
 268:	00009124 	andeq	r9, r0, r4, lsr #2
 26c:	000000bc 	strheq	r0, [r0], -ip
 270:	000091e0 	andeq	r9, r0, r0, ror #3
 274:	00000090 	muleq	r0, r0, r0
	...
 280:	0000001c 	andeq	r0, r0, ip, lsl r0
 284:	20ab0002 	adccs	r0, fp, r2
 288:	00040000 	andeq	r0, r4, r0
 28c:	00000000 	andeq	r0, r0, r0
 290:	00009270 	andeq	r9, r0, r0, ror r2
 294:	00000114 	andeq	r0, r0, r4, lsl r1
	...
 2a0:	0000001c 	andeq	r0, r0, ip, lsl r0
 2a4:	21570002 	cmpcs	r7, r2
 2a8:	00040000 	andeq	r0, r4, r0
 2ac:	00000000 	andeq	r0, r0, r0
 2b0:	00009384 	andeq	r9, r0, r4, lsl #7
 2b4:	00000004 	andeq	r0, r0, r4
	...
 2c0:	0000001c 	andeq	r0, r0, ip, lsl r0
 2c4:	22030002 	andcs	r0, r3, #2
 2c8:	00040000 	andeq	r0, r4, r0
 2cc:	00000000 	andeq	r0, r0, r0
 2d0:	00009388 	andeq	r9, r0, r8, lsl #7
 2d4:	0000041c 	andeq	r0, r0, ip, lsl r4
	...
 2e0:	0000001c 	andeq	r0, r0, ip, lsl r0
 2e4:	22b00002 	adcscs	r0, r0, #2
 2e8:	00040000 	andeq	r0, r4, r0
 2ec:	00000000 	andeq	r0, r0, r0
 2f0:	000097a4 	andeq	r9, r0, r4, lsr #15
 2f4:	0000049c 	muleq	r0, ip, r4
	...
 300:	0000001c 	andeq	r0, r0, ip, lsl r0
 304:	235d0002 	cmpcs	sp, #2
 308:	00040000 	andeq	r0, r4, r0
 30c:	00000000 	andeq	r0, r0, r0
 310:	00009c40 	andeq	r9, r0, r0, asr #24
 314:	00000144 	andeq	r0, r0, r4, asr #2
	...
 320:	0000001c 	andeq	r0, r0, ip, lsl r0
 324:	240a0002 	strcs	r0, [sl], #-2
 328:	00040000 	andeq	r0, r4, r0
 32c:	00000000 	andeq	r0, r0, r0
 330:	00009d84 	andeq	r9, r0, r4, lsl #27
 334:	0000005c 	andeq	r0, r0, ip, asr r0
	...

Disassembly of section .debug_line:

00000000 <.debug_line>:
   0:	000000ac 	andeq	r0, r0, ip, lsr #1
   4:	008e0002 	addeq	r0, lr, r2
   8:	01020000 	mrseq	r0, (UNDEF: 2)
   c:	000d0efb 	strdeq	r0, [sp], -fp
  10:	01010101 	tsteq	r1, r1, lsl #2
  14:	01000000 	mrseq	r0, (UNDEF: 0)
  18:	2f010000 	svccs	0x00010000
  1c:	2f727375 	svccs	0x00727375
  20:	61636f6c 	cmnvs	r3, ip, ror #30
  24:	65432f6c 	strbvs	r2, [r3, #-3948]	; 0xf6c
  28:	72616c6c 	rsbvc	r6, r1, #108, 24	; 0x6c00
  2c:	6d72612f 	ldfvse	f6, [r2, #-188]!	; 0xffffff44
  30:	6e6f6e2d 	cdpvs	14, 6, cr6, cr15, cr13, {1}
  34:	61652d65 	cmnvs	r5, r5, ror #26
  38:	342f6962 	strtcc	r6, [pc], #-2402	; 40 <_start-0x7fc0>
  3c:	332e382e 	teqcc	lr, #3014656	; 0x2e0000
  40:	3173632d 	cmncc	r3, sp, lsr #6
  44:	2f653037 	svccs	0x00653037
  48:	2d6d7261 	sfmcs	f7, 2, [sp, #-388]!	; 0xfffffe7c
  4c:	656e6f6e 	strbvs	r6, [lr, #-3950]!	; 0xf6e
  50:	6261652d 	rsbvs	r6, r1, #188743680	; 0xb400000
  54:	6e692f69 	cdpvs	15, 6, cr2, cr9, cr9, {3}
  58:	64756c63 	ldrbtvs	r6, [r5], #-3171	; 0xc63
  5c:	70000065 	andvc	r0, r0, r5, rrx
  60:	732d6d77 	teqvc	sp, #7616	; 0x1dc0
  64:	2e656e69 	cdpcs	14, 6, cr6, cr5, cr9, {3}
  68:	00000063 	andeq	r0, r0, r3, rrx
  6c:	64756100 	ldrbtvs	r6, [r5], #-256	; 0x100
  70:	682e6f69 	stmdavs	lr!, {r0, r3, r5, r6, r8, r9, sl, fp, sp, lr}
  74:	00000000 	andeq	r0, r0, r0
  78:	676e6f73 			; <UNDEFINED> instruction: 0x676e6f73
  7c:	0000682e 	andeq	r6, r0, lr, lsr #16
  80:	69730000 	ldmdbvs	r3!, {}^	; <UNPREDICTABLE>
  84:	682e656e 	stmdavs	lr!, {r1, r2, r3, r5, r6, r8, sl, sp, lr}
  88:	00000000 	andeq	r0, r0, r0
  8c:	69647473 	stmdbvs	r4!, {r0, r1, r4, r5, r6, sl, ip, sp, lr}^
  90:	00682e6f 	rsbeq	r2, r8, pc, ror #28
  94:	00000001 	andeq	r0, r0, r1
  98:	10020500 	andne	r0, r2, r0, lsl #10
  9c:	17000080 	strne	r0, [r0, -r0, lsl #1]
  a0:	672e0903 	strvs	r0, [lr, -r3, lsl #18]!
  a4:	67d767d7 			; <UNDEFINED> instruction: 0x67d767d7
  a8:	02d767d7 	sbcseq	r6, r7, #56360960	; 0x35c0000
  ac:	01010020 	tsteq	r1, r0, lsr #32
  b0:	0000003e 	andeq	r0, r0, lr, lsr r0
  b4:	001f0002 	andseq	r0, pc, r2
  b8:	01020000 	mrseq	r0, (UNDEF: 2)
  bc:	000d0efb 	strdeq	r0, [sp], -fp
  c0:	01010101 	tsteq	r1, r1, lsl #2
  c4:	01000000 	mrseq	r0, (UNDEF: 0)
  c8:	00010000 	andeq	r0, r1, r0
  cc:	61747363 	cmnvs	r4, r3, ror #6
  d0:	632e7472 	teqvs	lr, #1912602624	; 0x72000000
  d4:	00000000 	andeq	r0, r0, r0
  d8:	02050000 	andeq	r0, r5, #0
  dc:	000080f8 	strdeq	r8, [r0], -r8	; <UNPREDICTABLE>
  e0:	2f312f17 	svccs	0x00312f17
  e4:	02002f2d 	andeq	r2, r0, #45, 30	; 0xb4
  e8:	4d490104 	stfmie	f0, [r9, #-16]
  ec:	0008022f 	andeq	r0, r8, pc, lsr #4
  f0:	00b80101 	adcseq	r0, r8, r1, lsl #2
  f4:	00020000 	andeq	r0, r2, r0
  f8:	00000034 	andeq	r0, r0, r4, lsr r0
  fc:	0efb0102 	cdpeq	1, 15, cr0, cr11, cr2, {0}
 100:	0101000d 	tsteq	r1, sp
 104:	00000101 	andeq	r0, r0, r1, lsl #2
 108:	00000100 	andeq	r0, r0, r0, lsl #2
 10c:	75610001 	strbvc	r0, [r1, #-1]!
 110:	2e6f6964 	cdpcs	9, 6, cr6, cr15, cr4, {3}
 114:	00000063 	andeq	r0, r0, r3, rrx
 118:	64756100 	ldrbtvs	r6, [r5], #-256	; 0x100
 11c:	682e6f69 	stmdavs	lr!, {r0, r3, r5, r6, r8, r9, sl, fp, sp, lr}
 120:	00000000 	andeq	r0, r0, r0
 124:	656d6974 	strbvs	r6, [sp, #-2420]!	; 0x974
 128:	00682e72 	rsbeq	r2, r8, r2, ror lr
 12c:	00000000 	andeq	r0, r0, r0
 130:	30020500 	andcc	r0, r2, r0, lsl #10
 134:	03000081 	movweq	r0, #129	; 0x81
 138:	2f0100e6 	svccs	0x000100e6
 13c:	6a4b8336 	bvs	12e0e1c <__bss_end__+0x12d6bc4>
 140:	67844d83 	strvs	r4, [r4, r3, lsl #27]
 144:	0a03684c 	beq	da27c <__bss_end__+0xd0024>
 148:	9e1703ba 	mrcls	3, 0, r0, cr7, cr10, {5}
 14c:	684d8786 	stmdavs	sp, {r1, r2, r7, r8, r9, sl, pc}^
 150:	5131674e 	teqpl	r1, lr, asr #14
 154:	0336314e 	teqeq	r6, #-2147483629	; 0x80000013
 158:	4c2f2e77 	stcmi	14, cr2, [pc], #-476	; ffffff84 <__bss_end__+0xffff5d2c>
 15c:	a02f9f4b 	eorge	r9, pc, fp, asr #30
 160:	0200312f 	andeq	r3, r0, #-1073741813	; 0xc000000b
 164:	74030104 	strvc	r0, [r3], #-260	; 0x104
 168:	660f034a 	strvs	r0, [pc], -sl, asr #6
 16c:	679f30bd 			; <UNDEFINED> instruction: 0x679f30bd
 170:	2f672f4b 	svccs	0x00672f4b
 174:	02002f2b 	andeq	r2, r0, #43, 30	; 0xac
 178:	66060304 	strvs	r0, [r6], -r4, lsl #6
 17c:	03040200 	movweq	r0, #16896	; 0x4200
 180:	02002f06 	andeq	r2, r0, #6, 30
 184:	2e060104 	adfcss	f0, f6, f4
 188:	02040200 	andeq	r0, r4, #0, 4
 18c:	0402002e 	streq	r0, [r2], #-46	; 0x2e
 190:	02004a03 	andeq	r4, r0, #12288	; 0x3000
 194:	2f060304 	svccs	0x00060304
 198:	03040200 	movweq	r0, #16896	; 0x4200
 19c:	0402002b 	streq	r0, [r2], #-43	; 0x2b
 1a0:	062e0601 	strteq	r0, [lr], -r1, lsl #12
 1a4:	00c7034f 	sbceq	r0, r7, pc, asr #6
 1a8:	000202ba 			; <UNDEFINED> instruction: 0x000202ba
 1ac:	00a40101 	adceq	r0, r4, r1, lsl #2
 1b0:	00020000 	andeq	r0, r2, r0
 1b4:	0000007c 	andeq	r0, r0, ip, ror r0
 1b8:	0efb0102 	cdpeq	1, 15, cr0, cr11, cr2, {0}
 1bc:	0101000d 	tsteq	r1, sp
 1c0:	00000101 	andeq	r0, r0, r1, lsl #2
 1c4:	00000100 	andeq	r0, r0, r0, lsl #2
 1c8:	73752f01 	cmnvc	r5, #1, 30
 1cc:	6f6c2f72 	svcvs	0x006c2f72
 1d0:	2f6c6163 	svccs	0x006c6163
 1d4:	6c6c6543 	cfstr64vs	mvdx6, [ip], #-268	; 0xfffffef4
 1d8:	612f7261 	teqvs	pc, r1, ror #4
 1dc:	6e2d6d72 	mcrvs	13, 1, r6, cr13, cr2, {3}
 1e0:	2d656e6f 	stclcs	14, cr6, [r5, #-444]!	; 0xfffffe44
 1e4:	69626165 	stmdbvs	r2!, {r0, r2, r5, r6, r8, sp, lr}^
 1e8:	382e342f 	stmdacc	lr!, {r0, r1, r2, r3, r5, sl, ip, sp}
 1ec:	632d332e 	teqvs	sp, #-1207959552	; 0xb8000000
 1f0:	30373173 	eorscc	r3, r7, r3, ror r1
 1f4:	696c2f65 	stmdbvs	ip!, {r0, r2, r5, r6, r8, r9, sl, fp, sp}^
 1f8:	63672f62 	cmnvs	r7, #392	; 0x188
 1fc:	72612f63 	rsbvc	r2, r1, #396	; 0x18c
 200:	6f6e2d6d 	svcvs	0x006e2d6d
 204:	652d656e 	strvs	r6, [sp, #-1390]!	; 0x56e
 208:	2f696261 	svccs	0x00696261
 20c:	2e382e34 	mrccs	14, 1, r2, cr8, cr4, {1}
 210:	6e692f33 	mcrvs	15, 3, r2, cr9, cr3, {1}
 214:	64756c63 	ldrbtvs	r6, [r5], #-3171	; 0xc63
 218:	6d000065 	stcvs	0, cr0, [r0, #-404]	; 0xfffffe6c
 21c:	70636d65 	rsbvc	r6, r3, r5, ror #26
 220:	00632e79 	rsbeq	r2, r3, r9, ror lr
 224:	73000000 	movwvc	r0, #0
 228:	65646474 	strbvs	r6, [r4, #-1140]!	; 0x474
 22c:	00682e66 	rsbeq	r2, r8, r6, ror #28
 230:	00000001 	andeq	r0, r0, r1
 234:	44020500 	strmi	r0, [r2], #-1280	; 0x500
 238:	03000083 	movweq	r0, #131	; 0x83
 23c:	0015010a 	andseq	r0, r5, sl, lsl #2
 240:	4b020402 	blmi	81250 <__bss_end__+0x76ff8>
 244:	02040200 	andeq	r0, r4, #0, 4
 248:	04020049 	streq	r0, [r2], #-73	; 0x49
 24c:	062e0601 	strteq	r0, [lr], -r1, lsl #12
 250:	0002024e 	andeq	r0, r2, lr, asr #4
 254:	005c0101 	subseq	r0, ip, r1, lsl #2
 258:	00020000 	andeq	r0, r2, r0
 25c:	00000032 	andeq	r0, r0, r2, lsr r0
 260:	0efb0102 	cdpeq	1, 15, cr0, cr11, cr2, {0}
 264:	0101000d 	tsteq	r1, sp
 268:	00000101 	andeq	r0, r0, r1, lsl #2
 26c:	00000100 	andeq	r0, r0, r0, lsl #2
 270:	6f730001 	svcvs	0x00730001
 274:	632e676e 	teqvs	lr, #28835840	; 0x1b80000
 278:	00000000 	andeq	r0, r0, r0
 27c:	69647561 	stmdbvs	r4!, {r0, r5, r6, r8, sl, ip, sp, lr}^
 280:	00682e6f 	rsbeq	r2, r8, pc, ror #28
 284:	73000000 	movwvc	r0, #0
 288:	2e676e6f 	cdpcs	14, 6, cr6, cr7, cr15, {3}
 28c:	00000068 	andeq	r0, r0, r8, rrx
 290:	05000000 	streq	r0, [r0, #-0]
 294:	00836402 	addeq	r6, r3, r2, lsl #8
 298:	010d0300 	mrseq	r0, SP_mon
 29c:	002d2f67 	eoreq	r2, sp, r7, ror #30
 2a0:	2f020402 	svccs	0x00020402
 2a4:	02040200 	andeq	r0, r4, #0, 4
 2a8:	04020081 	streq	r0, [r2], #-129	; 0x81
 2ac:	062e0601 	strteq	r0, [lr], -r1, lsl #12
 2b0:	0004024d 	andeq	r0, r4, sp, asr #4
 2b4:	00900101 	addseq	r0, r0, r1, lsl #2
 2b8:	00020000 	andeq	r0, r2, r0
 2bc:	0000005f 	andeq	r0, r0, pc, asr r0
 2c0:	0efb0102 	cdpeq	1, 15, cr0, cr11, cr2, {0}
 2c4:	0101000d 	tsteq	r1, sp
 2c8:	00000101 	andeq	r0, r0, r1, lsl #2
 2cc:	00000100 	andeq	r0, r0, r0, lsl #2
 2d0:	2f2e2e01 	svccs	0x002e2e01
 2d4:	30317363 	eorscc	r7, r1, r3, ror #6
 2d8:	672e6537 			; <UNDEFINED> instruction: 0x672e6537
 2dc:	75687469 	strbvc	r7, [r8, #-1129]!	; 0x469
 2e0:	6f692e62 	svcvs	0x00692e62
 2e4:	62696c2f 	rsbvs	r6, r9, #12032	; 0x2f00
 2e8:	692f6970 	stmdbvs	pc!, {r4, r5, r6, r8, fp, sp, lr}	; <UNPREDICTABLE>
 2ec:	756c636e 	strbvc	r6, [ip, #-878]!	; 0x36e
 2f0:	00006564 	andeq	r6, r0, r4, ror #10
 2f4:	69726570 	ldmdbvs	r2!, {r4, r5, r6, r8, sl, sp, lr}^
 2f8:	72656870 	rsbvc	r6, r5, #112, 16	; 0x700000
 2fc:	2e736c61 	cdpcs	12, 7, cr6, cr3, cr1, {3}
 300:	00000063 	andeq	r0, r0, r3, rrx
 304:	70636d00 	rsbvc	r6, r3, r0, lsl #26
 308:	38303033 	ldmdacc	r0!, {r0, r1, r4, r5, ip, sp}
 30c:	0000682e 	andeq	r6, r0, lr, lsr #16
 310:	72700000 	rsbsvc	r0, r0, #0
 314:	66746e69 	ldrbtvs	r6, [r4], -r9, ror #28
 318:	0100682e 	tsteq	r0, lr, lsr #16
 31c:	00000000 	andeq	r0, r0, r0
 320:	83a00205 	movhi	r0, #1342177280	; 0x50000000
 324:	2f180000 	svccs	0x00180000
 328:	2dda672f 	ldclcs	7, cr6, [sl, #188]	; 0xbc
 32c:	0402002f 	streq	r0, [r2], #-47	; 0x2f
 330:	02002f02 	andeq	r2, r0, #2, 30
 334:	002d0204 	eoreq	r0, sp, r4, lsl #4
 338:	06010402 	streq	r0, [r1], -r2, lsl #8
 33c:	a04e062e 	subge	r0, lr, lr, lsr #12
 340:	f3672f4b 	vpmin.f32	q9, <illegal reg q3.5>, <illegal reg q5.5>
 344:	000c026a 	andeq	r0, ip, sl, ror #4
 348:	00450101 	subeq	r0, r5, r1, lsl #2
 34c:	00020000 	andeq	r0, r2, r0
 350:	00000029 	andeq	r0, r0, r9, lsr #32
 354:	0efb0102 	cdpeq	1, 15, cr0, cr11, cr2, {0}
 358:	0101000d 	tsteq	r1, sp
 35c:	00000101 	andeq	r0, r0, r1, lsl #2
 360:	00000100 	andeq	r0, r0, r0, lsl #2
 364:	636d0001 	cmnvs	sp, #1
 368:	30303370 	eorscc	r3, r0, r0, ror r3
 36c:	00632e38 	rsbeq	r2, r3, r8, lsr lr
 370:	73000000 	movwvc	r0, #0
 374:	682e6970 	stmdavs	lr!, {r4, r5, r6, r8, fp, sp, lr}
 378:	00000000 	andeq	r0, r0, r0
 37c:	02050000 	andeq	r0, r5, #0
 380:	0000845c 	andeq	r8, r0, ip, asr r4
 384:	4c672f15 	stclmi	15, cr2, [r7], #-84	; 0xffffffac
 388:	4c834c4f 	stcmi	12, cr4, [r3], {79}	; 0x4f
 38c:	08026783 	stmdaeq	r2, {r0, r1, r7, r8, r9, sl, sp, lr}
 390:	60010100 	andvs	r0, r1, r0, lsl #2
 394:	02000000 	andeq	r0, r0, #0
 398:	00001d00 	andeq	r1, r0, r0, lsl #26
 39c:	fb010200 	blx	40ba6 <__bss_end__+0x3694e>
 3a0:	01000d0e 	tsteq	r0, lr, lsl #26
 3a4:	00010101 	andeq	r0, r1, r1, lsl #2
 3a8:	00010000 	andeq	r0, r1, r0
 3ac:	73000100 	movwvc	r0, #256	; 0x100
 3b0:	2e656e69 	cdpcs	14, 6, cr6, cr5, cr9, {3}
 3b4:	00000063 	andeq	r0, r0, r3, rrx
 3b8:	05000000 	streq	r0, [r0, #-0]
 3bc:	0084c802 	addeq	ip, r4, r2, lsl #16
 3c0:	01110300 	tsteq	r1, r0, lsl #6
 3c4:	004b2da0 	subeq	r2, fp, r0, lsr #27
 3c8:	2f020402 	svccs	0x00020402
 3cc:	02040200 	andeq	r0, r4, #0, 4
 3d0:	040200d5 	streq	r0, [r2], #-213	; 0xd5
 3d4:	062e0601 	strteq	r0, [lr], -r1, lsl #12
 3d8:	9e0f03da 	mcrls	3, 0, r0, cr15, cr10, {6}
 3dc:	084b4c9f 	stmdaeq	fp, {r0, r1, r2, r3, r4, r7, sl, fp, lr}^
 3e0:	03590876 	cmpeq	r9, #7733248	; 0x760000
 3e4:	a12f826c 	teqge	pc, ip, ror #4
 3e8:	91089108 	tstls	r8, r8, lsl #2
 3ec:	9108c908 	tstls	r8, r8, lsl #18
 3f0:	1c029308 	stcne	3, cr9, [r2], {8}
 3f4:	cd010100 	stfgts	f0, [r1, #-0]
 3f8:	02000000 	andeq	r0, r0, #0
 3fc:	00003200 	andeq	r3, r0, r0, lsl #4
 400:	fb010200 	blx	40c0a <__bss_end__+0x369b2>
 404:	01000d0e 	tsteq	r0, lr, lsl #26
 408:	00010101 	andeq	r0, r1, r1, lsl #2
 40c:	00010000 	andeq	r0, r1, r0
 410:	2e2e0100 	sufcse	f0, f6, f0
 414:	636e692f 	cmnvs	lr, #770048	; 0xbc000
 418:	6564756c 	strbvs	r7, [r4, #-1388]!	; 0x56c
 41c:	70670000 	rsbvc	r0, r7, r0
 420:	632e6f69 	teqvs	lr, #420	; 0x1a4
 424:	00000000 	andeq	r0, r0, r0
 428:	6f697067 	svcvs	0x00697067
 42c:	0100682e 	tsteq	r0, lr, lsr #16
 430:	00000000 	andeq	r0, r0, r0
 434:	87580205 	ldrbhi	r0, [r8, -r5, lsl #4]
 438:	20030000 	andcs	r0, r3, r0
 43c:	00080201 	andeq	r0, r8, r1, lsl #4
 440:	05000101 	streq	r0, [r0, #-257]	; 0x101
 444:	00876802 	addeq	r6, r7, r2, lsl #16
 448:	01230300 	teqeq	r3, r0, lsl #6
 44c:	4e4d6701 	cdpmi	7, 4, cr6, cr13, cr1, {0}
 450:	4b842fbc 	blmi	fe10c348 <__bss_end__+0xfe1020f0>
 454:	0006024b 	andeq	r0, r6, fp, asr #4
 458:	05000101 	streq	r0, [r0, #-257]	; 0x101
 45c:	0087cc02 	addeq	ip, r7, r2, lsl #24
 460:	01350300 	teqeq	r5, r0, lsl #6
 464:	2fbc4e67 	svccs	0x00bc4e67
 468:	66780384 	ldrbtvs	r0, [r8], -r4, lsl #7
 46c:	022e0903 	eoreq	r0, lr, #49152	; 0xc000
 470:	01010004 	tsteq	r1, r4
 474:	24020500 	strcs	r0, [r2], #-1280	; 0x500
 478:	03000088 	movweq	r0, #136	; 0x88
 47c:	670100c2 	strvs	r0, [r1, -r2, asr #1]
 480:	01000602 	tsteq	r0, r2, lsl #12
 484:	02050001 	andeq	r0, r5, #1
 488:	0000883c 	andeq	r8, r0, ip, lsr r8
 48c:	0100c603 	tsteq	r0, r3, lsl #12
 490:	00060267 	andeq	r0, r6, r7, ror #4
 494:	05000101 	streq	r0, [r0, #-257]	; 0x101
 498:	00885402 	addeq	r5, r8, r2, lsl #8
 49c:	00cb0300 	sbceq	r0, fp, r0, lsl #6
 4a0:	304e6701 	subcc	r6, lr, r1, lsl #14
 4a4:	6884684b 	stmvs	r4, {r0, r1, r3, r6, fp, sp, lr}
 4a8:	01000c02 	tsteq	r0, r2, lsl #24
 4ac:	02050001 	andeq	r0, r5, #1
 4b0:	000088b4 			; <UNDEFINED> instruction: 0x000088b4
 4b4:	0100dd03 	tsteq	r0, r3, lsl #26
 4b8:	2f684e67 	svccs	0x00684e67
 4bc:	9e780330 	mrcls	3, 3, r0, cr8, cr0, {1}
 4c0:	022e0903 	eoreq	r0, lr, #49152	; 0xc000
 4c4:	01010004 	tsteq	r1, r4
 4c8:	000000b0 	strheq	r0, [r0], -r0	; <UNPREDICTABLE>
 4cc:	001e0002 	andseq	r0, lr, r2
 4d0:	01020000 	mrseq	r0, (UNDEF: 2)
 4d4:	000d0efb 	strdeq	r0, [sp], -fp
 4d8:	01010101 	tsteq	r1, r1, lsl #2
 4dc:	01000000 	mrseq	r0, (UNDEF: 0)
 4e0:	00010000 	andeq	r0, r1, r0
 4e4:	656d6974 	strbvs	r6, [sp, #-2420]!	; 0x974
 4e8:	00632e72 	rsbeq	r2, r3, r2, ror lr
 4ec:	00000000 	andeq	r0, r0, r0
 4f0:	fc020500 	stc2	5, cr0, [r2], {-0}
 4f4:	19000088 	stmdbne	r0, {r3, r7}
 4f8:	01000802 	tsteq	r0, r2, lsl #16
 4fc:	02050001 	andeq	r0, r5, #1
 500:	0000890c 	andeq	r8, r0, ip, lsl #18
 504:	01010903 	tsteq	r1, r3, lsl #18
 508:	04024b68 	streq	r4, [r2], #-2920	; 0xb68
 50c:	00010100 	andeq	r0, r1, r0, lsl #2
 510:	89280205 	stmdbhi	r8!, {r0, r2, r9}
 514:	0e030000 	cdpeq	0, 0, cr0, cr3, cr0, {0}
 518:	2f4c8301 	svccs	0x004c8301
 51c:	0002026a 	andeq	r0, r2, sl, ror #4
 520:	05000101 	streq	r0, [r0, #-257]	; 0x101
 524:	00895402 	addeq	r5, r9, r2, lsl #8
 528:	01180300 	tsteq	r8, r0, lsl #6
 52c:	002d2f84 	eoreq	r2, sp, r4, lsl #31
 530:	2f020402 	svccs	0x00020402
 534:	02040200 	andeq	r0, r4, #0, 4
 538:	04020049 	streq	r0, [r2], #-73	; 0x49
 53c:	062e0601 	strteq	r0, [lr], -r1, lsl #12
 540:	0002024d 	andeq	r0, r2, sp, asr #4
 544:	05000101 	streq	r0, [r0, #-257]	; 0x101
 548:	00898802 	addeq	r8, r9, r2, lsl #16
 54c:	011f0300 	tsteq	pc, r0, lsl #6
 550:	002d2f84 	eoreq	r2, sp, r4, lsl #31
 554:	2f020402 	svccs	0x00020402
 558:	02040200 	andeq	r0, r4, #0, 4
 55c:	04020049 	streq	r0, [r2], #-73	; 0x49
 560:	062e0601 	strteq	r0, [lr], -r1, lsl #12
 564:	0002024d 	andeq	r0, r2, sp, asr #4
 568:	05000101 	streq	r0, [r0, #-257]	; 0x101
 56c:	0089bc02 	addeq	fp, r9, r2, lsl #24
 570:	01260300 	teqeq	r6, r0, lsl #6
 574:	024e2f84 	subeq	r2, lr, #132, 30	; 0x210
 578:	01010002 	tsteq	r1, r2
 57c:	0000026e 	andeq	r0, r0, lr, ror #4
 580:	009f0002 	addseq	r0, pc, r2
 584:	01020000 	mrseq	r0, (UNDEF: 2)
 588:	000d0efb 	strdeq	r0, [sp], -fp
 58c:	01010101 	tsteq	r1, r1, lsl #2
 590:	01000000 	mrseq	r0, (UNDEF: 0)
 594:	2f010000 	svccs	0x00010000
 598:	2f727375 	svccs	0x00727375
 59c:	61636f6c 	cmnvs	r3, ip, ror #30
 5a0:	65432f6c 	strbvs	r2, [r3, #-3948]	; 0xf6c
 5a4:	72616c6c 	rsbvc	r6, r1, #108, 24	; 0x6c00
 5a8:	6d72612f 	ldfvse	f6, [r2, #-188]!	; 0xffffff44
 5ac:	6e6f6e2d 	cdpvs	14, 6, cr6, cr15, cr13, {1}
 5b0:	61652d65 	cmnvs	r5, r5, ror #26
 5b4:	342f6962 	strtcc	r6, [pc], #-2402	; 5bc <_start-0x7a44>
 5b8:	332e382e 	teqcc	lr, #3014656	; 0x2e0000
 5bc:	3173632d 	cmncc	r3, sp, lsr #6
 5c0:	2f653037 	svccs	0x00653037
 5c4:	2f62696c 	svccs	0x0062696c
 5c8:	2f636367 	svccs	0x00636367
 5cc:	2d6d7261 	sfmcs	f7, 2, [sp, #-388]!	; 0xfffffe7c
 5d0:	656e6f6e 	strbvs	r6, [lr, #-3950]!	; 0xf6e
 5d4:	6261652d 	rsbvs	r6, r1, #188743680	; 0xb400000
 5d8:	2e342f69 	cdpcs	15, 3, cr2, cr4, cr9, {3}
 5dc:	2f332e38 	svccs	0x00332e38
 5e0:	6c636e69 	stclvs	14, cr6, [r3], #-420	; 0xfffffe5c
 5e4:	00656475 	rsbeq	r6, r5, r5, ror r4
 5e8:	692f2e2e 	stmdbvs	pc!, {r1, r2, r3, r5, r9, sl, fp, sp}	; <UNPREDICTABLE>
 5ec:	756c636e 	strbvc	r6, [ip, #-878]!	; 0x36e
 5f0:	00006564 	andeq	r6, r0, r4, ror #10
 5f4:	6e697270 	mcrvs	2, 3, r7, cr9, cr0, {3}
 5f8:	632e6674 	teqvs	lr, #116, 12	; 0x7400000
 5fc:	00000000 	andeq	r0, r0, r0
 600:	61647473 	smcvs	18243	; 0x4743
 604:	682e6772 	stmdavs	lr!, {r1, r4, r5, r6, r8, r9, sl, sp, lr}
 608:	00000100 	andeq	r0, r0, r0, lsl #2
 60c:	6975623c 	ldmdbvs	r5!, {r2, r3, r4, r5, r9, sp, lr}^
 610:	692d746c 	pushvs	{r2, r3, r5, r6, sl, ip, sp, lr}
 614:	00003e6e 	andeq	r3, r0, lr, ror #28
 618:	61750000 	cmnvs	r5, r0
 61c:	682e7472 	stmdavs	lr!, {r1, r4, r5, r6, sl, ip, sp, lr}
 620:	00000200 	andeq	r0, r0, r0, lsl #4
 624:	02050000 	andeq	r0, r5, #0
 628:	000089dc 	ldrdeq	r8, [r0], -ip
 62c:	67010e03 	strvs	r0, [r1, -r3, lsl #28]
 630:	01000402 	tsteq	r0, r2, lsl #8
 634:	02050001 	andeq	r0, r5, #1
 638:	000089f0 	strdeq	r8, [r0], -r0
 63c:	67011503 	strvs	r1, [r1, -r3, lsl #10]
 640:	02002d2f 	andeq	r2, r0, #3008	; 0xbc0
 644:	002f0204 	eoreq	r0, pc, r4, lsl #4
 648:	65020402 	strvs	r0, [r2, #-1026]	; 0x402
 64c:	01040200 	mrseq	r0, R12_usr
 650:	4e062e06 	cdpmi	14, 0, cr2, cr6, cr6, {0}
 654:	01000402 	tsteq	r0, r2, lsl #8
 658:	02050001 	andeq	r0, r5, #1
 65c:	00008a28 	andeq	r8, r0, r8, lsr #20
 660:	87012003 	strhi	r2, [r1, -r3]
 664:	0200312b 	andeq	r3, r0, #-1073741814	; 0xc000000a
 668:	2e060204 	cdpcs	2, 0, cr0, cr6, cr4, {0}
 66c:	01040200 	mrseq	r0, R12_usr
 670:	2f4b064a 	svccs	0x004b064a
 674:	2d332f32 	ldccs	15, cr2, [r3, #-200]!	; 0xffffff38
 678:	2f2c2f30 	svccs	0x002c2f30
 67c:	02002c2f 	andeq	r2, r0, #12032	; 0x2f00
 680:	4a060104 	bmi	180a98 <__bss_end__+0x176840>
 684:	492f6c06 	stmdbmi	pc!, {r1, r2, sl, fp, sp, lr}	; <UNPREDICTABLE>
 688:	02009c4b 	andeq	r9, r0, #19200	; 0x4b00
 68c:	4a060104 	bmi	180aa4 <__bss_end__+0x17684c>
 690:	684b4f06 	stmdavs	fp, {r1, r2, r8, r9, sl, fp, lr}^
 694:	0002026a 	andeq	r0, r2, sl, ror #4
 698:	05000101 	streq	r0, [r0, #-257]	; 0x101
 69c:	008af002 	addeq	pc, sl, r2
 6a0:	00c40300 	sbceq	r0, r4, r0, lsl #6
 6a4:	302c8701 	eorcc	r8, ip, r1, lsl #14
 6a8:	02040200 	andeq	r0, r4, #0, 4
 6ac:	02002e06 	andeq	r2, r0, #6, 28	; 0x60
 6b0:	064a0104 	strbeq	r0, [sl], -r4, lsl #2
 6b4:	2f322f4b 	svccs	0x00322f4b
 6b8:	2f302d33 	svccs	0x00302d33
 6bc:	2c2f2f2c 	stccs	15, cr2, [pc], #-176	; 614 <_start-0x79ec>
 6c0:	01040200 	mrseq	r0, R12_usr
 6c4:	6c064a06 	stcvs	10, cr4, [r6], {6}
 6c8:	834b492f 	movthi	r4, #47407	; 0xb92f
 6cc:	7a034c2f 	bvc	d3790 <__bss_end__+0xc9538>
 6d0:	0402004a 	streq	r0, [r2], #-74	; 0x4a
 6d4:	064a0601 	strbeq	r0, [sl], -r1, lsl #12
 6d8:	4b4a0b03 	blmi	12832ec <__bss_end__+0x1279094>
 6dc:	02026a68 	andeq	r6, r2, #104, 20	; 0x68000
 6e0:	00010100 	andeq	r0, r1, r0, lsl #2
 6e4:	8bc80205 	blhi	ff200f00 <__bss_end__+0xff1f6ca8>
 6e8:	ee030000 	cdp	0, 0, cr0, cr3, cr0, {0}
 6ec:	2fd80100 	svccs	0x00d80100
 6f0:	002f2d34 	eoreq	r2, pc, r4, lsr sp	; <UNPREDICTABLE>
 6f4:	06020402 	streq	r0, [r2], -r2, lsl #8
 6f8:	0402004a 	streq	r0, [r2], #-74	; 0x4a
 6fc:	4b068201 	blmi	1a0f08 <__bss_end__+0x196cb0>
 700:	332f322f 	teqcc	pc, #-268435454	; 0xf0000002
 704:	454c834b 	strbmi	r8, [ip, #-843]	; 0x34b
 708:	0402004f 	streq	r0, [r2], #-79	; 0x4f
 70c:	02002901 	andeq	r2, r0, #16384	; 0x4000
 710:	00360104 	eorseq	r0, r6, r4, lsl #2
 714:	4b010402 	blmi	41724 <__bss_end__+0x374cc>
 718:	002c2f49 	eoreq	r2, ip, r9, asr #30
 71c:	06010402 	streq	r0, [r1], -r2, lsl #8
 720:	2f50064a 	svccs	0x0050064a
 724:	2f2c4b2f 	svccs	0x002c4b2f
 728:	0072084b 	rsbseq	r0, r2, fp, asr #16
 72c:	06010402 	streq	r0, [r1], -r2, lsl #8
 730:	4b50064a 	blmi	1402060 <__bss_end__+0x13f7e08>
 734:	0802854c 	stmdaeq	r2, {r2, r3, r6, r8, sl, pc}
 738:	00010100 	andeq	r0, r1, r0, lsl #2
 73c:	8d140205 	lfmhi	f0, 4, [r4, #-20]	; 0xffffffec
 740:	9e030000 	cdpls	0, 0, cr0, cr3, cr0, {0}
 744:	4bc10101 	blmi	ff040b50 <__bss_end__+0xff0368f8>
 748:	002f6b4b 	eoreq	r6, pc, fp, asr #22
 74c:	03010402 	movweq	r0, #5122	; 0x1402
 750:	02006639 	andeq	r6, r0, #59768832	; 0x3900000
 754:	03330104 	teqeq	r3, #4, 2
 758:	2f4b4a46 	svccs	0x004b4a46
 75c:	032f3130 	teqeq	pc, #48, 2
 760:	0b032e77 	bleq	cc144 <__bss_end__+0xc1eec>
 764:	4b4b302e 	blmi	12cc824 <__bss_end__+0x12c25cc>
 768:	2f2f302f 	svccs	0x002f302f
 76c:	032e7903 	teqeq	lr, #49152	; 0xc000
 770:	68322e09 	ldmdavs	r2!, {r0, r3, r9, sl, fp, sp}
 774:	4b2f854b 	blmi	be1ca8 <__bss_end__+0xbd7a50>
 778:	352e7a03 	strcc	r7, [lr, #-2563]!	; 0xa03
 77c:	4d2e7603 	stcmi	6, cr7, [lr, #-12]!
 780:	4b2e0a03 	blmi	b82f94 <__bss_end__+0xb78d3c>
 784:	002c2f67 	eoreq	r2, ip, r7, ror #30
 788:	06010402 	streq	r0, [r1], -r2, lsl #8
 78c:	0402004a 	streq	r0, [r2], #-74	; 0x4a
 790:	6a064a02 	bvs	192fa0 <__bss_end__+0x188d48>
 794:	4b50302f 	blmi	140c858 <__bss_end__+0x1402600>
 798:	2f302f4b 	svccs	0x00302f4b
 79c:	4b4c302f 	blmi	130c860 <__bss_end__+0x1302608>
 7a0:	4bbb4bbb 	blmi	feed3694 <__bss_end__+0xfeec943c>
 7a4:	01040200 	mrseq	r0, R12_usr
 7a8:	d67fbc03 	ldrbtle	fp, [pc], -r3, lsl #24
 7ac:	8200c703 	andhi	ip, r0, #786432	; 0xc0000
 7b0:	4a7fb203 	bmi	1fecfc4 <__bss_end__+0x1fe2d6c>
 7b4:	2e00cf03 	cdpcs	15, 0, cr12, cr0, cr3, {0}
 7b8:	01000202 	tsteq	r0, r2, lsl #4
 7bc:	02050001 	andeq	r0, r5, #1
 7c0:	00008ef4 	strdeq	r8, [r0], -r4
 7c4:	01028003 	tsteq	r2, r3
 7c8:	024d4ba0 	subeq	r4, sp, #160, 22	; 0x28000
 7cc:	01010004 	tsteq	r1, r4
 7d0:	20020500 	andcs	r0, r2, r0, lsl #10
 7d4:	0300008f 	movweq	r0, #143	; 0x8f
 7d8:	be010288 	cdplt	2, 0, cr0, cr1, cr8, {4}
 7dc:	2f4fb74b 	svccs	0x004fb74b
 7e0:	0402002d 	streq	r0, [r2], #-45	; 0x2d
 7e4:	062e0601 	strteq	r0, [lr], -r1, lsl #12
 7e8:	00060287 	andeq	r0, r6, r7, lsl #5
 7ec:	009d0101 	addseq	r0, sp, r1, lsl #2
 7f0:	00020000 	andeq	r0, r2, r0
 7f4:	00000032 	andeq	r0, r0, r2, lsr r0
 7f8:	0efb0102 	cdpeq	1, 15, cr0, cr11, cr2, {0}
 7fc:	0101000d 	tsteq	r1, sp
 800:	00000101 	andeq	r0, r0, r1, lsl #2
 804:	00000100 	andeq	r0, r0, r0, lsl #2
 808:	2f2e2e01 	svccs	0x002e2e01
 80c:	6c636e69 	stclvs	14, cr6, [r3], #-420	; 0xfffffe5c
 810:	00656475 	rsbeq	r6, r5, r5, ror r4
 814:	72617500 	rsbvc	r7, r1, #0, 10
 818:	00632e74 	rsbeq	r2, r3, r4, ror lr
 81c:	67000000 	strvs	r0, [r0, -r0]
 820:	2e6f6970 	mcrcs	9, 3, r6, cr15, cr0, {3}
 824:	00010068 	andeq	r0, r1, r8, rrx
 828:	05000000 	streq	r0, [r0, #-0]
 82c:	008f8802 	addeq	r8, pc, r2, lsl #16
 830:	01290300 	teqeq	r9, r0, lsl #6
 834:	2f4b6869 	svccs	0x004b6869
 838:	4f2f2f4b 	svcmi	0x002f2f4b
 83c:	02684b4c 	rsbeq	r4, r8, #76, 22	; 0x13000
 840:	01010008 	tsteq	r1, r8
 844:	f0020500 			; <UNDEFINED> instruction: 0xf0020500
 848:	0300008f 	movweq	r0, #143	; 0x8f
 84c:	670100c0 	strvs	r0, [r1, -r0, asr #1]
 850:	01040200 	mrseq	r0, R12_usr
 854:	67062e06 	strvs	r2, [r6, -r6, lsl #28]
 858:	0006024b 	andeq	r0, r6, fp, asr #4
 85c:	05000101 	streq	r0, [r0, #-257]	; 0x101
 860:	00902002 	addseq	r2, r0, r2
 864:	00c50300 	sbceq	r0, r5, r0, lsl #6
 868:	004b8301 	subeq	r8, fp, r1, lsl #6
 86c:	4c010402 	cfstrsmi	mvf0, [r1], {2}
 870:	00080283 	andeq	r0, r8, r3, lsl #5
 874:	05000101 	streq	r0, [r0, #-257]	; 0x101
 878:	00906002 	addseq	r6, r0, r2
 87c:	00cd0300 	sbceq	r0, sp, r0, lsl #6
 880:	02006701 	andeq	r6, r0, #262144	; 0x40000
 884:	2e060104 	adfcss	f0, f6, f4
 888:	04026706 	streq	r6, [r2], #-1798	; 0x706
 88c:	86010100 	strhi	r0, [r1], -r0, lsl #2
 890:	02000000 	andeq	r0, r0, #0
 894:	00004700 	andeq	r4, r0, r0, lsl #14
 898:	fb010200 	blx	410a2 <__bss_end__+0x36e4a>
 89c:	01000d0e 	tsteq	r0, lr, lsl #26
 8a0:	00010101 	andeq	r0, r1, r1, lsl #2
 8a4:	00010000 	andeq	r0, r1, r0
 8a8:	2e2e0100 	sufcse	f0, f6, f0
 8ac:	636e692f 	cmnvs	lr, #770048	; 0xbc000
 8b0:	6564756c 	strbvs	r7, [r4, #-1388]!	; 0x56c
 8b4:	70670000 	rsbvc	r0, r7, r0
 8b8:	78656f69 	stmdavc	r5!, {r0, r3, r5, r6, r8, r9, sl, fp, sp, lr}^
 8bc:	2e617274 	mcrcs	2, 3, r7, cr1, cr4, {3}
 8c0:	00000063 	andeq	r0, r0, r3, rrx
 8c4:	69706700 	ldmdbvs	r0!, {r8, r9, sl, sp, lr}^
 8c8:	7478656f 	ldrbtvc	r6, [r8], #-1391	; 0x56f
 8cc:	682e6172 	stmdavs	lr!, {r1, r4, r5, r6, r8, sp, lr}
 8d0:	00000100 	andeq	r0, r0, r0, lsl #2
 8d4:	656d6974 	strbvs	r6, [sp, #-2420]!	; 0x974
 8d8:	00682e72 	rsbeq	r2, r8, r2, ror lr
 8dc:	00000001 	andeq	r0, r0, r1
 8e0:	84020500 	strhi	r0, [r2], #-1280	; 0x500
 8e4:	03000090 	movweq	r0, #144	; 0x90
 8e8:	4e830112 	mcrmi	1, 4, r0, cr3, cr2, {0}
 8ec:	4c834d67 	stcmi	13, cr4, [r3], {103}	; 0x67
 8f0:	022f4c4b 	eoreq	r4, pc, #19200	; 0x4b00
 8f4:	01010008 	tsteq	r1, r8
 8f8:	ec020500 	cfstr32	mvfx0, [r2], {-0}
 8fc:	03000090 	movweq	r0, #144	; 0x90
 900:	4e670125 	powmisp	f0, f7, f5
 904:	01000602 	tsteq	r0, r2, lsl #12
 908:	02050001 	andeq	r0, r5, #1
 90c:	0000910c 	andeq	r9, r0, ip, lsl #2
 910:	67012d03 	strvs	r2, [r1, -r3, lsl #26]
 914:	01000602 	tsteq	r0, r2, lsl #12
 918:	00008301 	andeq	r8, r0, r1, lsl #6
 91c:	31000200 	mrscc	r0, R8_usr
 920:	02000000 	andeq	r0, r0, #0
 924:	0d0efb01 	vstreq	d15, [lr, #-4]
 928:	01010100 	mrseq	r0, (UNDEF: 17)
 92c:	00000001 	andeq	r0, r0, r1
 930:	01000001 	tsteq	r0, r1
 934:	692f2e2e 	stmdbvs	pc!, {r1, r2, r3, r5, r9, sl, fp, sp}	; <UNPREDICTABLE>
 938:	756c636e 	strbvc	r6, [ip, #-878]!	; 0x36e
 93c:	00006564 	andeq	r6, r0, r4, ror #10
 940:	2e697073 	mcrcs	0, 3, r7, cr9, cr3, {3}
 944:	00000063 	andeq	r0, r0, r3, rrx
 948:	69706700 	ldmdbvs	r0!, {r8, r9, sl, sp, lr}^
 94c:	00682e6f 	rsbeq	r2, r8, pc, ror #28
 950:	00000001 	andeq	r0, r0, r1
 954:	24020500 	strcs	r0, [r2], #-1280	; 0x500
 958:	03000091 	movweq	r0, #145	; 0x91
 95c:	679f0115 			; <UNDEFINED> instruction: 0x679f0115
 960:	68676767 	stmdavs	r7!, {r0, r1, r2, r5, r6, r8, r9, sl, sp, lr}^
 964:	9f4b8483 	svcls	0x004b8483
 968:	0a02a14b 	beq	a8e9c <__bss_end__+0x9ec44>
 96c:	00010100 	andeq	r0, r1, r0, lsl #2
 970:	91e00205 	mvnls	r0, r5, lsl #4
 974:	28030000 	stmdacs	r3, {}	; <UNPREDICTABLE>
 978:	2fa06701 	svccs	0x00a06701
 97c:	0402002d 	streq	r0, [r2], #-45	; 0x2d
 980:	00832f01 	addeq	r2, r3, r1, lsl #30
 984:	4c010402 	cfstrsmi	mvf0, [r1], {2}
 988:	01040200 	mrseq	r0, R12_usr
 98c:	7a036767 	bvc	da730 <__bss_end__+0xd04d8>
 990:	0402004a 	streq	r0, [r2], #-74	; 0x4a
 994:	062e0601 	strteq	r0, [lr], -r1, lsl #12
 998:	02660903 	rsbeq	r0, r6, #49152	; 0xc000
 99c:	0101000e 	tsteq	r1, lr
 9a0:	00000086 	andeq	r0, r0, r6, lsl #1
 9a4:	00470002 	subeq	r0, r7, r2
 9a8:	01020000 	mrseq	r0, (UNDEF: 2)
 9ac:	000d0efb 	strdeq	r0, [sp], -fp
 9b0:	01010101 	tsteq	r1, r1, lsl #2
 9b4:	01000000 	mrseq	r0, (UNDEF: 0)
 9b8:	2e010000 	cdpcs	0, 0, cr0, cr1, cr0, {0}
 9bc:	2e2e2f2e 	cdpcs	15, 2, cr2, cr14, cr14, {1}
 9c0:	2f2e2e2f 	svccs	0x002e2e2f
 9c4:	2d636367 	stclcs	3, cr6, [r3, #-412]!	; 0xfffffe64
 9c8:	2e382e34 	mrccs	14, 1, r2, cr8, cr4, {1}
 9cc:	696c2f33 	stmdbvs	ip!, {r0, r1, r4, r5, r8, r9, sl, fp, sp}^
 9d0:	63636762 	cmnvs	r3, #25690112	; 0x1880000
 9d4:	6e6f632f 	cdpvs	3, 6, cr6, cr15, cr15, {1}
 9d8:	2f676966 	svccs	0x00676966
 9dc:	006d7261 	rsbeq	r7, sp, r1, ror #4
 9e0:	62696c00 	rsbvs	r6, r9, #0, 24
 9e4:	6e756631 	mrcvs	6, 3, r6, cr5, cr1, {1}
 9e8:	532e7363 	teqpl	lr, #-1946157055	; 0x8c000001
 9ec:	00000100 	andeq	r0, r0, r0, lsl #2
 9f0:	02050000 	andeq	r0, r5, #0
 9f4:	00009270 	andeq	r9, r0, r0, ror r2
 9f8:	0107cf03 	tsteq	r7, r3, lsl #30
 9fc:	2f2f2f30 	svccs	0x002f2f30
 a00:	fe032f2f 	cdp2	15, 0, cr2, cr3, cr15, {1}
 a04:	86032e7c 			; <UNDEFINED> instruction: 0x86032e7c
 a08:	013e0203 	teqeq	lr, r3, lsl #4
 a0c:	2f2f312f 	svccs	0x002f312f
 a10:	2e7db703 	cdpcs	7, 7, cr11, cr13, cr3, {0}
 a14:	0802cd03 	stmdaeq	r2, {r0, r1, r8, sl, fp, lr, pc}
 a18:	03322f90 	teqeq	r2, #144, 30	; 0x240
 a1c:	2f2f6616 	svccs	0x002f6616
 a20:	2f2f2f2f 	svccs	0x002f2f2f
 a24:	0002022f 	andeq	r0, r2, pc, lsr #4
 a28:	005d0101 	subseq	r0, sp, r1, lsl #2
 a2c:	00020000 	andeq	r0, r2, r0
 a30:	00000047 	andeq	r0, r0, r7, asr #32
 a34:	0efb0102 	cdpeq	1, 15, cr0, cr11, cr2, {0}
 a38:	0101000d 	tsteq	r1, sp
 a3c:	00000101 	andeq	r0, r0, r1, lsl #2
 a40:	00000100 	andeq	r0, r0, r0, lsl #2
 a44:	2f2e2e01 	svccs	0x002e2e01
 a48:	2e2f2e2e 	cdpcs	14, 2, cr2, cr15, cr14, {1}
 a4c:	63672f2e 	cmnvs	r7, #46, 30	; 0xb8
 a50:	2e342d63 	cdpcs	13, 3, cr2, cr4, cr3, {3}
 a54:	2f332e38 	svccs	0x00332e38
 a58:	6762696c 	strbvs	r6, [r2, -ip, ror #18]!
 a5c:	632f6363 	teqvs	pc, #-1946157055	; 0x8c000001
 a60:	69666e6f 	stmdbvs	r6!, {r0, r1, r2, r3, r5, r6, r9, sl, fp, sp, lr}^
 a64:	72612f67 	rsbvc	r2, r1, #412	; 0x19c
 a68:	6c00006d 	stcvs	0, cr0, [r0], {109}	; 0x6d
 a6c:	66316269 	ldrtvs	r6, [r1], -r9, ror #4
 a70:	73636e75 	cmnvc	r3, #1872	; 0x750
 a74:	0100532e 	tsteq	r0, lr, lsr #6
 a78:	00000000 	andeq	r0, r0, r0
 a7c:	93840205 	orrls	r0, r4, #1342177280	; 0x50000000
 a80:	96030000 	strls	r0, [r3], -r0
 a84:	0202010a 	andeq	r0, r2, #-2147483646	; 0x80000002
 a88:	60010100 	andvs	r0, r1, r0, lsl #2
 a8c:	02000001 	andeq	r0, r0, #1
 a90:	00004800 	andeq	r4, r0, r0, lsl #16
 a94:	fb010200 	blx	4129e <__bss_end__+0x37046>
 a98:	01000d0e 	tsteq	r0, lr, lsl #26
 a9c:	00010101 	andeq	r0, r1, r1, lsl #2
 aa0:	00010000 	andeq	r0, r1, r0
 aa4:	2e2e0100 	sufcse	f0, f6, f0
 aa8:	2f2e2e2f 	svccs	0x002e2e2f
 aac:	672f2e2e 	strvs	r2, [pc, -lr, lsr #28]!
 ab0:	342d6363 	strtcc	r6, [sp], #-867	; 0x363
 ab4:	332e382e 	teqcc	lr, #3014656	; 0x2e0000
 ab8:	62696c2f 	rsbvs	r6, r9, #12032	; 0x2f00
 abc:	2f636367 	svccs	0x00636367
 ac0:	666e6f63 	strbtvs	r6, [lr], -r3, ror #30
 ac4:	612f6769 	teqvs	pc, r9, ror #14
 ac8:	00006d72 	andeq	r6, r0, r2, ror sp
 acc:	65656569 	strbvs	r6, [r5, #-1385]!	; 0x569
 ad0:	2d343537 	cfldr32cs	mvfx3, [r4, #-220]!	; 0xffffff24
 ad4:	532e6664 	teqpl	lr, #100, 12	; 0x6400000
 ad8:	00000100 	andeq	r0, r0, r0, lsl #2
 adc:	02050000 	andeq	r0, r5, #0
 ae0:	00009388 	andeq	r9, r0, r8, lsl #7
 ae4:	0100c503 	tsteq	r0, r3, lsl #10
 ae8:	3136332f 	teqcc	r6, pc, lsr #6
 aec:	30302f2f 	eorscc	r2, r0, pc, lsr #30
 af0:	2f2f2f2f 	svccs	0x002f2f2f
 af4:	2f302f32 	svccs	0x00302f32
 af8:	2f2f2f2f 	svccs	0x002f2f2f
 afc:	332f2f2f 	teqcc	pc, #47, 30	; 0xbc
 b00:	2f2f4d30 	svccs	0x002f4d30
 b04:	2f332f2f 	svccs	0x00332f2f
 b08:	2f2f2f31 	svccs	0x002f2f31
 b0c:	2f332f33 	svccs	0x00332f33
 b10:	2f2f3132 	svccs	0x002f3132
 b14:	2f2f2f2f 	svccs	0x002f2f2f
 b18:	2f2f2f2f 	svccs	0x002f2f2f
 b1c:	2f2f302f 	svccs	0x002f302f
 b20:	2f352f32 	svccs	0x00352f32
 b24:	2f2f332f 	svccs	0x002f332f
 b28:	2f2f312f 	svccs	0x002f312f
 b2c:	2f2f312f 	svccs	0x002f312f
 b30:	2f2f3035 	svccs	0x002f3035
 b34:	2f4e2f2f 	svccs	0x004e2f2f
 b38:	2f2f2f2f 	svccs	0x002f2f2f
 b3c:	2f2f2f35 	svccs	0x002f2f35
 b40:	2f2f2f2f 	svccs	0x002f2f2f
 b44:	2f2f2f2f 	svccs	0x002f2f2f
 b48:	2f2f2f2f 	svccs	0x002f2f2f
 b4c:	032f2f2f 	teqeq	pc, #47, 30	; 0xbc
 b50:	2f2f2e10 	svccs	0x002f2e10
 b54:	2f2f322f 	svccs	0x002f322f
 b58:	30322f2f 	eorscc	r2, r2, pc, lsr #30
 b5c:	322f352f 	eorcc	r3, pc, #197132288	; 0xbc00000
 b60:	4e2f2f30 	mcrmi	15, 1, r2, cr15, cr0, {1}
 b64:	2f2f2f2f 	svccs	0x002f2f2f
 b68:	2f2f2f31 	svccs	0x002f2f31
 b6c:	2f4e2f2f 	svccs	0x004e2f2f
 b70:	2f2f2f2f 	svccs	0x002f2f2f
 b74:	4f2f2f4e 	svcmi	0x002f2f4e
 b78:	2f2f302f 	svccs	0x002f302f
 b7c:	2f30322f 	svccs	0x0030322f
 b80:	312f3030 	teqcc	pc, r0, lsr r0	; <UNPREDICTABLE>
 b84:	4c2f2f30 	stcmi	15, cr2, [pc], #-192	; acc <_start-0x7534>
 b88:	4d2f2f32 	stcmi	15, cr2, [pc, #-200]!	; ac8 <_start-0x7538>
 b8c:	302f2f2f 	eorcc	r2, pc, pc, lsr #30
 b90:	2f304b2f 	svccs	0x00304b2f
 b94:	2f2f324b 	svccs	0x002f324b
 b98:	4a09032f 	bmi	24185c <__bss_end__+0x237604>
 b9c:	302f2f30 	eorcc	r2, pc, r0, lsr pc	; <UNPREDICTABLE>
 ba0:	2f302f2f 	svccs	0x00302f2f
 ba4:	0a032f2f 	beq	cc868 <__bss_end__+0xc2610>
 ba8:	2f2f304a 	svccs	0x002f304a
 bac:	322f2f2f 	eorcc	r2, pc, #47, 30	; 0xbc
 bb0:	2f30362f 	svccs	0x0030362f
 bb4:	2f2f2f2f 	svccs	0x002f2f2f
 bb8:	362f3230 			; <UNDEFINED> instruction: 0x362f3230
 bbc:	302f2f2f 	eorcc	r2, pc, pc, lsr #30
 bc0:	302f2f2f 	eorcc	r2, pc, pc, lsr #30
 bc4:	2f312f30 	svccs	0x00312f30
 bc8:	362f2f2f 	strtcc	r2, [pc], -pc, lsr #30
 bcc:	2f303030 	svccs	0x00303030
 bd0:	30303033 	eorscc	r3, r0, r3, lsr r0
 bd4:	312f332f 	teqcc	pc, pc, lsr #6
 bd8:	2e09032f 	cdpcs	3, 0, cr0, cr9, cr15, {1}
 bdc:	302f312f 	eorcc	r3, pc, pc, lsr #2
 be0:	302f302f 	eorcc	r3, pc, pc, lsr #32
 be4:	2f2f2f2f 	svccs	0x002f2f2f
 be8:	02022f2f 	andeq	r2, r2, #47, 30	; 0xbc
 bec:	7c010100 	stfvcs	f0, [r1], {-0}
 bf0:	02000001 	andeq	r0, r0, #1
 bf4:	00004800 	andeq	r4, r0, r0, lsl #16
 bf8:	fb010200 	blx	41402 <__bss_end__+0x371aa>
 bfc:	01000d0e 	tsteq	r0, lr, lsl #26
 c00:	00010101 	andeq	r0, r1, r1, lsl #2
 c04:	00010000 	andeq	r0, r1, r0
 c08:	2e2e0100 	sufcse	f0, f6, f0
 c0c:	2f2e2e2f 	svccs	0x002e2e2f
 c10:	672f2e2e 	strvs	r2, [pc, -lr, lsr #28]!
 c14:	342d6363 	strtcc	r6, [sp], #-867	; 0x363
 c18:	332e382e 	teqcc	lr, #3014656	; 0x2e0000
 c1c:	62696c2f 	rsbvs	r6, r9, #12032	; 0x2f00
 c20:	2f636367 	svccs	0x00636367
 c24:	666e6f63 	strbtvs	r6, [lr], -r3, ror #30
 c28:	612f6769 	teqvs	pc, r9, ror #14
 c2c:	00006d72 	andeq	r6, r0, r2, ror sp
 c30:	65656569 	strbvs	r6, [r5, #-1385]!	; 0x569
 c34:	2d343537 	cfldr32cs	mvfx3, [r4, #-220]!	; 0xffffff24
 c38:	532e6664 	teqpl	lr, #100, 12	; 0x6400000
 c3c:	00000100 	andeq	r0, r0, r0, lsl #2
 c40:	02050000 	andeq	r0, r5, #0
 c44:	000097a4 	andeq	r9, r0, r4, lsr #15
 c48:	0104b303 	tsteq	r4, r3, lsl #6
 c4c:	302f2f31 	eorcc	r2, pc, r1, lsr pc	; <UNPREDICTABLE>
 c50:	312f2f2f 	teqcc	pc, pc, lsr #30
 c54:	2f2f3231 	svccs	0x002f3231
 c58:	2f2f2f30 	svccs	0x002f2f30
 c5c:	2e00c103 	mvfcss	f4, f3
 c60:	2f2f2f2f 	svccs	0x002f2f2f
 c64:	30342f2f 	eorscc	r2, r4, pc, lsr #30
 c68:	2f2f2f31 	svccs	0x002f2f31
 c6c:	312f2f2f 	teqcc	pc, pc, lsr #30
 c70:	2f2f2f2f 	svccs	0x002f2f2f
 c74:	312f3031 	teqcc	pc, r1, lsr r0	; <UNPREDICTABLE>
 c78:	2f2f2f30 	svccs	0x002f2f30
 c7c:	2f2f2f4e 	svccs	0x002f2f4e
 c80:	2f2f302f 	svccs	0x002f302f
 c84:	322f2f4d 	eorcc	r2, pc, #308	; 0x134
 c88:	2f2f3031 	svccs	0x002f3031
 c8c:	2f2f2f4d 	svccs	0x002f2f4d
 c90:	2f2f312f 	svccs	0x002f312f
 c94:	2f2f2f2f 	svccs	0x002f2f2f
 c98:	302f2f2f 	eorcc	r2, pc, pc, lsr #30
 c9c:	2f2f4e2f 	svccs	0x002f4e2f
 ca0:	2f2f2f2f 	svccs	0x002f2f2f
 ca4:	2f302f2f 	svccs	0x00302f2f
 ca8:	2f2f2f4e 	svccs	0x002f2f4e
 cac:	2f2f2f2f 	svccs	0x002f2f2f
 cb0:	4f2f302f 	svcmi	0x002f302f
 cb4:	2f2f2f2f 	svccs	0x002f2f2f
 cb8:	2f2f302f 	svccs	0x002f302f
 cbc:	2f2f302f 	svccs	0x002f302f
 cc0:	2f302f2f 	svccs	0x00302f2f
 cc4:	2f322f2f 	svccs	0x00322f2f
 cc8:	30312f30 	eorscc	r2, r1, r0, lsr pc
 ccc:	2f2f322f 	svccs	0x002f322f
 cd0:	2f304d2f 	svccs	0x00304d2f
 cd4:	2f2f2f2f 	svccs	0x002f2f2f
 cd8:	2f2f2f2f 	svccs	0x002f2f2f
 cdc:	2f2f302f 	svccs	0x002f302f
 ce0:	2f2f3232 	svccs	0x002f3232
 ce4:	2f4e2f2f 	svccs	0x004e2f2f
 ce8:	2f31522f 	svccs	0x0031522f
 cec:	2f2f302f 	svccs	0x002f302f
 cf0:	3231312f 	eorscc	r3, r1, #-1073741813	; 0xc000000b
 cf4:	2f2f2f2f 	svccs	0x002f2f2f
 cf8:	2f2f2f2f 	svccs	0x002f2f2f
 cfc:	32312f2f 	eorscc	r2, r1, #47, 30	; 0xbc
 d00:	2f2f2f30 	svccs	0x002f2f30
 d04:	2f312f2f 	svccs	0x00312f2f
 d08:	2f2f2f2f 	svccs	0x002f2f2f
 d0c:	2f302f31 	svccs	0x00302f31
 d10:	2f2f2f2f 	svccs	0x002f2f2f
 d14:	2f2f302f 	svccs	0x002f302f
 d18:	2f2f2f2f 	svccs	0x002f2f2f
 d1c:	2f2f2f30 	svccs	0x002f2f30
 d20:	302f2f2f 	eorcc	r2, pc, pc, lsr #30
 d24:	2f302f2f 	svccs	0x00302f2f
 d28:	2f2f2f2f 	svccs	0x002f2f2f
 d2c:	2f2f2f2f 	svccs	0x002f2f2f
 d30:	2f2f2f32 	svccs	0x002f2f32
 d34:	30312f2f 	eorscc	r2, r1, pc, lsr #30
 d38:	2f30312f 	svccs	0x0030312f
 d3c:	2f2f3031 	svccs	0x002f3031
 d40:	2f4e2f2f 	svccs	0x004e2f2f
 d44:	2f2f302f 	svccs	0x002f302f
 d48:	2f2f2f4c 	svccs	0x002f2f4c
 d4c:	2f322f33 	svccs	0x00322f33
 d50:	2f2f2f30 	svccs	0x002f2f30
 d54:	2f2f2f2f 	svccs	0x002f2f2f
 d58:	2f2f2f2f 	svccs	0x002f2f2f
 d5c:	2f2f2f2f 	svccs	0x002f2f2f
 d60:	30302f2f 	eorscc	r2, r0, pc, lsr #30
 d64:	2f2f302f 	svccs	0x002f302f
 d68:	02022f2f 	andeq	r2, r2, #47, 30	; 0xbc
 d6c:	aa010100 	bge	41174 <__bss_end__+0x36f1c>
 d70:	02000000 	andeq	r0, r0, #0
 d74:	00004800 	andeq	r4, r0, r0, lsl #16
 d78:	fb010200 	blx	41582 <__bss_end__+0x3732a>
 d7c:	01000d0e 	tsteq	r0, lr, lsl #26
 d80:	00010101 	andeq	r0, r1, r1, lsl #2
 d84:	00010000 	andeq	r0, r1, r0
 d88:	2e2e0100 	sufcse	f0, f6, f0
 d8c:	2f2e2e2f 	svccs	0x002e2e2f
 d90:	672f2e2e 	strvs	r2, [pc, -lr, lsr #28]!
 d94:	342d6363 	strtcc	r6, [sp], #-867	; 0x363
 d98:	332e382e 	teqcc	lr, #3014656	; 0x2e0000
 d9c:	62696c2f 	rsbvs	r6, r9, #12032	; 0x2f00
 da0:	2f636367 	svccs	0x00636367
 da4:	666e6f63 	strbtvs	r6, [lr], -r3, ror #30
 da8:	612f6769 	teqvs	pc, r9, ror #14
 dac:	00006d72 	andeq	r6, r0, r2, ror sp
 db0:	65656569 	strbvs	r6, [r5, #-1385]!	; 0x569
 db4:	2d343537 	cfldr32cs	mvfx3, [r4, #-220]!	; 0xffffff24
 db8:	532e6664 	teqpl	lr, #100, 12	; 0x6400000
 dbc:	00000100 	andeq	r0, r0, r0, lsl #2
 dc0:	02050000 	andeq	r0, r5, #0
 dc4:	00009c40 	andeq	r9, r0, r0, asr #24
 dc8:	0108a903 	tsteq	r8, r3, lsl #18
 dcc:	332f322f 	teqcc	pc, #-268435454	; 0xf0000002
 dd0:	2f2f3130 	svccs	0x002f3130
 dd4:	2f322f30 	svccs	0x00322f30
 dd8:	2f302f30 	svccs	0x00302f30
 ddc:	3231312f 	eorscc	r3, r1, #-1073741813	; 0xc000000b
 de0:	2f2f3230 	svccs	0x002f3230
 de4:	2f2f312f 	svccs	0x002f312f
 de8:	2f2f2f2f 	svccs	0x002f2f2f
 dec:	2f2f2f2f 	svccs	0x002f2f2f
 df0:	2e0c032f 	cdpcs	3, 0, cr0, cr12, cr15, {1}
 df4:	2f2f2f2f 	svccs	0x002f2f2f
 df8:	2f352f2f 	svccs	0x00352f2f
 dfc:	522f3230 	eorpl	r3, pc, #48, 4
 e00:	2f2f302f 	svccs	0x002f302f
 e04:	2f302f50 	svccs	0x00302f50
 e08:	302f502f 	eorcc	r5, pc, pc, lsr #32
 e0c:	2f502f2f 	svccs	0x00502f2f
 e10:	502f2f30 	eorpl	r2, pc, r0, lsr pc	; <UNPREDICTABLE>
 e14:	302f302f 	eorcc	r3, pc, pc, lsr #32
 e18:	01000402 	tsteq	r0, r2, lsl #8
 e1c:	00007401 	andeq	r7, r0, r1, lsl #8
 e20:	48000200 	stmdami	r0, {r9}
 e24:	02000000 	andeq	r0, r0, #0
 e28:	0d0efb01 	vstreq	d15, [lr, #-4]
 e2c:	01010100 	mrseq	r0, (UNDEF: 17)
 e30:	00000001 	andeq	r0, r0, r1
 e34:	01000001 	tsteq	r0, r1
 e38:	2e2f2e2e 	cdpcs	14, 2, cr2, cr15, cr14, {1}
 e3c:	2e2e2f2e 	cdpcs	15, 2, cr2, cr14, cr14, {1}
 e40:	6363672f 	cmnvs	r3, #12320768	; 0xbc0000
 e44:	382e342d 	stmdacc	lr!, {r0, r2, r3, r5, sl, ip, sp}
 e48:	6c2f332e 	stcvs	3, cr3, [pc], #-184	; d98 <_start-0x7268>
 e4c:	63676269 	cmnvs	r7, #-1879048186	; 0x90000006
 e50:	6f632f63 	svcvs	0x00632f63
 e54:	6769666e 	strbvs	r6, [r9, -lr, ror #12]!
 e58:	6d72612f 	ldfvse	f6, [r2, #-188]!	; 0xffffff44
 e5c:	65690000 	strbvs	r0, [r9, #-0]!
 e60:	35376565 	ldrcc	r6, [r7, #-1381]!	; 0x565
 e64:	66642d34 			; <UNDEFINED> instruction: 0x66642d34
 e68:	0100532e 	tsteq	r0, lr, lsr #6
 e6c:	00000000 	andeq	r0, r0, r0
 e70:	9d840205 	sfmls	f0, 4, [r4, #20]
 e74:	ec030000 	stc	0, cr0, [r3], {-0}
 e78:	2f2f0109 	svccs	0x002f0109
 e7c:	2f2f2f2f 	svccs	0x002f2f2f
 e80:	2f2f2f31 	svccs	0x002f2f31
 e84:	302f302f 	eorcc	r3, pc, pc, lsr #32
 e88:	2f2f302f 	svccs	0x002f302f
 e8c:	2f302f30 	svccs	0x00302f30
 e90:	01000202 	tsteq	r0, r2, lsl #4
 e94:	Address 0x0000000000000e94 is out of bounds.


Disassembly of section .debug_str:

00000000 <.debug_str>:
   0:	4c4f4857 	mcrrmi	8, 5, r4, pc, cr7
   4:	45520045 	ldrbmi	r0, [r2, #-69]	; 0x45
   8:	6c005453 	cfstrsvs	mvf5, [r0], {83}	; 0x53
   c:	20676e6f 	rsbcs	r6, r7, pc, ror #28
  10:	676e6f6c 	strbvs	r6, [lr, -ip, ror #30]!
  14:	736e7520 	cmnvc	lr, #32, 10	; 0x8000000
  18:	656e6769 	strbvs	r6, [lr, #-1897]!	; 0x769
  1c:	6e692064 	cdpvs	0, 6, cr2, cr9, cr4, {3}
  20:	6f6c0074 	svcvs	0x006c0074
  24:	6c20676e 	stcvs	7, cr6, [r0], #-440	; 0xfffffe48
  28:	20676e6f 	rsbcs	r6, r7, pc, ror #28
  2c:	00746e69 	rsbseq	r6, r4, r9, ror #28
  30:	62756f64 	rsbsvs	r6, r5, #100, 30	; 0x190
  34:	2f00656c 	svccs	0x0000656c
  38:	72657355 	rsbvc	r7, r5, #1409286145	; 0x54000001
  3c:	61682f73 	smcvs	33523	; 0x82f3
  40:	73697272 	cmnvc	r9, #536870919	; 0x20000007
  44:	72626e6f 	rsbvc	r6, r2, #1776	; 0x6f0
  48:	65666e6f 	strbvs	r6, [r6, #-3695]!	; 0xe6f
  4c:	682f646c 	stmdavs	pc!, {r2, r3, r5, r6, sl, sp, lr}	; <UNPREDICTABLE>
  50:	62687361 	rsbvs	r7, r8, #-2080374783	; 0x84000001
  54:	2d6e6f72 	stclcs	15, cr6, [lr, #-456]!	; 0xfffffe38
  58:	2d616461 	cfstrdcs	mvd6, [r1, #-388]!	; 0xfffffe7c
  5c:	756f687a 	strbvc	r6, [pc, #-2170]!	; fffff7ea <__bss_end__+0xffff5592>
  60:	544f4800 	strbpl	r4, [pc], #-2048	; 68 <_start-0x7f98>
  64:	4f52435f 	svcmi	0x0052435f
  68:	425f5353 	subsmi	r5, pc, #1275068417	; 0x4c000001
  6c:	00534e55 	subseq	r4, r3, r5, asr lr
  70:	657a6973 	ldrbvs	r6, [sl, #-2419]!	; 0x973
  74:	554e4700 	strbpl	r4, [lr, #-1792]	; 0x700
  78:	34204320 	strtcc	r4, [r0], #-800	; 0x320
  7c:	332e382e 	teqcc	lr, #3014656	; 0x2e0000
  80:	20672d20 	rsbcs	r2, r7, r0, lsr #26
  84:	20674f2d 	rsbcs	r4, r7, sp, lsr #30
  88:	6474732d 	ldrbtvs	r7, [r4], #-813	; 0x32d
  8c:	3939633d 	ldmdbcc	r9!, {r0, r2, r3, r4, r5, r8, r9, sp, lr}
  90:	66662d20 	strbtvs	r2, [r6], -r0, lsr #26
  94:	73656572 	cmnvc	r5, #478150656	; 0x1c800000
  98:	646e6174 	strbtvs	r6, [lr], #-372	; 0x174
  9c:	00676e69 	rsbeq	r6, r7, r9, ror #28
  a0:	657a6973 	ldrbvs	r6, [sl, #-2419]!	; 0x973
  a4:	65707974 	ldrbvs	r7, [r0, #-2420]!	; 0x974
  a8:	49575400 	ldmdbmi	r7, {sl, ip, lr}^
  ac:	454c4b4e 	strbmi	r4, [ip, #-2894]	; 0xb4e
  b0:	4957545f 	ldmdbmi	r7, {r0, r1, r2, r3, r4, r6, sl, ip, lr}^
  b4:	454c4b4e 	strbmi	r4, [ip, #-2894]	; 0xb4e
  b8:	736e7500 	cmnvc	lr, #0, 10
  bc:	656e6769 	strbvs	r6, [lr, #-1897]!	; 0x769
  c0:	68632064 	stmdavs	r3!, {r2, r5, r6, sp}^
  c4:	73007261 	movwvc	r7, #609	; 0x261
  c8:	74726f68 	ldrbtvc	r6, [r2], #-3944	; 0xf68
  cc:	746e6920 	strbtvc	r6, [lr], #-2336	; 0x920
  d0:	6e6f7400 	cdpvs	4, 6, cr7, cr15, cr0, {0}
  d4:	745f7365 	ldrbvc	r7, [pc], #-869	; dc <_start-0x7f24>
  d8:	6d697400 	cfstrdvs	mvd7, [r9, #-0]
  dc:	745f7365 	ldrbvc	r7, [pc], #-869	; e4 <_start-0x7f1c>
  e0:	6d777000 	ldclvs	0, cr7, [r7, #-0]
  e4:	6e69732d 	cdpvs	3, 6, cr7, cr9, cr13, {1}
  e8:	00632e65 	rsbeq	r2, r3, r5, ror #28
  ec:	726f6873 	rsbvc	r6, pc, #7536640	; 0x730000
  f0:	6e752074 	mrcvs	0, 3, r2, cr5, cr4, {3}
  f4:	6e676973 	mcrvs	9, 3, r6, cr7, cr3, {3}
  f8:	69206465 	stmdbvs	r0!, {r0, r2, r5, r6, sl, sp, lr}
  fc:	6e00746e 	cdpvs	4, 0, cr7, cr0, cr14, {3}
 100:	7365746f 	cmnvc	r5, #1862270976	; 0x6f000000
 104:	6e00745f 	cfmvsrvs	mvf0, r7
 108:	7365746f 	cmnvc	r5, #1862270976	; 0x6f000000
 10c:	4c414800 	mcrrmi	8, 0, r4, r1, cr0
 110:	49460046 	stmdbmi	r6, {r1, r2, r6}^
 114:	4f574552 	svcmi	0x00574552
 118:	00534b52 	subseq	r4, r3, r2, asr fp
 11c:	6e69616d 	powvsez	f6, f1, #5.0
 120:	6e6f7300 	cdpvs	3, 6, cr7, cr15, cr0, {0}
 124:	745f7367 	ldrbvc	r7, [pc], #-871	; 12c <_start-0x7ed4>
 128:	625f5f00 	subsvs	r5, pc, #0, 30
 12c:	655f7373 	ldrbvs	r7, [pc, #-883]	; fffffdc1 <__bss_end__+0xffff5b69>
 130:	5f5f646e 	svcpl	0x005f646e
 134:	73736200 	cmnvc	r3, #0, 4
 138:	646e655f 	strbtvs	r6, [lr], #-1375	; 0x55f
 13c:	74736300 	ldrbtvc	r6, [r3], #-768	; 0x300
 140:	2e747261 	cdpcs	2, 7, cr7, cr4, cr1, {3}
 144:	635f0063 	cmpvs	pc, #99	; 0x63
 148:	72617473 	rsbvc	r7, r1, #1929379840	; 0x73000000
 14c:	5f5f0074 	svcpl	0x005f0074
 150:	5f737362 	svcpl	0x00737362
 154:	72617473 	rsbvc	r7, r1, #1929379840	; 0x73000000
 158:	005f5f74 	subseq	r5, pc, r4, ror pc	; <UNPREDICTABLE>
 15c:	69647561 	stmdbvs	r4!, {r0, r5, r6, r8, sl, ip, sp, lr}^
 160:	65735f6f 	ldrbvs	r5, [r3, #-3951]!	; 0xf6f
 164:	745f646e 	ldrbvc	r6, [pc], #-1134	; 16c <_start-0x7e94>
 168:	00656e6f 	rsbeq	r6, r5, pc, ror #28
 16c:	71657266 	cmnvc	r5, r6, ror #4
 170:	636e6575 	cmnvs	lr, #490733568	; 0x1d400000
 174:	65640079 	strbvs	r0, [r4, #-121]!	; 0x79
 178:	5f79616c 	svcpl	0x0079616c
 17c:	77007375 	smlsdxvc	r0, r5, r3, r7
 180:	66657661 	strbtvs	r7, [r5], -r1, ror #12
 184:	5f6d726f 	svcpl	0x006d726f
 188:	61697274 	smcvs	38692	; 0x9724
 18c:	656c676e 	strbvs	r6, [ip, #-1902]!	; 0x76e
 190:	6c6f7600 	stclvs	6, cr7, [pc], #-0	; 198 <_start-0x7e68>
 194:	5f656d75 	svcpl	0x00656d75
 198:	746c756d 	strbtvc	r7, [ip], #-1389	; 0x56d
 19c:	796c7069 	stmdbvc	ip!, {r0, r3, r5, r6, ip, sp, lr}^
 1a0:	77007265 	strvc	r7, [r0, -r5, ror #4]
 1a4:	66657661 	strbtvs	r7, [r5], -r1, ror #12
 1a8:	5f6d726f 	svcpl	0x006d726f
 1ac:	61757173 	cmnvs	r5, r3, ror r1
 1b0:	73006572 	movwvc	r6, #1394	; 0x572
 1b4:	75746174 	ldrbvc	r6, [r4, #-372]!	; 0x174
 1b8:	6f6e0073 	svcvs	0x006e0073
 1bc:	74006574 	strvc	r6, [r0], #-1396	; 0x574
 1c0:	72656d69 	rsbvc	r6, r5, #6720	; 0x1a40
 1c4:	76617700 	strbtvc	r7, [r1], -r0, lsl #14
 1c8:	726f6665 	rsbvc	r6, pc, #105906176	; 0x6500000
 1cc:	61735f6d 	cmnvs	r3, sp, ror #30
 1d0:	61770077 	cmnvs	r7, r7, ror r0
 1d4:	6f666576 	svcvs	0x00666576
 1d8:	77006d72 	smlsdxvc	r0, r2, sp, r6
 1dc:	66657661 	strbtvs	r7, [r5], -r1, ror #12
 1e0:	5f6d726f 	svcpl	0x006d726f
 1e4:	656e6973 	strbvs	r6, [lr, #-2419]!	; 0x973
 1e8:	65707300 	ldrbvs	r7, [r0, #-768]!	; 0x300
 1ec:	6d5f6465 	cfldrdvs	mvd6, [pc, #-404]	; 60 <_start-0x7fa0>
 1f0:	69746c75 	ldmdbvs	r4!, {r0, r2, r4, r5, r6, sl, fp, sp, lr}^
 1f4:	65796c70 	ldrbvs	r6, [r9, #-3184]!	; 0xc70
 1f8:	70670072 	rsbvc	r0, r7, r2, ror r0
 1fc:	66006f69 	strvs	r6, [r0], -r9, ror #30
 200:	74636172 	strbtvc	r6, [r3], #-370	; 0x172
 204:	616e6f69 	cmnvs	lr, r9, ror #30
 208:	61705f6c 	cmnvs	r0, ip, ror #30
 20c:	61007472 	tstvs	r0, r2, ror r4
 210:	6f696475 	svcvs	0x00696475
 214:	6100632e 	tstvs	r0, lr, lsr #6
 218:	6f696475 	svcvs	0x00696475
 21c:	7465735f 	strbtvc	r7, [r5], #-863	; 0x35f
 220:	6f6c635f 	svcvs	0x006c635f
 224:	61006b63 	tstvs	r0, r3, ror #22
 228:	6f696475 	svcvs	0x00696475
 22c:	6e65735f 	mcrvs	3, 3, r7, cr5, cr15, {2}
 230:	6b315f64 	blvs	c57fc8 <__bss_end__+0xc4dd70>
 234:	61007a48 	tstvs	r0, r8, asr #20
 238:	6f696475 	svcvs	0x00696475
 23c:	696e695f 	stmdbvs	lr!, {r0, r1, r2, r3, r4, r6, r8, fp, sp, lr}^
 240:	6e690074 	mcrvs	0, 3, r0, cr9, cr4, {3}
 244:	65676574 	strbvs	r6, [r7, #-1396]!	; 0x574
 248:	61705f72 	cmnvs	r0, r2, ror pc
 24c:	73007472 	movwvc	r7, #1138	; 0x472
 250:	5f657a69 	svcpl	0x00657a69
 254:	656d0074 	strbvs	r0, [sp, #-116]!	; 0x74
 258:	7970636d 	ldmdbvc	r0!, {r0, r2, r3, r5, r6, r8, r9, sp, lr}^
 25c:	6d656d00 	stclvs	13, cr6, [r5, #-0]
 260:	2e797063 	cdpcs	0, 7, cr7, cr9, cr3, {3}
 264:	6c700063 	ldclvs	0, cr0, [r0], #-396	; 0xfffffe74
 268:	735f7961 	cmpvc	pc, #1589248	; 0x184000
 26c:	00676e6f 	rsbeq	r6, r7, pc, ror #28
 270:	676e6f73 			; <UNDEFINED> instruction: 0x676e6f73
 274:	6d00632e 	stcvs	3, cr6, [r0, #-184]	; 0xffffff48
 278:	30337063 	eorscc	r7, r3, r3, rrx
 27c:	725f3830 	subsvc	r3, pc, #48, 16	; 0x300000
 280:	00646165 	rsbeq	r6, r4, r5, ror #2
 284:	756a6461 	strbvc	r6, [sl, #-1121]!	; 0x461
 288:	64657473 	strbtvs	r7, [r5], #-1139	; 0x473
 28c:	61686300 	cmnvs	r8, r0, lsl #6
 290:	6c656e6e 	stclvs	14, cr6, [r5], #-440	; 0xfffffe48
 294:	65707300 	ldrbvs	r7, [r0, #-768]!	; 0x300
 298:	67006465 	strvs	r6, [r0, -r5, ror #8]
 29c:	6f567465 	svcvs	0x00567465
 2a0:	656d756c 	strbvs	r7, [sp, #-1388]!	; 0x56c
 2a4:	74657200 	strbtvc	r7, [r5], #-512	; 0x200
 2a8:	656e7275 	strbvs	r7, [lr, #-629]!	; 0x275
 2ac:	6f760064 	svcvs	0x00760064
 2b0:	656d756c 	strbvs	r7, [sp, #-1388]!	; 0x56c
 2b4:	70636d00 	rsbvc	r6, r3, r0, lsl #26
 2b8:	38303033 	ldmdacc	r0!, {r0, r1, r4, r5, ip, sp}
 2bc:	696e695f 	stmdbvs	lr!, {r0, r1, r2, r3, r4, r6, r8, fp, sp, lr}^
 2c0:	65700074 	ldrbvs	r0, [r0, #-116]!	; 0x74
 2c4:	68706972 	ldmdavs	r0!, {r1, r4, r5, r6, r8, fp, sp, lr}^
 2c8:	6c617265 	sfmvs	f7, 2, [r1], #-404	; 0xfffffe6c
 2cc:	00632e73 	rsbeq	r2, r3, r3, ror lr
 2d0:	53746567 	cmnpl	r4, #432013312	; 0x19c00000
 2d4:	64656570 	strbtvs	r6, [r5], #-1392	; 0x570
 2d8:	69707300 	ldmdbvs	r0!, {r8, r9, ip, sp, lr}^
 2dc:	696e695f 	stmdbvs	lr!, {r0, r1, r2, r3, r4, r6, r8, fp, sp, lr}^
 2e0:	636d0074 	cmnvs	sp, #116	; 0x74
 2e4:	30303370 	eorscc	r3, r0, r0, ror r3
 2e8:	00632e38 	rsbeq	r2, r3, r8, lsr lr
 2ec:	5f697073 	svcpl	0x00697073
 2f0:	6e617274 	mcrvs	2, 3, r7, cr1, cr4, {3}
 2f4:	72656673 	rsbvc	r6, r5, #120586240	; 0x7300000
 2f8:	76657300 	strbtvc	r7, [r5], -r0, lsl #6
 2fc:	665f6e65 	ldrbvs	r6, [pc], -r5, ror #28
 300:	6f746361 	svcvs	0x00746361
 304:	6c616972 	stclvs	9, cr6, [r1], #-456	; 0xfffffe38
 308:	776f7000 	strbvc	r7, [pc, -r0]!
 30c:	65007265 	strvs	r7, [r0, #-613]	; 0x265
 310:	6576656c 	ldrbvs	r6, [r6, #-1388]!	; 0x56c
 314:	61665f6e 	cmnvs	r6, lr, ror #30
 318:	726f7463 	rsbvc	r7, pc, #1660944384	; 0x63000000
 31c:	006c6169 	rsbeq	r6, ip, r9, ror #2
 320:	72696874 	rsbvc	r6, r9, #116, 16	; 0x740000
 324:	6e656574 	mcrvs	5, 3, r6, cr5, cr4, {3}
 328:	6361665f 	cmnvs	r1, #99614720	; 0x5f00000
 32c:	69726f74 	ldmdbvs	r2!, {r2, r4, r5, r6, r8, r9, sl, fp, sp, lr}^
 330:	66006c61 	strvs	r6, [r0], -r1, ror #24
 334:	5f657669 	svcpl	0x00657669
 338:	74636166 	strbtvc	r6, [r3], #-358	; 0x166
 33c:	6169726f 	cmnvs	r9, pc, ror #4
 340:	756e006c 	strbvc	r0, [lr, #-108]!	; 0x6c
 344:	69745f6d 	ldmdbvs	r4!, {r0, r2, r3, r5, r6, r8, r9, sl, fp, ip, lr}^
 348:	0073656d 	rsbseq	r6, r3, sp, ror #10
 34c:	75736572 	ldrbvc	r6, [r3, #-1394]!	; 0x572
 350:	6d00746c 	cfstrsvs	mvf7, [r0, #-432]	; 0xfffffe50
 354:	785f646f 	ldmdavc	pc, {r0, r1, r2, r3, r5, r6, sl, sp, lr}^	; <UNPREDICTABLE>
 358:	70786500 	rsbsvc	r6, r8, r0, lsl #10
 35c:	6e656e6f 	cdpvs	14, 6, cr6, cr5, cr15, {3}
 360:	696e0074 	stmdbvs	lr!, {r2, r4, r5, r6}^
 364:	665f656e 	ldrbvs	r6, [pc], -lr, ror #10
 368:	6f746361 	svcvs	0x00746361
 36c:	6c616972 	stclvs	9, cr6, [r1], #-456	; 0xfffffe38
 370:	72687400 	rsbvc	r7, r8, #0, 8
 374:	665f6565 	ldrbvs	r6, [pc], -r5, ror #10
 378:	6f746361 	svcvs	0x00746361
 37c:	6c616972 	stclvs	9, cr6, [r1], #-456	; 0xfffffe38
 380:	6f6c6600 	svcvs	0x006c6600
 384:	6d5f7461 	cfldrdvs	mvd7, [pc, #-388]	; 208 <_start-0x7df8>
 388:	7300646f 	movwvc	r6, #1135	; 0x46f
 38c:	74666968 	strbtvc	r6, [r6], #-2408	; 0x968
 390:	69706700 	ldmdbvs	r0!, {r8, r9, sl, sp, lr}^
 394:	72775f6f 	rsbsvc	r5, r7, #444	; 0x1bc
 398:	00657469 	rsbeq	r7, r5, r9, ror #8
 39c:	20554e47 	subscs	r4, r5, r7, asr #28
 3a0:	2e342043 	cdpcs	0, 3, cr2, cr4, cr3, {2}
 3a4:	00332e38 	eorseq	r2, r3, r8, lsr lr
 3a8:	4f495047 	svcmi	0x00495047
 3ac:	4e55465f 	mrcmi	6, 2, r4, cr5, cr15, {2}
 3b0:	554f5f43 	strbpl	r5, [pc, #-3907]	; fffff475 <__bss_end__+0xffff521d>
 3b4:	54555054 	ldrbpl	r5, [r5], #-84	; 0x54
 3b8:	69706700 	ldmdbvs	r0!, {r8, r9, sl, sp, lr}^
 3bc:	65725f6f 	ldrbvs	r5, [r2, #-3951]!	; 0xf6f
 3c0:	47006461 	strmi	r6, [r0, -r1, ror #8]
 3c4:	5f4f4950 	svcpl	0x004f4950
 3c8:	434e5546 	movtmi	r5, #58694	; 0xe546
 3cc:	544c415f 	strbpl	r4, [ip], #-351	; 0x15f
 3d0:	50470030 	subpl	r0, r7, r0, lsr r0
 3d4:	465f4f49 	ldrbmi	r4, [pc], -r9, asr #30
 3d8:	5f434e55 	svcpl	0x00434e55
 3dc:	32544c41 	subscc	r4, r4, #16640	; 0x4100
 3e0:	49504700 	ldmdbmi	r0, {r8, r9, sl, lr}^
 3e4:	55465f4f 	strbpl	r5, [r6, #-3919]	; 0xf4f
 3e8:	415f434e 	cmpmi	pc, lr, asr #6
 3ec:	0033544c 	eorseq	r5, r3, ip, asr #8
 3f0:	4f495047 	svcmi	0x00495047
 3f4:	4e55465f 	mrcmi	6, 2, r4, cr5, cr15, {2}
 3f8:	4c415f43 	mcrrmi	15, 4, r5, r1, cr3
 3fc:	47003454 	smlsdmi	r0, r4, r4, r3
 400:	5f4f4950 	svcpl	0x004f4950
 404:	434e5546 	movtmi	r5, #58694	; 0xe546
 408:	544c415f 	strbpl	r4, [ip], #-351	; 0x15f
 40c:	70670035 	rsbvc	r0, r7, r5, lsr r0
 410:	735f6f69 	cmpvc	pc, #420	; 0x1a4
 414:	695f7465 	ldmdbvs	pc, {r0, r2, r5, r6, sl, ip, sp, lr}^	; <UNPREDICTABLE>
 418:	7475706e 	ldrbtvc	r7, [r5], #-110	; 0x6e
 41c:	64646100 	strbtvs	r6, [r4], #-256	; 0x100
 420:	50470072 	subpl	r0, r7, r2, ror r0
 424:	465f4f49 	ldrbmi	r4, [pc], -r9, asr #30
 428:	5f434e55 	svcpl	0x00434e55
 42c:	41564e49 	cmpmi	r6, r9, asr #28
 430:	0044494c 	subeq	r4, r4, ip, asr #18
 434:	6f697067 	svcvs	0x00697067
 438:	7465735f 	strbtvc	r7, [r5], #-863	; 0x35f
 43c:	74756f5f 	ldrbtvc	r6, [r5], #-3935	; 0xf5f
 440:	00747570 	rsbseq	r7, r4, r0, ror r5
 444:	636e7566 	cmnvs	lr, #427819008	; 0x19800000
 448:	69706700 	ldmdbvs	r0!, {r8, r9, sl, sp, lr}^
 44c:	65675f6f 	strbvs	r5, [r7, #-3951]!	; 0xf6f
 450:	75665f74 	strbvc	r5, [r6, #-3956]!	; 0xf74
 454:	6974636e 	ldmdbvs	r4!, {r1, r2, r3, r5, r6, r8, r9, sp, lr}^
 458:	47006e6f 	strmi	r6, [r0, -pc, ror #28]
 45c:	5f4f4950 	svcpl	0x004f4950
 460:	434e5546 	movtmi	r5, #58694	; 0xe546
 464:	544c415f 	strbpl	r4, [ip], #-351	; 0x15f
 468:	70670031 	rsbvc	r0, r7, r1, lsr r0
 46c:	695f6f69 	ldmdbvs	pc, {r0, r3, r5, r6, r8, r9, sl, fp, sp, lr}^	; <UNPREDICTABLE>
 470:	0074696e 	rsbseq	r6, r4, lr, ror #18
 474:	6f697067 	svcvs	0x00697067
 478:	4700632e 	strmi	r6, [r0, -lr, lsr #6]
 47c:	5f4f4950 	svcpl	0x004f4950
 480:	434e5546 	movtmi	r5, #58694	; 0xe546
 484:	504e495f 	subpl	r4, lr, pc, asr r9
 488:	67005455 	smlsdvs	r0, r5, r4, r5
 48c:	5f6f6970 	svcpl	0x006f6970
 490:	5f746573 	svcpl	0x00746573
 494:	636e7566 	cmnvs	lr, #427819008	; 0x19800000
 498:	6e6f6974 	mcrvs	9, 3, r6, cr15, cr4, {3}
 49c:	6d697400 	cfstrdvs	mvd7, [r9, #-0]
 4a0:	675f7265 	ldrbvs	r7, [pc, -r5, ror #4]
 4a4:	745f7465 	ldrbvc	r7, [pc], #-1125	; 4ac <_start-0x7b54>
 4a8:	00656d69 	rsbeq	r6, r5, r9, ror #26
 4ac:	69746e75 	ldmdbvs	r4!, {r0, r2, r4, r5, r6, r9, sl, fp, sp, lr}^
 4b0:	73755f6c 	cmnvc	r5, #108, 30	; 0x1b0
 4b4:	6d697400 	cfstrdvs	mvd7, [r9, #-0]
 4b8:	695f7265 	ldmdbvs	pc, {r0, r2, r5, r6, r9, ip, sp, lr}^	; <UNPREDICTABLE>
 4bc:	0074696e 	rsbseq	r6, r4, lr, ror #18
 4c0:	63657375 	cmnvs	r5, #-738197503	; 0xd4000001
 4c4:	6d697400 	cfstrdvs	mvd7, [r9, #-0]
 4c8:	632e7265 	teqvs	lr, #1342177286	; 0x50000006
 4cc:	756f6300 	strbvc	r6, [pc, #-768]!	; 1d4 <_start-0x7e2c>
 4d0:	7265746e 	rsbvc	r7, r5, #1845493760	; 0x6e000000
 4d4:	53595300 	cmppl	r9, #0, 6
 4d8:	454d4954 	strbmi	r4, [sp, #-2388]	; 0x954
 4dc:	4f4c4352 	svcmi	0x004c4352
 4e0:	6c656400 	cfstrdvs	mvd6, [r5], #-0
 4e4:	64007961 	strvs	r7, [r0], #-2401	; 0x961
 4e8:	79616c65 	stmdbvc	r1!, {r0, r2, r5, r6, sl, fp, sp, lr}^
 4ec:	00736d5f 	rsbseq	r6, r3, pc, asr sp
 4f0:	74726175 	ldrbtvc	r6, [r2], #-373	; 0x175
 4f4:	696e695f 	stmdbvs	lr!, {r0, r1, r2, r3, r4, r6, r8, fp, sp, lr}^
 4f8:	61770074 	cmnvs	r7, r4, ror r0
 4fc:	72656b6c 	rsbvc	r6, r5, #108, 22	; 0x1b000
 500:	64657200 	strbtvs	r7, [r5], #-512	; 0x200
 504:	42656375 	rsbmi	r6, r5, #-738197503	; 0xd4000001
 508:	6e655479 	mcrvs	4, 3, r5, cr5, cr9, {3}
 50c:	65776f50 	ldrbvs	r6, [r7, #-3920]!	; 0xf50
 510:	69770072 	ldmdbvs	r7!, {r1, r4, r5, r6}^
 514:	00687464 	rsbeq	r7, r8, r4, ror #8
 518:	6d726f66 	ldclvs	15, cr6, [r2, #-408]!	; 0xfffffe68
 51c:	5f007461 	svcpl	0x00007461
 520:	5f61765f 	svcpl	0x0061765f
 524:	7473696c 	ldrbtvc	r6, [r3], #-2412	; 0x96c
 528:	746e6900 	strbtvc	r6, [lr], #-2304	; 0x900
 52c:	65646f74 	strbvs	r6, [r4, #-3956]!	; 0xf74
 530:	6e690063 	cdpvs	0, 6, cr0, cr9, cr3, {3}
 534:	626f7474 	rsbvs	r7, pc, #116, 8	; 0x74000000
 538:	76006e69 	strvc	r6, [r0], -r9, ror #28
 53c:	72706e73 	rsbsvc	r6, r0, #1840	; 0x730
 540:	66746e69 	ldrbtvs	r6, [r4], -r9, ror #28
 544:	615f5f00 	cmpvs	pc, r0, lsl #30
 548:	61700070 	cmnvs	r0, r0, ror r0
 54c:	756f4364 	strbvc	r4, [pc, #-868]!	; 1f0 <_start-0x7e10>
 550:	6f00746e 	svcvs	0x0000746e
 554:	00676972 	rsbeq	r6, r7, r2, ror r9
 558:	6e697270 	mcrvs	2, 3, r7, cr9, cr0, {3}
 55c:	695f6674 	ldmdbvs	pc, {r2, r4, r5, r6, r9, sl, sp, lr}^	; <UNPREDICTABLE>
 560:	0074696e 	rsbseq	r6, r4, lr, ror #18
 564:	654e7369 	strbvs	r7, [lr, #-873]	; 0x369
 568:	69746167 	ldmdbvs	r4!, {r0, r1, r2, r5, r6, r8, sp, lr}^
 56c:	74006576 	strvc	r6, [r0], #-1398	; 0x576
 570:	57657572 			; <UNDEFINED> instruction: 0x57657572
 574:	68746469 	ldmdavs	r4!, {r0, r3, r5, r6, sl, sp, lr}^
 578:	69727000 	ldmdbvs	r2!, {ip, sp, lr}^
 57c:	2e66746e 	cdpcs	4, 6, cr7, cr6, cr14, {3}
 580:	5f5f0063 	svcpl	0x005f0063
 584:	63756e67 	cmnvs	r5, #1648	; 0x670
 588:	5f61765f 	svcpl	0x0061765f
 58c:	7473696c 	ldrbtvc	r6, [r3], #-2412	; 0x96c
 590:	72617500 	rsbvc	r7, r1, #0, 10
 594:	75705f74 	ldrbvc	r5, [r0, #-3956]!	; 0xf74
 598:	64006374 	strvs	r6, [r0], #-884	; 0x374
 59c:	74696769 	strbtvc	r6, [r9], #-1897	; 0x769
 5a0:	74756f00 	ldrbtvc	r6, [r5], #-3840	; 0xf00
 5a4:	65646e49 	strbvs	r6, [r4, #-3657]!	; 0xe49
 5a8:	6e690078 	mcrvs	0, 3, r0, cr9, cr8, {3}
 5ac:	686f7474 	stmdavs	pc!, {r2, r4, r5, r6, sl, ip, sp, lr}^	; <UNPREDICTABLE>
 5b0:	73007865 	movwvc	r7, #2149	; 0x865
 5b4:	00746174 	rsbseq	r6, r4, r4, ror r1
 5b8:	61746164 	cmnvs	r4, r4, ror #2
 5bc:	72617500 	rsbvc	r7, r1, #0, 10
 5c0:	00632e74 	rsbeq	r2, r3, r4, ror lr
 5c4:	74726175 	ldrbtvc	r6, [r2], #-373	; 0x175
 5c8:	756c665f 	strbvc	r6, [ip, #-1631]!	; 0x65f
 5cc:	75006873 	strvc	r6, [r0, #-2163]	; 0x873
 5d0:	5f747261 	svcpl	0x00747261
 5d4:	63746567 	cmnvs	r4, #432013312	; 0x19c00000
 5d8:	75616200 	strbvc	r6, [r1, #-512]!	; 0x200
 5dc:	6e630064 	cdpvs	0, 6, cr0, cr3, cr4, {3}
 5e0:	73006c74 	movwvc	r6, #3188	; 0xc74
 5e4:	74617263 	strbtvc	r7, [r1], #-611	; 0x263
 5e8:	75006863 	strvc	r6, [r0, #-2147]	; 0x863
 5ec:	00747261 	rsbseq	r7, r4, r1, ror #4
 5f0:	54524155 	ldrbpl	r4, [r2], #-341	; 0x155
 5f4:	69706700 	ldmdbvs	r0!, {r8, r9, sl, sp, lr}^
 5f8:	65735f6f 	ldrbvs	r5, [r3, #-3951]!	; 0xf6f
 5fc:	75705f74 	ldrbvc	r5, [r0, #-3956]!	; 0xf74
 600:	70756c6c 	rsbsvc	r6, r5, ip, ror #24
 604:	69706700 	ldmdbvs	r0!, {r8, r9, sl, sp, lr}^
 608:	7478656f 	ldrbtvc	r6, [r8], #-1391	; 0x56f
 60c:	632e6172 	teqvs	lr, #-2147483620	; 0x8000001c
 610:	67657200 	strbvs	r7, [r5, -r0, lsl #4]!
 614:	6475705f 	ldrbtvs	r7, [r5], #-95	; 0x5f
 618:	49504700 	ldmdbmi	r0, {r8, r9, sl, lr}^
 61c:	55505f4f 	ldrbpl	r5, [r0, #-3919]	; 0xf4f
 620:	55505f44 	ldrbpl	r5, [r0, #-3908]	; 0xf44
 624:	50554c4c 	subspl	r4, r5, ip, asr #24
 628:	49504700 	ldmdbmi	r0, {r8, r9, sl, lr}^
 62c:	55505f4f 	ldrbpl	r5, [r0, #-3919]	; 0xf4f
 630:	55505f44 	ldrbpl	r5, [r0, #-3908]	; 0xf44
 634:	4f444c4c 	svcmi	0x00444c4c
 638:	47004e57 	smlsdmi	r0, r7, lr, r4
 63c:	5f4f4950 	svcpl	0x004f4950
 640:	5f445550 	svcpl	0x00445550
 644:	41534944 	cmpmi	r3, r4, asr #18
 648:	00454c42 	subeq	r4, r5, r2, asr #24
 64c:	5f676572 	svcpl	0x00676572
 650:	006b6c63 	rsbeq	r6, fp, r3, ror #24
 654:	6f697067 	svcvs	0x00697067
 658:	7465735f 	strbtvc	r7, [r5], #-863	; 0x35f
 65c:	6c75705f 	ldclvs	0, cr7, [r5], #-380	; 0xfffffe84
 660:	776f646c 	strbvc	r6, [pc, -ip, ror #8]!
 664:	7067006e 	rsbvc	r0, r7, lr, rrx
 668:	735f6f69 	cmpvc	pc, #420	; 0x1a4
 66c:	705f7465 	subsvc	r7, pc, r5, ror #8
 670:	47006475 	smlsdxmi	r0, r5, r4, r6
 674:	5f4f4950 	svcpl	0x004f4950
 678:	334e4950 	movtcc	r4, #59728	; 0xe950
 67c:	50470031 	subpl	r0, r7, r1, lsr r0
 680:	505f4f49 	subspl	r4, pc, r9, asr #30
 684:	35324e49 	ldrcc	r4, [r2, #-3657]!	; 0xe49
 688:	49504700 	ldmdbmi	r0, {r8, r9, sl, lr}^
 68c:	49505f4f 	ldmdbmi	r0, {r0, r1, r2, r3, r6, r8, r9, sl, fp, ip, lr}^
 690:	0032334e 	eorseq	r3, r2, lr, asr #6
 694:	4f495047 	svcmi	0x00495047
 698:	4e49505f 	mcrmi	0, 2, r5, cr9, cr15, {2}
 69c:	47003632 	smladxmi	r0, r2, r6, r3
 6a0:	5f4f4950 	svcpl	0x004f4950
 6a4:	324e4950 	subcc	r4, lr, #80, 18	; 0x140000
 6a8:	70730037 	rsbsvc	r0, r3, r7, lsr r0
 6ac:	00632e69 	rsbeq	r2, r3, r9, ror #28
 6b0:	4f495047 	svcmi	0x00495047
 6b4:	4e49505f 	mcrmi	0, 2, r5, cr9, cr15, {2}
 6b8:	47003832 	smladxmi	r0, r2, r8, r3
 6bc:	5f4f4950 	svcpl	0x004f4950
 6c0:	344e4950 	strbcc	r4, [lr], #-2384	; 0x950
 6c4:	50470031 	subpl	r0, r7, r1, lsr r0
 6c8:	505f4f49 	subspl	r4, pc, r9, asr #30
 6cc:	32344e49 	eorscc	r4, r4, #1168	; 0x490
 6d0:	49504700 	ldmdbmi	r0, {r8, r9, sl, lr}^
 6d4:	49505f4f 	ldmdbmi	r0, {r0, r1, r2, r3, r6, r8, r9, sl, fp, ip, lr}^
 6d8:	0030354e 	eorseq	r3, r0, lr, asr #10
 6dc:	4f495047 	svcmi	0x00495047
 6e0:	4e49505f 	mcrmi	0, 2, r5, cr9, cr15, {2}
 6e4:	47003135 	smladxmi	r0, r5, r1, r3
 6e8:	5f4f4950 	svcpl	0x004f4950
 6ec:	354e4950 	strbcc	r4, [lr, #-2384]	; 0x950
 6f0:	68630032 	stmdavs	r3!, {r1, r4, r5}^
 6f4:	735f7069 	cmpvc	pc, #105	; 0x69
 6f8:	63656c65 	cmnvs	r5, #25856	; 0x6500
 6fc:	50470074 	subpl	r0, r7, r4, ror r0
 700:	505f4f49 	subspl	r4, pc, r9, asr #30
 704:	30314e49 	eorscc	r4, r1, r9, asr #28
 708:	49504700 	ldmdbmi	r0, {r8, r9, sl, lr}^
 70c:	49505f4f 	ldmdbmi	r0, {r0, r1, r2, r3, r6, r8, r9, sl, fp, ip, lr}^
 710:	0031314e 	eorseq	r3, r1, lr, asr #2
 714:	4f495047 	svcmi	0x00495047
 718:	4e49505f 	mcrmi	0, 2, r5, cr9, cr15, {2}
 71c:	47003231 	smladxmi	r0, r1, r2, r3
 720:	5f4f4950 	svcpl	0x004f4950
 724:	314e4950 	cmpcc	lr, r0, asr r9
 728:	50470033 	subpl	r0, r7, r3, lsr r0
 72c:	505f4f49 	subspl	r4, pc, r9, asr #30
 730:	34314e49 	ldrtcc	r4, [r1], #-3657	; 0xe49
 734:	49504700 	ldmdbmi	r0, {r8, r9, sl, lr}^
 738:	49505f4f 	ldmdbmi	r0, {r0, r1, r2, r3, r6, r8, r9, sl, fp, ip, lr}^
 73c:	0035314e 	eorseq	r3, r5, lr, asr #2
 740:	4f495047 	svcmi	0x00495047
 744:	4e49505f 	mcrmi	0, 2, r5, cr9, cr15, {2}
 748:	47003631 	smladxmi	r0, r1, r6, r3
 74c:	5f4f4950 	svcpl	0x004f4950
 750:	314e4950 	cmpcc	lr, r0, asr r9
 754:	50470037 	subpl	r0, r7, r7, lsr r0
 758:	505f4f49 	subspl	r4, pc, r9, asr #30
 75c:	38314e49 	ldmdacc	r1!, {r0, r3, r6, r9, sl, fp, lr}
 760:	49504700 	ldmdbmi	r0, {r8, r9, sl, lr}^
 764:	49505f4f 	ldmdbmi	r0, {r0, r1, r2, r3, r6, r8, r9, sl, fp, ip, lr}^
 768:	0039314e 	eorseq	r3, r9, lr, asr #2
 76c:	4f495047 	svcmi	0x00495047
 770:	4e49505f 	mcrmi	0, 2, r5, cr9, cr15, {2}
 774:	47003333 	smladxmi	r0, r3, r3, r3
 778:	5f4f4950 	svcpl	0x004f4950
 77c:	334e4950 	movtcc	r4, #59728	; 0xe950
 780:	50470034 	subpl	r0, r7, r4, lsr r0
 784:	505f4f49 	subspl	r4, pc, r9, asr #30
 788:	35334e49 	ldrcc	r4, [r3, #-3657]!	; 0xe49
 78c:	49504700 	ldmdbmi	r0, {r8, r9, sl, lr}^
 790:	49505f4f 	ldmdbmi	r0, {r0, r1, r2, r3, r6, r8, r9, sl, fp, ip, lr}^
 794:	0036334e 	eorseq	r3, r6, lr, asr #6
 798:	4f495047 	svcmi	0x00495047
 79c:	4e49505f 	mcrmi	0, 2, r5, cr9, cr15, {2}
 7a0:	47003733 	smladxmi	r0, r3, r7, r3
 7a4:	5f4f4950 	svcpl	0x004f4950
 7a8:	334e4950 	movtcc	r4, #59728	; 0xe950
 7ac:	50470038 	subpl	r0, r7, r8, lsr r0
 7b0:	505f4f49 	subspl	r4, pc, r9, asr #30
 7b4:	39334e49 	ldmdbcc	r3!, {r0, r3, r6, r9, sl, fp, lr}
 7b8:	49504700 	ldmdbmi	r0, {r8, r9, sl, lr}^
 7bc:	49505f4f 	ldmdbmi	r0, {r0, r1, r2, r3, r6, r8, r9, sl, fp, ip, lr}^
 7c0:	0033354e 	eorseq	r3, r3, lr, asr #10
 7c4:	6e656c64 	cdpvs	12, 6, cr6, cr5, cr4, {3}
 7c8:	49504700 	ldmdbmi	r0, {r8, r9, sl, lr}^
 7cc:	49505f4f 	ldmdbmi	r0, {r0, r1, r2, r3, r6, r8, r9, sl, fp, ip, lr}^
 7d0:	0030344e 	eorseq	r3, r0, lr, asr #8
 7d4:	6f666966 	svcvs	0x00666966
 7d8:	6f746c00 	svcvs	0x00746c00
 7dc:	50470068 	subpl	r0, r7, r8, rrx
 7e0:	505f4f49 	subspl	r4, pc, r9, asr #30
 7e4:	465f4e49 	ldrbmi	r4, [pc], -r9, asr #28
 7e8:	54535249 	ldrbpl	r5, [r3], #-585	; 0x249
 7ec:	49504700 	ldmdbmi	r0, {r8, r9, sl, lr}^
 7f0:	49505f4f 	ldmdbmi	r0, {r0, r1, r2, r3, r6, r8, r9, sl, fp, ip, lr}^
 7f4:	4700304e 	strmi	r3, [r0, -lr, asr #32]
 7f8:	5f4f4950 	svcpl	0x004f4950
 7fc:	314e4950 	cmpcc	lr, r0, asr r9
 800:	49504700 	ldmdbmi	r0, {r8, r9, sl, lr}^
 804:	49505f4f 	ldmdbmi	r0, {r0, r1, r2, r3, r6, r8, r9, sl, fp, ip, lr}^
 808:	4700324e 	strmi	r3, [r0, -lr, asr #4]
 80c:	5f4f4950 	svcpl	0x004f4950
 810:	334e4950 	movtcc	r4, #59728	; 0xe950
 814:	49504700 	ldmdbmi	r0, {r8, r9, sl, lr}^
 818:	49505f4f 	ldmdbmi	r0, {r0, r1, r2, r3, r6, r8, r9, sl, fp, ip, lr}^
 81c:	4700344e 	strmi	r3, [r0, -lr, asr #8]
 820:	5f4f4950 	svcpl	0x004f4950
 824:	354e4950 	strbcc	r4, [lr, #-2384]	; 0x950
 828:	49504700 	ldmdbmi	r0, {r8, r9, sl, lr}^
 82c:	49505f4f 	ldmdbmi	r0, {r0, r1, r2, r3, r6, r8, r9, sl, fp, ip, lr}^
 830:	4700364e 	strmi	r3, [r0, -lr, asr #12]
 834:	5f4f4950 	svcpl	0x004f4950
 838:	374e4950 	smlsldcc	r4, lr, r0, r9
 83c:	49504700 	ldmdbmi	r0, {r8, r9, sl, lr}^
 840:	49505f4f 	ldmdbmi	r0, {r0, r1, r2, r3, r6, r8, r9, sl, fp, ip, lr}^
 844:	4700384e 	strmi	r3, [r0, -lr, asr #16]
 848:	5f4f4950 	svcpl	0x004f4950
 84c:	394e4950 	stmdbcc	lr, {r4, r6, r8, fp, lr}^
 850:	49504700 	ldmdbmi	r0, {r8, r9, sl, lr}^
 854:	49505f4f 	ldmdbmi	r0, {r0, r1, r2, r3, r6, r8, r9, sl, fp, ip, lr}^
 858:	0039324e 	eorseq	r3, r9, lr, asr #4
 85c:	4f495047 	svcmi	0x00495047
 860:	4e49505f 	mcrmi	0, 2, r5, cr9, cr15, {2}
 864:	47003334 	smladxmi	r0, r4, r3, r3
 868:	5f4f4950 	svcpl	0x004f4950
 86c:	344e4950 	strbcc	r4, [lr], #-2384	; 0x950
 870:	50470034 	subpl	r0, r7, r4, lsr r0
 874:	505f4f49 	subspl	r4, pc, r9, asr #30
 878:	35344e49 	ldrcc	r4, [r4, #-3657]!	; 0xe49
 87c:	49504700 	ldmdbmi	r0, {r8, r9, sl, lr}^
 880:	49505f4f 	ldmdbmi	r0, {r0, r1, r2, r3, r6, r8, r9, sl, fp, ip, lr}^
 884:	0036344e 	eorseq	r3, r6, lr, asr #8
 888:	4f495047 	svcmi	0x00495047
 88c:	4e49505f 	mcrmi	0, 2, r5, cr9, cr15, {2}
 890:	47003734 	smladxmi	r0, r4, r7, r3
 894:	5f4f4950 	svcpl	0x004f4950
 898:	344e4950 	strbcc	r4, [lr], #-2384	; 0x950
 89c:	50470038 	subpl	r0, r7, r8, lsr r0
 8a0:	505f4f49 	subspl	r4, pc, r9, asr #30
 8a4:	39344e49 	ldmdbcc	r4!, {r0, r3, r6, r9, sl, fp, lr}
 8a8:	49504700 	ldmdbmi	r0, {r8, r9, sl, lr}^
 8ac:	49505f4f 	ldmdbmi	r0, {r0, r1, r2, r3, r6, r8, r9, sl, fp, ip, lr}^
 8b0:	414c5f4e 	cmpmi	ip, lr, asr #30
 8b4:	47005453 	smlsdmi	r0, r3, r4, r5
 8b8:	5f4f4950 	svcpl	0x004f4950
 8bc:	324e4950 	subcc	r4, lr, #80, 18	; 0x140000
 8c0:	50470030 	subpl	r0, r7, r0, lsr r0
 8c4:	505f4f49 	subspl	r4, pc, r9, asr #30
 8c8:	31324e49 	teqcc	r2, r9, asr #28
 8cc:	49504700 	ldmdbmi	r0, {r8, r9, sl, lr}^
 8d0:	49505f4f 	ldmdbmi	r0, {r0, r1, r2, r3, r6, r8, r9, sl, fp, ip, lr}^
 8d4:	0032324e 	eorseq	r3, r2, lr, asr #4
 8d8:	636f6c63 	cmnvs	pc, #25344	; 0x6300
 8dc:	69645f6b 	stmdbvs	r4!, {r0, r1, r3, r5, r6, r8, r9, sl, fp, ip, lr}^
 8e0:	65646976 	strbvs	r6, [r4, #-2422]!	; 0x976
 8e4:	50470072 	subpl	r0, r7, r2, ror r0
 8e8:	505f4f49 	subspl	r4, pc, r9, asr #30
 8ec:	33324e49 	teqcc	r2, #1168	; 0x490
 8f0:	49504700 	ldmdbmi	r0, {r8, r9, sl, lr}^
 8f4:	49505f4f 	ldmdbmi	r0, {r0, r1, r2, r3, r6, r8, r9, sl, fp, ip, lr}^
 8f8:	0030334e 	eorseq	r3, r0, lr, asr #6
 8fc:	4f495047 	svcmi	0x00495047
 900:	4e49505f 	mcrmi	0, 2, r5, cr9, cr15, {2}
 904:	Address 0x0000000000000904 is out of bounds.


Disassembly of section .comment:

00000000 <.comment>:
   0:	3a434347 	bcc	10d0d24 <__bss_end__+0x10c6acc>
   4:	4e472820 	cdpmi	8, 4, cr2, cr7, cr0, {1}
   8:	34202955 	strtcc	r2, [r0], #-2389	; 0x955
   c:	332e382e 	teqcc	lr, #3014656	; 0x2e0000
	...

Disassembly of section .ARM.attributes:

00000000 <.ARM.attributes>:
   0:	00002841 	andeq	r2, r0, r1, asr #16
   4:	61656100 	cmnvs	r5, r0, lsl #2
   8:	01006962 	tsteq	r0, r2, ror #18
   c:	0000001e 	andeq	r0, r0, lr, lsl r0
  10:	06003605 	streq	r3, [r0], -r5, lsl #12
  14:	09010806 	stmdbeq	r1, {r1, r2, fp}
  18:	14041201 	strne	r1, [r4], #-513	; 0x201
  1c:	17011501 	strne	r1, [r1, -r1, lsl #10]
  20:	1a011803 	bne	46034 <__bss_end__+0x3bddc>
  24:	22011e01 	andcs	r1, r1, #1, 28
  28:	Address 0x0000000000000028 is out of bounds.


Disassembly of section .debug_frame:

00000000 <.debug_frame>:
   0:	0000000c 	andeq	r0, r0, ip
   4:	ffffffff 			; <UNDEFINED> instruction: 0xffffffff
   8:	7c020001 	stcvc	0, cr0, [r2], {1}
   c:	000d0c0e 	andeq	r0, sp, lr, lsl #24
  10:	00000014 	andeq	r0, r0, r4, lsl r0
  14:	00000000 	andeq	r0, r0, r0
  18:	00008010 	andeq	r8, r0, r0, lsl r0
  1c:	000000e4 	andeq	r0, r0, r4, ror #1
  20:	83080e42 	movwhi	r0, #36418	; 0x8e42
  24:	00018e02 	andeq	r8, r1, r2, lsl #28
  28:	0000000c 	andeq	r0, r0, ip
  2c:	ffffffff 			; <UNDEFINED> instruction: 0xffffffff
  30:	7c020001 	stcvc	0, cr0, [r2], {1}
  34:	000d0c0e 	andeq	r0, sp, lr, lsl #24
  38:	00000014 	andeq	r0, r0, r4, lsl r0
  3c:	00000028 	andeq	r0, r0, r8, lsr #32
  40:	000080f8 	strdeq	r8, [r0], -r8	; <UNPREDICTABLE>
  44:	00000038 	andeq	r0, r0, r8, lsr r0
  48:	83080e42 	movwhi	r0, #36418	; 0x8e42
  4c:	00018e02 	andeq	r8, r1, r2, lsl #28
  50:	0000000c 	andeq	r0, r0, ip
  54:	ffffffff 			; <UNDEFINED> instruction: 0xffffffff
  58:	7c020001 	stcvc	0, cr0, [r2], {1}
  5c:	000d0c0e 	andeq	r0, sp, lr, lsl #24
  60:	00000018 	andeq	r0, r0, r8, lsl r0
  64:	00000050 	andeq	r0, r0, r0, asr r0
  68:	00008130 	andeq	r8, r0, r0, lsr r1
  6c:	0000008c 	andeq	r0, r0, ip, lsl #1
  70:	83100e42 	tsthi	r0, #1056	; 0x420
  74:	85038404 	strhi	r8, [r3, #-1028]	; 0x404
  78:	00018e02 	andeq	r8, r1, r2, lsl #28
  7c:	00000024 	andeq	r0, r0, r4, lsr #32
  80:	00000050 	andeq	r0, r0, r0, asr r0
  84:	000081bc 			; <UNDEFINED> instruction: 0x000081bc
  88:	000000f0 	strdeq	r0, [r0], -r0	; <UNPREDICTABLE>
  8c:	84200e42 	strthi	r0, [r0], #-3650	; 0xe42
  90:	86078508 	strhi	r8, [r7], -r8, lsl #10
  94:	88058706 	stmdahi	r5, {r1, r2, r8, r9, sl, pc}
  98:	8a038904 	bhi	e24b0 <__bss_end__+0xd8258>
  9c:	42018e02 	andmi	r8, r1, #2, 28
  a0:	0000280e 	andeq	r2, r0, lr, lsl #16
  a4:	00000018 	andeq	r0, r0, r8, lsl r0
  a8:	00000050 	andeq	r0, r0, r0, asr r0
  ac:	000082ac 	andeq	r8, r0, ip, lsr #5
  b0:	00000094 	muleq	r0, r4, r0
  b4:	83100e42 	tsthi	r0, #1056	; 0x420
  b8:	85038404 	strhi	r8, [r3, #-1028]	; 0x404
  bc:	00018e02 	andeq	r8, r1, r2, lsl #28
  c0:	0000000c 	andeq	r0, r0, ip
  c4:	00000050 	andeq	r0, r0, r0, asr r0
  c8:	00008340 	andeq	r8, r0, r0, asr #6
  cc:	00000004 	andeq	r0, r0, r4
  d0:	0000000c 	andeq	r0, r0, ip
  d4:	ffffffff 			; <UNDEFINED> instruction: 0xffffffff
  d8:	7c020001 	stcvc	0, cr0, [r2], {1}
  dc:	000d0c0e 	andeq	r0, sp, lr, lsl #24
  e0:	0000000c 	andeq	r0, r0, ip
  e4:	000000d0 	ldrdeq	r0, [r0], -r0	; <UNPREDICTABLE>
  e8:	00008344 	andeq	r8, r0, r4, asr #6
  ec:	00000020 	andeq	r0, r0, r0, lsr #32
  f0:	0000000c 	andeq	r0, r0, ip
  f4:	ffffffff 			; <UNDEFINED> instruction: 0xffffffff
  f8:	7c020001 	stcvc	0, cr0, [r2], {1}
  fc:	000d0c0e 	andeq	r0, sp, lr, lsl #24
 100:	0000001c 	andeq	r0, r0, ip, lsl r0
 104:	000000f0 	strdeq	r0, [r0], -r0	; <UNPREDICTABLE>
 108:	00008364 	andeq	r8, r0, r4, ror #6
 10c:	0000003c 	andeq	r0, r0, ip, lsr r0
 110:	83180e42 	tsthi	r8, #1056	; 0x420
 114:	85058406 	strhi	r8, [r5, #-1030]	; 0x406
 118:	87038604 	strhi	r8, [r3, -r4, lsl #12]
 11c:	00018e02 	andeq	r8, r1, r2, lsl #28
 120:	0000000c 	andeq	r0, r0, ip
 124:	ffffffff 			; <UNDEFINED> instruction: 0xffffffff
 128:	7c020001 	stcvc	0, cr0, [r2], {1}
 12c:	000d0c0e 	andeq	r0, sp, lr, lsl #24
 130:	00000014 	andeq	r0, r0, r4, lsl r0
 134:	00000120 	andeq	r0, r0, r0, lsr #2
 138:	000083a0 	andeq	r8, r0, r0, lsr #7
 13c:	00000060 	andeq	r0, r0, r0, rrx
 140:	83080e42 	movwhi	r0, #36418	; 0x8e42
 144:	00018e02 	andeq	r8, r1, r2, lsl #28
 148:	00000014 	andeq	r0, r0, r4, lsl r0
 14c:	00000120 	andeq	r0, r0, r0, lsr #2
 150:	00008400 	andeq	r8, r0, r0, lsl #8
 154:	0000005c 	andeq	r0, r0, ip, asr r0
 158:	84080e42 	strhi	r0, [r8], #-3650	; 0xe42
 15c:	00018e02 	andeq	r8, r1, r2, lsl #28
 160:	0000000c 	andeq	r0, r0, ip
 164:	ffffffff 			; <UNDEFINED> instruction: 0xffffffff
 168:	7c020001 	stcvc	0, cr0, [r2], {1}
 16c:	000d0c0e 	andeq	r0, sp, lr, lsl #24
 170:	00000014 	andeq	r0, r0, r4, lsl r0
 174:	00000160 	andeq	r0, r0, r0, ror #2
 178:	0000845c 	andeq	r8, r0, ip, asr r4
 17c:	00000018 	andeq	r0, r0, r8, lsl r0
 180:	83080e42 	movwhi	r0, #36418	; 0x8e42
 184:	00018e02 	andeq	r8, r1, r2, lsl #28
 188:	00000014 	andeq	r0, r0, r4, lsl r0
 18c:	00000160 	andeq	r0, r0, r0, ror #2
 190:	00008474 	andeq	r8, r0, r4, ror r4
 194:	00000054 	andeq	r0, r0, r4, asr r0
 198:	8e040e42 	cdphi	14, 0, cr0, cr4, cr2, {2}
 19c:	100e4201 	andne	r4, lr, r1, lsl #4
 1a0:	0000000c 	andeq	r0, r0, ip
 1a4:	ffffffff 			; <UNDEFINED> instruction: 0xffffffff
 1a8:	7c020001 	stcvc	0, cr0, [r2], {1}
 1ac:	000d0c0e 	andeq	r0, sp, lr, lsl #24
 1b0:	00000020 	andeq	r0, r0, r0, lsr #32
 1b4:	000001a0 	andeq	r0, r0, r0, lsr #3
 1b8:	000084c8 	andeq	r8, r0, r8, asr #9
 1bc:	00000074 	andeq	r0, r0, r4, ror r0
 1c0:	84200e42 	strthi	r0, [r0], #-3650	; 0xe42
 1c4:	86078508 	strhi	r8, [r7], -r8, lsl #10
 1c8:	88058706 	stmdahi	r5, {r1, r2, r8, r9, sl, pc}
 1cc:	8a038904 	bhi	e25e4 <__bss_end__+0xd838c>
 1d0:	00018e02 	andeq	r8, r1, r2, lsl #28
 1d4:	0000001c 	andeq	r0, r0, ip, lsl r0
 1d8:	000001a0 	andeq	r0, r0, r0, lsr #3
 1dc:	0000853c 	andeq	r8, r0, ip, lsr r5
 1e0:	00000090 	muleq	r0, r0, r0
 1e4:	83180e42 	tsthi	r8, #1056	; 0x420
 1e8:	85058406 	strhi	r8, [r5, #-1030]	; 0x406
 1ec:	87038604 	strhi	r8, [r3, -r4, lsl #12]
 1f0:	00018e02 	andeq	r8, r1, r2, lsl #28
 1f4:	0000001c 	andeq	r0, r0, ip, lsl r0
 1f8:	000001a0 	andeq	r0, r0, r0, lsr #3
 1fc:	000085cc 	andeq	r8, r0, ip, asr #11
 200:	0000015c 	andeq	r0, r0, ip, asr r1
 204:	83180e42 	tsthi	r8, #1056	; 0x420
 208:	85058406 	strhi	r8, [r5, #-1030]	; 0x406
 20c:	87038604 	strhi	r8, [r3, -r4, lsl #12]
 210:	00018e02 	andeq	r8, r1, r2, lsl #28
 214:	0000000c 	andeq	r0, r0, ip
 218:	ffffffff 			; <UNDEFINED> instruction: 0xffffffff
 21c:	7c020001 	stcvc	0, cr0, [r2], {1}
 220:	000d0c0e 	andeq	r0, sp, lr, lsl #24
 224:	0000001c 	andeq	r0, r0, ip, lsl r0
 228:	00000214 	andeq	r0, r0, r4, lsl r2
 22c:	00008758 	andeq	r8, r0, r8, asr r7
 230:	00000010 	andeq	r0, r0, r0, lsl r0
 234:	420c0d42 	andmi	r0, ip, #4224	; 0x1080
 238:	038d048b 	orreq	r0, sp, #-1962934272	; 0x8b000000
 23c:	0c42028e 	sfmeq	f0, 2, [r2], {142}	; 0x8e
 240:	0000040b 	andeq	r0, r0, fp, lsl #8
 244:	0000001c 	andeq	r0, r0, ip, lsl r0
 248:	00000214 	andeq	r0, r0, r4, lsl r2
 24c:	00008768 	andeq	r8, r0, r8, ror #14
 250:	00000064 	andeq	r0, r0, r4, rrx
 254:	420c0d42 	andmi	r0, ip, #4224	; 0x1080
 258:	048b0584 	streq	r0, [fp], #1412	; 0x584
 25c:	028e038d 	addeq	r0, lr, #872415234	; 0x34000002
 260:	040b0c42 	streq	r0, [fp], #-3138	; 0xc42
 264:	0000001c 	andeq	r0, r0, ip, lsl r0
 268:	00000214 	andeq	r0, r0, r4, lsl r2
 26c:	000087cc 	andeq	r8, r0, ip, asr #15
 270:	00000058 	andeq	r0, r0, r8, asr r0
 274:	420c0d42 	andmi	r0, ip, #4224	; 0x1080
 278:	038d048b 	orreq	r0, sp, #-1962934272	; 0x8b000000
 27c:	0c42028e 	sfmeq	f0, 2, [r2], {142}	; 0x8e
 280:	0000040b 	andeq	r0, r0, fp, lsl #8
 284:	0000001c 	andeq	r0, r0, ip, lsl r0
 288:	00000214 	andeq	r0, r0, r4, lsl r2
 28c:	00008824 	andeq	r8, r0, r4, lsr #16
 290:	00000018 	andeq	r0, r0, r8, lsl r0
 294:	420c0d42 	andmi	r0, ip, #4224	; 0x1080
 298:	038d048b 	orreq	r0, sp, #-1962934272	; 0x8b000000
 29c:	0c42028e 	sfmeq	f0, 2, [r2], {142}	; 0x8e
 2a0:	0000040b 	andeq	r0, r0, fp, lsl #8
 2a4:	0000001c 	andeq	r0, r0, ip, lsl r0
 2a8:	00000214 	andeq	r0, r0, r4, lsl r2
 2ac:	0000883c 	andeq	r8, r0, ip, lsr r8
 2b0:	00000018 	andeq	r0, r0, r8, lsl r0
 2b4:	420c0d42 	andmi	r0, ip, #4224	; 0x1080
 2b8:	038d048b 	orreq	r0, sp, #-1962934272	; 0x8b000000
 2bc:	0c42028e 	sfmeq	f0, 2, [r2], {142}	; 0x8e
 2c0:	0000040b 	andeq	r0, r0, fp, lsl #8
 2c4:	0000001c 	andeq	r0, r0, ip, lsl r0
 2c8:	00000214 	andeq	r0, r0, r4, lsl r2
 2cc:	00008854 	andeq	r8, r0, r4, asr r8
 2d0:	00000060 	andeq	r0, r0, r0, rrx
 2d4:	420c0d42 	andmi	r0, ip, #4224	; 0x1080
 2d8:	038d048b 	orreq	r0, sp, #-1962934272	; 0x8b000000
 2dc:	0c42028e 	sfmeq	f0, 2, [r2], {142}	; 0x8e
 2e0:	0000040b 	andeq	r0, r0, fp, lsl #8
 2e4:	0000001c 	andeq	r0, r0, ip, lsl r0
 2e8:	00000214 	andeq	r0, r0, r4, lsl r2
 2ec:	000088b4 			; <UNDEFINED> instruction: 0x000088b4
 2f0:	00000048 	andeq	r0, r0, r8, asr #32
 2f4:	420c0d42 	andmi	r0, ip, #4224	; 0x1080
 2f8:	038d048b 	orreq	r0, sp, #-1962934272	; 0x8b000000
 2fc:	0c42028e 	sfmeq	f0, 2, [r2], {142}	; 0x8e
 300:	0000040b 	andeq	r0, r0, fp, lsl #8
 304:	0000000c 	andeq	r0, r0, ip
 308:	ffffffff 			; <UNDEFINED> instruction: 0xffffffff
 30c:	7c020001 	stcvc	0, cr0, [r2], {1}
 310:	000d0c0e 	andeq	r0, sp, lr, lsl #24
 314:	0000001c 	andeq	r0, r0, ip, lsl r0
 318:	00000304 	andeq	r0, r0, r4, lsl #6
 31c:	000088fc 	strdeq	r8, [r0], -ip
 320:	00000010 	andeq	r0, r0, r0, lsl r0
 324:	420c0d42 	andmi	r0, ip, #4224	; 0x1080
 328:	038d048b 	orreq	r0, sp, #-1962934272	; 0x8b000000
 32c:	0c42028e 	sfmeq	f0, 2, [r2], {142}	; 0x8e
 330:	0000040b 	andeq	r0, r0, fp, lsl #8
 334:	0000001c 	andeq	r0, r0, ip, lsl r0
 338:	00000304 	andeq	r0, r0, r4, lsl #6
 33c:	0000890c 	andeq	r8, r0, ip, lsl #18
 340:	0000001c 	andeq	r0, r0, ip, lsl r0
 344:	420c0d42 	andmi	r0, ip, #4224	; 0x1080
 348:	038d048b 	orreq	r0, sp, #-1962934272	; 0x8b000000
 34c:	0c42028e 	sfmeq	f0, 2, [r2], {142}	; 0x8e
 350:	0000040b 	andeq	r0, r0, fp, lsl #8
 354:	00000020 	andeq	r0, r0, r0, lsr #32
 358:	00000304 	andeq	r0, r0, r4, lsl #6
 35c:	00008928 	andeq	r8, r0, r8, lsr #18
 360:	0000002c 	andeq	r0, r0, ip, lsr #32
 364:	420c0d42 	andmi	r0, ip, #4224	; 0x1080
 368:	05850684 	streq	r0, [r5, #1668]	; 0x684
 36c:	038d048b 	orreq	r0, sp, #-1962934272	; 0x8b000000
 370:	0c42028e 	sfmeq	f0, 2, [r2], {142}	; 0x8e
 374:	0000040b 	andeq	r0, r0, fp, lsl #8
 378:	00000024 	andeq	r0, r0, r4, lsr #32
 37c:	00000304 	andeq	r0, r0, r4, lsl #6
 380:	00008954 	andeq	r8, r0, r4, asr r9
 384:	00000034 	andeq	r0, r0, r4, lsr r0
 388:	420c0d42 	andmi	r0, ip, #4224	; 0x1080
 38c:	07840883 	streq	r0, [r4, r3, lsl #17]
 390:	05860685 	streq	r0, [r6, #1669]	; 0x685
 394:	038d048b 	orreq	r0, sp, #-1962934272	; 0x8b000000
 398:	0c42028e 	sfmeq	f0, 2, [r2], {142}	; 0x8e
 39c:	0000040b 	andeq	r0, r0, fp, lsl #8
 3a0:	00000024 	andeq	r0, r0, r4, lsr #32
 3a4:	00000304 	andeq	r0, r0, r4, lsl #6
 3a8:	00008988 	andeq	r8, r0, r8, lsl #19
 3ac:	00000034 	andeq	r0, r0, r4, lsr r0
 3b0:	420c0d42 	andmi	r0, ip, #4224	; 0x1080
 3b4:	07840883 	streq	r0, [r4, r3, lsl #17]
 3b8:	05860685 	streq	r0, [r6, #1669]	; 0x685
 3bc:	038d048b 	orreq	r0, sp, #-1962934272	; 0x8b000000
 3c0:	0c42028e 	sfmeq	f0, 2, [r2], {142}	; 0x8e
 3c4:	0000040b 	andeq	r0, r0, fp, lsl #8
 3c8:	00000020 	andeq	r0, r0, r0, lsr #32
 3cc:	00000304 	andeq	r0, r0, r4, lsl #6
 3d0:	000089bc 			; <UNDEFINED> instruction: 0x000089bc
 3d4:	00000020 	andeq	r0, r0, r0, lsr #32
 3d8:	420c0d42 	andmi	r0, ip, #4224	; 0x1080
 3dc:	05840683 	streq	r0, [r4, #1667]	; 0x683
 3e0:	038d048b 	orreq	r0, sp, #-1962934272	; 0x8b000000
 3e4:	0c42028e 	sfmeq	f0, 2, [r2], {142}	; 0x8e
 3e8:	0000040b 	andeq	r0, r0, fp, lsl #8
 3ec:	0000000c 	andeq	r0, r0, ip
 3f0:	ffffffff 			; <UNDEFINED> instruction: 0xffffffff
 3f4:	7c020001 	stcvc	0, cr0, [r2], {1}
 3f8:	000d0c0e 	andeq	r0, sp, lr, lsl #24
 3fc:	0000001c 	andeq	r0, r0, ip, lsl r0
 400:	000003ec 	andeq	r0, r0, ip, ror #7
 404:	000089dc 	ldrdeq	r8, [r0], -ip
 408:	00000014 	andeq	r0, r0, r4, lsl r0
 40c:	420c0d42 	andmi	r0, ip, #4224	; 0x1080
 410:	038d048b 	orreq	r0, sp, #-1962934272	; 0x8b000000
 414:	0c42028e 	sfmeq	f0, 2, [r2], {142}	; 0x8e
 418:	0000040b 	andeq	r0, r0, fp, lsl #8
 41c:	0000001c 	andeq	r0, r0, ip, lsl r0
 420:	000003ec 	andeq	r0, r0, ip, ror #7
 424:	000089f0 	strdeq	r8, [r0], -r0
 428:	00000038 	andeq	r0, r0, r8, lsr r0
 42c:	420c0d42 	andmi	r0, ip, #4224	; 0x1080
 430:	048b0584 	streq	r0, [fp], #1412	; 0x584
 434:	028e038d 	addeq	r0, lr, #872415234	; 0x34000002
 438:	040b0c42 	streq	r0, [fp], #-3138	; 0xc42
 43c:	00000024 	andeq	r0, r0, r4, lsr #32
 440:	000003ec 	andeq	r0, r0, ip, ror #7
 444:	00008a28 	andeq	r8, r0, r8, lsr #20
 448:	000000c8 	andeq	r0, r0, r8, asr #1
 44c:	420c0d42 	andmi	r0, ip, #4224	; 0x1080
 450:	07850884 	streq	r0, [r5, r4, lsl #17]
 454:	05870686 	streq	r0, [r7, #1670]	; 0x686
 458:	038d048b 	orreq	r0, sp, #-1962934272	; 0x8b000000
 45c:	0c42028e 	sfmeq	f0, 2, [r2], {142}	; 0x8e
 460:	0000040b 	andeq	r0, r0, fp, lsl #8
 464:	00000024 	andeq	r0, r0, r4, lsr #32
 468:	000003ec 	andeq	r0, r0, ip, ror #7
 46c:	00008af0 	strdeq	r8, [r0], -r0
 470:	000000d8 	ldrdeq	r0, [r0], -r8
 474:	420c0d42 	andmi	r0, ip, #4224	; 0x1080
 478:	07850884 	streq	r0, [r5, r4, lsl #17]
 47c:	05870686 	streq	r0, [r7, #1670]	; 0x686
 480:	038d048b 	orreq	r0, sp, #-1962934272	; 0x8b000000
 484:	0c42028e 	sfmeq	f0, 2, [r2], {142}	; 0x8e
 488:	0000040b 	andeq	r0, r0, fp, lsl #8
 48c:	00000028 	andeq	r0, r0, r8, lsr #32
 490:	000003ec 	andeq	r0, r0, ip, ror #7
 494:	00008bc8 	andeq	r8, r0, r8, asr #23
 498:	0000014c 	andeq	r0, r0, ip, asr #2
 49c:	420c0d42 	andmi	r0, ip, #4224	; 0x1080
 4a0:	0a850b84 	beq	fe1432b8 <__bss_end__+0xfe139060>
 4a4:	08870986 	stmeq	r7, {r1, r2, r7, r8, fp}
 4a8:	06890788 	streq	r0, [r9], r8, lsl #15
 4ac:	048b058a 	streq	r0, [fp], #1418	; 0x58a
 4b0:	028e038d 	addeq	r0, lr, #872415234	; 0x34000002
 4b4:	040b0c42 	streq	r0, [fp], #-3138	; 0xc42
 4b8:	0000002c 	andeq	r0, r0, ip, lsr #32
 4bc:	000003ec 	andeq	r0, r0, ip, ror #7
 4c0:	00008d14 	andeq	r8, r0, r4, lsl sp
 4c4:	000001e0 	andeq	r0, r0, r0, ror #3
 4c8:	420c0d42 	andmi	r0, ip, #4224	; 0x1080
 4cc:	0b840c83 	bleq	fe1036e0 <__bss_end__+0xfe0f9488>
 4d0:	09860a85 	stmibeq	r6, {r0, r2, r7, r9, fp}
 4d4:	07880887 	streq	r0, [r8, r7, lsl #17]
 4d8:	058a0689 	streq	r0, [sl, #1673]	; 0x689
 4dc:	038d048b 	orreq	r0, sp, #-1962934272	; 0x8b000000
 4e0:	0c42028e 	sfmeq	f0, 2, [r2], {142}	; 0x8e
 4e4:	0000040b 	andeq	r0, r0, fp, lsl #8
 4e8:	00000020 	andeq	r0, r0, r0, lsr #32
 4ec:	000003ec 	andeq	r0, r0, ip, ror #7
 4f0:	00008ef4 	strdeq	r8, [r0], -r4
 4f4:	0000002c 	andeq	r0, r0, ip, lsr #32
 4f8:	440c0d42 	strmi	r0, [ip], #-3394	; 0xd42
 4fc:	01830282 	orreq	r0, r3, r2, lsl #5
 500:	058d068b 	streq	r0, [sp, #1675]	; 0x68b
 504:	0c42048e 	cfstrdeq	mvd0, [r2], {142}	; 0x8e
 508:	00000c0b 	andeq	r0, r0, fp, lsl #24
 50c:	00000028 	andeq	r0, r0, r8, lsr #32
 510:	000003ec 	andeq	r0, r0, ip, ror #7
 514:	00008f20 	andeq	r8, r0, r0, lsr #30
 518:	00000068 	andeq	r0, r0, r8, rrx
 51c:	440c0d42 	strmi	r0, [ip], #-3394	; 0xd42
 520:	03810480 	orreq	r0, r1, #128, 8	; 0x80000000
 524:	01830282 	orreq	r0, r3, r2, lsl #5
 528:	09850a84 	stmibeq	r5, {r2, r7, r9, fp}
 52c:	078d088b 	streq	r0, [sp, fp, lsl #17]
 530:	0c42068e 	mcrreq	6, 8, r0, r2, cr14
 534:	0000140b 	andeq	r1, r0, fp, lsl #8
 538:	0000000c 	andeq	r0, r0, ip
 53c:	ffffffff 			; <UNDEFINED> instruction: 0xffffffff
 540:	7c020001 	stcvc	0, cr0, [r2], {1}
 544:	000d0c0e 	andeq	r0, sp, lr, lsl #24
 548:	00000020 	andeq	r0, r0, r0, lsr #32
 54c:	00000538 	andeq	r0, r0, r8, lsr r5
 550:	00008f88 	andeq	r8, r0, r8, lsl #31
 554:	00000068 	andeq	r0, r0, r8, rrx
 558:	420c0d42 	andmi	r0, ip, #4224	; 0x1080
 55c:	05850684 	streq	r0, [r5, #1668]	; 0x684
 560:	038d048b 	orreq	r0, sp, #-1962934272	; 0x8b000000
 564:	0c42028e 	sfmeq	f0, 2, [r2], {142}	; 0x8e
 568:	0000040b 	andeq	r0, r0, fp, lsl #8
 56c:	0000001c 	andeq	r0, r0, ip, lsl r0
 570:	00000538 	andeq	r0, r0, r8, lsr r5
 574:	00008ff0 	strdeq	r8, [r0], -r0
 578:	00000030 	andeq	r0, r0, r0, lsr r0
 57c:	420c0d42 	andmi	r0, ip, #4224	; 0x1080
 580:	038d048b 	orreq	r0, sp, #-1962934272	; 0x8b000000
 584:	0c42028e 	sfmeq	f0, 2, [r2], {142}	; 0x8e
 588:	0000040b 	andeq	r0, r0, fp, lsl #8
 58c:	00000020 	andeq	r0, r0, r0, lsr #32
 590:	00000538 	andeq	r0, r0, r8, lsr r5
 594:	00009020 	andeq	r9, r0, r0, lsr #32
 598:	00000040 	andeq	r0, r0, r0, asr #32
 59c:	420c0d42 	andmi	r0, ip, #4224	; 0x1080
 5a0:	05840683 	streq	r0, [r4, #1667]	; 0x683
 5a4:	038d048b 	orreq	r0, sp, #-1962934272	; 0x8b000000
 5a8:	0c42028e 	sfmeq	f0, 2, [r2], {142}	; 0x8e
 5ac:	0000040b 	andeq	r0, r0, fp, lsl #8
 5b0:	0000001c 	andeq	r0, r0, ip, lsl r0
 5b4:	00000538 	andeq	r0, r0, r8, lsr r5
 5b8:	00009060 	andeq	r9, r0, r0, rrx
 5bc:	00000024 	andeq	r0, r0, r4, lsr #32
 5c0:	420c0d42 	andmi	r0, ip, #4224	; 0x1080
 5c4:	038d048b 	orreq	r0, sp, #-1962934272	; 0x8b000000
 5c8:	0c42028e 	sfmeq	f0, 2, [r2], {142}	; 0x8e
 5cc:	0000040b 	andeq	r0, r0, fp, lsl #8
 5d0:	0000000c 	andeq	r0, r0, ip
 5d4:	ffffffff 			; <UNDEFINED> instruction: 0xffffffff
 5d8:	7c020001 	stcvc	0, cr0, [r2], {1}
 5dc:	000d0c0e 	andeq	r0, sp, lr, lsl #24
 5e0:	00000020 	andeq	r0, r0, r0, lsr #32
 5e4:	000005d0 	ldrdeq	r0, [r0], -r0	; <UNPREDICTABLE>
 5e8:	00009084 	andeq	r9, r0, r4, lsl #1
 5ec:	00000068 	andeq	r0, r0, r8, rrx
 5f0:	420c0d42 	andmi	r0, ip, #4224	; 0x1080
 5f4:	05850684 	streq	r0, [r5, #1668]	; 0x684
 5f8:	038d048b 	orreq	r0, sp, #-1962934272	; 0x8b000000
 5fc:	0c42028e 	sfmeq	f0, 2, [r2], {142}	; 0x8e
 600:	0000040b 	andeq	r0, r0, fp, lsl #8
 604:	0000001c 	andeq	r0, r0, ip, lsl r0
 608:	000005d0 	ldrdeq	r0, [r0], -r0	; <UNPREDICTABLE>
 60c:	000090ec 	andeq	r9, r0, ip, ror #1
 610:	00000020 	andeq	r0, r0, r0, lsr #32
 614:	420c0d42 	andmi	r0, ip, #4224	; 0x1080
 618:	038d048b 	orreq	r0, sp, #-1962934272	; 0x8b000000
 61c:	0c42028e 	sfmeq	f0, 2, [r2], {142}	; 0x8e
 620:	0000040b 	andeq	r0, r0, fp, lsl #8
 624:	0000001c 	andeq	r0, r0, ip, lsl r0
 628:	000005d0 	ldrdeq	r0, [r0], -r0	; <UNPREDICTABLE>
 62c:	0000910c 	andeq	r9, r0, ip, lsl #2
 630:	00000018 	andeq	r0, r0, r8, lsl r0
 634:	420c0d42 	andmi	r0, ip, #4224	; 0x1080
 638:	038d048b 	orreq	r0, sp, #-1962934272	; 0x8b000000
 63c:	0c42028e 	sfmeq	f0, 2, [r2], {142}	; 0x8e
 640:	0000040b 	andeq	r0, r0, fp, lsl #8
 644:	0000000c 	andeq	r0, r0, ip
 648:	ffffffff 			; <UNDEFINED> instruction: 0xffffffff
 64c:	7c020001 	stcvc	0, cr0, [r2], {1}
 650:	000d0c0e 	andeq	r0, sp, lr, lsl #24
 654:	00000020 	andeq	r0, r0, r0, lsr #32
 658:	00000644 	andeq	r0, r0, r4, asr #12
 65c:	00009124 	andeq	r9, r0, r4, lsr #2
 660:	000000bc 	strheq	r0, [r0], -ip
 664:	420c0d42 	andmi	r0, ip, #4224	; 0x1080
 668:	05850684 	streq	r0, [r5, #1668]	; 0x684
 66c:	038d048b 	orreq	r0, sp, #-1962934272	; 0x8b000000
 670:	0c42028e 	sfmeq	f0, 2, [r2], {142}	; 0x8e
 674:	0000040b 	andeq	r0, r0, fp, lsl #8
 678:	00000020 	andeq	r0, r0, r0, lsr #32
 67c:	00000644 	andeq	r0, r0, r4, asr #12
 680:	000091e0 	andeq	r9, r0, r0, ror #3
 684:	00000090 	muleq	r0, r0, r0
 688:	420c0d42 	andmi	r0, ip, #4224	; 0x1080
 68c:	06850784 	streq	r0, [r5], r4, lsl #15
 690:	048b0586 	streq	r0, [fp], #1414	; 0x586
 694:	028e038d 	addeq	r0, lr, #872415234	; 0x34000002
 698:	040b0c42 	streq	r0, [fp], #-3138	; 0xc42
 69c:	0000000c 	andeq	r0, r0, ip
 6a0:	ffffffff 			; <UNDEFINED> instruction: 0xffffffff
 6a4:	7c010001 	stcvc	0, cr0, [r1], {1}
 6a8:	000d0c0e 	andeq	r0, sp, lr, lsl #24
 6ac:	0000000c 	andeq	r0, r0, ip
 6b0:	0000069c 	muleq	r0, ip, r6
 6b4:	00009270 	andeq	r9, r0, r0, ror r2
 6b8:	000000f4 	strdeq	r0, [r0], -r4

Disassembly of section .debug_ranges:

00000000 <.debug_ranges>:
   0:	00000100 	andeq	r0, r0, r0, lsl #2
   4:	00000108 	andeq	r0, r0, r8, lsl #2
   8:	0000010c 	andeq	r0, r0, ip, lsl #2
   c:	00000158 	andeq	r0, r0, r8, asr r1
	...
  18:	00000030 	andeq	r0, r0, r0, lsr r0
  1c:	00000034 	andeq	r0, r0, r4, lsr r0
  20:	00000038 	andeq	r0, r0, r8, lsr r0
  24:	0000004c 	andeq	r0, r0, ip, asr #32
	...
  30:	00000014 	andeq	r0, r0, r4, lsl r0
  34:	00000018 	andeq	r0, r0, r8, lsl r0
  38:	00000020 	andeq	r0, r0, r0, lsr #32
  3c:	00000060 	andeq	r0, r0, r0, rrx
	...
  48:	00008758 	andeq	r8, r0, r8, asr r7
  4c:	00008768 	andeq	r8, r0, r8, ror #14
  50:	00008768 	andeq	r8, r0, r8, ror #14
  54:	000087cc 	andeq	r8, r0, ip, asr #15
  58:	000087cc 	andeq	r8, r0, ip, asr #15
  5c:	00008824 	andeq	r8, r0, r4, lsr #16
  60:	00008824 	andeq	r8, r0, r4, lsr #16
  64:	0000883c 	andeq	r8, r0, ip, lsr r8
  68:	0000883c 	andeq	r8, r0, ip, lsr r8
  6c:	00008854 	andeq	r8, r0, r4, asr r8
  70:	00008854 	andeq	r8, r0, r4, asr r8
  74:	000088b4 			; <UNDEFINED> instruction: 0x000088b4
  78:	000088b4 			; <UNDEFINED> instruction: 0x000088b4
  7c:	000088fc 	strdeq	r8, [r0], -ip
	...
  88:	000088fc 	strdeq	r8, [r0], -ip
  8c:	0000890c 	andeq	r8, r0, ip, lsl #18
  90:	0000890c 	andeq	r8, r0, ip, lsl #18
  94:	00008928 	andeq	r8, r0, r8, lsr #18
  98:	00008928 	andeq	r8, r0, r8, lsr #18
  9c:	00008954 	andeq	r8, r0, r4, asr r9
  a0:	00008954 	andeq	r8, r0, r4, asr r9
  a4:	00008988 	andeq	r8, r0, r8, lsl #19
  a8:	00008988 	andeq	r8, r0, r8, lsl #19
  ac:	000089bc 			; <UNDEFINED> instruction: 0x000089bc
  b0:	000089bc 			; <UNDEFINED> instruction: 0x000089bc
  b4:	000089dc 	ldrdeq	r8, [r0], -ip
	...
  c0:	00008a38 	andeq	r8, r0, r8, lsr sl
  c4:	00008a3c 	andeq	r8, r0, ip, lsr sl
  c8:	00008a40 	andeq	r8, r0, r0, asr #20
  cc:	00008a54 	andeq	r8, r0, r4, asr sl
	...
  d8:	00008a64 	andeq	r8, r0, r4, ror #20
  dc:	00008a68 	andeq	r8, r0, r8, ror #20
  e0:	00008a6c 	andeq	r8, r0, ip, ror #20
  e4:	00008a94 	muleq	r0, r4, sl
	...
  f0:	00008b00 	andeq	r8, r0, r0, lsl #22
  f4:	00008b04 	andeq	r8, r0, r4, lsl #22
  f8:	00008b08 	andeq	r8, r0, r8, lsl #22
  fc:	00008b1c 	andeq	r8, r0, ip, lsl fp
	...
 108:	00008b2c 	andeq	r8, r0, ip, lsr #22
 10c:	00008b30 	andeq	r8, r0, r0, lsr fp
 110:	00008b34 	andeq	r8, r0, r4, lsr fp
 114:	00008b5c 	andeq	r8, r0, ip, asr fp
	...
 120:	00008b60 	andeq	r8, r0, r0, ror #22
 124:	00008b68 	andeq	r8, r0, r8, ror #22
 128:	00008b70 	andeq	r8, r0, r0, ror fp
 12c:	00008b94 	muleq	r0, r4, fp
	...
 138:	00008bec 	andeq	r8, r0, ip, ror #23
 13c:	00008bf0 	strdeq	r8, [r0], -r0
 140:	00008bf4 	strdeq	r8, [r0], -r4
 144:	00008c14 	andeq	r8, r0, r4, lsl ip
	...
 150:	000089dc 	ldrdeq	r8, [r0], -ip
 154:	000089f0 	strdeq	r8, [r0], -r0
 158:	000089f0 	strdeq	r8, [r0], -r0
 15c:	00008a28 	andeq	r8, r0, r8, lsr #20
 160:	00008a28 	andeq	r8, r0, r8, lsr #20
 164:	00008af0 	strdeq	r8, [r0], -r0
 168:	00008af0 	strdeq	r8, [r0], -r0
 16c:	00008bc8 	andeq	r8, r0, r8, asr #23
 170:	00008bc8 	andeq	r8, r0, r8, asr #23
 174:	00008d14 	andeq	r8, r0, r4, lsl sp
 178:	00008d14 	andeq	r8, r0, r4, lsl sp
 17c:	00008ef4 	strdeq	r8, [r0], -r4
 180:	00008ef4 	strdeq	r8, [r0], -r4
 184:	00008f20 	andeq	r8, r0, r0, lsr #30
 188:	00008f20 	andeq	r8, r0, r0, lsr #30
 18c:	00008f88 	andeq	r8, r0, r8, lsl #31
	...
 198:	00008f88 	andeq	r8, r0, r8, lsl #31
 19c:	00008ff0 	strdeq	r8, [r0], -r0
 1a0:	00008ff0 	strdeq	r8, [r0], -r0
 1a4:	00009020 	andeq	r9, r0, r0, lsr #32
 1a8:	00009020 	andeq	r9, r0, r0, lsr #32
 1ac:	00009060 	andeq	r9, r0, r0, rrx
 1b0:	00009060 	andeq	r9, r0, r0, rrx
 1b4:	00009084 	andeq	r9, r0, r4, lsl #1
	...
 1c0:	00009084 	andeq	r9, r0, r4, lsl #1
 1c4:	000090ec 	andeq	r9, r0, ip, ror #1
 1c8:	000090ec 	andeq	r9, r0, ip, ror #1
 1cc:	0000910c 	andeq	r9, r0, ip, lsl #2
 1d0:	0000910c 	andeq	r9, r0, ip, lsl #2
 1d4:	00009124 	andeq	r9, r0, r4, lsr #2
	...
 1e0:	00009124 	andeq	r9, r0, r4, lsr #2
 1e4:	000091e0 	andeq	r9, r0, r0, ror #3
 1e8:	000091e0 	andeq	r9, r0, r0, ror #3
 1ec:	00009270 	andeq	r9, r0, r0, ror r2
	...
