
pwm-sine.elf:     file format elf32-littlearm


Disassembly of section .text:

00008000 <_start>:
    8000:	e3a0d302 	mov	sp, #134217728	; 0x8000000
    8004:	e3a0b000 	mov	fp, #0
    8008:	eb00000c 	bl	8040 <_cstart>

0000800c <hang>:
    800c:	eafffffe 	b	800c <hang>

00008010 <main>:
    8010:	e92d4008 	push	{r3, lr}
    8014:	eb00008b 	bl	8248 <audio_init>
    8018:	eb0000ba 	bl	8308 <peripherals_init>
    801c:	e59f3018 	ldr	r3, [pc, #24]	; 803c <main+0x2c>
    8020:	e1a02003 	mov	r2, r3
    8024:	e2830004 	add	r0, r3, #4
    8028:	e4921078 	ldr	r1, [r2], #120	; 0x78
    802c:	e5933074 	ldr	r3, [r3, #116]	; 0x74
    8030:	eb0001ee 	bl	87f0 <turntable_run>
    8034:	e8bd4008 	pop	{r3, lr}
    8038:	e12fff1e 	bx	lr
    803c:	0000a434 	andeq	sl, r0, r4, lsr r4

00008040 <_cstart>:
    8040:	e92d4008 	push	{r3, lr}
    8044:	e59f3024 	ldr	r3, [pc, #36]	; 8070 <_cstart+0x30>
    8048:	e59f2024 	ldr	r2, [pc, #36]	; 8074 <_cstart+0x34>
    804c:	e3a01000 	mov	r1, #0
    8050:	ea000001 	b	805c <_cstart+0x1c>
    8054:	e5831000 	str	r1, [r3]
    8058:	e2833004 	add	r3, r3, #4
    805c:	e1530002 	cmp	r3, r2
    8060:	3afffffb 	bcc	8054 <_cstart+0x14>
    8064:	ebffffe9 	bl	8010 <main>
    8068:	e8bd4008 	pop	{r3, lr}
    806c:	e12fff1e 	bx	lr
    8070:	0000c6f4 	strdeq	ip, [r0], -r4
    8074:	0000c708 	andeq	ip, r0, r8, lsl #14

00008078 <audio_set_clock>:
    8078:	e92d4038 	push	{r3, r4, r5, lr}
    807c:	e1a04600 	lsl	r4, r0, #12
    8080:	e59f006c 	ldr	r0, [pc, #108]	; 80f4 <audio_set_clock+0x7c>
    8084:	e1a01004 	mov	r1, r4
    8088:	eb0005bb 	bl	977c <__aeabi_uidiv>
    808c:	e1a05000 	mov	r5, r0
    8090:	e0000495 	mul	r0, r5, r4
    8094:	e2600749 	rsb	r0, r0, #19136512	; 0x1240000
    8098:	e2800b3e 	add	r0, r0, #63488	; 0xf800
    809c:	e1a01624 	lsr	r1, r4, #12
    80a0:	eb0005b5 	bl	977c <__aeabi_uidiv>
    80a4:	e2452001 	sub	r2, r5, #1
    80a8:	e59f3048 	ldr	r3, [pc, #72]	; 80f8 <audio_set_clock+0x80>
    80ac:	e1520003 	cmp	r2, r3
    80b0:	8a00000a 	bhi	80e0 <audio_set_clock+0x68>
    80b4:	e3500a01 	cmp	r0, #4096	; 0x1000
    80b8:	2a00000a 	bcs	80e8 <audio_set_clock+0x70>
    80bc:	e59f3038 	ldr	r3, [pc, #56]	; 80fc <audio_set_clock+0x84>
    80c0:	e5933000 	ldr	r3, [r3]
    80c4:	e59f2034 	ldr	r2, [pc, #52]	; 8100 <audio_set_clock+0x88>
    80c8:	e58320a0 	str	r2, [r3, #160]	; 0xa0
    80cc:	e1800605 	orr	r0, r0, r5, lsl #12
    80d0:	e380045a 	orr	r0, r0, #1509949440	; 0x5a000000
    80d4:	e58300a4 	str	r0, [r3, #164]	; 0xa4
    80d8:	e3a00001 	mov	r0, #1
    80dc:	ea000002 	b	80ec <audio_set_clock+0x74>
    80e0:	e3a00000 	mov	r0, #0
    80e4:	ea000000 	b	80ec <audio_set_clock+0x74>
    80e8:	e3a00000 	mov	r0, #0
    80ec:	e8bd4038 	pop	{r3, r4, r5, lr}
    80f0:	e12fff1e 	bx	lr
    80f4:	0124f800 	msreq	CPSR_s, r0, lsl #16
    80f8:	00000ffe 	strdeq	r0, [r0], -lr
    80fc:	0000a5bc 			; <UNDEFINED> instruction: 0x0000a5bc
    8100:	5a000020 	bpl	8188 <audio_send_tone+0x84>

00008104 <audio_send_tone>:
    8104:	e92d4ff0 	push	{r4, r5, r6, r7, r8, r9, sl, fp, lr}
    8108:	e24dd014 	sub	sp, sp, #20
    810c:	e58d100c 	str	r1, [sp, #12]
    8110:	eb000701 	bl	9d1c <__aeabi_i2d>
    8114:	e3a02000 	mov	r2, #0
    8118:	e59f310c 	ldr	r3, [pc, #268]	; 822c <audio_send_tone+0x128>
    811c:	eb000735 	bl	9df8 <__aeabi_dmul>
    8120:	e3a02000 	mov	r2, #0
    8124:	e59f3104 	ldr	r3, [pc, #260]	; 8230 <audio_send_tone+0x12c>
    8128:	eb0007d6 	bl	a088 <__aeabi_ddiv>
    812c:	e3a02000 	mov	r2, #0
    8130:	e59f30fc 	ldr	r3, [pc, #252]	; 8234 <audio_send_tone+0x130>
    8134:	eb0007d3 	bl	a088 <__aeabi_ddiv>
    8138:	e88d0003 	stm	sp, {r0, r1}
    813c:	e3a06000 	mov	r6, #0
    8140:	e59fa0f0 	ldr	sl, [pc, #240]	; 8238 <audio_send_tone+0x134>
    8144:	e59f70f0 	ldr	r7, [pc, #240]	; 823c <audio_send_tone+0x138>
    8148:	ea000032 	b	8218 <audio_send_tone+0x114>
    814c:	e59a8004 	ldr	r8, [sl, #4]
    8150:	e5989004 	ldr	r9, [r8, #4]
    8154:	e3190001 	tst	r9, #1
    8158:	1a00002a 	bne	8208 <audio_send_tone+0x104>
    815c:	e5973000 	ldr	r3, [r7]
    8160:	e08a3103 	add	r3, sl, r3, lsl #2
    8164:	e5930008 	ldr	r0, [r3, #8]
    8168:	e59d100c 	ldr	r1, [sp, #12]
    816c:	eb000582 	bl	977c <__aeabi_uidiv>
    8170:	e5880018 	str	r0, [r8, #24]
    8174:	e89d0003 	ldm	sp, {r0, r1}
    8178:	e2873008 	add	r3, r7, #8
    817c:	e893000c 	ldm	r3, {r2, r3}
    8180:	eb000618 	bl	99e8 <__adddf3>
    8184:	e1a04000 	mov	r4, r0
    8188:	e1a05001 	mov	r5, r1
    818c:	e5874008 	str	r4, [r7, #8]
    8190:	e587500c 	str	r5, [r7, #12]
    8194:	eb00088f 	bl	a3d8 <__aeabi_d2iz>
    8198:	e1a0b000 	mov	fp, r0
    819c:	eb0006de 	bl	9d1c <__aeabi_i2d>
    81a0:	e3a02000 	mov	r2, #0
    81a4:	e59f3094 	ldr	r3, [pc, #148]	; 8240 <audio_send_tone+0x13c>
    81a8:	eb00060e 	bl	99e8 <__adddf3>
    81ac:	e1a02000 	mov	r2, r0
    81b0:	e1a03001 	mov	r3, r1
    81b4:	e1a00004 	mov	r0, r4
    81b8:	e1a01005 	mov	r1, r5
    81bc:	eb000879 	bl	a3a8 <__aeabi_dcmpge>
    81c0:	e3500000 	cmp	r0, #0
    81c4:	0a000007 	beq	81e8 <audio_send_tone+0xe4>
    81c8:	e1a00004 	mov	r0, r4
    81cc:	e1a01005 	mov	r1, r5
    81d0:	e3a02000 	mov	r2, #0
    81d4:	e59f3068 	ldr	r3, [pc, #104]	; 8244 <audio_send_tone+0x140>
    81d8:	eb000602 	bl	99e8 <__adddf3>
    81dc:	eb00087d 	bl	a3d8 <__aeabi_d2iz>
    81e0:	e5870000 	str	r0, [r7]
    81e4:	ea000000 	b	81ec <audio_send_tone+0xe8>
    81e8:	e587b000 	str	fp, [r7]
    81ec:	e5972000 	ldr	r2, [r7]
    81f0:	e1a03fc2 	asr	r3, r2, #31
    81f4:	e1a03b23 	lsr	r3, r3, #22
    81f8:	e0822003 	add	r2, r2, r3
    81fc:	e1a02b02 	lsl	r2, r2, #22
    8200:	e0633b22 	rsb	r3, r3, r2, lsr #22
    8204:	e5873000 	str	r3, [r7]
    8208:	e319003c 	tst	r9, #60	; 0x3c
    820c:	13a0303c 	movne	r3, #60	; 0x3c
    8210:	15883004 	strne	r3, [r8, #4]
    8214:	e2866001 	add	r6, r6, #1
    8218:	e3560063 	cmp	r6, #99	; 0x63
    821c:	daffffca 	ble	814c <audio_send_tone+0x48>
    8220:	e28dd014 	add	sp, sp, #20
    8224:	e8bd4ff0 	pop	{r4, r5, r6, r7, r8, r9, sl, fp, lr}
    8228:	e12fff1e 	bx	lr
    822c:	40300000 	eorsmi	r0, r0, r0
    8230:	408f4000 	addmi	r4, pc, r0
    8234:	40590000 	subsmi	r0, r9, r0
    8238:	0000a5bc 			; <UNDEFINED> instruction: 0x0000a5bc
    823c:	0000c6f8 	strdeq	ip, [r0], -r8
    8240:	3fe00000 	svccc	0x00e00000
    8244:	3ff00000 	svccc	0x00f00000	; IMB

00008248 <audio_init>:
    8248:	e92d4010 	push	{r4, lr}
    824c:	e59f3084 	ldr	r3, [pc, #132]	; 82d8 <audio_init+0x90>
    8250:	e5133fec 	ldr	r3, [r3, #-4076]	; 0xfec
    8254:	e5932010 	ldr	r2, [r3, #16]
    8258:	e3822004 	orr	r2, r2, #4
    825c:	e5832010 	str	r2, [r3, #16]
    8260:	e5932010 	ldr	r2, [r3, #16]
    8264:	e3822802 	orr	r2, r2, #131072	; 0x20000
    8268:	e5832010 	str	r2, [r3, #16]
    826c:	e3a00e7d 	mov	r0, #2000	; 0x7d0
    8270:	eb00045a 	bl	93e0 <delay_us>
    8274:	e3a00ffa 	mov	r0, #1000	; 0x3e8
    8278:	ebffff7e 	bl	8078 <audio_set_clock>
    827c:	e3500000 	cmp	r0, #0
    8280:	0a000012 	beq	82d0 <audio_init+0x88>
    8284:	e59f4050 	ldr	r4, [pc, #80]	; 82dc <audio_init+0x94>
    8288:	e5943000 	ldr	r3, [r4]
    828c:	e59f204c 	ldr	r2, [pc, #76]	; 82e0 <audio_init+0x98>
    8290:	e58320a0 	str	r2, [r3, #160]	; 0xa0
    8294:	e3a00e7d 	mov	r0, #2000	; 0x7d0
    8298:	eb000450 	bl	93e0 <delay_us>
    829c:	e5943004 	ldr	r3, [r4, #4]
    82a0:	e3a02000 	mov	r2, #0
    82a4:	e5832000 	str	r2, [r3]
    82a8:	e3a00e7d 	mov	r0, #2000	; 0x7d0
    82ac:	eb00044b 	bl	93e0 <delay_us>
    82b0:	e5943004 	ldr	r3, [r4, #4]
    82b4:	e3a02080 	mov	r2, #128	; 0x80
    82b8:	e5832010 	str	r2, [r3, #16]
    82bc:	e5832020 	str	r2, [r3, #32]
    82c0:	e59f201c 	ldr	r2, [pc, #28]	; 82e4 <audio_init+0x9c>
    82c4:	e5832000 	str	r2, [r3]
    82c8:	e3a00e7d 	mov	r0, #2000	; 0x7d0
    82cc:	eb000443 	bl	93e0 <delay_us>
    82d0:	e8bd4010 	pop	{r4, lr}
    82d4:	e12fff1e 	bx	lr
    82d8:	0000c5b4 			; <UNDEFINED> instruction: 0x0000c5b4
    82dc:	0000a5bc 			; <UNDEFINED> instruction: 0x0000a5bc
    82e0:	5a000611 	bpl	9b2c <__adddf3+0x144>
    82e4:	00002161 	andeq	r2, r0, r1, ror #2

000082e8 <memcpy>:
    82e8:	e3a03000 	mov	r3, #0
    82ec:	ea000002 	b	82fc <memcpy+0x14>
    82f0:	e7d1c003 	ldrb	ip, [r1, r3]
    82f4:	e7c0c003 	strb	ip, [r0, r3]
    82f8:	e2833001 	add	r3, r3, #1
    82fc:	e1530002 	cmp	r3, r2
    8300:	3afffffa 	bcc	82f0 <memcpy+0x8>
    8304:	e12fff1e 	bx	lr

00008308 <peripherals_init>:
    8308:	e92d4008 	push	{r3, lr}
    830c:	eb000053 	bl	8460 <mcp3008_init>
    8310:	e3a00014 	mov	r0, #20
    8314:	eb000285 	bl	8d30 <gpio_set_input>
    8318:	e3a00014 	mov	r0, #20
    831c:	eb0004b5 	bl	95f8 <gpio_set_pullup>
    8320:	e3a00015 	mov	r0, #21
    8324:	eb000281 	bl	8d30 <gpio_set_input>
    8328:	e3a00015 	mov	r0, #21
    832c:	eb0004b1 	bl	95f8 <gpio_set_pullup>
    8330:	e3a00010 	mov	r0, #16
    8334:	eb00027d 	bl	8d30 <gpio_set_input>
    8338:	e3a00010 	mov	r0, #16
    833c:	eb0004ad 	bl	95f8 <gpio_set_pullup>
    8340:	e8bd4008 	pop	{r3, lr}
    8344:	e12fff1e 	bx	lr

00008348 <buttonPressed>:
    8348:	e92d4008 	push	{r3, lr}
    834c:	eb00029b 	bl	8dc0 <gpio_read>
    8350:	e8bd4008 	pop	{r3, lr}
    8354:	e12fff1e 	bx	lr

00008358 <getFade>:
    8358:	e92d4008 	push	{r3, lr}
    835c:	e3a00003 	mov	r0, #3
    8360:	eb000044 	bl	8478 <mcp3008_read>
    8364:	eb000663 	bl	9cf8 <__aeabi_ui2d>
    8368:	e3a02000 	mov	r2, #0
    836c:	e59f3018 	ldr	r3, [pc, #24]	; 838c <getFade+0x34>
    8370:	eb0006a0 	bl	9df8 <__aeabi_dmul>
    8374:	e3a02000 	mov	r2, #0
    8378:	e59f3010 	ldr	r3, [pc, #16]	; 8390 <getFade+0x38>
    837c:	eb00069d 	bl	9df8 <__aeabi_dmul>
    8380:	eb000814 	bl	a3d8 <__aeabi_d2iz>
    8384:	e8bd4008 	pop	{r3, lr}
    8388:	e12fff1e 	bx	lr
    838c:	3f500000 	svccc	0x00500000
    8390:	40590000 	subsmi	r0, r9, r0

00008394 <getVolume>:
    8394:	e92d4008 	push	{r3, lr}
    8398:	e3a00000 	mov	r0, #0
    839c:	eb000035 	bl	8478 <mcp3008_read>
    83a0:	eb000654 	bl	9cf8 <__aeabi_ui2d>
    83a4:	e3a02000 	mov	r2, #0
    83a8:	e59f306c 	ldr	r3, [pc, #108]	; 841c <getVolume+0x88>
    83ac:	eb000691 	bl	9df8 <__aeabi_dmul>
    83b0:	e3a02000 	mov	r2, #0
    83b4:	e59f3064 	ldr	r3, [pc, #100]	; 8420 <getVolume+0x8c>
    83b8:	eb00068e 	bl	9df8 <__aeabi_dmul>
    83bc:	eb000805 	bl	a3d8 <__aeabi_d2iz>
    83c0:	e3500000 	cmp	r0, #0
    83c4:	0a000009 	beq	83f0 <getVolume+0x5c>
    83c8:	e3500001 	cmp	r0, #1
    83cc:	0a000009 	beq	83f8 <getVolume+0x64>
    83d0:	e3500002 	cmp	r0, #2
    83d4:	0a000009 	beq	8400 <getVolume+0x6c>
    83d8:	e3500003 	cmp	r0, #3
    83dc:	0a000009 	beq	8408 <getVolume+0x74>
    83e0:	e3500004 	cmp	r0, #4
    83e4:	1a000009 	bne	8410 <getVolume+0x7c>
    83e8:	e3a00010 	mov	r0, #16
    83ec:	ea000008 	b	8414 <getVolume+0x80>
    83f0:	e3a00001 	mov	r0, #1
    83f4:	ea000006 	b	8414 <getVolume+0x80>
    83f8:	e3a00002 	mov	r0, #2
    83fc:	ea000004 	b	8414 <getVolume+0x80>
    8400:	e3a00004 	mov	r0, #4
    8404:	ea000002 	b	8414 <getVolume+0x80>
    8408:	e3a00008 	mov	r0, #8
    840c:	ea000000 	b	8414 <getVolume+0x80>
    8410:	e3a00020 	mov	r0, #32
    8414:	e8bd4008 	pop	{r3, lr}
    8418:	e12fff1e 	bx	lr
    841c:	40180000 	andsmi	r0, r8, r0
    8420:	3f500000 	svccc	0x00500000

00008424 <getSpeed>:
    8424:	e92d4008 	push	{r3, lr}
    8428:	eb000012 	bl	8478 <mcp3008_read>
    842c:	eb000631 	bl	9cf8 <__aeabi_ui2d>
    8430:	e3a02000 	mov	r2, #0
    8434:	e59f301c 	ldr	r3, [pc, #28]	; 8458 <getSpeed+0x34>
    8438:	eb00066e 	bl	9df8 <__aeabi_dmul>
    843c:	e3a02000 	mov	r2, #0
    8440:	e59f3014 	ldr	r3, [pc, #20]	; 845c <getSpeed+0x38>
    8444:	eb00066b 	bl	9df8 <__aeabi_dmul>
    8448:	eb0007e2 	bl	a3d8 <__aeabi_d2iz>
    844c:	e2800001 	add	r0, r0, #1
    8450:	e8bd4008 	pop	{r3, lr}
    8454:	e12fff1e 	bx	lr
    8458:	3f500000 	svccc	0x00500000
    845c:	40240000 	eormi	r0, r4, r0

00008460 <mcp3008_init>:
    8460:	e92d4008 	push	{r3, lr}
    8464:	e3a00000 	mov	r0, #0
    8468:	e3a01b01 	mov	r1, #1024	; 0x400
    846c:	eb00046f 	bl	9630 <spi_init>
    8470:	e8bd4008 	pop	{r3, lr}
    8474:	e12fff1e 	bx	lr

00008478 <mcp3008_read>:
    8478:	e52de004 	push	{lr}		; (str lr, [sp, #-4]!)
    847c:	e24dd00c 	sub	sp, sp, #12
    8480:	e3a03001 	mov	r3, #1
    8484:	e5cd3004 	strb	r3, [sp, #4]
    8488:	e2000007 	and	r0, r0, #7
    848c:	e3e0307f 	mvn	r3, #127	; 0x7f
    8490:	e1830200 	orr	r0, r3, r0, lsl #4
    8494:	e5cd0005 	strb	r0, [sp, #5]
    8498:	e3a03000 	mov	r3, #0
    849c:	e5cd3006 	strb	r3, [sp, #6]
    84a0:	e28d0004 	add	r0, sp, #4
    84a4:	e1a0100d 	mov	r1, sp
    84a8:	e3a02003 	mov	r2, #3
    84ac:	eb00048e 	bl	96ec <spi_transfer>
    84b0:	e5dd0001 	ldrb	r0, [sp, #1]
    84b4:	e2000003 	and	r0, r0, #3
    84b8:	e5dd3002 	ldrb	r3, [sp, #2]
    84bc:	e0830400 	add	r0, r3, r0, lsl #8
    84c0:	e28dd00c 	add	sp, sp, #12
    84c4:	e49de004 	pop	{lr}		; (ldr lr, [sp], #4)
    84c8:	e12fff1e 	bx	lr
    84cc:	00000000 	andeq	r0, r0, r0

000084d0 <power>:
    84d0:	e92d47f0 	push	{r4, r5, r6, r7, r8, r9, sl, lr}
    84d4:	e1a08000 	mov	r8, r0
    84d8:	e1a09001 	mov	r9, r1
    84dc:	e1a06002 	mov	r6, r2
    84e0:	e1a07003 	mov	r7, r3
    84e4:	e3a0a000 	mov	sl, #0
    84e8:	e3a04000 	mov	r4, #0
    84ec:	e59f504c 	ldr	r5, [pc, #76]	; 8540 <power+0x70>
    84f0:	ea000007 	b	8514 <power+0x44>
    84f4:	e1a00004 	mov	r0, r4
    84f8:	e1a01005 	mov	r1, r5
    84fc:	e1a02008 	mov	r2, r8
    8500:	e1a03009 	mov	r3, r9
    8504:	eb00063b 	bl	9df8 <__aeabi_dmul>
    8508:	e1a04000 	mov	r4, r0
    850c:	e1a05001 	mov	r5, r1
    8510:	e28aa001 	add	sl, sl, #1
    8514:	e1a0000a 	mov	r0, sl
    8518:	eb0005ff 	bl	9d1c <__aeabi_i2d>
    851c:	e1a02006 	mov	r2, r6
    8520:	e1a03007 	mov	r3, r7
    8524:	eb000793 	bl	a378 <__aeabi_dcmplt>
    8528:	e3500000 	cmp	r0, #0
    852c:	1afffff0 	bne	84f4 <power+0x24>
    8530:	e1a00004 	mov	r0, r4
    8534:	e1a01005 	mov	r1, r5
    8538:	e8bd47f0 	pop	{r4, r5, r6, r7, r8, r9, sl, lr}
    853c:	e12fff1e 	bx	lr
    8540:	3ff00000 	svccc	0x00f00000	; IMB

00008544 <float_mod>:
    8544:	e92d40f8 	push	{r3, r4, r5, r6, r7, lr}
    8548:	e1a04000 	mov	r4, r0
    854c:	e1a05001 	mov	r5, r1
    8550:	e1a06002 	mov	r6, r2
    8554:	e1a07003 	mov	r7, r3
    8558:	eb0006ca 	bl	a088 <__aeabi_ddiv>
    855c:	eb00079d 	bl	a3d8 <__aeabi_d2iz>
    8560:	e3100001 	tst	r0, #1
    8564:	1a00000b 	bne	8598 <float_mod+0x54>
    8568:	eb0005eb 	bl	9d1c <__aeabi_i2d>
    856c:	e1a02006 	mov	r2, r6
    8570:	e1a03007 	mov	r3, r7
    8574:	eb00061f 	bl	9df8 <__aeabi_dmul>
    8578:	e1a02000 	mov	r2, r0
    857c:	e1a03001 	mov	r3, r1
    8580:	e1a00004 	mov	r0, r4
    8584:	e1a01005 	mov	r1, r5
    8588:	eb000515 	bl	99e4 <__aeabi_dsub>
    858c:	e1a02000 	mov	r2, r0
    8590:	e1a03001 	mov	r3, r1
    8594:	ea00000a 	b	85c4 <float_mod+0x80>
    8598:	eb0005df 	bl	9d1c <__aeabi_i2d>
    859c:	e1a02006 	mov	r2, r6
    85a0:	e1a03007 	mov	r3, r7
    85a4:	eb000613 	bl	9df8 <__aeabi_dmul>
    85a8:	e1a02000 	mov	r2, r0
    85ac:	e1a03001 	mov	r3, r1
    85b0:	e1a00004 	mov	r0, r4
    85b4:	e1a01005 	mov	r1, r5
    85b8:	eb000509 	bl	99e4 <__aeabi_dsub>
    85bc:	e1a02000 	mov	r2, r0
    85c0:	e2813102 	add	r3, r1, #-2147483648	; 0x80000000
    85c4:	e1a00002 	mov	r0, r2
    85c8:	e1a01003 	mov	r1, r3
    85cc:	e8bd40f8 	pop	{r3, r4, r5, r6, r7, lr}
    85d0:	e12fff1e 	bx	lr

000085d4 <sine>:
    85d4:	e92d40f8 	push	{r3, r4, r5, r6, r7, lr}
    85d8:	e28f3f56 	add	r3, pc, #344	; 0x158
    85dc:	e893000c 	ldm	r3, {r2, r3}
    85e0:	ebffffd7 	bl	8544 <float_mod>
    85e4:	e1a04000 	mov	r4, r0
    85e8:	e1a05001 	mov	r5, r1
    85ec:	e3a02000 	mov	r2, #0
    85f0:	e59f3148 	ldr	r3, [pc, #328]	; 8740 <sine+0x16c>
    85f4:	ebffffb5 	bl	84d0 <power>
    85f8:	e3a02000 	mov	r2, #0
    85fc:	e59f3140 	ldr	r3, [pc, #320]	; 8744 <sine+0x170>
    8600:	eb0006a0 	bl	a088 <__aeabi_ddiv>
    8604:	e1a02000 	mov	r2, r0
    8608:	e1a03001 	mov	r3, r1
    860c:	e1a00004 	mov	r0, r4
    8610:	e1a01005 	mov	r1, r5
    8614:	eb0004f2 	bl	99e4 <__aeabi_dsub>
    8618:	e1a06000 	mov	r6, r0
    861c:	e1a07001 	mov	r7, r1
    8620:	e1a00004 	mov	r0, r4
    8624:	e1a01005 	mov	r1, r5
    8628:	e3a02000 	mov	r2, #0
    862c:	e59f3114 	ldr	r3, [pc, #276]	; 8748 <sine+0x174>
    8630:	ebffffa6 	bl	84d0 <power>
    8634:	e3a02000 	mov	r2, #0
    8638:	e59f310c 	ldr	r3, [pc, #268]	; 874c <sine+0x178>
    863c:	eb000691 	bl	a088 <__aeabi_ddiv>
    8640:	e1a02006 	mov	r2, r6
    8644:	e1a03007 	mov	r3, r7
    8648:	eb0004e6 	bl	99e8 <__adddf3>
    864c:	e1a06000 	mov	r6, r0
    8650:	e1a07001 	mov	r7, r1
    8654:	e1a00004 	mov	r0, r4
    8658:	e1a01005 	mov	r1, r5
    865c:	e3a02000 	mov	r2, #0
    8660:	e59f30e8 	ldr	r3, [pc, #232]	; 8750 <sine+0x17c>
    8664:	ebffff99 	bl	84d0 <power>
    8668:	e3a02000 	mov	r2, #0
    866c:	e59f30e0 	ldr	r3, [pc, #224]	; 8754 <sine+0x180>
    8670:	eb000684 	bl	a088 <__aeabi_ddiv>
    8674:	e1a02000 	mov	r2, r0
    8678:	e1a03001 	mov	r3, r1
    867c:	e1a00006 	mov	r0, r6
    8680:	e1a01007 	mov	r1, r7
    8684:	eb0004d6 	bl	99e4 <__aeabi_dsub>
    8688:	e1a06000 	mov	r6, r0
    868c:	e1a07001 	mov	r7, r1
    8690:	e1a00004 	mov	r0, r4
    8694:	e1a01005 	mov	r1, r5
    8698:	e3a02000 	mov	r2, #0
    869c:	e59f30b4 	ldr	r3, [pc, #180]	; 8758 <sine+0x184>
    86a0:	ebffff8a 	bl	84d0 <power>
    86a4:	e3a02000 	mov	r2, #0
    86a8:	e59f30ac 	ldr	r3, [pc, #172]	; 875c <sine+0x188>
    86ac:	eb000675 	bl	a088 <__aeabi_ddiv>
    86b0:	e1a02006 	mov	r2, r6
    86b4:	e1a03007 	mov	r3, r7
    86b8:	eb0004ca 	bl	99e8 <__adddf3>
    86bc:	e1a06000 	mov	r6, r0
    86c0:	e1a07001 	mov	r7, r1
    86c4:	e1a00004 	mov	r0, r4
    86c8:	e1a01005 	mov	r1, r5
    86cc:	e3a02000 	mov	r2, #0
    86d0:	e59f3088 	ldr	r3, [pc, #136]	; 8760 <sine+0x18c>
    86d4:	ebffff7d 	bl	84d0 <power>
    86d8:	e3a02000 	mov	r2, #0
    86dc:	e59f3080 	ldr	r3, [pc, #128]	; 8764 <sine+0x190>
    86e0:	eb000668 	bl	a088 <__aeabi_ddiv>
    86e4:	e1a02000 	mov	r2, r0
    86e8:	e1a03001 	mov	r3, r1
    86ec:	e1a00006 	mov	r0, r6
    86f0:	e1a01007 	mov	r1, r7
    86f4:	eb0004ba 	bl	99e4 <__aeabi_dsub>
    86f8:	e1a06000 	mov	r6, r0
    86fc:	e1a07001 	mov	r7, r1
    8700:	e1a00004 	mov	r0, r4
    8704:	e1a01005 	mov	r1, r5
    8708:	e3a02000 	mov	r2, #0
    870c:	e59f3054 	ldr	r3, [pc, #84]	; 8768 <sine+0x194>
    8710:	ebffff6e 	bl	84d0 <power>
    8714:	e3a02103 	mov	r2, #-1073741824	; 0xc0000000
    8718:	e59f304c 	ldr	r3, [pc, #76]	; 876c <sine+0x198>
    871c:	eb000659 	bl	a088 <__aeabi_ddiv>
    8720:	e1a02006 	mov	r2, r6
    8724:	e1a03007 	mov	r3, r7
    8728:	eb0004ae 	bl	99e8 <__adddf3>
    872c:	e8bd40f8 	pop	{r3, r4, r5, r6, r7, lr}
    8730:	e12fff1e 	bx	lr
    8734:	e1a00000 	nop			; (mov r0, r0)
    8738:	4d12d84a 	ldcmi	8, cr13, [r2, #-296]	; 0xfffffed8
    873c:	400921fb 	strdmi	r2, [r9], -fp
    8740:	40080000 	andmi	r0, r8, r0
    8744:	40180000 	andsmi	r0, r8, r0
    8748:	40140000 	andsmi	r0, r4, r0
    874c:	405e0000 	subsmi	r0, lr, r0
    8750:	401c0000 	andsmi	r0, ip, r0
    8754:	40b3b000 	adcsmi	fp, r3, r0
    8758:	40220000 	eormi	r0, r2, r0
    875c:	41162600 	tstmi	r6, r0, lsl #12
    8760:	40260000 	eormi	r0, r6, r0
    8764:	418308a8 	orrmi	r0, r3, r8, lsr #17
    8768:	402a0000 	eormi	r0, sl, r0
    876c:	41f7328c 	mvnsmi	r3, ip, lsl #5

00008770 <play_song>:
    8770:	e3a03000 	mov	r3, #0
    8774:	ea000000 	b	877c <play_song+0xc>
    8778:	e2833001 	add	r3, r3, #1
    877c:	e1530001 	cmp	r3, r1
    8780:	bafffffc 	blt	8778 <play_song+0x8>
    8784:	e12fff1e 	bx	lr

00008788 <round_int>:
    8788:	e92d4070 	push	{r4, r5, r6, lr}
    878c:	e1a04000 	mov	r4, r0
    8790:	e1a05001 	mov	r5, r1
    8794:	eb00070f 	bl	a3d8 <__aeabi_d2iz>
    8798:	e1a06000 	mov	r6, r0
    879c:	eb00055e 	bl	9d1c <__aeabi_i2d>
    87a0:	e3a02000 	mov	r2, #0
    87a4:	e59f303c 	ldr	r3, [pc, #60]	; 87e8 <round_int+0x60>
    87a8:	eb00048e 	bl	99e8 <__adddf3>
    87ac:	e1a02004 	mov	r2, r4
    87b0:	e1a03005 	mov	r3, r5
    87b4:	eb0006f5 	bl	a390 <__aeabi_dcmple>
    87b8:	e3500000 	cmp	r0, #0
    87bc:	0a000006 	beq	87dc <round_int+0x54>
    87c0:	e1a00004 	mov	r0, r4
    87c4:	e1a01005 	mov	r1, r5
    87c8:	e3a02000 	mov	r2, #0
    87cc:	e59f3018 	ldr	r3, [pc, #24]	; 87ec <round_int+0x64>
    87d0:	eb000484 	bl	99e8 <__adddf3>
    87d4:	eb0006ff 	bl	a3d8 <__aeabi_d2iz>
    87d8:	e1a06000 	mov	r6, r0
    87dc:	e1a00006 	mov	r0, r6
    87e0:	e8bd4070 	pop	{r4, r5, r6, lr}
    87e4:	e12fff1e 	bx	lr
    87e8:	3fe00000 	svccc	0x00e00000
    87ec:	3ff00000 	svccc	0x00f00000	; IMB

000087f0 <turntable_run>:
    87f0:	e92d4ff0 	push	{r4, r5, r6, r7, r8, r9, sl, fp, lr}
    87f4:	e24dd024 	sub	sp, sp, #36	; 0x24
    87f8:	e1a0b000 	mov	fp, r0
    87fc:	e58d1018 	str	r1, [sp, #24]
    8800:	e58d200c 	str	r2, [sp, #12]
    8804:	e58d301c 	str	r3, [sp, #28]
    8808:	e3a00000 	mov	r0, #0
    880c:	e58d0010 	str	r0, [sp, #16]
    8810:	e58d0014 	str	r0, [sp, #20]
    8814:	e58d0004 	str	r0, [sp, #4]
    8818:	e58d0008 	str	r0, [sp, #8]
    881c:	e1a05000 	mov	r5, r0
    8820:	e1a07000 	mov	r7, r0
    8824:	e1a06000 	mov	r6, r0
    8828:	e1a0a000 	mov	sl, r0
    882c:	e1a09000 	mov	r9, r0
    8830:	e3a01001 	mov	r1, #1
    8834:	e58d1000 	str	r1, [sp]
    8838:	e1a08001 	mov	r8, r1
    883c:	e3550f96 	cmp	r5, #600	; 0x258
    8840:	1a000017 	bne	88a4 <turntable_run+0xb4>
    8844:	e3a00010 	mov	r0, #16
    8848:	eb00015c 	bl	8dc0 <gpio_read>
    884c:	e3500000 	cmp	r0, #0
    8850:	0a0000ed 	beq	8c0c <turntable_run+0x41c>
    8854:	e3a00014 	mov	r0, #20
    8858:	eb000158 	bl	8dc0 <gpio_read>
    885c:	e3500000 	cmp	r0, #0
    8860:	02288001 	eoreq	r8, r8, #1
    8864:	059f03ac 	ldreq	r0, [pc, #940]	; 8c18 <turntable_run+0x428>
    8868:	01a01008 	moveq	r1, r8
    886c:	0b0002b6 	bleq	934c <printf>
    8870:	e3a00015 	mov	r0, #21
    8874:	eb000151 	bl	8dc0 <gpio_read>
    8878:	e3500000 	cmp	r0, #0
    887c:	1a000007 	bne	88a0 <turntable_run+0xb0>
    8880:	e59d2000 	ldr	r2, [sp]
    8884:	e2222001 	eor	r2, r2, #1
    8888:	e58d2000 	str	r2, [sp]
    888c:	e59f0388 	ldr	r0, [pc, #904]	; 8c1c <turntable_run+0x42c>
    8890:	e1a01002 	mov	r1, r2
    8894:	eb0002ac 	bl	934c <printf>
    8898:	e3a05000 	mov	r5, #0
    889c:	ea000000 	b	88a4 <turntable_run+0xb4>
    88a0:	e3a05000 	mov	r5, #0
    88a4:	e59f4374 	ldr	r4, [pc, #884]	; 8c20 <turntable_run+0x430>
    88a8:	e0c43495 	smull	r3, r4, r5, r4
    88ac:	e1a03fc5 	asr	r3, r5, #31
    88b0:	e06342c4 	rsb	r4, r3, r4, asr #5
    88b4:	e0844104 	add	r4, r4, r4, lsl #2
    88b8:	e0844104 	add	r4, r4, r4, lsl #2
    88bc:	e1a04104 	lsl	r4, r4, #2
    88c0:	e0644005 	rsb	r4, r4, r5
    88c4:	e3540050 	cmp	r4, #80	; 0x50
    88c8:	1a00001e 	bne	8948 <turntable_run+0x158>
    88cc:	e3a00000 	mov	r0, #0
    88d0:	ebfffee8 	bl	8478 <mcp3008_read>
    88d4:	e35000aa 	cmp	r0, #170	; 0xaa
    88d8:	da00000c 	ble	8910 <turntable_run+0x120>
    88dc:	e3500f55 	cmp	r0, #340	; 0x154
    88e0:	da00000d 	ble	891c <turntable_run+0x12c>
    88e4:	e59f1338 	ldr	r1, [pc, #824]	; 8c24 <turntable_run+0x434>
    88e8:	e1500001 	cmp	r0, r1
    88ec:	da00000d 	ble	8928 <turntable_run+0x138>
    88f0:	e59f2330 	ldr	r2, [pc, #816]	; 8c28 <turntable_run+0x438>
    88f4:	e1500002 	cmp	r0, r2
    88f8:	da00000d 	ble	8934 <turntable_run+0x144>
    88fc:	e3500fd5 	cmp	r0, #852	; 0x354
    8900:	ca00000e 	bgt	8940 <turntable_run+0x150>
    8904:	e3a03002 	mov	r3, #2
    8908:	e58d3008 	str	r3, [sp, #8]
    890c:	ea00000d 	b	8948 <turntable_run+0x158>
    8910:	e3a00020 	mov	r0, #32
    8914:	e58d0008 	str	r0, [sp, #8]
    8918:	ea00000a 	b	8948 <turntable_run+0x158>
    891c:	e3a01010 	mov	r1, #16
    8920:	e58d1008 	str	r1, [sp, #8]
    8924:	ea000007 	b	8948 <turntable_run+0x158>
    8928:	e3a02008 	mov	r2, #8
    892c:	e58d2008 	str	r2, [sp, #8]
    8930:	ea000004 	b	8948 <turntable_run+0x158>
    8934:	e3a03004 	mov	r3, #4
    8938:	e58d3008 	str	r3, [sp, #8]
    893c:	ea000001 	b	8948 <turntable_run+0x158>
    8940:	e3a00001 	mov	r0, #1
    8944:	e58d0008 	str	r0, [sp, #8]
    8948:	e354003c 	cmp	r4, #60	; 0x3c
    894c:	1a00000e 	bne	898c <turntable_run+0x19c>
    8950:	e3580000 	cmp	r8, #0
    8954:	0a000007 	beq	8978 <turntable_run+0x188>
    8958:	e59d1000 	ldr	r1, [sp]
    895c:	e3510000 	cmp	r1, #0
    8960:	0a000007 	beq	8984 <turntable_run+0x194>
    8964:	e3a00003 	mov	r0, #3
    8968:	ebfffec2 	bl	8478 <mcp3008_read>
    896c:	e2600b01 	rsb	r0, r0, #1024	; 0x400
    8970:	e58d0004 	str	r0, [sp, #4]
    8974:	ea000004 	b	898c <turntable_run+0x19c>
    8978:	e3a02b01 	mov	r2, #1024	; 0x400
    897c:	e58d2004 	str	r2, [sp, #4]
    8980:	ea000001 	b	898c <turntable_run+0x19c>
    8984:	e3a03000 	mov	r3, #0
    8988:	e58d3004 	str	r3, [sp, #4]
    898c:	e3540028 	cmp	r4, #40	; 0x28
    8990:	1a000036 	bne	8a70 <turntable_run+0x280>
    8994:	e3a00001 	mov	r0, #1
    8998:	ebfffeb6 	bl	8478 <mcp3008_read>
    899c:	e3500066 	cmp	r0, #102	; 0x66
    89a0:	da000018 	ble	8a08 <turntable_run+0x218>
    89a4:	e35000cc 	cmp	r0, #204	; 0xcc
    89a8:	da000019 	ble	8a14 <turntable_run+0x224>
    89ac:	e59f1278 	ldr	r1, [pc, #632]	; 8c2c <turntable_run+0x43c>
    89b0:	e1500001 	cmp	r0, r1
    89b4:	da000019 	ble	8a20 <turntable_run+0x230>
    89b8:	e59f3270 	ldr	r3, [pc, #624]	; 8c30 <turntable_run+0x440>
    89bc:	e1500003 	cmp	r0, r3
    89c0:	da000019 	ble	8a2c <turntable_run+0x23c>
    89c4:	e59f2258 	ldr	r2, [pc, #600]	; 8c24 <turntable_run+0x434>
    89c8:	e1500002 	cmp	r0, r2
    89cc:	da000019 	ble	8a38 <turntable_run+0x248>
    89d0:	e28330cd 	add	r3, r3, #205	; 0xcd
    89d4:	e1500003 	cmp	r0, r3
    89d8:	da000019 	ble	8a44 <turntable_run+0x254>
    89dc:	e3500fb3 	cmp	r0, #716	; 0x2cc
    89e0:	da00001a 	ble	8a50 <turntable_run+0x260>
    89e4:	e28330cc 	add	r3, r3, #204	; 0xcc
    89e8:	e1500003 	cmp	r0, r3
    89ec:	da00001a 	ble	8a5c <turntable_run+0x26c>
    89f0:	e2833067 	add	r3, r3, #103	; 0x67
    89f4:	e1500003 	cmp	r0, r3
    89f8:	ca00001a 	bgt	8a68 <turntable_run+0x278>
    89fc:	e3a03009 	mov	r3, #9
    8a00:	e58d3014 	str	r3, [sp, #20]
    8a04:	ea000019 	b	8a70 <turntable_run+0x280>
    8a08:	e3a00001 	mov	r0, #1
    8a0c:	e58d0014 	str	r0, [sp, #20]
    8a10:	ea000016 	b	8a70 <turntable_run+0x280>
    8a14:	e3a01002 	mov	r1, #2
    8a18:	e58d1014 	str	r1, [sp, #20]
    8a1c:	ea000013 	b	8a70 <turntable_run+0x280>
    8a20:	e3a02003 	mov	r2, #3
    8a24:	e58d2014 	str	r2, [sp, #20]
    8a28:	ea000010 	b	8a70 <turntable_run+0x280>
    8a2c:	e3a03004 	mov	r3, #4
    8a30:	e58d3014 	str	r3, [sp, #20]
    8a34:	ea00000d 	b	8a70 <turntable_run+0x280>
    8a38:	e3a00005 	mov	r0, #5
    8a3c:	e58d0014 	str	r0, [sp, #20]
    8a40:	ea00000a 	b	8a70 <turntable_run+0x280>
    8a44:	e3a01006 	mov	r1, #6
    8a48:	e58d1014 	str	r1, [sp, #20]
    8a4c:	ea000007 	b	8a70 <turntable_run+0x280>
    8a50:	e3a02007 	mov	r2, #7
    8a54:	e58d2014 	str	r2, [sp, #20]
    8a58:	ea000004 	b	8a70 <turntable_run+0x280>
    8a5c:	e3a03008 	mov	r3, #8
    8a60:	e58d3014 	str	r3, [sp, #20]
    8a64:	ea000001 	b	8a70 <turntable_run+0x280>
    8a68:	e3a0000a 	mov	r0, #10
    8a6c:	e58d0014 	str	r0, [sp, #20]
    8a70:	e3540014 	cmp	r4, #20
    8a74:	1a000036 	bne	8b54 <turntable_run+0x364>
    8a78:	e3a00002 	mov	r0, #2
    8a7c:	ebfffe7d 	bl	8478 <mcp3008_read>
    8a80:	e3500066 	cmp	r0, #102	; 0x66
    8a84:	da000018 	ble	8aec <turntable_run+0x2fc>
    8a88:	e35000cc 	cmp	r0, #204	; 0xcc
    8a8c:	da000019 	ble	8af8 <turntable_run+0x308>
    8a90:	e59f1194 	ldr	r1, [pc, #404]	; 8c2c <turntable_run+0x43c>
    8a94:	e1500001 	cmp	r0, r1
    8a98:	da000019 	ble	8b04 <turntable_run+0x314>
    8a9c:	e59f318c 	ldr	r3, [pc, #396]	; 8c30 <turntable_run+0x440>
    8aa0:	e1500003 	cmp	r0, r3
    8aa4:	da000019 	ble	8b10 <turntable_run+0x320>
    8aa8:	e59f2174 	ldr	r2, [pc, #372]	; 8c24 <turntable_run+0x434>
    8aac:	e1500002 	cmp	r0, r2
    8ab0:	da000019 	ble	8b1c <turntable_run+0x32c>
    8ab4:	e28330cd 	add	r3, r3, #205	; 0xcd
    8ab8:	e1500003 	cmp	r0, r3
    8abc:	da000019 	ble	8b28 <turntable_run+0x338>
    8ac0:	e3500fb3 	cmp	r0, #716	; 0x2cc
    8ac4:	da00001a 	ble	8b34 <turntable_run+0x344>
    8ac8:	e28330cc 	add	r3, r3, #204	; 0xcc
    8acc:	e1500003 	cmp	r0, r3
    8ad0:	da00001a 	ble	8b40 <turntable_run+0x350>
    8ad4:	e2833067 	add	r3, r3, #103	; 0x67
    8ad8:	e1500003 	cmp	r0, r3
    8adc:	ca00001a 	bgt	8b4c <turntable_run+0x35c>
    8ae0:	e3a03009 	mov	r3, #9
    8ae4:	e58d3010 	str	r3, [sp, #16]
    8ae8:	ea000019 	b	8b54 <turntable_run+0x364>
    8aec:	e3a00001 	mov	r0, #1
    8af0:	e58d0010 	str	r0, [sp, #16]
    8af4:	ea000016 	b	8b54 <turntable_run+0x364>
    8af8:	e3a01002 	mov	r1, #2
    8afc:	e58d1010 	str	r1, [sp, #16]
    8b00:	ea000013 	b	8b54 <turntable_run+0x364>
    8b04:	e3a02003 	mov	r2, #3
    8b08:	e58d2010 	str	r2, [sp, #16]
    8b0c:	ea000010 	b	8b54 <turntable_run+0x364>
    8b10:	e3a03004 	mov	r3, #4
    8b14:	e58d3010 	str	r3, [sp, #16]
    8b18:	ea00000d 	b	8b54 <turntable_run+0x364>
    8b1c:	e3a00005 	mov	r0, #5
    8b20:	e58d0010 	str	r0, [sp, #16]
    8b24:	ea00000a 	b	8b54 <turntable_run+0x364>
    8b28:	e3a01006 	mov	r1, #6
    8b2c:	e58d1010 	str	r1, [sp, #16]
    8b30:	ea000007 	b	8b54 <turntable_run+0x364>
    8b34:	e3a02007 	mov	r2, #7
    8b38:	e58d2010 	str	r2, [sp, #16]
    8b3c:	ea000004 	b	8b54 <turntable_run+0x364>
    8b40:	e3a03008 	mov	r3, #8
    8b44:	e58d3010 	str	r3, [sp, #16]
    8b48:	ea000001 	b	8b54 <turntable_run+0x364>
    8b4c:	e3a0000a 	mov	r0, #10
    8b50:	e58d0010 	str	r0, [sp, #16]
    8b54:	e2855001 	add	r5, r5, #1
    8b58:	e3580000 	cmp	r8, #0
    8b5c:	0a00000e 	beq	8b9c <turntable_run+0x3ac>
    8b60:	e08b3189 	add	r3, fp, r9, lsl #3
    8b64:	e79b4189 	ldr	r4, [fp, r9, lsl #3]
    8b68:	e59d1004 	ldr	r1, [sp, #4]
    8b6c:	e0040491 	mul	r4, r1, r4
    8b70:	e59d2014 	ldr	r2, [sp, #20]
    8b74:	e0866002 	add	r6, r6, r2
    8b78:	e1d330b4 	ldrh	r3, [r3, #4]
    8b7c:	e1530006 	cmp	r3, r6
    8b80:	aa000006 	bge	8ba0 <turntable_run+0x3b0>
    8b84:	e2890001 	add	r0, r9, #1
    8b88:	e59d1018 	ldr	r1, [sp, #24]
    8b8c:	eb000389 	bl	99b8 <__aeabi_idivmod>
    8b90:	e1a09001 	mov	r9, r1
    8b94:	e3a06000 	mov	r6, #0
    8b98:	ea000000 	b	8ba0 <turntable_run+0x3b0>
    8b9c:	e3a04000 	mov	r4, #0
    8ba0:	e59d3000 	ldr	r3, [sp]
    8ba4:	e3530000 	cmp	r3, #0
    8ba8:	0a00000f 	beq	8bec <turntable_run+0x3fc>
    8bac:	e59d000c 	ldr	r0, [sp, #12]
    8bb0:	e080318a 	add	r3, r0, sl, lsl #3
    8bb4:	e790218a 	ldr	r2, [r0, sl, lsl #3]
    8bb8:	e59d0004 	ldr	r0, [sp, #4]
    8bbc:	e2601b01 	rsb	r1, r0, #1024	; 0x400
    8bc0:	e0244291 	mla	r4, r1, r2, r4
    8bc4:	e59d1010 	ldr	r1, [sp, #16]
    8bc8:	e0877001 	add	r7, r7, r1
    8bcc:	e1d330b4 	ldrh	r3, [r3, #4]
    8bd0:	e1530007 	cmp	r3, r7
    8bd4:	aa000004 	bge	8bec <turntable_run+0x3fc>
    8bd8:	e28a0001 	add	r0, sl, #1
    8bdc:	e59d101c 	ldr	r1, [sp, #28]
    8be0:	eb000374 	bl	99b8 <__aeabi_idivmod>
    8be4:	e1a0a001 	mov	sl, r1
    8be8:	e3a07000 	mov	r7, #0
    8bec:	e2840fff 	add	r0, r4, #1020	; 0x3fc
    8bf0:	e3540000 	cmp	r4, #0
    8bf4:	a1a00004 	movge	r0, r4
    8bf8:	b2800003 	addlt	r0, r0, #3
    8bfc:	e1a00540 	asr	r0, r0, #10
    8c00:	e59d1008 	ldr	r1, [sp, #8]
    8c04:	ebfffd3e 	bl	8104 <audio_send_tone>
    8c08:	eaffff0b 	b	883c <turntable_run+0x4c>
    8c0c:	e28dd024 	add	sp, sp, #36	; 0x24
    8c10:	e8bd4ff0 	pop	{r4, r5, r6, r7, r8, r9, sl, fp, lr}
    8c14:	e12fff1e 	bx	lr
    8c18:	0000c6d8 	ldrdeq	ip, [r0], -r8
    8c1c:	0000c6e4 	andeq	ip, r0, r4, ror #13
    8c20:	51eb851f 	mvnpl	r8, pc, lsl r5
    8c24:	000001ff 	strdeq	r0, [r0], -pc	; <UNPREDICTABLE>
    8c28:	000002aa 	andeq	r0, r0, sl, lsr #5
    8c2c:	00000133 	andeq	r0, r0, r3, lsr r1
    8c30:	00000199 	muleq	r0, r9, r1

00008c34 <PUT32>:
    8c34:	e5801000 	str	r1, [r0]
    8c38:	e12fff1e 	bx	lr

00008c3c <PUT16>:
    8c3c:	e1c010b0 	strh	r1, [r0]
    8c40:	e12fff1e 	bx	lr

00008c44 <PUT8>:
    8c44:	e5c01000 	strb	r1, [r0]
    8c48:	e12fff1e 	bx	lr

00008c4c <GET32>:
    8c4c:	e5900000 	ldr	r0, [r0]
    8c50:	e12fff1e 	bx	lr

00008c54 <GET16>:
    8c54:	e1d000b0 	ldrh	r0, [r0]
    8c58:	e12fff1e 	bx	lr

00008c5c <GET8>:
    8c5c:	e5d00000 	ldrb	r0, [r0]
    8c60:	e12fff1e 	bx	lr

00008c64 <gpio_init>:
    8c64:	e1a0c00d 	mov	ip, sp
    8c68:	e92dd800 	push	{fp, ip, lr, pc}
    8c6c:	e24cb004 	sub	fp, ip, #4
    8c70:	e89da800 	ldm	sp, {fp, sp, pc}

00008c74 <gpio_set_function>:
    8c74:	e1a0c00d 	mov	ip, sp
    8c78:	e92dd810 	push	{r4, fp, ip, lr, pc}
    8c7c:	e24cb004 	sub	fp, ip, #4
    8c80:	e3500035 	cmp	r0, #53	; 0x35
    8c84:	889da810 	ldmhi	sp, {r4, fp, sp, pc}
    8c88:	e3510007 	cmp	r1, #7
    8c8c:	889da810 	ldmhi	sp, {r4, fp, sp, pc}
    8c90:	e59f303c 	ldr	r3, [pc, #60]	; 8cd4 <gpio_set_function+0x60>
    8c94:	e0832093 	umull	r2, r3, r3, r0
    8c98:	e1a031a3 	lsr	r3, r3, #3
    8c9c:	e283c302 	add	ip, r3, #134217728	; 0x8000000
    8ca0:	e28cc702 	add	ip, ip, #524288	; 0x80000
    8ca4:	e1a0c10c 	lsl	ip, ip, #2
    8ca8:	e59c4000 	ldr	r4, [ip]
    8cac:	e0833103 	add	r3, r3, r3, lsl #2
    8cb0:	e1a03083 	lsl	r3, r3, #1
    8cb4:	e0632000 	rsb	r2, r3, r0
    8cb8:	e0822082 	add	r2, r2, r2, lsl #1
    8cbc:	e3a03007 	mov	r3, #7
    8cc0:	e1c43213 	bic	r3, r4, r3, lsl r2
    8cc4:	e2011007 	and	r1, r1, #7
    8cc8:	e1832211 	orr	r2, r3, r1, lsl r2
    8ccc:	e58c2000 	str	r2, [ip]
    8cd0:	e89da810 	ldm	sp, {r4, fp, sp, pc}
    8cd4:	cccccccd 	stclgt	12, cr12, [ip], {205}	; 0xcd

00008cd8 <gpio_get_function>:
    8cd8:	e1a0c00d 	mov	ip, sp
    8cdc:	e92dd800 	push	{fp, ip, lr, pc}
    8ce0:	e24cb004 	sub	fp, ip, #4
    8ce4:	e3500035 	cmp	r0, #53	; 0x35
    8ce8:	8a00000d 	bhi	8d24 <gpio_get_function+0x4c>
    8cec:	e59f3038 	ldr	r3, [pc, #56]	; 8d2c <gpio_get_function+0x54>
    8cf0:	e0832093 	umull	r2, r3, r3, r0
    8cf4:	e1a031a3 	lsr	r3, r3, #3
    8cf8:	e2832302 	add	r2, r3, #134217728	; 0x8000000
    8cfc:	e2822702 	add	r2, r2, #524288	; 0x80000
    8d00:	e1a02102 	lsl	r2, r2, #2
    8d04:	e5921000 	ldr	r1, [r2]
    8d08:	e0833103 	add	r3, r3, r3, lsl #2
    8d0c:	e1a03083 	lsl	r3, r3, #1
    8d10:	e0632000 	rsb	r2, r3, r0
    8d14:	e0822082 	add	r2, r2, r2, lsl #1
    8d18:	e1a00231 	lsr	r0, r1, r2
    8d1c:	e2000007 	and	r0, r0, #7
    8d20:	e89da800 	ldm	sp, {fp, sp, pc}
    8d24:	e3a00000 	mov	r0, #0
    8d28:	e89da800 	ldm	sp, {fp, sp, pc}
    8d2c:	cccccccd 	stclgt	12, cr12, [ip], {205}	; 0xcd

00008d30 <gpio_set_input>:
    8d30:	e1a0c00d 	mov	ip, sp
    8d34:	e92dd800 	push	{fp, ip, lr, pc}
    8d38:	e24cb004 	sub	fp, ip, #4
    8d3c:	e3a01000 	mov	r1, #0
    8d40:	ebffffcb 	bl	8c74 <gpio_set_function>
    8d44:	e89da800 	ldm	sp, {fp, sp, pc}

00008d48 <gpio_set_output>:
    8d48:	e1a0c00d 	mov	ip, sp
    8d4c:	e92dd800 	push	{fp, ip, lr, pc}
    8d50:	e24cb004 	sub	fp, ip, #4
    8d54:	e3a01001 	mov	r1, #1
    8d58:	ebffffc5 	bl	8c74 <gpio_set_function>
    8d5c:	e89da800 	ldm	sp, {fp, sp, pc}

00008d60 <gpio_write>:
    8d60:	e1a0c00d 	mov	ip, sp
    8d64:	e92dd800 	push	{fp, ip, lr, pc}
    8d68:	e24cb004 	sub	fp, ip, #4
    8d6c:	e3500035 	cmp	r0, #53	; 0x35
    8d70:	889da800 	ldmhi	sp, {fp, sp, pc}
    8d74:	e200301f 	and	r3, r0, #31
    8d78:	e3510000 	cmp	r1, #0
    8d7c:	0a000006 	beq	8d9c <gpio_write+0x3c>
    8d80:	e59f2030 	ldr	r2, [pc, #48]	; 8db8 <gpio_write+0x58>
    8d84:	e08202a0 	add	r0, r2, r0, lsr #5
    8d88:	e1a00100 	lsl	r0, r0, #2
    8d8c:	e3a02001 	mov	r2, #1
    8d90:	e1a03312 	lsl	r3, r2, r3
    8d94:	e5803000 	str	r3, [r0]
    8d98:	e89da800 	ldm	sp, {fp, sp, pc}
    8d9c:	e59f2018 	ldr	r2, [pc, #24]	; 8dbc <gpio_write+0x5c>
    8da0:	e08202a0 	add	r0, r2, r0, lsr #5
    8da4:	e1a00100 	lsl	r0, r0, #2
    8da8:	e3a02001 	mov	r2, #1
    8dac:	e1a03312 	lsl	r3, r2, r3
    8db0:	e5803000 	str	r3, [r0]
    8db4:	e89da800 	ldm	sp, {fp, sp, pc}
    8db8:	08080007 	stmdaeq	r8, {r0, r1, r2}
    8dbc:	0808000a 	stmdaeq	r8, {r1, r3}

00008dc0 <gpio_read>:
    8dc0:	e1a0c00d 	mov	ip, sp
    8dc4:	e92dd800 	push	{fp, ip, lr, pc}
    8dc8:	e24cb004 	sub	fp, ip, #4
    8dcc:	e3500035 	cmp	r0, #53	; 0x35
    8dd0:	8a000009 	bhi	8dfc <gpio_read+0x3c>
    8dd4:	e59f3028 	ldr	r3, [pc, #40]	; 8e04 <gpio_read+0x44>
    8dd8:	e08332a0 	add	r3, r3, r0, lsr #5
    8ddc:	e1a03103 	lsl	r3, r3, #2
    8de0:	e5933000 	ldr	r3, [r3]
    8de4:	e200001f 	and	r0, r0, #31
    8de8:	e3a02001 	mov	r2, #1
    8dec:	e0132012 	ands	r2, r3, r2, lsl r0
    8df0:	03a00000 	moveq	r0, #0
    8df4:	13a00001 	movne	r0, #1
    8df8:	e89da800 	ldm	sp, {fp, sp, pc}
    8dfc:	e3a00000 	mov	r0, #0
    8e00:	e89da800 	ldm	sp, {fp, sp, pc}
    8e04:	0808000d 	stmdaeq	r8, {r0, r2, r3}

00008e08 <printf_init>:
    8e08:	e1a0c00d 	mov	ip, sp
    8e0c:	e92dd800 	push	{fp, ip, lr, pc}
    8e10:	e24cb004 	sub	fp, ip, #4
    8e14:	eb00019e 	bl	9494 <uart_init>
    8e18:	e89da800 	ldm	sp, {fp, sp, pc}

00008e1c <reduceByTenPower>:
    8e1c:	e1a0c00d 	mov	ip, sp
    8e20:	e92dd810 	push	{r4, fp, ip, lr, pc}
    8e24:	e24cb004 	sub	fp, ip, #4
    8e28:	e3a03000 	mov	r3, #0
    8e2c:	e59fc01c 	ldr	ip, [pc, #28]	; 8e50 <reduceByTenPower+0x34>
    8e30:	ea000003 	b	8e44 <reduceByTenPower+0x28>
    8e34:	e0c2409c 	smull	r4, r2, ip, r0
    8e38:	e1a00fc0 	asr	r0, r0, #31
    8e3c:	e0600142 	rsb	r0, r0, r2, asr #2
    8e40:	e2833001 	add	r3, r3, #1
    8e44:	e1530001 	cmp	r3, r1
    8e48:	bafffff9 	blt	8e34 <reduceByTenPower+0x18>
    8e4c:	e89da810 	ldm	sp, {r4, fp, sp, pc}
    8e50:	66666667 	strbtvs	r6, [r6], -r7, ror #12

00008e54 <inttobin>:
    8e54:	e1a0c00d 	mov	ip, sp
    8e58:	e92dd8f0 	push	{r4, r5, r6, r7, fp, ip, lr, pc}
    8e5c:	e24cb004 	sub	fp, ip, #4
    8e60:	e1a05000 	mov	r5, r0
    8e64:	e1a04002 	mov	r4, r2
    8e68:	e3a0c000 	mov	ip, #0
    8e6c:	ea000001 	b	8e78 <inttobin+0x24>
    8e70:	e28cc001 	add	ip, ip, #1
    8e74:	e1a040a4 	lsr	r4, r4, #1
    8e78:	e3540000 	cmp	r4, #0
    8e7c:	1afffffb 	bne	8e70 <inttobin+0x1c>
    8e80:	e35c0000 	cmp	ip, #0
    8e84:	03a0c001 	moveq	ip, #1
    8e88:	e053300c 	subs	r3, r3, ip
    8e8c:	43a03000 	movmi	r3, #0
    8e90:	e3a04000 	mov	r4, #0
    8e94:	e1a00004 	mov	r0, r4
    8e98:	e2416001 	sub	r6, r1, #1
    8e9c:	e3a07030 	mov	r7, #48	; 0x30
    8ea0:	ea000003 	b	8eb4 <inttobin+0x60>
    8ea4:	e1560000 	cmp	r6, r0
    8ea8:	c7c57000 	strbgt	r7, [r5, r0]
    8eac:	e2844001 	add	r4, r4, #1
    8eb0:	e2800001 	add	r0, r0, #1
    8eb4:	e1540003 	cmp	r4, r3
    8eb8:	bafffff9 	blt	8ea4 <inttobin+0x50>
    8ebc:	e3a03000 	mov	r3, #0
    8ec0:	e2414001 	sub	r4, r1, #1
    8ec4:	e24c7001 	sub	r7, ip, #1
    8ec8:	ea000008 	b	8ef0 <inttobin+0x9c>
    8ecc:	e1540000 	cmp	r4, r0
    8ed0:	da000004 	ble	8ee8 <inttobin+0x94>
    8ed4:	e0636007 	rsb	r6, r3, r7
    8ed8:	e1a06632 	lsr	r6, r2, r6
    8edc:	e2066001 	and	r6, r6, #1
    8ee0:	e2866030 	add	r6, r6, #48	; 0x30
    8ee4:	e7c56000 	strb	r6, [r5, r0]
    8ee8:	e2833001 	add	r3, r3, #1
    8eec:	e2800001 	add	r0, r0, #1
    8ef0:	e153000c 	cmp	r3, ip
    8ef4:	bafffff4 	blt	8ecc <inttobin+0x78>
    8ef8:	e1500001 	cmp	r0, r1
    8efc:	aa000002 	bge	8f0c <inttobin+0xb8>
    8f00:	e3a03000 	mov	r3, #0
    8f04:	e7c53000 	strb	r3, [r5, r0]
    8f08:	e89da8f0 	ldm	sp, {r4, r5, r6, r7, fp, sp, pc}
    8f0c:	e2411001 	sub	r1, r1, #1
    8f10:	e3a03000 	mov	r3, #0
    8f14:	e7c53001 	strb	r3, [r5, r1]
    8f18:	e89da8f0 	ldm	sp, {r4, r5, r6, r7, fp, sp, pc}

00008f1c <inttohex>:
    8f1c:	e1a0c00d 	mov	ip, sp
    8f20:	e92dd8f0 	push	{r4, r5, r6, r7, fp, ip, lr, pc}
    8f24:	e24cb004 	sub	fp, ip, #4
    8f28:	e1a05000 	mov	r5, r0
    8f2c:	e1a04002 	mov	r4, r2
    8f30:	e3a0c000 	mov	ip, #0
    8f34:	ea000001 	b	8f40 <inttohex+0x24>
    8f38:	e28cc001 	add	ip, ip, #1
    8f3c:	e1a04224 	lsr	r4, r4, #4
    8f40:	e3540000 	cmp	r4, #0
    8f44:	1afffffb 	bne	8f38 <inttohex+0x1c>
    8f48:	e35c0000 	cmp	ip, #0
    8f4c:	03a0c001 	moveq	ip, #1
    8f50:	e053300c 	subs	r3, r3, ip
    8f54:	43a03000 	movmi	r3, #0
    8f58:	e3a04000 	mov	r4, #0
    8f5c:	e1a00004 	mov	r0, r4
    8f60:	e2416001 	sub	r6, r1, #1
    8f64:	e3a07030 	mov	r7, #48	; 0x30
    8f68:	ea000003 	b	8f7c <inttohex+0x60>
    8f6c:	e1560000 	cmp	r6, r0
    8f70:	c7c57000 	strbgt	r7, [r5, r0]
    8f74:	e2844001 	add	r4, r4, #1
    8f78:	e2800001 	add	r0, r0, #1
    8f7c:	e1540003 	cmp	r4, r3
    8f80:	bafffff9 	blt	8f6c <inttohex+0x50>
    8f84:	e3a03000 	mov	r3, #0
    8f88:	e2416001 	sub	r6, r1, #1
    8f8c:	e24c7001 	sub	r7, ip, #1
    8f90:	ea00000c 	b	8fc8 <inttohex+0xac>
    8f94:	e1560000 	cmp	r6, r0
    8f98:	da000008 	ble	8fc0 <inttohex+0xa4>
    8f9c:	e0634007 	rsb	r4, r3, r7
    8fa0:	e1a04104 	lsl	r4, r4, #2
    8fa4:	e1a04432 	lsr	r4, r2, r4
    8fa8:	e204400f 	and	r4, r4, #15
    8fac:	e3540009 	cmp	r4, #9
    8fb0:	d2844030 	addle	r4, r4, #48	; 0x30
    8fb4:	d7c54000 	strble	r4, [r5, r0]
    8fb8:	c2844057 	addgt	r4, r4, #87	; 0x57
    8fbc:	c7c54000 	strbgt	r4, [r5, r0]
    8fc0:	e2833001 	add	r3, r3, #1
    8fc4:	e2800001 	add	r0, r0, #1
    8fc8:	e153000c 	cmp	r3, ip
    8fcc:	bafffff0 	blt	8f94 <inttohex+0x78>
    8fd0:	e1500001 	cmp	r0, r1
    8fd4:	aa000002 	bge	8fe4 <inttohex+0xc8>
    8fd8:	e3a03000 	mov	r3, #0
    8fdc:	e7c53000 	strb	r3, [r5, r0]
    8fe0:	e89da8f0 	ldm	sp, {r4, r5, r6, r7, fp, sp, pc}
    8fe4:	e2411001 	sub	r1, r1, #1
    8fe8:	e3a03000 	mov	r3, #0
    8fec:	e7c53001 	strb	r3, [r5, r1]
    8ff0:	e89da8f0 	ldm	sp, {r4, r5, r6, r7, fp, sp, pc}

00008ff4 <inttodec>:
    8ff4:	e1a0c00d 	mov	ip, sp
    8ff8:	e92ddff0 	push	{r4, r5, r6, r7, r8, r9, sl, fp, ip, lr, pc}
    8ffc:	e24cb004 	sub	fp, ip, #4
    9000:	e24dd00c 	sub	sp, sp, #12
    9004:	e1a07000 	mov	r7, r0
    9008:	e50b1030 	str	r1, [fp, #-48]	; 0x30
    900c:	e1a09002 	mov	r9, r2
    9010:	e1b06fa2 	lsrs	r6, r2, #31
    9014:	12629000 	rsbne	r9, r2, #0
    9018:	e1a02009 	mov	r2, r9
    901c:	e1a01006 	mov	r1, r6
    9020:	e59fc114 	ldr	ip, [pc, #276]	; 913c <inttodec+0x148>
    9024:	ea000003 	b	9038 <inttodec+0x44>
    9028:	e2811001 	add	r1, r1, #1
    902c:	e0c0429c 	smull	r4, r0, ip, r2
    9030:	e1a02fc2 	asr	r2, r2, #31
    9034:	e0622140 	rsb	r2, r2, r0, asr #2
    9038:	e3520000 	cmp	r2, #0
    903c:	1afffff9 	bne	9028 <inttodec+0x34>
    9040:	e3510000 	cmp	r1, #0
    9044:	03a01001 	moveq	r1, #1
    9048:	e0533001 	subs	r3, r3, r1
    904c:	43a03000 	movmi	r3, #0
    9050:	e3560000 	cmp	r6, #0
    9054:	0a000007 	beq	9078 <inttodec+0x84>
    9058:	e51b4030 	ldr	r4, [fp, #-48]	; 0x30
    905c:	e2442001 	sub	r2, r4, #1
    9060:	e3520000 	cmp	r2, #0
    9064:	da000005 	ble	9080 <inttodec+0x8c>
    9068:	e3a0202d 	mov	r2, #45	; 0x2d
    906c:	e5c72000 	strb	r2, [r7]
    9070:	e3a04001 	mov	r4, #1
    9074:	ea000002 	b	9084 <inttodec+0x90>
    9078:	e3a04000 	mov	r4, #0
    907c:	ea000000 	b	9084 <inttodec+0x90>
    9080:	e3a04001 	mov	r4, #1
    9084:	e3a02000 	mov	r2, #0
    9088:	e51bc030 	ldr	ip, [fp, #-48]	; 0x30
    908c:	e24c0001 	sub	r0, ip, #1
    9090:	e3a0c030 	mov	ip, #48	; 0x30
    9094:	ea000003 	b	90a8 <inttodec+0xb4>
    9098:	e1500004 	cmp	r0, r4
    909c:	c7c7c004 	strbgt	ip, [r7, r4]
    90a0:	e2822001 	add	r2, r2, #1
    90a4:	e2844001 	add	r4, r4, #1
    90a8:	e1520003 	cmp	r2, r3
    90ac:	bafffff9 	blt	9098 <inttodec+0xa4>
    90b0:	e0666001 	rsb	r6, r6, r1
    90b4:	e3a05000 	mov	r5, #0
    90b8:	e51b0030 	ldr	r0, [fp, #-48]	; 0x30
    90bc:	e2408001 	sub	r8, r0, #1
    90c0:	e246a001 	sub	sl, r6, #1
    90c4:	ea00000f 	b	9108 <inttodec+0x114>
    90c8:	e1580004 	cmp	r8, r4
    90cc:	da00000b 	ble	9100 <inttodec+0x10c>
    90d0:	e1a00009 	mov	r0, r9
    90d4:	e065100a 	rsb	r1, r5, sl
    90d8:	ebffff4f 	bl	8e1c <reduceByTenPower>
    90dc:	e59f3058 	ldr	r3, [pc, #88]	; 913c <inttodec+0x148>
    90e0:	e0c23093 	smull	r3, r2, r3, r0
    90e4:	e1a03fc0 	asr	r3, r0, #31
    90e8:	e0633142 	rsb	r3, r3, r2, asr #2
    90ec:	e0833103 	add	r3, r3, r3, lsl #2
    90f0:	e1a03083 	lsl	r3, r3, #1
    90f4:	e0633000 	rsb	r3, r3, r0
    90f8:	e2833030 	add	r3, r3, #48	; 0x30
    90fc:	e7c73004 	strb	r3, [r7, r4]
    9100:	e2855001 	add	r5, r5, #1
    9104:	e2844001 	add	r4, r4, #1
    9108:	e1550006 	cmp	r5, r6
    910c:	baffffed 	blt	90c8 <inttodec+0xd4>
    9110:	e51bc030 	ldr	ip, [fp, #-48]	; 0x30
    9114:	e154000c 	cmp	r4, ip
    9118:	b3a03000 	movlt	r3, #0
    911c:	b7c73004 	strblt	r3, [r7, r4]
    9120:	a51b0030 	ldrge	r0, [fp, #-48]	; 0x30
    9124:	a2403001 	subge	r3, r0, #1
    9128:	a3a02000 	movge	r2, #0
    912c:	a7c72003 	strbge	r2, [r7, r3]
    9130:	e1a00004 	mov	r0, r4
    9134:	e24bd028 	sub	sp, fp, #40	; 0x28
    9138:	e89daff0 	ldm	sp, {r4, r5, r6, r7, r8, r9, sl, fp, sp, pc}
    913c:	66666667 	strbtvs	r6, [r6], -r7, ror #12

00009140 <vsnprintf>:
    9140:	e1a0c00d 	mov	ip, sp
    9144:	e92ddff8 	push	{r3, r4, r5, r6, r7, r8, r9, sl, fp, ip, lr, pc}
    9148:	e24cb004 	sub	fp, ip, #4
    914c:	e1a07000 	mov	r7, r0
    9150:	e1a08001 	mov	r8, r1
    9154:	e1a0a003 	mov	sl, r3
    9158:	e3520000 	cmp	r2, #0
    915c:	1a000004 	bne	9174 <vsnprintf+0x34>
    9160:	e3510000 	cmp	r1, #0
    9164:	da00006b 	ble	9318 <vsnprintf+0x1d8>
    9168:	e3a00000 	mov	r0, #0
    916c:	e5c70000 	strb	r0, [r7]
    9170:	e89daff8 	ldm	sp, {r3, r4, r5, r6, r7, r8, r9, sl, fp, sp, pc}
    9174:	e3510000 	cmp	r1, #0
    9178:	c3a03000 	movgt	r3, #0
    917c:	c5c03000 	strbgt	r3, [r0]
    9180:	e3a04000 	mov	r4, #0
    9184:	e2486001 	sub	r6, r8, #1
    9188:	e1a09004 	mov	r9, r4
    918c:	ea00005b 	b	9300 <vsnprintf+0x1c0>
    9190:	e3530025 	cmp	r3, #37	; 0x25
    9194:	0a000006 	beq	91b4 <vsnprintf+0x74>
    9198:	e1560004 	cmp	r6, r4
    919c:	c7c73004 	strbgt	r3, [r7, r4]
    91a0:	e2844001 	add	r4, r4, #1
    91a4:	e1540008 	cmp	r4, r8
    91a8:	b7c79004 	strblt	r9, [r7, r4]
    91ac:	e1a02001 	mov	r2, r1
    91b0:	ea000052 	b	9300 <vsnprintf+0x1c0>
    91b4:	e2825002 	add	r5, r2, #2
    91b8:	e5d21001 	ldrb	r1, [r2, #1]
    91bc:	e3510025 	cmp	r1, #37	; 0x25
    91c0:	1a000006 	bne	91e0 <vsnprintf+0xa0>
    91c4:	e1560004 	cmp	r6, r4
    91c8:	c7c71004 	strbgt	r1, [r7, r4]
    91cc:	e2844001 	add	r4, r4, #1
    91d0:	e1540008 	cmp	r4, r8
    91d4:	b7c79004 	strblt	r9, [r7, r4]
    91d8:	e1a02005 	mov	r2, r5
    91dc:	ea000047 	b	9300 <vsnprintf+0x1c0>
    91e0:	e3510030 	cmp	r1, #48	; 0x30
    91e4:	1a00000c 	bne	921c <vsnprintf+0xdc>
    91e8:	e1a03009 	mov	r3, r9
    91ec:	e2852001 	add	r2, r5, #1
    91f0:	e5d51000 	ldrb	r1, [r5]
    91f4:	e2410030 	sub	r0, r1, #48	; 0x30
    91f8:	e6ef0070 	uxtb	r0, r0
    91fc:	e3500009 	cmp	r0, #9
    9200:	8a000007 	bhi	9224 <vsnprintf+0xe4>
    9204:	e2411030 	sub	r1, r1, #48	; 0x30
    9208:	e0833103 	add	r3, r3, r3, lsl #2
    920c:	e1a03083 	lsl	r3, r3, #1
    9210:	e0833001 	add	r3, r3, r1
    9214:	e1a05002 	mov	r5, r2
    9218:	eafffff3 	b	91ec <vsnprintf+0xac>
    921c:	e1a03009 	mov	r3, r9
    9220:	ea000000 	b	9228 <vsnprintf+0xe8>
    9224:	e1a05002 	mov	r5, r2
    9228:	e3510073 	cmp	r1, #115	; 0x73
    922c:	1a00000f 	bne	9270 <vsnprintf+0x130>
    9230:	e59a3000 	ldr	r3, [sl]
    9234:	e28aa004 	add	sl, sl, #4
    9238:	ea000003 	b	924c <vsnprintf+0x10c>
    923c:	e1560004 	cmp	r6, r4
    9240:	c7c72004 	strbgt	r2, [r7, r4]
    9244:	e2844001 	add	r4, r4, #1
    9248:	e2833001 	add	r3, r3, #1
    924c:	e3530000 	cmp	r3, #0
    9250:	0a000002 	beq	9260 <vsnprintf+0x120>
    9254:	e5d32000 	ldrb	r2, [r3]
    9258:	e3520000 	cmp	r2, #0
    925c:	1afffff6 	bne	923c <vsnprintf+0xfc>
    9260:	e1540008 	cmp	r4, r8
    9264:	b7c79004 	strblt	r9, [r7, r4]
    9268:	e1a02005 	mov	r2, r5
    926c:	ea000023 	b	9300 <vsnprintf+0x1c0>
    9270:	e59a2000 	ldr	r2, [sl]
    9274:	e28aa004 	add	sl, sl, #4
    9278:	e3510063 	cmp	r1, #99	; 0x63
    927c:	1a000006 	bne	929c <vsnprintf+0x15c>
    9280:	e1560004 	cmp	r6, r4
    9284:	c7c72004 	strbgt	r2, [r7, r4]
    9288:	e2844001 	add	r4, r4, #1
    928c:	e1540008 	cmp	r4, r8
    9290:	b7c79004 	strblt	r9, [r7, r4]
    9294:	e1a02005 	mov	r2, r5
    9298:	ea000018 	b	9300 <vsnprintf+0x1c0>
    929c:	e3510064 	cmp	r1, #100	; 0x64
    92a0:	1a000005 	bne	92bc <vsnprintf+0x17c>
    92a4:	e0870004 	add	r0, r7, r4
    92a8:	e0641008 	rsb	r1, r4, r8
    92ac:	ebffff50 	bl	8ff4 <inttodec>
    92b0:	e0844000 	add	r4, r4, r0
    92b4:	e1a02005 	mov	r2, r5
    92b8:	ea000010 	b	9300 <vsnprintf+0x1c0>
    92bc:	e3510078 	cmp	r1, #120	; 0x78
    92c0:	1a000005 	bne	92dc <vsnprintf+0x19c>
    92c4:	e0870004 	add	r0, r7, r4
    92c8:	e0641008 	rsb	r1, r4, r8
    92cc:	ebffff12 	bl	8f1c <inttohex>
    92d0:	e0844000 	add	r4, r4, r0
    92d4:	e1a02005 	mov	r2, r5
    92d8:	ea000008 	b	9300 <vsnprintf+0x1c0>
    92dc:	e3510062 	cmp	r1, #98	; 0x62
    92e0:	1a000005 	bne	92fc <vsnprintf+0x1bc>
    92e4:	e0870004 	add	r0, r7, r4
    92e8:	e0641008 	rsb	r1, r4, r8
    92ec:	ebfffed8 	bl	8e54 <inttobin>
    92f0:	e0844000 	add	r4, r4, r0
    92f4:	e1a02005 	mov	r2, r5
    92f8:	ea000000 	b	9300 <vsnprintf+0x1c0>
    92fc:	e1a02005 	mov	r2, r5
    9300:	e2821001 	add	r1, r2, #1
    9304:	e5d23000 	ldrb	r3, [r2]
    9308:	e3530000 	cmp	r3, #0
    930c:	1affff9f 	bne	9190 <vsnprintf+0x50>
    9310:	e1a00004 	mov	r0, r4
    9314:	e89daff8 	ldm	sp, {r3, r4, r5, r6, r7, r8, r9, sl, fp, sp, pc}
    9318:	e3a00000 	mov	r0, #0
    931c:	e89daff8 	ldm	sp, {r3, r4, r5, r6, r7, r8, r9, sl, fp, sp, pc}

00009320 <snprintf>:
    9320:	e1a0c00d 	mov	ip, sp
    9324:	e92d000c 	push	{r2, r3}
    9328:	e92dd800 	push	{fp, ip, lr, pc}
    932c:	e24cb00c 	sub	fp, ip, #12
    9330:	e24dd008 	sub	sp, sp, #8
    9334:	e28b3008 	add	r3, fp, #8
    9338:	e50b3010 	str	r3, [fp, #-16]
    933c:	e59b2004 	ldr	r2, [fp, #4]
    9340:	ebffff7e 	bl	9140 <vsnprintf>
    9344:	e24bd00c 	sub	sp, fp, #12
    9348:	e89da800 	ldm	sp, {fp, sp, pc}

0000934c <printf>:
    934c:	e1a0c00d 	mov	ip, sp
    9350:	e92d000f 	push	{r0, r1, r2, r3}
    9354:	e92dd830 	push	{r4, r5, fp, ip, lr, pc}
    9358:	e24cb014 	sub	fp, ip, #20
    935c:	e24ddb01 	sub	sp, sp, #1024	; 0x400
    9360:	e24dd008 	sub	sp, sp, #8
    9364:	e28b3008 	add	r3, fp, #8
    9368:	e50b3418 	str	r3, [fp, #-1048]	; 0x418
    936c:	e24b0e41 	sub	r0, fp, #1040	; 0x410
    9370:	e2400004 	sub	r0, r0, #4
    9374:	e3a01b01 	mov	r1, #1024	; 0x400
    9378:	e59b2004 	ldr	r2, [fp, #4]
    937c:	ebffff6f 	bl	9140 <vsnprintf>
    9380:	e1a05000 	mov	r5, r0
    9384:	e24b3e41 	sub	r3, fp, #1040	; 0x410
    9388:	e2433004 	sub	r3, r3, #4
    938c:	ea000001 	b	9398 <printf+0x4c>
    9390:	eb000065 	bl	952c <uart_putc>
    9394:	e1a03004 	mov	r3, r4
    9398:	e2834001 	add	r4, r3, #1
    939c:	e5d30000 	ldrb	r0, [r3]
    93a0:	e3500000 	cmp	r0, #0
    93a4:	1afffff9 	bne	9390 <printf+0x44>
    93a8:	e1a00005 	mov	r0, r5
    93ac:	e24bd014 	sub	sp, fp, #20
    93b0:	e89da830 	ldm	sp, {r4, r5, fp, sp, pc}

000093b4 <timer_init>:
    93b4:	e1a0c00d 	mov	ip, sp
    93b8:	e92dd800 	push	{fp, ip, lr, pc}
    93bc:	e24cb004 	sub	fp, ip, #4
    93c0:	e89da800 	ldm	sp, {fp, sp, pc}

000093c4 <timer_get_time>:
    93c4:	e1a0c00d 	mov	ip, sp
    93c8:	e92dd800 	push	{fp, ip, lr, pc}
    93cc:	e24cb004 	sub	fp, ip, #4
    93d0:	e59f3004 	ldr	r3, [pc, #4]	; 93dc <timer_get_time+0x18>
    93d4:	e5930004 	ldr	r0, [r3, #4]
    93d8:	e89da800 	ldm	sp, {fp, sp, pc}
    93dc:	20003000 	andcs	r3, r0, r0

000093e0 <delay_us>:
    93e0:	e1a0c00d 	mov	ip, sp
    93e4:	e92dd830 	push	{r4, r5, fp, ip, lr, pc}
    93e8:	e24cb004 	sub	fp, ip, #4
    93ec:	e1a05000 	mov	r5, r0
    93f0:	ebfffff3 	bl	93c4 <timer_get_time>
    93f4:	e1a04000 	mov	r4, r0
    93f8:	ebfffff1 	bl	93c4 <timer_get_time>
    93fc:	e0640000 	rsb	r0, r4, r0
    9400:	e1500005 	cmp	r0, r5
    9404:	3afffffb 	bcc	93f8 <delay_us+0x18>
    9408:	e89da830 	ldm	sp, {r4, r5, fp, sp, pc}

0000940c <delay_ms>:
    940c:	e1a0c00d 	mov	ip, sp
    9410:	e92dd878 	push	{r3, r4, r5, r6, fp, ip, lr, pc}
    9414:	e24cb004 	sub	fp, ip, #4
    9418:	e1a05000 	mov	r5, r0
    941c:	e3a04000 	mov	r4, #0
    9420:	e3a06ffa 	mov	r6, #1000	; 0x3e8
    9424:	ea000002 	b	9434 <delay_ms+0x28>
    9428:	e1a00006 	mov	r0, r6
    942c:	ebffffeb 	bl	93e0 <delay_us>
    9430:	e2844001 	add	r4, r4, #1
    9434:	e1540005 	cmp	r4, r5
    9438:	3afffffa 	bcc	9428 <delay_ms+0x1c>
    943c:	e89da878 	ldm	sp, {r3, r4, r5, r6, fp, sp, pc}

00009440 <delay>:
    9440:	e1a0c00d 	mov	ip, sp
    9444:	e92dd878 	push	{r3, r4, r5, r6, fp, ip, lr, pc}
    9448:	e24cb004 	sub	fp, ip, #4
    944c:	e1a05000 	mov	r5, r0
    9450:	e3a04000 	mov	r4, #0
    9454:	e3a06ffa 	mov	r6, #1000	; 0x3e8
    9458:	ea000002 	b	9468 <delay+0x28>
    945c:	e1a00006 	mov	r0, r6
    9460:	ebffffe9 	bl	940c <delay_ms>
    9464:	e2844001 	add	r4, r4, #1
    9468:	e1540005 	cmp	r4, r5
    946c:	3afffffa 	bcc	945c <delay+0x1c>
    9470:	e89da878 	ldm	sp, {r3, r4, r5, r6, fp, sp, pc}

00009474 <until_us>:
    9474:	e1a0c00d 	mov	ip, sp
    9478:	e92dd818 	push	{r3, r4, fp, ip, lr, pc}
    947c:	e24cb004 	sub	fp, ip, #4
    9480:	e1a04000 	mov	r4, r0
    9484:	ebffffce 	bl	93c4 <timer_get_time>
    9488:	e1500004 	cmp	r0, r4
    948c:	1afffffc 	bne	9484 <until_us+0x10>
    9490:	e89da818 	ldm	sp, {r3, r4, fp, sp, pc}

00009494 <uart_init>:
    9494:	e1a0c00d 	mov	ip, sp
    9498:	e92dd830 	push	{r4, r5, fp, ip, lr, pc}
    949c:	e24cb004 	sub	fp, ip, #4
    94a0:	e59f404c 	ldr	r4, [pc, #76]	; 94f4 <uart_init+0x60>
    94a4:	e3a03001 	mov	r3, #1
    94a8:	e5843004 	str	r3, [r4, #4]
    94ac:	e3a03000 	mov	r3, #0
    94b0:	e5843044 	str	r3, [r4, #68]	; 0x44
    94b4:	e5843060 	str	r3, [r4, #96]	; 0x60
    94b8:	e3a05003 	mov	r5, #3
    94bc:	e584504c 	str	r5, [r4, #76]	; 0x4c
    94c0:	e5843050 	str	r3, [r4, #80]	; 0x50
    94c4:	e5843044 	str	r3, [r4, #68]	; 0x44
    94c8:	e3a0000e 	mov	r0, #14
    94cc:	e5840048 	str	r0, [r4, #72]	; 0x48
    94d0:	e59f3020 	ldr	r3, [pc, #32]	; 94f8 <uart_init+0x64>
    94d4:	e5843068 	str	r3, [r4, #104]	; 0x68
    94d8:	e3a01002 	mov	r1, #2
    94dc:	ebfffde4 	bl	8c74 <gpio_set_function>
    94e0:	e3a0000f 	mov	r0, #15
    94e4:	e3a01002 	mov	r1, #2
    94e8:	ebfffde1 	bl	8c74 <gpio_set_function>
    94ec:	e5845060 	str	r5, [r4, #96]	; 0x60
    94f0:	e89da830 	ldm	sp, {r4, r5, fp, sp, pc}
    94f4:	20215000 	eorcs	r5, r1, r0
    94f8:	0000010e 	andeq	r0, r0, lr, lsl #2

000094fc <uart_getc>:
    94fc:	e1a0c00d 	mov	ip, sp
    9500:	e92dd800 	push	{fp, ip, lr, pc}
    9504:	e24cb004 	sub	fp, ip, #4
    9508:	e59f2018 	ldr	r2, [pc, #24]	; 9528 <uart_getc+0x2c>
    950c:	e5923054 	ldr	r3, [r2, #84]	; 0x54
    9510:	e3130001 	tst	r3, #1
    9514:	0afffffc 	beq	950c <uart_getc+0x10>
    9518:	e59f3008 	ldr	r3, [pc, #8]	; 9528 <uart_getc+0x2c>
    951c:	e5930040 	ldr	r0, [r3, #64]	; 0x40
    9520:	e6ef0070 	uxtb	r0, r0
    9524:	e89da800 	ldm	sp, {fp, sp, pc}
    9528:	20215000 	eorcs	r5, r1, r0

0000952c <uart_putc>:
    952c:	e1a0c00d 	mov	ip, sp
    9530:	e92dd818 	push	{r3, r4, fp, ip, lr, pc}
    9534:	e24cb004 	sub	fp, ip, #4
    9538:	e1a04000 	mov	r4, r0
    953c:	e350000a 	cmp	r0, #10
    9540:	1a000001 	bne	954c <uart_putc+0x20>
    9544:	e3a0000d 	mov	r0, #13
    9548:	ebfffff7 	bl	952c <uart_putc>
    954c:	e59f2014 	ldr	r2, [pc, #20]	; 9568 <uart_putc+0x3c>
    9550:	e5923054 	ldr	r3, [r2, #84]	; 0x54
    9554:	e3130020 	tst	r3, #32
    9558:	0afffffc 	beq	9550 <uart_putc+0x24>
    955c:	e59f3004 	ldr	r3, [pc, #4]	; 9568 <uart_putc+0x3c>
    9560:	e5834040 	str	r4, [r3, #64]	; 0x40
    9564:	e89da818 	ldm	sp, {r3, r4, fp, sp, pc}
    9568:	20215000 	eorcs	r5, r1, r0

0000956c <uart_flush>:
    956c:	e1a0c00d 	mov	ip, sp
    9570:	e92dd800 	push	{fp, ip, lr, pc}
    9574:	e24cb004 	sub	fp, ip, #4
    9578:	e59f200c 	ldr	r2, [pc, #12]	; 958c <uart_flush+0x20>
    957c:	e5923054 	ldr	r3, [r2, #84]	; 0x54
    9580:	e3130020 	tst	r3, #32
    9584:	0afffffc 	beq	957c <uart_flush+0x10>
    9588:	e89da800 	ldm	sp, {fp, sp, pc}
    958c:	20215000 	eorcs	r5, r1, r0

00009590 <gpio_set_pud>:
    9590:	e1a0c00d 	mov	ip, sp
    9594:	e92dd830 	push	{r4, r5, fp, ip, lr, pc}
    9598:	e24cb004 	sub	fp, ip, #4
    959c:	e1a04000 	mov	r4, r0
    95a0:	e3500034 	cmp	r0, #52	; 0x34
    95a4:	889da830 	ldmhi	sp, {r4, r5, fp, sp, pc}
    95a8:	e2011003 	and	r1, r1, #3
    95ac:	e59f5040 	ldr	r5, [pc, #64]	; 95f4 <gpio_set_pud+0x64>
    95b0:	e5851094 	str	r1, [r5, #148]	; 0x94
    95b4:	e3a00005 	mov	r0, #5
    95b8:	ebffff88 	bl	93e0 <delay_us>
    95bc:	e204401f 	and	r4, r4, #31
    95c0:	e3a03001 	mov	r3, #1
    95c4:	e1a04413 	lsl	r4, r3, r4
    95c8:	e5854098 	str	r4, [r5, #152]	; 0x98
    95cc:	e3a00005 	mov	r0, #5
    95d0:	ebffff82 	bl	93e0 <delay_us>
    95d4:	e3a04000 	mov	r4, #0
    95d8:	e5854094 	str	r4, [r5, #148]	; 0x94
    95dc:	e3a00005 	mov	r0, #5
    95e0:	ebffff7e 	bl	93e0 <delay_us>
    95e4:	e5854098 	str	r4, [r5, #152]	; 0x98
    95e8:	e3a00005 	mov	r0, #5
    95ec:	ebffff7b 	bl	93e0 <delay_us>
    95f0:	e89da830 	ldm	sp, {r4, r5, fp, sp, pc}
    95f4:	20200000 	eorcs	r0, r0, r0

000095f8 <gpio_set_pullup>:
    95f8:	e1a0c00d 	mov	ip, sp
    95fc:	e92dd800 	push	{fp, ip, lr, pc}
    9600:	e24cb004 	sub	fp, ip, #4
    9604:	e3500034 	cmp	r0, #52	; 0x34
    9608:	889da800 	ldmhi	sp, {fp, sp, pc}
    960c:	e3a01002 	mov	r1, #2
    9610:	ebffffde 	bl	9590 <gpio_set_pud>
    9614:	e89da800 	ldm	sp, {fp, sp, pc}

00009618 <gpio_set_pulldown>:
    9618:	e1a0c00d 	mov	ip, sp
    961c:	e92dd800 	push	{fp, ip, lr, pc}
    9620:	e24cb004 	sub	fp, ip, #4
    9624:	e3a01001 	mov	r1, #1
    9628:	ebffffd8 	bl	9590 <gpio_set_pud>
    962c:	e89da800 	ldm	sp, {fp, sp, pc}

00009630 <spi_init>:
    9630:	e1a0c00d 	mov	ip, sp
    9634:	e92dd830 	push	{r4, r5, fp, ip, lr, pc}
    9638:	e24cb004 	sub	fp, ip, #4
    963c:	e1a04000 	mov	r4, r0
    9640:	e1a05001 	mov	r5, r1
    9644:	e3a00007 	mov	r0, #7
    9648:	e3a01004 	mov	r1, #4
    964c:	ebfffd88 	bl	8c74 <gpio_set_function>
    9650:	e3a00008 	mov	r0, #8
    9654:	e3a01004 	mov	r1, #4
    9658:	ebfffd85 	bl	8c74 <gpio_set_function>
    965c:	e3a00009 	mov	r0, #9
    9660:	e3a01004 	mov	r1, #4
    9664:	ebfffd82 	bl	8c74 <gpio_set_function>
    9668:	e3a0000a 	mov	r0, #10
    966c:	e3a01004 	mov	r1, #4
    9670:	ebfffd7f 	bl	8c74 <gpio_set_function>
    9674:	e3a0000b 	mov	r0, #11
    9678:	e3a01004 	mov	r1, #4
    967c:	ebfffd7c 	bl	8c74 <gpio_set_function>
    9680:	e59f3060 	ldr	r3, [pc, #96]	; 96e8 <spi_init+0xb8>
    9684:	e5932000 	ldr	r2, [r3]
    9688:	e3a01000 	mov	r1, #0
    968c:	e5821000 	str	r1, [r2]
    9690:	e5933000 	ldr	r3, [r3]
    9694:	e5932000 	ldr	r2, [r3]
    9698:	e3822030 	orr	r2, r2, #48	; 0x30
    969c:	e5832000 	str	r2, [r3]
    96a0:	e1540001 	cmp	r4, r1
    96a4:	1a000004 	bne	96bc <spi_init+0x8c>
    96a8:	e59f3038 	ldr	r3, [pc, #56]	; 96e8 <spi_init+0xb8>
    96ac:	e5933000 	ldr	r3, [r3]
    96b0:	e5932000 	ldr	r2, [r3]
    96b4:	e5832000 	str	r2, [r3]
    96b8:	ea000006 	b	96d8 <spi_init+0xa8>
    96bc:	e3540001 	cmp	r4, #1
    96c0:	1a000004 	bne	96d8 <spi_init+0xa8>
    96c4:	e59f301c 	ldr	r3, [pc, #28]	; 96e8 <spi_init+0xb8>
    96c8:	e5933000 	ldr	r3, [r3]
    96cc:	e5932000 	ldr	r2, [r3]
    96d0:	e3822001 	orr	r2, r2, #1
    96d4:	e5832000 	str	r2, [r3]
    96d8:	e59f3008 	ldr	r3, [pc, #8]	; 96e8 <spi_init+0xb8>
    96dc:	e5933000 	ldr	r3, [r3]
    96e0:	e5835008 	str	r5, [r3, #8]
    96e4:	e89da830 	ldm	sp, {r4, r5, fp, sp, pc}
    96e8:	0000c6d4 	ldrdeq	ip, [r0], -r4

000096ec <spi_transfer>:
    96ec:	e1a0c00d 	mov	ip, sp
    96f0:	e92dd870 	push	{r4, r5, r6, fp, ip, lr, pc}
    96f4:	e24cb004 	sub	fp, ip, #4
    96f8:	e59f3078 	ldr	r3, [pc, #120]	; 9778 <spi_transfer+0x8c>
    96fc:	e5933000 	ldr	r3, [r3]
    9700:	e593c000 	ldr	ip, [r3]
    9704:	e38cc0b0 	orr	ip, ip, #176	; 0xb0
    9708:	e583c000 	str	ip, [r3]
    970c:	e3a05000 	mov	r5, #0
    9710:	e59f4060 	ldr	r4, [pc, #96]	; 9778 <spi_transfer+0x8c>
    9714:	ea00000e 	b	9754 <spi_transfer+0x68>
    9718:	e5943000 	ldr	r3, [r4]
    971c:	e593c000 	ldr	ip, [r3]
    9720:	e31c0701 	tst	ip, #262144	; 0x40000
    9724:	0afffffb 	beq	9718 <spi_transfer+0x2c>
    9728:	e7d0c006 	ldrb	ip, [r0, r6]
    972c:	e583c004 	str	ip, [r3, #4]
    9730:	e593c000 	ldr	ip, [r3]
    9734:	e31c0801 	tst	ip, #65536	; 0x10000
    9738:	0afffffc 	beq	9730 <spi_transfer+0x44>
    973c:	e593c000 	ldr	ip, [r3]
    9740:	e31c0802 	tst	ip, #131072	; 0x20000
    9744:	0afffffc 	beq	973c <spi_transfer+0x50>
    9748:	e5933004 	ldr	r3, [r3, #4]
    974c:	e7c13006 	strb	r3, [r1, r6]
    9750:	e2855001 	add	r5, r5, #1
    9754:	e1a06005 	mov	r6, r5
    9758:	e1550002 	cmp	r5, r2
    975c:	3affffed 	bcc	9718 <spi_transfer+0x2c>
    9760:	e59f3010 	ldr	r3, [pc, #16]	; 9778 <spi_transfer+0x8c>
    9764:	e5933000 	ldr	r3, [r3]
    9768:	e5932000 	ldr	r2, [r3]
    976c:	e3c22080 	bic	r2, r2, #128	; 0x80
    9770:	e5832000 	str	r2, [r3]
    9774:	e89da870 	ldm	sp, {r4, r5, r6, fp, sp, pc}
    9778:	0000c6d4 	ldrdeq	ip, [r0], -r4

0000977c <__aeabi_uidiv>:
    977c:	e2512001 	subs	r2, r1, #1
    9780:	012fff1e 	bxeq	lr
    9784:	3a000036 	bcc	9864 <__aeabi_uidiv+0xe8>
    9788:	e1500001 	cmp	r0, r1
    978c:	9a000022 	bls	981c <__aeabi_uidiv+0xa0>
    9790:	e1110002 	tst	r1, r2
    9794:	0a000023 	beq	9828 <__aeabi_uidiv+0xac>
    9798:	e311020e 	tst	r1, #-536870912	; 0xe0000000
    979c:	01a01181 	lsleq	r1, r1, #3
    97a0:	03a03008 	moveq	r3, #8
    97a4:	13a03001 	movne	r3, #1
    97a8:	e3510201 	cmp	r1, #268435456	; 0x10000000
    97ac:	31510000 	cmpcc	r1, r0
    97b0:	31a01201 	lslcc	r1, r1, #4
    97b4:	31a03203 	lslcc	r3, r3, #4
    97b8:	3afffffa 	bcc	97a8 <__aeabi_uidiv+0x2c>
    97bc:	e3510102 	cmp	r1, #-2147483648	; 0x80000000
    97c0:	31510000 	cmpcc	r1, r0
    97c4:	31a01081 	lslcc	r1, r1, #1
    97c8:	31a03083 	lslcc	r3, r3, #1
    97cc:	3afffffa 	bcc	97bc <__aeabi_uidiv+0x40>
    97d0:	e3a02000 	mov	r2, #0
    97d4:	e1500001 	cmp	r0, r1
    97d8:	20400001 	subcs	r0, r0, r1
    97dc:	21822003 	orrcs	r2, r2, r3
    97e0:	e15000a1 	cmp	r0, r1, lsr #1
    97e4:	204000a1 	subcs	r0, r0, r1, lsr #1
    97e8:	218220a3 	orrcs	r2, r2, r3, lsr #1
    97ec:	e1500121 	cmp	r0, r1, lsr #2
    97f0:	20400121 	subcs	r0, r0, r1, lsr #2
    97f4:	21822123 	orrcs	r2, r2, r3, lsr #2
    97f8:	e15001a1 	cmp	r0, r1, lsr #3
    97fc:	204001a1 	subcs	r0, r0, r1, lsr #3
    9800:	218221a3 	orrcs	r2, r2, r3, lsr #3
    9804:	e3500000 	cmp	r0, #0
    9808:	11b03223 	lsrsne	r3, r3, #4
    980c:	11a01221 	lsrne	r1, r1, #4
    9810:	1affffef 	bne	97d4 <__aeabi_uidiv+0x58>
    9814:	e1a00002 	mov	r0, r2
    9818:	e12fff1e 	bx	lr
    981c:	03a00001 	moveq	r0, #1
    9820:	13a00000 	movne	r0, #0
    9824:	e12fff1e 	bx	lr
    9828:	e3510801 	cmp	r1, #65536	; 0x10000
    982c:	21a01821 	lsrcs	r1, r1, #16
    9830:	23a02010 	movcs	r2, #16
    9834:	33a02000 	movcc	r2, #0
    9838:	e3510c01 	cmp	r1, #256	; 0x100
    983c:	21a01421 	lsrcs	r1, r1, #8
    9840:	22822008 	addcs	r2, r2, #8
    9844:	e3510010 	cmp	r1, #16
    9848:	21a01221 	lsrcs	r1, r1, #4
    984c:	22822004 	addcs	r2, r2, #4
    9850:	e3510004 	cmp	r1, #4
    9854:	82822003 	addhi	r2, r2, #3
    9858:	908220a1 	addls	r2, r2, r1, lsr #1
    985c:	e1a00230 	lsr	r0, r0, r2
    9860:	e12fff1e 	bx	lr
    9864:	e3500000 	cmp	r0, #0
    9868:	13e00000 	mvnne	r0, #0
    986c:	ea000059 	b	99d8 <__aeabi_idiv0>

00009870 <__aeabi_uidivmod>:
    9870:	e3510000 	cmp	r1, #0
    9874:	0afffffa 	beq	9864 <__aeabi_uidiv+0xe8>
    9878:	e92d4003 	push	{r0, r1, lr}
    987c:	ebffffbe 	bl	977c <__aeabi_uidiv>
    9880:	e8bd4006 	pop	{r1, r2, lr}
    9884:	e0030092 	mul	r3, r2, r0
    9888:	e0411003 	sub	r1, r1, r3
    988c:	e12fff1e 	bx	lr

00009890 <__aeabi_idiv>:
    9890:	e3510000 	cmp	r1, #0
    9894:	0a000043 	beq	99a8 <.divsi3_skip_div0_test+0x110>

00009898 <.divsi3_skip_div0_test>:
    9898:	e020c001 	eor	ip, r0, r1
    989c:	42611000 	rsbmi	r1, r1, #0
    98a0:	e2512001 	subs	r2, r1, #1
    98a4:	0a000027 	beq	9948 <.divsi3_skip_div0_test+0xb0>
    98a8:	e1b03000 	movs	r3, r0
    98ac:	42603000 	rsbmi	r3, r0, #0
    98b0:	e1530001 	cmp	r3, r1
    98b4:	9a000026 	bls	9954 <.divsi3_skip_div0_test+0xbc>
    98b8:	e1110002 	tst	r1, r2
    98bc:	0a000028 	beq	9964 <.divsi3_skip_div0_test+0xcc>
    98c0:	e311020e 	tst	r1, #-536870912	; 0xe0000000
    98c4:	01a01181 	lsleq	r1, r1, #3
    98c8:	03a02008 	moveq	r2, #8
    98cc:	13a02001 	movne	r2, #1
    98d0:	e3510201 	cmp	r1, #268435456	; 0x10000000
    98d4:	31510003 	cmpcc	r1, r3
    98d8:	31a01201 	lslcc	r1, r1, #4
    98dc:	31a02202 	lslcc	r2, r2, #4
    98e0:	3afffffa 	bcc	98d0 <.divsi3_skip_div0_test+0x38>
    98e4:	e3510102 	cmp	r1, #-2147483648	; 0x80000000
    98e8:	31510003 	cmpcc	r1, r3
    98ec:	31a01081 	lslcc	r1, r1, #1
    98f0:	31a02082 	lslcc	r2, r2, #1
    98f4:	3afffffa 	bcc	98e4 <.divsi3_skip_div0_test+0x4c>
    98f8:	e3a00000 	mov	r0, #0
    98fc:	e1530001 	cmp	r3, r1
    9900:	20433001 	subcs	r3, r3, r1
    9904:	21800002 	orrcs	r0, r0, r2
    9908:	e15300a1 	cmp	r3, r1, lsr #1
    990c:	204330a1 	subcs	r3, r3, r1, lsr #1
    9910:	218000a2 	orrcs	r0, r0, r2, lsr #1
    9914:	e1530121 	cmp	r3, r1, lsr #2
    9918:	20433121 	subcs	r3, r3, r1, lsr #2
    991c:	21800122 	orrcs	r0, r0, r2, lsr #2
    9920:	e15301a1 	cmp	r3, r1, lsr #3
    9924:	204331a1 	subcs	r3, r3, r1, lsr #3
    9928:	218001a2 	orrcs	r0, r0, r2, lsr #3
    992c:	e3530000 	cmp	r3, #0
    9930:	11b02222 	lsrsne	r2, r2, #4
    9934:	11a01221 	lsrne	r1, r1, #4
    9938:	1affffef 	bne	98fc <.divsi3_skip_div0_test+0x64>
    993c:	e35c0000 	cmp	ip, #0
    9940:	42600000 	rsbmi	r0, r0, #0
    9944:	e12fff1e 	bx	lr
    9948:	e13c0000 	teq	ip, r0
    994c:	42600000 	rsbmi	r0, r0, #0
    9950:	e12fff1e 	bx	lr
    9954:	33a00000 	movcc	r0, #0
    9958:	01a00fcc 	asreq	r0, ip, #31
    995c:	03800001 	orreq	r0, r0, #1
    9960:	e12fff1e 	bx	lr
    9964:	e3510801 	cmp	r1, #65536	; 0x10000
    9968:	21a01821 	lsrcs	r1, r1, #16
    996c:	23a02010 	movcs	r2, #16
    9970:	33a02000 	movcc	r2, #0
    9974:	e3510c01 	cmp	r1, #256	; 0x100
    9978:	21a01421 	lsrcs	r1, r1, #8
    997c:	22822008 	addcs	r2, r2, #8
    9980:	e3510010 	cmp	r1, #16
    9984:	21a01221 	lsrcs	r1, r1, #4
    9988:	22822004 	addcs	r2, r2, #4
    998c:	e3510004 	cmp	r1, #4
    9990:	82822003 	addhi	r2, r2, #3
    9994:	908220a1 	addls	r2, r2, r1, lsr #1
    9998:	e35c0000 	cmp	ip, #0
    999c:	e1a00233 	lsr	r0, r3, r2
    99a0:	42600000 	rsbmi	r0, r0, #0
    99a4:	e12fff1e 	bx	lr
    99a8:	e3500000 	cmp	r0, #0
    99ac:	c3e00102 	mvngt	r0, #-2147483648	; 0x80000000
    99b0:	b3a00102 	movlt	r0, #-2147483648	; 0x80000000
    99b4:	ea000007 	b	99d8 <__aeabi_idiv0>

000099b8 <__aeabi_idivmod>:
    99b8:	e3510000 	cmp	r1, #0
    99bc:	0afffff9 	beq	99a8 <.divsi3_skip_div0_test+0x110>
    99c0:	e92d4003 	push	{r0, r1, lr}
    99c4:	ebffffb3 	bl	9898 <.divsi3_skip_div0_test>
    99c8:	e8bd4006 	pop	{r1, r2, lr}
    99cc:	e0030092 	mul	r3, r2, r0
    99d0:	e0411003 	sub	r1, r1, r3
    99d4:	e12fff1e 	bx	lr

000099d8 <__aeabi_idiv0>:
    99d8:	e12fff1e 	bx	lr

000099dc <__aeabi_drsub>:
    99dc:	e2211102 	eor	r1, r1, #-2147483648	; 0x80000000
    99e0:	ea000000 	b	99e8 <__adddf3>

000099e4 <__aeabi_dsub>:
    99e4:	e2233102 	eor	r3, r3, #-2147483648	; 0x80000000

000099e8 <__adddf3>:
    99e8:	e92d4030 	push	{r4, r5, lr}
    99ec:	e1a04081 	lsl	r4, r1, #1
    99f0:	e1a05083 	lsl	r5, r3, #1
    99f4:	e1340005 	teq	r4, r5
    99f8:	01300002 	teqeq	r0, r2
    99fc:	1194c000 	orrsne	ip, r4, r0
    9a00:	1195c002 	orrsne	ip, r5, r2
    9a04:	11f0cac4 	mvnsne	ip, r4, asr #21
    9a08:	11f0cac5 	mvnsne	ip, r5, asr #21
    9a0c:	0a00008c 	beq	9c44 <__adddf3+0x25c>
    9a10:	e1a04aa4 	lsr	r4, r4, #21
    9a14:	e0745aa5 	rsbs	r5, r4, r5, lsr #21
    9a18:	b2655000 	rsblt	r5, r5, #0
    9a1c:	da000006 	ble	9a3c <__adddf3+0x54>
    9a20:	e0844005 	add	r4, r4, r5
    9a24:	e0202002 	eor	r2, r0, r2
    9a28:	e0213003 	eor	r3, r1, r3
    9a2c:	e0220000 	eor	r0, r2, r0
    9a30:	e0231001 	eor	r1, r3, r1
    9a34:	e0202002 	eor	r2, r0, r2
    9a38:	e0213003 	eor	r3, r1, r3
    9a3c:	e3550036 	cmp	r5, #54	; 0x36
    9a40:	88bd4030 	pophi	{r4, r5, lr}
    9a44:	812fff1e 	bxhi	lr
    9a48:	e3110102 	tst	r1, #-2147483648	; 0x80000000
    9a4c:	e1a01601 	lsl	r1, r1, #12
    9a50:	e3a0c601 	mov	ip, #1048576	; 0x100000
    9a54:	e18c1621 	orr	r1, ip, r1, lsr #12
    9a58:	0a000001 	beq	9a64 <__adddf3+0x7c>
    9a5c:	e2700000 	rsbs	r0, r0, #0
    9a60:	e2e11000 	rsc	r1, r1, #0
    9a64:	e3130102 	tst	r3, #-2147483648	; 0x80000000
    9a68:	e1a03603 	lsl	r3, r3, #12
    9a6c:	e18c3623 	orr	r3, ip, r3, lsr #12
    9a70:	0a000001 	beq	9a7c <__adddf3+0x94>
    9a74:	e2722000 	rsbs	r2, r2, #0
    9a78:	e2e33000 	rsc	r3, r3, #0
    9a7c:	e1340005 	teq	r4, r5
    9a80:	0a000069 	beq	9c2c <__adddf3+0x244>
    9a84:	e2444001 	sub	r4, r4, #1
    9a88:	e275e020 	rsbs	lr, r5, #32
    9a8c:	ba000005 	blt	9aa8 <__adddf3+0xc0>
    9a90:	e1a0ce12 	lsl	ip, r2, lr
    9a94:	e0900532 	adds	r0, r0, r2, lsr r5
    9a98:	e2a11000 	adc	r1, r1, #0
    9a9c:	e0900e13 	adds	r0, r0, r3, lsl lr
    9aa0:	e0b11553 	adcs	r1, r1, r3, asr r5
    9aa4:	ea000006 	b	9ac4 <__adddf3+0xdc>
    9aa8:	e2455020 	sub	r5, r5, #32
    9aac:	e28ee020 	add	lr, lr, #32
    9ab0:	e3520001 	cmp	r2, #1
    9ab4:	e1a0ce13 	lsl	ip, r3, lr
    9ab8:	238cc002 	orrcs	ip, ip, #2
    9abc:	e0900553 	adds	r0, r0, r3, asr r5
    9ac0:	e0b11fc3 	adcs	r1, r1, r3, asr #31
    9ac4:	e2015102 	and	r5, r1, #-2147483648	; 0x80000000
    9ac8:	5a000002 	bpl	9ad8 <__adddf3+0xf0>
    9acc:	e27cc000 	rsbs	ip, ip, #0
    9ad0:	e2f00000 	rscs	r0, r0, #0
    9ad4:	e2e11000 	rsc	r1, r1, #0
    9ad8:	e3510601 	cmp	r1, #1048576	; 0x100000
    9adc:	3a00000f 	bcc	9b20 <__adddf3+0x138>
    9ae0:	e3510602 	cmp	r1, #2097152	; 0x200000
    9ae4:	3a000006 	bcc	9b04 <__adddf3+0x11c>
    9ae8:	e1b010a1 	lsrs	r1, r1, #1
    9aec:	e1b00060 	rrxs	r0, r0
    9af0:	e1a0c06c 	rrx	ip, ip
    9af4:	e2844001 	add	r4, r4, #1
    9af8:	e1a02a84 	lsl	r2, r4, #21
    9afc:	e3720501 	cmn	r2, #4194304	; 0x400000
    9b00:	2a00006b 	bcs	9cb4 <__adddf3+0x2cc>
    9b04:	e35c0102 	cmp	ip, #-2147483648	; 0x80000000
    9b08:	01b0c0a0 	lsrseq	ip, r0, #1
    9b0c:	e2b00000 	adcs	r0, r0, #0
    9b10:	e0a11a04 	adc	r1, r1, r4, lsl #20
    9b14:	e1811005 	orr	r1, r1, r5
    9b18:	e8bd4030 	pop	{r4, r5, lr}
    9b1c:	e12fff1e 	bx	lr
    9b20:	e1b0c08c 	lsls	ip, ip, #1
    9b24:	e0b00000 	adcs	r0, r0, r0
    9b28:	e0a11001 	adc	r1, r1, r1
    9b2c:	e3110601 	tst	r1, #1048576	; 0x100000
    9b30:	e2444001 	sub	r4, r4, #1
    9b34:	1afffff2 	bne	9b04 <__adddf3+0x11c>
    9b38:	e3310000 	teq	r1, #0
    9b3c:	13a03014 	movne	r3, #20
    9b40:	03a03034 	moveq	r3, #52	; 0x34
    9b44:	01a01000 	moveq	r1, r0
    9b48:	03a00000 	moveq	r0, #0
    9b4c:	e1a02001 	mov	r2, r1
    9b50:	e3520801 	cmp	r2, #65536	; 0x10000
    9b54:	21a02822 	lsrcs	r2, r2, #16
    9b58:	22433010 	subcs	r3, r3, #16
    9b5c:	e3520c01 	cmp	r2, #256	; 0x100
    9b60:	21a02422 	lsrcs	r2, r2, #8
    9b64:	22433008 	subcs	r3, r3, #8
    9b68:	e3520010 	cmp	r2, #16
    9b6c:	21a02222 	lsrcs	r2, r2, #4
    9b70:	22433004 	subcs	r3, r3, #4
    9b74:	e3520004 	cmp	r2, #4
    9b78:	22433002 	subcs	r3, r3, #2
    9b7c:	304330a2 	subcc	r3, r3, r2, lsr #1
    9b80:	e04331a2 	sub	r3, r3, r2, lsr #3
    9b84:	e2532020 	subs	r2, r3, #32
    9b88:	aa000007 	bge	9bac <__adddf3+0x1c4>
    9b8c:	e292200c 	adds	r2, r2, #12
    9b90:	da000004 	ble	9ba8 <__adddf3+0x1c0>
    9b94:	e282c014 	add	ip, r2, #20
    9b98:	e262200c 	rsb	r2, r2, #12
    9b9c:	e1a00c11 	lsl	r0, r1, ip
    9ba0:	e1a01231 	lsr	r1, r1, r2
    9ba4:	ea000004 	b	9bbc <__adddf3+0x1d4>
    9ba8:	e2822014 	add	r2, r2, #20
    9bac:	d262c020 	rsble	ip, r2, #32
    9bb0:	e1a01211 	lsl	r1, r1, r2
    9bb4:	d1811c30 	orrle	r1, r1, r0, lsr ip
    9bb8:	d1a00210 	lslle	r0, r0, r2
    9bbc:	e0544003 	subs	r4, r4, r3
    9bc0:	a0811a04 	addge	r1, r1, r4, lsl #20
    9bc4:	a1811005 	orrge	r1, r1, r5
    9bc8:	a8bd4030 	popge	{r4, r5, lr}
    9bcc:	a12fff1e 	bxge	lr
    9bd0:	e1e04004 	mvn	r4, r4
    9bd4:	e254401f 	subs	r4, r4, #31
    9bd8:	aa00000f 	bge	9c1c <__adddf3+0x234>
    9bdc:	e294400c 	adds	r4, r4, #12
    9be0:	ca000006 	bgt	9c00 <__adddf3+0x218>
    9be4:	e2844014 	add	r4, r4, #20
    9be8:	e2642020 	rsb	r2, r4, #32
    9bec:	e1a00430 	lsr	r0, r0, r4
    9bf0:	e1800211 	orr	r0, r0, r1, lsl r2
    9bf4:	e1851431 	orr	r1, r5, r1, lsr r4
    9bf8:	e8bd4030 	pop	{r4, r5, lr}
    9bfc:	e12fff1e 	bx	lr
    9c00:	e264400c 	rsb	r4, r4, #12
    9c04:	e2642020 	rsb	r2, r4, #32
    9c08:	e1a00230 	lsr	r0, r0, r2
    9c0c:	e1800411 	orr	r0, r0, r1, lsl r4
    9c10:	e1a01005 	mov	r1, r5
    9c14:	e8bd4030 	pop	{r4, r5, lr}
    9c18:	e12fff1e 	bx	lr
    9c1c:	e1a00431 	lsr	r0, r1, r4
    9c20:	e1a01005 	mov	r1, r5
    9c24:	e8bd4030 	pop	{r4, r5, lr}
    9c28:	e12fff1e 	bx	lr
    9c2c:	e3340000 	teq	r4, #0
    9c30:	e2233601 	eor	r3, r3, #1048576	; 0x100000
    9c34:	02211601 	eoreq	r1, r1, #1048576	; 0x100000
    9c38:	02844001 	addeq	r4, r4, #1
    9c3c:	12455001 	subne	r5, r5, #1
    9c40:	eaffff8f 	b	9a84 <__adddf3+0x9c>
    9c44:	e1f0cac4 	mvns	ip, r4, asr #21
    9c48:	11f0cac5 	mvnsne	ip, r5, asr #21
    9c4c:	0a00001d 	beq	9cc8 <__adddf3+0x2e0>
    9c50:	e1340005 	teq	r4, r5
    9c54:	01300002 	teqeq	r0, r2
    9c58:	0a000004 	beq	9c70 <__adddf3+0x288>
    9c5c:	e194c000 	orrs	ip, r4, r0
    9c60:	01a01003 	moveq	r1, r3
    9c64:	01a00002 	moveq	r0, r2
    9c68:	e8bd4030 	pop	{r4, r5, lr}
    9c6c:	e12fff1e 	bx	lr
    9c70:	e1310003 	teq	r1, r3
    9c74:	13a01000 	movne	r1, #0
    9c78:	13a00000 	movne	r0, #0
    9c7c:	18bd4030 	popne	{r4, r5, lr}
    9c80:	112fff1e 	bxne	lr
    9c84:	e1b0caa4 	lsrs	ip, r4, #21
    9c88:	1a000004 	bne	9ca0 <__adddf3+0x2b8>
    9c8c:	e1b00080 	lsls	r0, r0, #1
    9c90:	e0b11001 	adcs	r1, r1, r1
    9c94:	23811102 	orrcs	r1, r1, #-2147483648	; 0x80000000
    9c98:	e8bd4030 	pop	{r4, r5, lr}
    9c9c:	e12fff1e 	bx	lr
    9ca0:	e2944501 	adds	r4, r4, #4194304	; 0x400000
    9ca4:	32811601 	addcc	r1, r1, #1048576	; 0x100000
    9ca8:	38bd4030 	popcc	{r4, r5, lr}
    9cac:	312fff1e 	bxcc	lr
    9cb0:	e2015102 	and	r5, r1, #-2147483648	; 0x80000000
    9cb4:	e385147f 	orr	r1, r5, #2130706432	; 0x7f000000
    9cb8:	e381160f 	orr	r1, r1, #15728640	; 0xf00000
    9cbc:	e3a00000 	mov	r0, #0
    9cc0:	e8bd4030 	pop	{r4, r5, lr}
    9cc4:	e12fff1e 	bx	lr
    9cc8:	e1f0cac4 	mvns	ip, r4, asr #21
    9ccc:	11a01003 	movne	r1, r3
    9cd0:	11a00002 	movne	r0, r2
    9cd4:	01f0cac5 	mvnseq	ip, r5, asr #21
    9cd8:	11a03001 	movne	r3, r1
    9cdc:	11a02000 	movne	r2, r0
    9ce0:	e1904601 	orrs	r4, r0, r1, lsl #12
    9ce4:	01925603 	orrseq	r5, r2, r3, lsl #12
    9ce8:	01310003 	teqeq	r1, r3
    9cec:	13811702 	orrne	r1, r1, #524288	; 0x80000
    9cf0:	e8bd4030 	pop	{r4, r5, lr}
    9cf4:	e12fff1e 	bx	lr

00009cf8 <__aeabi_ui2d>:
    9cf8:	e3300000 	teq	r0, #0
    9cfc:	03a01000 	moveq	r1, #0
    9d00:	012fff1e 	bxeq	lr
    9d04:	e92d4030 	push	{r4, r5, lr}
    9d08:	e3a04b01 	mov	r4, #1024	; 0x400
    9d0c:	e2844032 	add	r4, r4, #50	; 0x32
    9d10:	e3a05000 	mov	r5, #0
    9d14:	e3a01000 	mov	r1, #0
    9d18:	eaffff86 	b	9b38 <__adddf3+0x150>

00009d1c <__aeabi_i2d>:
    9d1c:	e3300000 	teq	r0, #0
    9d20:	03a01000 	moveq	r1, #0
    9d24:	012fff1e 	bxeq	lr
    9d28:	e92d4030 	push	{r4, r5, lr}
    9d2c:	e3a04b01 	mov	r4, #1024	; 0x400
    9d30:	e2844032 	add	r4, r4, #50	; 0x32
    9d34:	e2105102 	ands	r5, r0, #-2147483648	; 0x80000000
    9d38:	42600000 	rsbmi	r0, r0, #0
    9d3c:	e3a01000 	mov	r1, #0
    9d40:	eaffff7c 	b	9b38 <__adddf3+0x150>

00009d44 <__aeabi_f2d>:
    9d44:	e1b02080 	lsls	r2, r0, #1
    9d48:	e1a011c2 	asr	r1, r2, #3
    9d4c:	e1a01061 	rrx	r1, r1
    9d50:	e1a00e02 	lsl	r0, r2, #28
    9d54:	121234ff 	andsne	r3, r2, #-16777216	; 0xff000000
    9d58:	133304ff 	teqne	r3, #-16777216	; 0xff000000
    9d5c:	1221130e 	eorne	r1, r1, #939524096	; 0x38000000
    9d60:	112fff1e 	bxne	lr
    9d64:	e3320000 	teq	r2, #0
    9d68:	133304ff 	teqne	r3, #-16777216	; 0xff000000
    9d6c:	012fff1e 	bxeq	lr
    9d70:	e92d4030 	push	{r4, r5, lr}
    9d74:	e3a04d0e 	mov	r4, #896	; 0x380
    9d78:	e2015102 	and	r5, r1, #-2147483648	; 0x80000000
    9d7c:	e3c11102 	bic	r1, r1, #-2147483648	; 0x80000000
    9d80:	eaffff6c 	b	9b38 <__adddf3+0x150>

00009d84 <__aeabi_ul2d>:
    9d84:	e1902001 	orrs	r2, r0, r1
    9d88:	012fff1e 	bxeq	lr
    9d8c:	e92d4030 	push	{r4, r5, lr}
    9d90:	e3a05000 	mov	r5, #0
    9d94:	ea000006 	b	9db4 <__aeabi_l2d+0x1c>

00009d98 <__aeabi_l2d>:
    9d98:	e1902001 	orrs	r2, r0, r1
    9d9c:	012fff1e 	bxeq	lr
    9da0:	e92d4030 	push	{r4, r5, lr}
    9da4:	e2115102 	ands	r5, r1, #-2147483648	; 0x80000000
    9da8:	5a000001 	bpl	9db4 <__aeabi_l2d+0x1c>
    9dac:	e2700000 	rsbs	r0, r0, #0
    9db0:	e2e11000 	rsc	r1, r1, #0
    9db4:	e3a04b01 	mov	r4, #1024	; 0x400
    9db8:	e2844032 	add	r4, r4, #50	; 0x32
    9dbc:	e1b0cb21 	lsrs	ip, r1, #22
    9dc0:	0affff44 	beq	9ad8 <__adddf3+0xf0>
    9dc4:	e3a02003 	mov	r2, #3
    9dc8:	e1b0c1ac 	lsrs	ip, ip, #3
    9dcc:	12822003 	addne	r2, r2, #3
    9dd0:	e1b0c1ac 	lsrs	ip, ip, #3
    9dd4:	12822003 	addne	r2, r2, #3
    9dd8:	e08221ac 	add	r2, r2, ip, lsr #3
    9ddc:	e2623020 	rsb	r3, r2, #32
    9de0:	e1a0c310 	lsl	ip, r0, r3
    9de4:	e1a00230 	lsr	r0, r0, r2
    9de8:	e1800311 	orr	r0, r0, r1, lsl r3
    9dec:	e1a01231 	lsr	r1, r1, r2
    9df0:	e0844002 	add	r4, r4, r2
    9df4:	eaffff37 	b	9ad8 <__adddf3+0xf0>

00009df8 <__aeabi_dmul>:
    9df8:	e92d4070 	push	{r4, r5, r6, lr}
    9dfc:	e3a0c0ff 	mov	ip, #255	; 0xff
    9e00:	e38ccc07 	orr	ip, ip, #1792	; 0x700
    9e04:	e01c4a21 	ands	r4, ip, r1, lsr #20
    9e08:	101c5a23 	andsne	r5, ip, r3, lsr #20
    9e0c:	1134000c 	teqne	r4, ip
    9e10:	1135000c 	teqne	r5, ip
    9e14:	0b000075 	bleq	9ff0 <__aeabi_dmul+0x1f8>
    9e18:	e0844005 	add	r4, r4, r5
    9e1c:	e0216003 	eor	r6, r1, r3
    9e20:	e1c11a8c 	bic	r1, r1, ip, lsl #21
    9e24:	e1c33a8c 	bic	r3, r3, ip, lsl #21
    9e28:	e1905601 	orrs	r5, r0, r1, lsl #12
    9e2c:	11925603 	orrsne	r5, r2, r3, lsl #12
    9e30:	e3811601 	orr	r1, r1, #1048576	; 0x100000
    9e34:	e3833601 	orr	r3, r3, #1048576	; 0x100000
    9e38:	0a00001d 	beq	9eb4 <__aeabi_dmul+0xbc>
    9e3c:	e08ec290 	umull	ip, lr, r0, r2
    9e40:	e3a05000 	mov	r5, #0
    9e44:	e0a5e291 	umlal	lr, r5, r1, r2
    9e48:	e2062102 	and	r2, r6, #-2147483648	; 0x80000000
    9e4c:	e0a5e390 	umlal	lr, r5, r0, r3
    9e50:	e3a06000 	mov	r6, #0
    9e54:	e0a65391 	umlal	r5, r6, r1, r3
    9e58:	e33c0000 	teq	ip, #0
    9e5c:	138ee001 	orrne	lr, lr, #1
    9e60:	e24440ff 	sub	r4, r4, #255	; 0xff
    9e64:	e3560c02 	cmp	r6, #512	; 0x200
    9e68:	e2c44c03 	sbc	r4, r4, #768	; 0x300
    9e6c:	2a000002 	bcs	9e7c <__aeabi_dmul+0x84>
    9e70:	e1b0e08e 	lsls	lr, lr, #1
    9e74:	e0b55005 	adcs	r5, r5, r5
    9e78:	e0a66006 	adc	r6, r6, r6
    9e7c:	e1821586 	orr	r1, r2, r6, lsl #11
    9e80:	e1811aa5 	orr	r1, r1, r5, lsr #21
    9e84:	e1a00585 	lsl	r0, r5, #11
    9e88:	e1800aae 	orr	r0, r0, lr, lsr #21
    9e8c:	e1a0e58e 	lsl	lr, lr, #11
    9e90:	e254c0fd 	subs	ip, r4, #253	; 0xfd
    9e94:	835c0c07 	cmphi	ip, #1792	; 0x700
    9e98:	8a000011 	bhi	9ee4 <__aeabi_dmul+0xec>
    9e9c:	e35e0102 	cmp	lr, #-2147483648	; 0x80000000
    9ea0:	01b0e0a0 	lsrseq	lr, r0, #1
    9ea4:	e2b00000 	adcs	r0, r0, #0
    9ea8:	e0a11a04 	adc	r1, r1, r4, lsl #20
    9eac:	e8bd4070 	pop	{r4, r5, r6, lr}
    9eb0:	e12fff1e 	bx	lr
    9eb4:	e2066102 	and	r6, r6, #-2147483648	; 0x80000000
    9eb8:	e1861001 	orr	r1, r6, r1
    9ebc:	e1800002 	orr	r0, r0, r2
    9ec0:	e0211003 	eor	r1, r1, r3
    9ec4:	e05440ac 	subs	r4, r4, ip, lsr #1
    9ec8:	c074500c 	rsbsgt	r5, r4, ip
    9ecc:	c1811a04 	orrgt	r1, r1, r4, lsl #20
    9ed0:	c8bd4070 	popgt	{r4, r5, r6, lr}
    9ed4:	c12fff1e 	bxgt	lr
    9ed8:	e3811601 	orr	r1, r1, #1048576	; 0x100000
    9edc:	e3a0e000 	mov	lr, #0
    9ee0:	e2544001 	subs	r4, r4, #1
    9ee4:	ca00005d 	bgt	a060 <__aeabi_dmul+0x268>
    9ee8:	e3740036 	cmn	r4, #54	; 0x36
    9eec:	d3a00000 	movle	r0, #0
    9ef0:	d2011102 	andle	r1, r1, #-2147483648	; 0x80000000
    9ef4:	d8bd4070 	pople	{r4, r5, r6, lr}
    9ef8:	d12fff1e 	bxle	lr
    9efc:	e2644000 	rsb	r4, r4, #0
    9f00:	e2544020 	subs	r4, r4, #32
    9f04:	aa00001a 	bge	9f74 <__aeabi_dmul+0x17c>
    9f08:	e294400c 	adds	r4, r4, #12
    9f0c:	ca00000c 	bgt	9f44 <__aeabi_dmul+0x14c>
    9f10:	e2844014 	add	r4, r4, #20
    9f14:	e2645020 	rsb	r5, r4, #32
    9f18:	e1a03510 	lsl	r3, r0, r5
    9f1c:	e1a00430 	lsr	r0, r0, r4
    9f20:	e1800511 	orr	r0, r0, r1, lsl r5
    9f24:	e2012102 	and	r2, r1, #-2147483648	; 0x80000000
    9f28:	e3c11102 	bic	r1, r1, #-2147483648	; 0x80000000
    9f2c:	e0900fa3 	adds	r0, r0, r3, lsr #31
    9f30:	e0a21431 	adc	r1, r2, r1, lsr r4
    9f34:	e19ee083 	orrs	lr, lr, r3, lsl #1
    9f38:	01c00fa3 	biceq	r0, r0, r3, lsr #31
    9f3c:	e8bd4070 	pop	{r4, r5, r6, lr}
    9f40:	e12fff1e 	bx	lr
    9f44:	e264400c 	rsb	r4, r4, #12
    9f48:	e2645020 	rsb	r5, r4, #32
    9f4c:	e1a03410 	lsl	r3, r0, r4
    9f50:	e1a00530 	lsr	r0, r0, r5
    9f54:	e1800411 	orr	r0, r0, r1, lsl r4
    9f58:	e2011102 	and	r1, r1, #-2147483648	; 0x80000000
    9f5c:	e0900fa3 	adds	r0, r0, r3, lsr #31
    9f60:	e2a11000 	adc	r1, r1, #0
    9f64:	e19ee083 	orrs	lr, lr, r3, lsl #1
    9f68:	01c00fa3 	biceq	r0, r0, r3, lsr #31
    9f6c:	e8bd4070 	pop	{r4, r5, r6, lr}
    9f70:	e12fff1e 	bx	lr
    9f74:	e2645020 	rsb	r5, r4, #32
    9f78:	e18ee510 	orr	lr, lr, r0, lsl r5
    9f7c:	e1a03430 	lsr	r3, r0, r4
    9f80:	e1833511 	orr	r3, r3, r1, lsl r5
    9f84:	e1a00431 	lsr	r0, r1, r4
    9f88:	e2011102 	and	r1, r1, #-2147483648	; 0x80000000
    9f8c:	e1c00431 	bic	r0, r0, r1, lsr r4
    9f90:	e0800fa3 	add	r0, r0, r3, lsr #31
    9f94:	e19ee083 	orrs	lr, lr, r3, lsl #1
    9f98:	01c00fa3 	biceq	r0, r0, r3, lsr #31
    9f9c:	e8bd4070 	pop	{r4, r5, r6, lr}
    9fa0:	e12fff1e 	bx	lr
    9fa4:	e3340000 	teq	r4, #0
    9fa8:	1a000008 	bne	9fd0 <__aeabi_dmul+0x1d8>
    9fac:	e2016102 	and	r6, r1, #-2147483648	; 0x80000000
    9fb0:	e1b00080 	lsls	r0, r0, #1
    9fb4:	e0a11001 	adc	r1, r1, r1
    9fb8:	e3110601 	tst	r1, #1048576	; 0x100000
    9fbc:	02444001 	subeq	r4, r4, #1
    9fc0:	0afffffa 	beq	9fb0 <__aeabi_dmul+0x1b8>
    9fc4:	e1811006 	orr	r1, r1, r6
    9fc8:	e3350000 	teq	r5, #0
    9fcc:	112fff1e 	bxne	lr
    9fd0:	e2036102 	and	r6, r3, #-2147483648	; 0x80000000
    9fd4:	e1b02082 	lsls	r2, r2, #1
    9fd8:	e0a33003 	adc	r3, r3, r3
    9fdc:	e3130601 	tst	r3, #1048576	; 0x100000
    9fe0:	02455001 	subeq	r5, r5, #1
    9fe4:	0afffffa 	beq	9fd4 <__aeabi_dmul+0x1dc>
    9fe8:	e1833006 	orr	r3, r3, r6
    9fec:	e12fff1e 	bx	lr
    9ff0:	e134000c 	teq	r4, ip
    9ff4:	e00c5a23 	and	r5, ip, r3, lsr #20
    9ff8:	1135000c 	teqne	r5, ip
    9ffc:	0a000007 	beq	a020 <__aeabi_dmul+0x228>
    a000:	e1906081 	orrs	r6, r0, r1, lsl #1
    a004:	11926083 	orrsne	r6, r2, r3, lsl #1
    a008:	1affffe5 	bne	9fa4 <__aeabi_dmul+0x1ac>
    a00c:	e0211003 	eor	r1, r1, r3
    a010:	e2011102 	and	r1, r1, #-2147483648	; 0x80000000
    a014:	e3a00000 	mov	r0, #0
    a018:	e8bd4070 	pop	{r4, r5, r6, lr}
    a01c:	e12fff1e 	bx	lr
    a020:	e1906081 	orrs	r6, r0, r1, lsl #1
    a024:	01a00002 	moveq	r0, r2
    a028:	01a01003 	moveq	r1, r3
    a02c:	11926083 	orrsne	r6, r2, r3, lsl #1
    a030:	0a000010 	beq	a078 <__aeabi_dmul+0x280>
    a034:	e134000c 	teq	r4, ip
    a038:	1a000001 	bne	a044 <__aeabi_dmul+0x24c>
    a03c:	e1906601 	orrs	r6, r0, r1, lsl #12
    a040:	1a00000c 	bne	a078 <__aeabi_dmul+0x280>
    a044:	e135000c 	teq	r5, ip
    a048:	1a000003 	bne	a05c <__aeabi_dmul+0x264>
    a04c:	e1926603 	orrs	r6, r2, r3, lsl #12
    a050:	11a00002 	movne	r0, r2
    a054:	11a01003 	movne	r1, r3
    a058:	1a000006 	bne	a078 <__aeabi_dmul+0x280>
    a05c:	e0211003 	eor	r1, r1, r3
    a060:	e2011102 	and	r1, r1, #-2147483648	; 0x80000000
    a064:	e381147f 	orr	r1, r1, #2130706432	; 0x7f000000
    a068:	e381160f 	orr	r1, r1, #15728640	; 0xf00000
    a06c:	e3a00000 	mov	r0, #0
    a070:	e8bd4070 	pop	{r4, r5, r6, lr}
    a074:	e12fff1e 	bx	lr
    a078:	e381147f 	orr	r1, r1, #2130706432	; 0x7f000000
    a07c:	e381173e 	orr	r1, r1, #16252928	; 0xf80000
    a080:	e8bd4070 	pop	{r4, r5, r6, lr}
    a084:	e12fff1e 	bx	lr

0000a088 <__aeabi_ddiv>:
    a088:	e92d4070 	push	{r4, r5, r6, lr}
    a08c:	e3a0c0ff 	mov	ip, #255	; 0xff
    a090:	e38ccc07 	orr	ip, ip, #1792	; 0x700
    a094:	e01c4a21 	ands	r4, ip, r1, lsr #20
    a098:	101c5a23 	andsne	r5, ip, r3, lsr #20
    a09c:	1134000c 	teqne	r4, ip
    a0a0:	1135000c 	teqne	r5, ip
    a0a4:	0b00005e 	bleq	a224 <__aeabi_ddiv+0x19c>
    a0a8:	e0444005 	sub	r4, r4, r5
    a0ac:	e021e003 	eor	lr, r1, r3
    a0b0:	e1925603 	orrs	r5, r2, r3, lsl #12
    a0b4:	e1a01601 	lsl	r1, r1, #12
    a0b8:	0a00004c 	beq	a1f0 <__aeabi_ddiv+0x168>
    a0bc:	e1a03603 	lsl	r3, r3, #12
    a0c0:	e3a05201 	mov	r5, #268435456	; 0x10000000
    a0c4:	e1853223 	orr	r3, r5, r3, lsr #4
    a0c8:	e1833c22 	orr	r3, r3, r2, lsr #24
    a0cc:	e1a02402 	lsl	r2, r2, #8
    a0d0:	e1855221 	orr	r5, r5, r1, lsr #4
    a0d4:	e1855c20 	orr	r5, r5, r0, lsr #24
    a0d8:	e1a06400 	lsl	r6, r0, #8
    a0dc:	e20e1102 	and	r1, lr, #-2147483648	; 0x80000000
    a0e0:	e1550003 	cmp	r5, r3
    a0e4:	01560002 	cmpeq	r6, r2
    a0e8:	e2a440fd 	adc	r4, r4, #253	; 0xfd
    a0ec:	e2844c03 	add	r4, r4, #768	; 0x300
    a0f0:	2a000001 	bcs	a0fc <__aeabi_ddiv+0x74>
    a0f4:	e1b030a3 	lsrs	r3, r3, #1
    a0f8:	e1a02062 	rrx	r2, r2
    a0fc:	e0566002 	subs	r6, r6, r2
    a100:	e0c55003 	sbc	r5, r5, r3
    a104:	e1b030a3 	lsrs	r3, r3, #1
    a108:	e1a02062 	rrx	r2, r2
    a10c:	e3a00601 	mov	r0, #1048576	; 0x100000
    a110:	e3a0c702 	mov	ip, #524288	; 0x80000
    a114:	e056e002 	subs	lr, r6, r2
    a118:	e0d5e003 	sbcs	lr, r5, r3
    a11c:	20466002 	subcs	r6, r6, r2
    a120:	21a0500e 	movcs	r5, lr
    a124:	2180000c 	orrcs	r0, r0, ip
    a128:	e1b030a3 	lsrs	r3, r3, #1
    a12c:	e1a02062 	rrx	r2, r2
    a130:	e056e002 	subs	lr, r6, r2
    a134:	e0d5e003 	sbcs	lr, r5, r3
    a138:	20466002 	subcs	r6, r6, r2
    a13c:	21a0500e 	movcs	r5, lr
    a140:	218000ac 	orrcs	r0, r0, ip, lsr #1
    a144:	e1b030a3 	lsrs	r3, r3, #1
    a148:	e1a02062 	rrx	r2, r2
    a14c:	e056e002 	subs	lr, r6, r2
    a150:	e0d5e003 	sbcs	lr, r5, r3
    a154:	20466002 	subcs	r6, r6, r2
    a158:	21a0500e 	movcs	r5, lr
    a15c:	2180012c 	orrcs	r0, r0, ip, lsr #2
    a160:	e1b030a3 	lsrs	r3, r3, #1
    a164:	e1a02062 	rrx	r2, r2
    a168:	e056e002 	subs	lr, r6, r2
    a16c:	e0d5e003 	sbcs	lr, r5, r3
    a170:	20466002 	subcs	r6, r6, r2
    a174:	21a0500e 	movcs	r5, lr
    a178:	218001ac 	orrcs	r0, r0, ip, lsr #3
    a17c:	e195e006 	orrs	lr, r5, r6
    a180:	0a00000d 	beq	a1bc <__aeabi_ddiv+0x134>
    a184:	e1a05205 	lsl	r5, r5, #4
    a188:	e1855e26 	orr	r5, r5, r6, lsr #28
    a18c:	e1a06206 	lsl	r6, r6, #4
    a190:	e1a03183 	lsl	r3, r3, #3
    a194:	e1833ea2 	orr	r3, r3, r2, lsr #29
    a198:	e1a02182 	lsl	r2, r2, #3
    a19c:	e1b0c22c 	lsrs	ip, ip, #4
    a1a0:	1affffdb 	bne	a114 <__aeabi_ddiv+0x8c>
    a1a4:	e3110601 	tst	r1, #1048576	; 0x100000
    a1a8:	1a000006 	bne	a1c8 <__aeabi_ddiv+0x140>
    a1ac:	e1811000 	orr	r1, r1, r0
    a1b0:	e3a00000 	mov	r0, #0
    a1b4:	e3a0c102 	mov	ip, #-2147483648	; 0x80000000
    a1b8:	eaffffd5 	b	a114 <__aeabi_ddiv+0x8c>
    a1bc:	e3110601 	tst	r1, #1048576	; 0x100000
    a1c0:	01811000 	orreq	r1, r1, r0
    a1c4:	03a00000 	moveq	r0, #0
    a1c8:	e254c0fd 	subs	ip, r4, #253	; 0xfd
    a1cc:	835c0c07 	cmphi	ip, #1792	; 0x700
    a1d0:	8affff43 	bhi	9ee4 <__aeabi_dmul+0xec>
    a1d4:	e055c003 	subs	ip, r5, r3
    a1d8:	0056c002 	subseq	ip, r6, r2
    a1dc:	01b0c0a0 	lsrseq	ip, r0, #1
    a1e0:	e2b00000 	adcs	r0, r0, #0
    a1e4:	e0a11a04 	adc	r1, r1, r4, lsl #20
    a1e8:	e8bd4070 	pop	{r4, r5, r6, lr}
    a1ec:	e12fff1e 	bx	lr
    a1f0:	e20ee102 	and	lr, lr, #-2147483648	; 0x80000000
    a1f4:	e18e1621 	orr	r1, lr, r1, lsr #12
    a1f8:	e09440ac 	adds	r4, r4, ip, lsr #1
    a1fc:	c074500c 	rsbsgt	r5, r4, ip
    a200:	c1811a04 	orrgt	r1, r1, r4, lsl #20
    a204:	c8bd4070 	popgt	{r4, r5, r6, lr}
    a208:	c12fff1e 	bxgt	lr
    a20c:	e3811601 	orr	r1, r1, #1048576	; 0x100000
    a210:	e3a0e000 	mov	lr, #0
    a214:	e2544001 	subs	r4, r4, #1
    a218:	eaffff31 	b	9ee4 <__aeabi_dmul+0xec>
    a21c:	e185e006 	orr	lr, r5, r6
    a220:	eaffff2f 	b	9ee4 <__aeabi_dmul+0xec>
    a224:	e00c5a23 	and	r5, ip, r3, lsr #20
    a228:	e134000c 	teq	r4, ip
    a22c:	0135000c 	teqeq	r5, ip
    a230:	0affff90 	beq	a078 <__aeabi_dmul+0x280>
    a234:	e134000c 	teq	r4, ip
    a238:	1a000006 	bne	a258 <__aeabi_ddiv+0x1d0>
    a23c:	e1904601 	orrs	r4, r0, r1, lsl #12
    a240:	1affff8c 	bne	a078 <__aeabi_dmul+0x280>
    a244:	e135000c 	teq	r5, ip
    a248:	1affff83 	bne	a05c <__aeabi_dmul+0x264>
    a24c:	e1a00002 	mov	r0, r2
    a250:	e1a01003 	mov	r1, r3
    a254:	eaffff87 	b	a078 <__aeabi_dmul+0x280>
    a258:	e135000c 	teq	r5, ip
    a25c:	1a000004 	bne	a274 <__aeabi_ddiv+0x1ec>
    a260:	e1925603 	orrs	r5, r2, r3, lsl #12
    a264:	0affff68 	beq	a00c <__aeabi_dmul+0x214>
    a268:	e1a00002 	mov	r0, r2
    a26c:	e1a01003 	mov	r1, r3
    a270:	eaffff80 	b	a078 <__aeabi_dmul+0x280>
    a274:	e1906081 	orrs	r6, r0, r1, lsl #1
    a278:	11926083 	orrsne	r6, r2, r3, lsl #1
    a27c:	1affff48 	bne	9fa4 <__aeabi_dmul+0x1ac>
    a280:	e1904081 	orrs	r4, r0, r1, lsl #1
    a284:	1affff74 	bne	a05c <__aeabi_dmul+0x264>
    a288:	e1925083 	orrs	r5, r2, r3, lsl #1
    a28c:	1affff5e 	bne	a00c <__aeabi_dmul+0x214>
    a290:	eaffff78 	b	a078 <__aeabi_dmul+0x280>

0000a294 <__gedf2>:
    a294:	e3e0c000 	mvn	ip, #0
    a298:	ea000002 	b	a2a8 <__cmpdf2+0x4>

0000a29c <__ledf2>:
    a29c:	e3a0c001 	mov	ip, #1
    a2a0:	ea000000 	b	a2a8 <__cmpdf2+0x4>

0000a2a4 <__cmpdf2>:
    a2a4:	e3a0c001 	mov	ip, #1
    a2a8:	e52dc004 	push	{ip}		; (str ip, [sp, #-4]!)
    a2ac:	e1a0c081 	lsl	ip, r1, #1
    a2b0:	e1f0cacc 	mvns	ip, ip, asr #21
    a2b4:	e1a0c083 	lsl	ip, r3, #1
    a2b8:	11f0cacc 	mvnsne	ip, ip, asr #21
    a2bc:	0a00000e 	beq	a2fc <__cmpdf2+0x58>
    a2c0:	e28dd004 	add	sp, sp, #4
    a2c4:	e190c081 	orrs	ip, r0, r1, lsl #1
    a2c8:	0192c083 	orrseq	ip, r2, r3, lsl #1
    a2cc:	11310003 	teqne	r1, r3
    a2d0:	01300002 	teqeq	r0, r2
    a2d4:	03a00000 	moveq	r0, #0
    a2d8:	012fff1e 	bxeq	lr
    a2dc:	e3700000 	cmn	r0, #0
    a2e0:	e1310003 	teq	r1, r3
    a2e4:	51510003 	cmppl	r1, r3
    a2e8:	01500002 	cmpeq	r0, r2
    a2ec:	21a00fc3 	asrcs	r0, r3, #31
    a2f0:	31e00fc3 	mvncc	r0, r3, asr #31
    a2f4:	e3800001 	orr	r0, r0, #1
    a2f8:	e12fff1e 	bx	lr
    a2fc:	e1a0c081 	lsl	ip, r1, #1
    a300:	e1f0cacc 	mvns	ip, ip, asr #21
    a304:	1a000001 	bne	a310 <__cmpdf2+0x6c>
    a308:	e190c601 	orrs	ip, r0, r1, lsl #12
    a30c:	1a000004 	bne	a324 <__cmpdf2+0x80>
    a310:	e1a0c083 	lsl	ip, r3, #1
    a314:	e1f0cacc 	mvns	ip, ip, asr #21
    a318:	1affffe8 	bne	a2c0 <__cmpdf2+0x1c>
    a31c:	e192c603 	orrs	ip, r2, r3, lsl #12
    a320:	0affffe6 	beq	a2c0 <__cmpdf2+0x1c>
    a324:	e49d0004 	pop	{r0}		; (ldr r0, [sp], #4)
    a328:	e12fff1e 	bx	lr

0000a32c <__aeabi_cdrcmple>:
    a32c:	e1a0c000 	mov	ip, r0
    a330:	e1a00002 	mov	r0, r2
    a334:	e1a0200c 	mov	r2, ip
    a338:	e1a0c001 	mov	ip, r1
    a33c:	e1a01003 	mov	r1, r3
    a340:	e1a0300c 	mov	r3, ip
    a344:	eaffffff 	b	a348 <__aeabi_cdcmpeq>

0000a348 <__aeabi_cdcmpeq>:
    a348:	e92d4001 	push	{r0, lr}
    a34c:	ebffffd4 	bl	a2a4 <__cmpdf2>
    a350:	e3500000 	cmp	r0, #0
    a354:	43700000 	cmnmi	r0, #0
    a358:	e8bd4001 	pop	{r0, lr}
    a35c:	e12fff1e 	bx	lr

0000a360 <__aeabi_dcmpeq>:
    a360:	e52de008 	str	lr, [sp, #-8]!
    a364:	ebfffff7 	bl	a348 <__aeabi_cdcmpeq>
    a368:	03a00001 	moveq	r0, #1
    a36c:	13a00000 	movne	r0, #0
    a370:	e49de008 	ldr	lr, [sp], #8
    a374:	e12fff1e 	bx	lr

0000a378 <__aeabi_dcmplt>:
    a378:	e52de008 	str	lr, [sp, #-8]!
    a37c:	ebfffff1 	bl	a348 <__aeabi_cdcmpeq>
    a380:	33a00001 	movcc	r0, #1
    a384:	23a00000 	movcs	r0, #0
    a388:	e49de008 	ldr	lr, [sp], #8
    a38c:	e12fff1e 	bx	lr

0000a390 <__aeabi_dcmple>:
    a390:	e52de008 	str	lr, [sp, #-8]!
    a394:	ebffffeb 	bl	a348 <__aeabi_cdcmpeq>
    a398:	93a00001 	movls	r0, #1
    a39c:	83a00000 	movhi	r0, #0
    a3a0:	e49de008 	ldr	lr, [sp], #8
    a3a4:	e12fff1e 	bx	lr

0000a3a8 <__aeabi_dcmpge>:
    a3a8:	e52de008 	str	lr, [sp, #-8]!
    a3ac:	ebffffde 	bl	a32c <__aeabi_cdrcmple>
    a3b0:	93a00001 	movls	r0, #1
    a3b4:	83a00000 	movhi	r0, #0
    a3b8:	e49de008 	ldr	lr, [sp], #8
    a3bc:	e12fff1e 	bx	lr

0000a3c0 <__aeabi_dcmpgt>:
    a3c0:	e52de008 	str	lr, [sp, #-8]!
    a3c4:	ebffffd8 	bl	a32c <__aeabi_cdrcmple>
    a3c8:	33a00001 	movcc	r0, #1
    a3cc:	23a00000 	movcs	r0, #0
    a3d0:	e49de008 	ldr	lr, [sp], #8
    a3d4:	e12fff1e 	bx	lr

0000a3d8 <__aeabi_d2iz>:
    a3d8:	e1a02081 	lsl	r2, r1, #1
    a3dc:	e2922602 	adds	r2, r2, #2097152	; 0x200000
    a3e0:	2a00000c 	bcs	a418 <__aeabi_d2iz+0x40>
    a3e4:	5a000009 	bpl	a410 <__aeabi_d2iz+0x38>
    a3e8:	e3e03e3e 	mvn	r3, #992	; 0x3e0
    a3ec:	e0532ac2 	subs	r2, r3, r2, asr #21
    a3f0:	9a00000a 	bls	a420 <__aeabi_d2iz+0x48>
    a3f4:	e1a03581 	lsl	r3, r1, #11
    a3f8:	e3833102 	orr	r3, r3, #-2147483648	; 0x80000000
    a3fc:	e1833aa0 	orr	r3, r3, r0, lsr #21
    a400:	e3110102 	tst	r1, #-2147483648	; 0x80000000
    a404:	e1a00233 	lsr	r0, r3, r2
    a408:	12600000 	rsbne	r0, r0, #0
    a40c:	e12fff1e 	bx	lr
    a410:	e3a00000 	mov	r0, #0
    a414:	e12fff1e 	bx	lr
    a418:	e1900601 	orrs	r0, r0, r1, lsl #12
    a41c:	1a000002 	bne	a42c <__aeabi_d2iz+0x54>
    a420:	e2110102 	ands	r0, r1, #-2147483648	; 0x80000000
    a424:	03e00102 	mvneq	r0, #-2147483648	; 0x80000000
    a428:	e12fff1e 	bx	lr
    a42c:	e3a00000 	mov	r0, #0
    a430:	e12fff1e 	bx	lr

Disassembly of section .data:

0000a434 <SCALE>:
    a434:	0000000e 	andeq	r0, r0, lr
    a438:	00006633 	andeq	r6, r0, r3, lsr r6
    a43c:	000041a0 	andeq	r4, r0, r0, lsr #3
    a440:	000072b6 			; <UNDEFINED> instruction: 0x000072b6
    a444:	000020d0 	ldrdeq	r2, [r0], -r0
    a448:	000080c3 	andeq	r8, r0, r3, asr #1
    a44c:	000020d0 	ldrdeq	r2, [r0], -r0
    a450:	0000886b 	andeq	r8, r0, fp, ror #16
    a454:	000020d0 	ldrdeq	r2, [r0], -r0
    a458:	00009920 	andeq	r9, r0, r0, lsr #18
    a45c:	000020d0 	ldrdeq	r2, [r0], -r0
    a460:	0000abe0 	andeq	sl, r0, r0, ror #23
    a464:	000020d0 	ldrdeq	r2, [r0], -r0
    a468:	0000c0ec 	andeq	ip, r0, ip, ror #1
    a46c:	000020d0 	ldrdeq	r2, [r0], -r0
    a470:	0000cc65 	andeq	ip, r0, r5, ror #24
    a474:	000041a0 	andeq	r4, r0, r0, lsr #3
    a478:	0000c0ec 	andeq	ip, r0, ip, ror #1
    a47c:	000020d0 	ldrdeq	r2, [r0], -r0
    a480:	0000abe0 	andeq	sl, r0, r0, ror #23
    a484:	000020d0 	ldrdeq	r2, [r0], -r0
    a488:	00009920 	andeq	r9, r0, r0, lsr #18
    a48c:	000020d0 	ldrdeq	r2, [r0], -r0
    a490:	0000886b 	andeq	r8, r0, fp, ror #16
    a494:	000020d0 	ldrdeq	r2, [r0], -r0
    a498:	000080c3 	andeq	r8, r0, r3, asr #1
    a49c:	000020d0 	ldrdeq	r2, [r0], -r0
    a4a0:	000072b6 			; <UNDEFINED> instruction: 0x000072b6
    a4a4:	000020d0 	ldrdeq	r2, [r0], -r0

0000a4a8 <HOT_CROSS_BUNS>:
    a4a8:	00000022 	andeq	r0, r0, r2, lsr #32
    a4ac:	0000c0ec 	andeq	ip, r0, ip, ror #1
    a4b0:	000020a8 	andeq	r2, r0, r8, lsr #1
    a4b4:	00000000 	andeq	r0, r0, r0
    a4b8:	00000028 	andeq	r0, r0, r8, lsr #32
    a4bc:	0000abe0 	andeq	sl, r0, r0, ror #23
    a4c0:	000020a8 	andeq	r2, r0, r8, lsr #1
    a4c4:	00000000 	andeq	r0, r0, r0
    a4c8:	00000028 	andeq	r0, r0, r8, lsr #32
    a4cc:	00009920 	andeq	r9, r0, r0, lsr #18
    a4d0:	00004178 	andeq	r4, r0, r8, ror r1
    a4d4:	00000000 	andeq	r0, r0, r0
    a4d8:	00000028 	andeq	r0, r0, r8, lsr #32
    a4dc:	0000c0ec 	andeq	ip, r0, ip, ror #1
    a4e0:	000020a8 	andeq	r2, r0, r8, lsr #1
    a4e4:	00000000 	andeq	r0, r0, r0
    a4e8:	00000028 	andeq	r0, r0, r8, lsr #32
    a4ec:	0000abe0 	andeq	sl, r0, r0, ror #23
    a4f0:	000020a8 	andeq	r2, r0, r8, lsr #1
    a4f4:	00000000 	andeq	r0, r0, r0
    a4f8:	00000028 	andeq	r0, r0, r8, lsr #32
    a4fc:	00009920 	andeq	r9, r0, r0, lsr #18
    a500:	00004178 	andeq	r4, r0, r8, ror r1
    a504:	00000000 	andeq	r0, r0, r0
    a508:	00000028 	andeq	r0, r0, r8, lsr #32
    a50c:	00009920 	andeq	r9, r0, r0, lsr #18
    a510:	00001040 	andeq	r1, r0, r0, asr #32
    a514:	00000000 	andeq	r0, r0, r0
    a518:	00000028 	andeq	r0, r0, r8, lsr #32
    a51c:	00009920 	andeq	r9, r0, r0, lsr #18
    a520:	00001040 	andeq	r1, r0, r0, asr #32
    a524:	00000000 	andeq	r0, r0, r0
    a528:	00000028 	andeq	r0, r0, r8, lsr #32
    a52c:	00009920 	andeq	r9, r0, r0, lsr #18
    a530:	00001040 	andeq	r1, r0, r0, asr #32
    a534:	00000000 	andeq	r0, r0, r0
    a538:	00000028 	andeq	r0, r0, r8, lsr #32
    a53c:	00009920 	andeq	r9, r0, r0, lsr #18
    a540:	00001040 	andeq	r1, r0, r0, asr #32
    a544:	00000000 	andeq	r0, r0, r0
    a548:	00000028 	andeq	r0, r0, r8, lsr #32
    a54c:	0000abe0 	andeq	sl, r0, r0, ror #23
    a550:	00001040 	andeq	r1, r0, r0, asr #32
    a554:	00000000 	andeq	r0, r0, r0
    a558:	00000028 	andeq	r0, r0, r8, lsr #32
    a55c:	0000abe0 	andeq	sl, r0, r0, ror #23
    a560:	00001040 	andeq	r1, r0, r0, asr #32
    a564:	00000000 	andeq	r0, r0, r0
    a568:	00000028 	andeq	r0, r0, r8, lsr #32
    a56c:	0000abe0 	andeq	sl, r0, r0, ror #23
    a570:	00001040 	andeq	r1, r0, r0, asr #32
    a574:	00000000 	andeq	r0, r0, r0
    a578:	00000028 	andeq	r0, r0, r8, lsr #32
    a57c:	0000abe0 	andeq	sl, r0, r0, ror #23
    a580:	00001040 	andeq	r1, r0, r0, asr #32
    a584:	00000000 	andeq	r0, r0, r0
    a588:	00000028 	andeq	r0, r0, r8, lsr #32
    a58c:	0000c0ec 	andeq	ip, r0, ip, ror #1
    a590:	000020a8 	andeq	r2, r0, r8, lsr #1
    a594:	00000000 	andeq	r0, r0, r0
    a598:	00000028 	andeq	r0, r0, r8, lsr #32
    a59c:	0000abe0 	andeq	sl, r0, r0, ror #23
    a5a0:	000020a8 	andeq	r2, r0, r8, lsr #1
    a5a4:	00000000 	andeq	r0, r0, r0
    a5a8:	00000028 	andeq	r0, r0, r8, lsr #32
    a5ac:	00009920 	andeq	r9, r0, r0, lsr #18
    a5b0:	00004178 	andeq	r4, r0, r8, ror r1
    a5b4:	00000000 	andeq	r0, r0, r0
    a5b8:	00000028 	andeq	r0, r0, r8, lsr #32

0000a5bc <clk>:
    a5bc:	20101000 	andscs	r1, r0, r0

0000a5c0 <pwm>:
    a5c0:	2020c000 	eorcs	ip, r0, r0

0000a5c4 <waveform_sine_custom_64>:
    a5c4:	00000040 	andeq	r0, r0, r0, asr #32
    a5c8:	00000040 	andeq	r0, r0, r0, asr #32
    a5cc:	00000040 	andeq	r0, r0, r0, asr #32
    a5d0:	00000041 	andeq	r0, r0, r1, asr #32
    a5d4:	00000041 	andeq	r0, r0, r1, asr #32
    a5d8:	00000041 	andeq	r0, r0, r1, asr #32
    a5dc:	00000042 	andeq	r0, r0, r2, asr #32
    a5e0:	00000042 	andeq	r0, r0, r2, asr #32
    a5e4:	00000043 	andeq	r0, r0, r3, asr #32
    a5e8:	00000043 	andeq	r0, r0, r3, asr #32
    a5ec:	00000043 	andeq	r0, r0, r3, asr #32
    a5f0:	00000044 	andeq	r0, r0, r4, asr #32
    a5f4:	00000044 	andeq	r0, r0, r4, asr #32
    a5f8:	00000045 	andeq	r0, r0, r5, asr #32
    a5fc:	00000045 	andeq	r0, r0, r5, asr #32
    a600:	00000045 	andeq	r0, r0, r5, asr #32
    a604:	00000046 	andeq	r0, r0, r6, asr #32
    a608:	00000046 	andeq	r0, r0, r6, asr #32
    a60c:	00000047 	andeq	r0, r0, r7, asr #32
    a610:	00000047 	andeq	r0, r0, r7, asr #32
    a614:	00000047 	andeq	r0, r0, r7, asr #32
    a618:	00000048 	andeq	r0, r0, r8, asr #32
    a61c:	00000048 	andeq	r0, r0, r8, asr #32
    a620:	00000049 	andeq	r0, r0, r9, asr #32
    a624:	00000049 	andeq	r0, r0, r9, asr #32
    a628:	00000049 	andeq	r0, r0, r9, asr #32
    a62c:	0000004a 	andeq	r0, r0, sl, asr #32
    a630:	0000004a 	andeq	r0, r0, sl, asr #32
    a634:	0000004a 	andeq	r0, r0, sl, asr #32
    a638:	0000004b 	andeq	r0, r0, fp, asr #32
    a63c:	0000004b 	andeq	r0, r0, fp, asr #32
    a640:	0000004c 	andeq	r0, r0, ip, asr #32
    a644:	0000004c 	andeq	r0, r0, ip, asr #32
    a648:	0000004c 	andeq	r0, r0, ip, asr #32
    a64c:	0000004d 	andeq	r0, r0, sp, asr #32
    a650:	0000004d 	andeq	r0, r0, sp, asr #32
    a654:	0000004e 	andeq	r0, r0, lr, asr #32
    a658:	0000004e 	andeq	r0, r0, lr, asr #32
    a65c:	0000004e 	andeq	r0, r0, lr, asr #32
    a660:	0000004f 	andeq	r0, r0, pc, asr #32
    a664:	0000004f 	andeq	r0, r0, pc, asr #32
    a668:	0000004f 	andeq	r0, r0, pc, asr #32
    a66c:	00000050 	andeq	r0, r0, r0, asr r0
    a670:	00000050 	andeq	r0, r0, r0, asr r0
    a674:	00000051 	andeq	r0, r0, r1, asr r0
    a678:	00000051 	andeq	r0, r0, r1, asr r0
    a67c:	00000051 	andeq	r0, r0, r1, asr r0
    a680:	00000052 	andeq	r0, r0, r2, asr r0
    a684:	00000052 	andeq	r0, r0, r2, asr r0
    a688:	00000052 	andeq	r0, r0, r2, asr r0
    a68c:	00000053 	andeq	r0, r0, r3, asr r0
    a690:	00000053 	andeq	r0, r0, r3, asr r0
    a694:	00000054 	andeq	r0, r0, r4, asr r0
    a698:	00000054 	andeq	r0, r0, r4, asr r0
    a69c:	00000054 	andeq	r0, r0, r4, asr r0
    a6a0:	00000055 	andeq	r0, r0, r5, asr r0
    a6a4:	00000055 	andeq	r0, r0, r5, asr r0
    a6a8:	00000055 	andeq	r0, r0, r5, asr r0
    a6ac:	00000056 	andeq	r0, r0, r6, asr r0
    a6b0:	00000056 	andeq	r0, r0, r6, asr r0
    a6b4:	00000057 	andeq	r0, r0, r7, asr r0
    a6b8:	00000057 	andeq	r0, r0, r7, asr r0
    a6bc:	00000057 	andeq	r0, r0, r7, asr r0
    a6c0:	00000058 	andeq	r0, r0, r8, asr r0
    a6c4:	00000058 	andeq	r0, r0, r8, asr r0
    a6c8:	00000058 	andeq	r0, r0, r8, asr r0
    a6cc:	00000059 	andeq	r0, r0, r9, asr r0
    a6d0:	00000059 	andeq	r0, r0, r9, asr r0
    a6d4:	00000059 	andeq	r0, r0, r9, asr r0
    a6d8:	0000005a 	andeq	r0, r0, sl, asr r0
    a6dc:	0000005a 	andeq	r0, r0, sl, asr r0
    a6e0:	0000005b 	andeq	r0, r0, fp, asr r0
    a6e4:	0000005b 	andeq	r0, r0, fp, asr r0
    a6e8:	0000005b 	andeq	r0, r0, fp, asr r0
    a6ec:	0000005c 	andeq	r0, r0, ip, asr r0
    a6f0:	0000005c 	andeq	r0, r0, ip, asr r0
    a6f4:	0000005c 	andeq	r0, r0, ip, asr r0
    a6f8:	0000005d 	andeq	r0, r0, sp, asr r0
    a6fc:	0000005d 	andeq	r0, r0, sp, asr r0
    a700:	0000005d 	andeq	r0, r0, sp, asr r0
    a704:	0000005e 	andeq	r0, r0, lr, asr r0
    a708:	0000005e 	andeq	r0, r0, lr, asr r0
    a70c:	0000005e 	andeq	r0, r0, lr, asr r0
    a710:	0000005f 	andeq	r0, r0, pc, asr r0
    a714:	0000005f 	andeq	r0, r0, pc, asr r0
    a718:	0000005f 	andeq	r0, r0, pc, asr r0
    a71c:	00000060 	andeq	r0, r0, r0, rrx
    a720:	00000060 	andeq	r0, r0, r0, rrx
    a724:	00000060 	andeq	r0, r0, r0, rrx
    a728:	00000061 	andeq	r0, r0, r1, rrx
    a72c:	00000061 	andeq	r0, r0, r1, rrx
    a730:	00000061 	andeq	r0, r0, r1, rrx
    a734:	00000062 	andeq	r0, r0, r2, rrx
    a738:	00000062 	andeq	r0, r0, r2, rrx
    a73c:	00000062 	andeq	r0, r0, r2, rrx
    a740:	00000063 	andeq	r0, r0, r3, rrx
    a744:	00000063 	andeq	r0, r0, r3, rrx
    a748:	00000063 	andeq	r0, r0, r3, rrx
    a74c:	00000064 	andeq	r0, r0, r4, rrx
    a750:	00000064 	andeq	r0, r0, r4, rrx
    a754:	00000064 	andeq	r0, r0, r4, rrx
    a758:	00000065 	andeq	r0, r0, r5, rrx
    a75c:	00000065 	andeq	r0, r0, r5, rrx
    a760:	00000065 	andeq	r0, r0, r5, rrx
    a764:	00000066 	andeq	r0, r0, r6, rrx
    a768:	00000066 	andeq	r0, r0, r6, rrx
    a76c:	00000066 	andeq	r0, r0, r6, rrx
    a770:	00000067 	andeq	r0, r0, r7, rrx
    a774:	00000067 	andeq	r0, r0, r7, rrx
    a778:	00000067 	andeq	r0, r0, r7, rrx
    a77c:	00000067 	andeq	r0, r0, r7, rrx
    a780:	00000068 	andeq	r0, r0, r8, rrx
    a784:	00000068 	andeq	r0, r0, r8, rrx
    a788:	00000068 	andeq	r0, r0, r8, rrx
    a78c:	00000069 	andeq	r0, r0, r9, rrx
    a790:	00000069 	andeq	r0, r0, r9, rrx
    a794:	00000069 	andeq	r0, r0, r9, rrx
    a798:	0000006a 	andeq	r0, r0, sl, rrx
    a79c:	0000006a 	andeq	r0, r0, sl, rrx
    a7a0:	0000006a 	andeq	r0, r0, sl, rrx
    a7a4:	0000006a 	andeq	r0, r0, sl, rrx
    a7a8:	0000006b 	andeq	r0, r0, fp, rrx
    a7ac:	0000006b 	andeq	r0, r0, fp, rrx
    a7b0:	0000006b 	andeq	r0, r0, fp, rrx
    a7b4:	0000006c 	andeq	r0, r0, ip, rrx
    a7b8:	0000006c 	andeq	r0, r0, ip, rrx
    a7bc:	0000006c 	andeq	r0, r0, ip, rrx
    a7c0:	0000006c 	andeq	r0, r0, ip, rrx
    a7c4:	0000006d 	andeq	r0, r0, sp, rrx
    a7c8:	0000006d 	andeq	r0, r0, sp, rrx
    a7cc:	0000006d 	andeq	r0, r0, sp, rrx
    a7d0:	0000006e 	andeq	r0, r0, lr, rrx
    a7d4:	0000006e 	andeq	r0, r0, lr, rrx
    a7d8:	0000006e 	andeq	r0, r0, lr, rrx
    a7dc:	0000006e 	andeq	r0, r0, lr, rrx
    a7e0:	0000006f 	andeq	r0, r0, pc, rrx
    a7e4:	0000006f 	andeq	r0, r0, pc, rrx
    a7e8:	0000006f 	andeq	r0, r0, pc, rrx
    a7ec:	0000006f 	andeq	r0, r0, pc, rrx
    a7f0:	00000070 	andeq	r0, r0, r0, ror r0
    a7f4:	00000070 	andeq	r0, r0, r0, ror r0
    a7f8:	00000070 	andeq	r0, r0, r0, ror r0
    a7fc:	00000070 	andeq	r0, r0, r0, ror r0
    a800:	00000071 	andeq	r0, r0, r1, ror r0
    a804:	00000071 	andeq	r0, r0, r1, ror r0
    a808:	00000071 	andeq	r0, r0, r1, ror r0
    a80c:	00000071 	andeq	r0, r0, r1, ror r0
    a810:	00000072 	andeq	r0, r0, r2, ror r0
    a814:	00000072 	andeq	r0, r0, r2, ror r0
    a818:	00000072 	andeq	r0, r0, r2, ror r0
    a81c:	00000072 	andeq	r0, r0, r2, ror r0
    a820:	00000073 	andeq	r0, r0, r3, ror r0
    a824:	00000073 	andeq	r0, r0, r3, ror r0
    a828:	00000073 	andeq	r0, r0, r3, ror r0
    a82c:	00000073 	andeq	r0, r0, r3, ror r0
    a830:	00000074 	andeq	r0, r0, r4, ror r0
    a834:	00000074 	andeq	r0, r0, r4, ror r0
    a838:	00000074 	andeq	r0, r0, r4, ror r0
    a83c:	00000074 	andeq	r0, r0, r4, ror r0
    a840:	00000074 	andeq	r0, r0, r4, ror r0
    a844:	00000075 	andeq	r0, r0, r5, ror r0
    a848:	00000075 	andeq	r0, r0, r5, ror r0
    a84c:	00000075 	andeq	r0, r0, r5, ror r0
    a850:	00000075 	andeq	r0, r0, r5, ror r0
    a854:	00000076 	andeq	r0, r0, r6, ror r0
    a858:	00000076 	andeq	r0, r0, r6, ror r0
    a85c:	00000076 	andeq	r0, r0, r6, ror r0
    a860:	00000076 	andeq	r0, r0, r6, ror r0
    a864:	00000076 	andeq	r0, r0, r6, ror r0
    a868:	00000077 	andeq	r0, r0, r7, ror r0
    a86c:	00000077 	andeq	r0, r0, r7, ror r0
    a870:	00000077 	andeq	r0, r0, r7, ror r0
    a874:	00000077 	andeq	r0, r0, r7, ror r0
    a878:	00000077 	andeq	r0, r0, r7, ror r0
    a87c:	00000078 	andeq	r0, r0, r8, ror r0
    a880:	00000078 	andeq	r0, r0, r8, ror r0
    a884:	00000078 	andeq	r0, r0, r8, ror r0
    a888:	00000078 	andeq	r0, r0, r8, ror r0
    a88c:	00000078 	andeq	r0, r0, r8, ror r0
    a890:	00000078 	andeq	r0, r0, r8, ror r0
    a894:	00000079 	andeq	r0, r0, r9, ror r0
    a898:	00000079 	andeq	r0, r0, r9, ror r0
    a89c:	00000079 	andeq	r0, r0, r9, ror r0
    a8a0:	00000079 	andeq	r0, r0, r9, ror r0
    a8a4:	00000079 	andeq	r0, r0, r9, ror r0
    a8a8:	0000007a 	andeq	r0, r0, sl, ror r0
    a8ac:	0000007a 	andeq	r0, r0, sl, ror r0
    a8b0:	0000007a 	andeq	r0, r0, sl, ror r0
    a8b4:	0000007a 	andeq	r0, r0, sl, ror r0
    a8b8:	0000007a 	andeq	r0, r0, sl, ror r0
    a8bc:	0000007a 	andeq	r0, r0, sl, ror r0
    a8c0:	0000007a 	andeq	r0, r0, sl, ror r0
    a8c4:	0000007b 	andeq	r0, r0, fp, ror r0
    a8c8:	0000007b 	andeq	r0, r0, fp, ror r0
    a8cc:	0000007b 	andeq	r0, r0, fp, ror r0
    a8d0:	0000007b 	andeq	r0, r0, fp, ror r0
    a8d4:	0000007b 	andeq	r0, r0, fp, ror r0
    a8d8:	0000007b 	andeq	r0, r0, fp, ror r0
    a8dc:	0000007b 	andeq	r0, r0, fp, ror r0
    a8e0:	0000007c 	andeq	r0, r0, ip, ror r0
    a8e4:	0000007c 	andeq	r0, r0, ip, ror r0
    a8e8:	0000007c 	andeq	r0, r0, ip, ror r0
    a8ec:	0000007c 	andeq	r0, r0, ip, ror r0
    a8f0:	0000007c 	andeq	r0, r0, ip, ror r0
    a8f4:	0000007c 	andeq	r0, r0, ip, ror r0
    a8f8:	0000007c 	andeq	r0, r0, ip, ror r0
    a8fc:	0000007d 	andeq	r0, r0, sp, ror r0
    a900:	0000007d 	andeq	r0, r0, sp, ror r0
    a904:	0000007d 	andeq	r0, r0, sp, ror r0
    a908:	0000007d 	andeq	r0, r0, sp, ror r0
    a90c:	0000007d 	andeq	r0, r0, sp, ror r0
    a910:	0000007d 	andeq	r0, r0, sp, ror r0
    a914:	0000007d 	andeq	r0, r0, sp, ror r0
    a918:	0000007d 	andeq	r0, r0, sp, ror r0
    a91c:	0000007d 	andeq	r0, r0, sp, ror r0
    a920:	0000007d 	andeq	r0, r0, sp, ror r0
    a924:	0000007e 	andeq	r0, r0, lr, ror r0
    a928:	0000007e 	andeq	r0, r0, lr, ror r0
    a92c:	0000007e 	andeq	r0, r0, lr, ror r0
    a930:	0000007e 	andeq	r0, r0, lr, ror r0
    a934:	0000007e 	andeq	r0, r0, lr, ror r0
    a938:	0000007e 	andeq	r0, r0, lr, ror r0
    a93c:	0000007e 	andeq	r0, r0, lr, ror r0
    a940:	0000007e 	andeq	r0, r0, lr, ror r0
    a944:	0000007e 	andeq	r0, r0, lr, ror r0
    a948:	0000007e 	andeq	r0, r0, lr, ror r0
    a94c:	0000007e 	andeq	r0, r0, lr, ror r0
    a950:	0000007e 	andeq	r0, r0, lr, ror r0
    a954:	0000007f 	andeq	r0, r0, pc, ror r0
    a958:	0000007f 	andeq	r0, r0, pc, ror r0
    a95c:	0000007f 	andeq	r0, r0, pc, ror r0
    a960:	0000007f 	andeq	r0, r0, pc, ror r0
    a964:	0000007f 	andeq	r0, r0, pc, ror r0
    a968:	0000007f 	andeq	r0, r0, pc, ror r0
    a96c:	0000007f 	andeq	r0, r0, pc, ror r0
    a970:	0000007f 	andeq	r0, r0, pc, ror r0
    a974:	0000007f 	andeq	r0, r0, pc, ror r0
    a978:	0000007f 	andeq	r0, r0, pc, ror r0
    a97c:	0000007f 	andeq	r0, r0, pc, ror r0
    a980:	0000007f 	andeq	r0, r0, pc, ror r0
    a984:	0000007f 	andeq	r0, r0, pc, ror r0
    a988:	0000007f 	andeq	r0, r0, pc, ror r0
    a98c:	0000007f 	andeq	r0, r0, pc, ror r0
    a990:	0000007f 	andeq	r0, r0, pc, ror r0
    a994:	0000007f 	andeq	r0, r0, pc, ror r0
    a998:	0000007f 	andeq	r0, r0, pc, ror r0
    a99c:	0000007f 	andeq	r0, r0, pc, ror r0
    a9a0:	0000007f 	andeq	r0, r0, pc, ror r0
    a9a4:	0000007f 	andeq	r0, r0, pc, ror r0
    a9a8:	0000007f 	andeq	r0, r0, pc, ror r0
    a9ac:	0000007f 	andeq	r0, r0, pc, ror r0
    a9b0:	0000007f 	andeq	r0, r0, pc, ror r0
    a9b4:	0000007f 	andeq	r0, r0, pc, ror r0
    a9b8:	0000007f 	andeq	r0, r0, pc, ror r0
    a9bc:	0000007f 	andeq	r0, r0, pc, ror r0
    a9c0:	0000007f 	andeq	r0, r0, pc, ror r0
    a9c4:	00000080 	andeq	r0, r0, r0, lsl #1
    a9c8:	0000007f 	andeq	r0, r0, pc, ror r0
    a9cc:	0000007f 	andeq	r0, r0, pc, ror r0
    a9d0:	0000007f 	andeq	r0, r0, pc, ror r0
    a9d4:	0000007f 	andeq	r0, r0, pc, ror r0
    a9d8:	0000007f 	andeq	r0, r0, pc, ror r0
    a9dc:	0000007f 	andeq	r0, r0, pc, ror r0
    a9e0:	0000007f 	andeq	r0, r0, pc, ror r0
    a9e4:	0000007f 	andeq	r0, r0, pc, ror r0
    a9e8:	0000007f 	andeq	r0, r0, pc, ror r0
    a9ec:	0000007f 	andeq	r0, r0, pc, ror r0
    a9f0:	0000007f 	andeq	r0, r0, pc, ror r0
    a9f4:	0000007f 	andeq	r0, r0, pc, ror r0
    a9f8:	0000007f 	andeq	r0, r0, pc, ror r0
    a9fc:	0000007f 	andeq	r0, r0, pc, ror r0
    aa00:	0000007f 	andeq	r0, r0, pc, ror r0
    aa04:	0000007f 	andeq	r0, r0, pc, ror r0
    aa08:	0000007f 	andeq	r0, r0, pc, ror r0
    aa0c:	0000007f 	andeq	r0, r0, pc, ror r0
    aa10:	0000007f 	andeq	r0, r0, pc, ror r0
    aa14:	0000007f 	andeq	r0, r0, pc, ror r0
    aa18:	0000007f 	andeq	r0, r0, pc, ror r0
    aa1c:	0000007f 	andeq	r0, r0, pc, ror r0
    aa20:	0000007f 	andeq	r0, r0, pc, ror r0
    aa24:	0000007f 	andeq	r0, r0, pc, ror r0
    aa28:	0000007f 	andeq	r0, r0, pc, ror r0
    aa2c:	0000007f 	andeq	r0, r0, pc, ror r0
    aa30:	0000007f 	andeq	r0, r0, pc, ror r0
    aa34:	0000007f 	andeq	r0, r0, pc, ror r0
    aa38:	0000007e 	andeq	r0, r0, lr, ror r0
    aa3c:	0000007e 	andeq	r0, r0, lr, ror r0
    aa40:	0000007e 	andeq	r0, r0, lr, ror r0
    aa44:	0000007e 	andeq	r0, r0, lr, ror r0
    aa48:	0000007e 	andeq	r0, r0, lr, ror r0
    aa4c:	0000007e 	andeq	r0, r0, lr, ror r0
    aa50:	0000007e 	andeq	r0, r0, lr, ror r0
    aa54:	0000007e 	andeq	r0, r0, lr, ror r0
    aa58:	0000007e 	andeq	r0, r0, lr, ror r0
    aa5c:	0000007e 	andeq	r0, r0, lr, ror r0
    aa60:	0000007e 	andeq	r0, r0, lr, ror r0
    aa64:	0000007e 	andeq	r0, r0, lr, ror r0
    aa68:	0000007d 	andeq	r0, r0, sp, ror r0
    aa6c:	0000007d 	andeq	r0, r0, sp, ror r0
    aa70:	0000007d 	andeq	r0, r0, sp, ror r0
    aa74:	0000007d 	andeq	r0, r0, sp, ror r0
    aa78:	0000007d 	andeq	r0, r0, sp, ror r0
    aa7c:	0000007d 	andeq	r0, r0, sp, ror r0
    aa80:	0000007d 	andeq	r0, r0, sp, ror r0
    aa84:	0000007d 	andeq	r0, r0, sp, ror r0
    aa88:	0000007d 	andeq	r0, r0, sp, ror r0
    aa8c:	0000007d 	andeq	r0, r0, sp, ror r0
    aa90:	0000007c 	andeq	r0, r0, ip, ror r0
    aa94:	0000007c 	andeq	r0, r0, ip, ror r0
    aa98:	0000007c 	andeq	r0, r0, ip, ror r0
    aa9c:	0000007c 	andeq	r0, r0, ip, ror r0
    aaa0:	0000007c 	andeq	r0, r0, ip, ror r0
    aaa4:	0000007c 	andeq	r0, r0, ip, ror r0
    aaa8:	0000007c 	andeq	r0, r0, ip, ror r0
    aaac:	0000007b 	andeq	r0, r0, fp, ror r0
    aab0:	0000007b 	andeq	r0, r0, fp, ror r0
    aab4:	0000007b 	andeq	r0, r0, fp, ror r0
    aab8:	0000007b 	andeq	r0, r0, fp, ror r0
    aabc:	0000007b 	andeq	r0, r0, fp, ror r0
    aac0:	0000007b 	andeq	r0, r0, fp, ror r0
    aac4:	0000007b 	andeq	r0, r0, fp, ror r0
    aac8:	0000007a 	andeq	r0, r0, sl, ror r0
    aacc:	0000007a 	andeq	r0, r0, sl, ror r0
    aad0:	0000007a 	andeq	r0, r0, sl, ror r0
    aad4:	0000007a 	andeq	r0, r0, sl, ror r0
    aad8:	0000007a 	andeq	r0, r0, sl, ror r0
    aadc:	0000007a 	andeq	r0, r0, sl, ror r0
    aae0:	0000007a 	andeq	r0, r0, sl, ror r0
    aae4:	00000079 	andeq	r0, r0, r9, ror r0
    aae8:	00000079 	andeq	r0, r0, r9, ror r0
    aaec:	00000079 	andeq	r0, r0, r9, ror r0
    aaf0:	00000079 	andeq	r0, r0, r9, ror r0
    aaf4:	00000079 	andeq	r0, r0, r9, ror r0
    aaf8:	00000078 	andeq	r0, r0, r8, ror r0
    aafc:	00000078 	andeq	r0, r0, r8, ror r0
    ab00:	00000078 	andeq	r0, r0, r8, ror r0
    ab04:	00000078 	andeq	r0, r0, r8, ror r0
    ab08:	00000078 	andeq	r0, r0, r8, ror r0
    ab0c:	00000078 	andeq	r0, r0, r8, ror r0
    ab10:	00000077 	andeq	r0, r0, r7, ror r0
    ab14:	00000077 	andeq	r0, r0, r7, ror r0
    ab18:	00000077 	andeq	r0, r0, r7, ror r0
    ab1c:	00000077 	andeq	r0, r0, r7, ror r0
    ab20:	00000077 	andeq	r0, r0, r7, ror r0
    ab24:	00000076 	andeq	r0, r0, r6, ror r0
    ab28:	00000076 	andeq	r0, r0, r6, ror r0
    ab2c:	00000076 	andeq	r0, r0, r6, ror r0
    ab30:	00000076 	andeq	r0, r0, r6, ror r0
    ab34:	00000076 	andeq	r0, r0, r6, ror r0
    ab38:	00000075 	andeq	r0, r0, r5, ror r0
    ab3c:	00000075 	andeq	r0, r0, r5, ror r0
    ab40:	00000075 	andeq	r0, r0, r5, ror r0
    ab44:	00000075 	andeq	r0, r0, r5, ror r0
    ab48:	00000074 	andeq	r0, r0, r4, ror r0
    ab4c:	00000074 	andeq	r0, r0, r4, ror r0
    ab50:	00000074 	andeq	r0, r0, r4, ror r0
    ab54:	00000074 	andeq	r0, r0, r4, ror r0
    ab58:	00000074 	andeq	r0, r0, r4, ror r0
    ab5c:	00000073 	andeq	r0, r0, r3, ror r0
    ab60:	00000073 	andeq	r0, r0, r3, ror r0
    ab64:	00000073 	andeq	r0, r0, r3, ror r0
    ab68:	00000073 	andeq	r0, r0, r3, ror r0
    ab6c:	00000072 	andeq	r0, r0, r2, ror r0
    ab70:	00000072 	andeq	r0, r0, r2, ror r0
    ab74:	00000072 	andeq	r0, r0, r2, ror r0
    ab78:	00000072 	andeq	r0, r0, r2, ror r0
    ab7c:	00000071 	andeq	r0, r0, r1, ror r0
    ab80:	00000071 	andeq	r0, r0, r1, ror r0
    ab84:	00000071 	andeq	r0, r0, r1, ror r0
    ab88:	00000071 	andeq	r0, r0, r1, ror r0
    ab8c:	00000070 	andeq	r0, r0, r0, ror r0
    ab90:	00000070 	andeq	r0, r0, r0, ror r0
    ab94:	00000070 	andeq	r0, r0, r0, ror r0
    ab98:	00000070 	andeq	r0, r0, r0, ror r0
    ab9c:	0000006f 	andeq	r0, r0, pc, rrx
    aba0:	0000006f 	andeq	r0, r0, pc, rrx
    aba4:	0000006f 	andeq	r0, r0, pc, rrx
    aba8:	0000006f 	andeq	r0, r0, pc, rrx
    abac:	0000006e 	andeq	r0, r0, lr, rrx
    abb0:	0000006e 	andeq	r0, r0, lr, rrx
    abb4:	0000006e 	andeq	r0, r0, lr, rrx
    abb8:	0000006e 	andeq	r0, r0, lr, rrx
    abbc:	0000006d 	andeq	r0, r0, sp, rrx
    abc0:	0000006d 	andeq	r0, r0, sp, rrx
    abc4:	0000006d 	andeq	r0, r0, sp, rrx
    abc8:	0000006c 	andeq	r0, r0, ip, rrx
    abcc:	0000006c 	andeq	r0, r0, ip, rrx
    abd0:	0000006c 	andeq	r0, r0, ip, rrx
    abd4:	0000006c 	andeq	r0, r0, ip, rrx
    abd8:	0000006b 	andeq	r0, r0, fp, rrx
    abdc:	0000006b 	andeq	r0, r0, fp, rrx
    abe0:	0000006b 	andeq	r0, r0, fp, rrx
    abe4:	0000006a 	andeq	r0, r0, sl, rrx
    abe8:	0000006a 	andeq	r0, r0, sl, rrx
    abec:	0000006a 	andeq	r0, r0, sl, rrx
    abf0:	0000006a 	andeq	r0, r0, sl, rrx
    abf4:	00000069 	andeq	r0, r0, r9, rrx
    abf8:	00000069 	andeq	r0, r0, r9, rrx
    abfc:	00000069 	andeq	r0, r0, r9, rrx
    ac00:	00000068 	andeq	r0, r0, r8, rrx
    ac04:	00000068 	andeq	r0, r0, r8, rrx
    ac08:	00000068 	andeq	r0, r0, r8, rrx
    ac0c:	00000067 	andeq	r0, r0, r7, rrx
    ac10:	00000067 	andeq	r0, r0, r7, rrx
    ac14:	00000067 	andeq	r0, r0, r7, rrx
    ac18:	00000067 	andeq	r0, r0, r7, rrx
    ac1c:	00000066 	andeq	r0, r0, r6, rrx
    ac20:	00000066 	andeq	r0, r0, r6, rrx
    ac24:	00000066 	andeq	r0, r0, r6, rrx
    ac28:	00000065 	andeq	r0, r0, r5, rrx
    ac2c:	00000065 	andeq	r0, r0, r5, rrx
    ac30:	00000065 	andeq	r0, r0, r5, rrx
    ac34:	00000064 	andeq	r0, r0, r4, rrx
    ac38:	00000064 	andeq	r0, r0, r4, rrx
    ac3c:	00000064 	andeq	r0, r0, r4, rrx
    ac40:	00000063 	andeq	r0, r0, r3, rrx
    ac44:	00000063 	andeq	r0, r0, r3, rrx
    ac48:	00000063 	andeq	r0, r0, r3, rrx
    ac4c:	00000062 	andeq	r0, r0, r2, rrx
    ac50:	00000062 	andeq	r0, r0, r2, rrx
    ac54:	00000062 	andeq	r0, r0, r2, rrx
    ac58:	00000061 	andeq	r0, r0, r1, rrx
    ac5c:	00000061 	andeq	r0, r0, r1, rrx
    ac60:	00000061 	andeq	r0, r0, r1, rrx
    ac64:	00000060 	andeq	r0, r0, r0, rrx
    ac68:	00000060 	andeq	r0, r0, r0, rrx
    ac6c:	00000060 	andeq	r0, r0, r0, rrx
    ac70:	0000005f 	andeq	r0, r0, pc, asr r0
    ac74:	0000005f 	andeq	r0, r0, pc, asr r0
    ac78:	0000005f 	andeq	r0, r0, pc, asr r0
    ac7c:	0000005e 	andeq	r0, r0, lr, asr r0
    ac80:	0000005e 	andeq	r0, r0, lr, asr r0
    ac84:	0000005e 	andeq	r0, r0, lr, asr r0
    ac88:	0000005d 	andeq	r0, r0, sp, asr r0
    ac8c:	0000005d 	andeq	r0, r0, sp, asr r0
    ac90:	0000005d 	andeq	r0, r0, sp, asr r0
    ac94:	0000005c 	andeq	r0, r0, ip, asr r0
    ac98:	0000005c 	andeq	r0, r0, ip, asr r0
    ac9c:	0000005c 	andeq	r0, r0, ip, asr r0
    aca0:	0000005b 	andeq	r0, r0, fp, asr r0
    aca4:	0000005b 	andeq	r0, r0, fp, asr r0
    aca8:	0000005b 	andeq	r0, r0, fp, asr r0
    acac:	0000005a 	andeq	r0, r0, sl, asr r0
    acb0:	0000005a 	andeq	r0, r0, sl, asr r0
    acb4:	00000059 	andeq	r0, r0, r9, asr r0
    acb8:	00000059 	andeq	r0, r0, r9, asr r0
    acbc:	00000059 	andeq	r0, r0, r9, asr r0
    acc0:	00000058 	andeq	r0, r0, r8, asr r0
    acc4:	00000058 	andeq	r0, r0, r8, asr r0
    acc8:	00000058 	andeq	r0, r0, r8, asr r0
    accc:	00000057 	andeq	r0, r0, r7, asr r0
    acd0:	00000057 	andeq	r0, r0, r7, asr r0
    acd4:	00000057 	andeq	r0, r0, r7, asr r0
    acd8:	00000056 	andeq	r0, r0, r6, asr r0
    acdc:	00000056 	andeq	r0, r0, r6, asr r0
    ace0:	00000055 	andeq	r0, r0, r5, asr r0
    ace4:	00000055 	andeq	r0, r0, r5, asr r0
    ace8:	00000055 	andeq	r0, r0, r5, asr r0
    acec:	00000054 	andeq	r0, r0, r4, asr r0
    acf0:	00000054 	andeq	r0, r0, r4, asr r0
    acf4:	00000054 	andeq	r0, r0, r4, asr r0
    acf8:	00000053 	andeq	r0, r0, r3, asr r0
    acfc:	00000053 	andeq	r0, r0, r3, asr r0
    ad00:	00000052 	andeq	r0, r0, r2, asr r0
    ad04:	00000052 	andeq	r0, r0, r2, asr r0
    ad08:	00000052 	andeq	r0, r0, r2, asr r0
    ad0c:	00000051 	andeq	r0, r0, r1, asr r0
    ad10:	00000051 	andeq	r0, r0, r1, asr r0
    ad14:	00000051 	andeq	r0, r0, r1, asr r0
    ad18:	00000050 	andeq	r0, r0, r0, asr r0
    ad1c:	00000050 	andeq	r0, r0, r0, asr r0
    ad20:	0000004f 	andeq	r0, r0, pc, asr #32
    ad24:	0000004f 	andeq	r0, r0, pc, asr #32
    ad28:	0000004f 	andeq	r0, r0, pc, asr #32
    ad2c:	0000004e 	andeq	r0, r0, lr, asr #32
    ad30:	0000004e 	andeq	r0, r0, lr, asr #32
    ad34:	0000004e 	andeq	r0, r0, lr, asr #32
    ad38:	0000004d 	andeq	r0, r0, sp, asr #32
    ad3c:	0000004d 	andeq	r0, r0, sp, asr #32
    ad40:	0000004c 	andeq	r0, r0, ip, asr #32
    ad44:	0000004c 	andeq	r0, r0, ip, asr #32
    ad48:	0000004c 	andeq	r0, r0, ip, asr #32
    ad4c:	0000004b 	andeq	r0, r0, fp, asr #32
    ad50:	0000004b 	andeq	r0, r0, fp, asr #32
    ad54:	0000004a 	andeq	r0, r0, sl, asr #32
    ad58:	0000004a 	andeq	r0, r0, sl, asr #32
    ad5c:	0000004a 	andeq	r0, r0, sl, asr #32
    ad60:	00000049 	andeq	r0, r0, r9, asr #32
    ad64:	00000049 	andeq	r0, r0, r9, asr #32
    ad68:	00000049 	andeq	r0, r0, r9, asr #32
    ad6c:	00000048 	andeq	r0, r0, r8, asr #32
    ad70:	00000048 	andeq	r0, r0, r8, asr #32
    ad74:	00000047 	andeq	r0, r0, r7, asr #32
    ad78:	00000047 	andeq	r0, r0, r7, asr #32
    ad7c:	00000047 	andeq	r0, r0, r7, asr #32
    ad80:	00000046 	andeq	r0, r0, r6, asr #32
    ad84:	00000046 	andeq	r0, r0, r6, asr #32
    ad88:	00000045 	andeq	r0, r0, r5, asr #32
    ad8c:	00000045 	andeq	r0, r0, r5, asr #32
    ad90:	00000045 	andeq	r0, r0, r5, asr #32
    ad94:	00000044 	andeq	r0, r0, r4, asr #32
    ad98:	00000044 	andeq	r0, r0, r4, asr #32
    ad9c:	00000043 	andeq	r0, r0, r3, asr #32
    ada0:	00000043 	andeq	r0, r0, r3, asr #32
    ada4:	00000043 	andeq	r0, r0, r3, asr #32
    ada8:	00000042 	andeq	r0, r0, r2, asr #32
    adac:	00000042 	andeq	r0, r0, r2, asr #32
    adb0:	00000041 	andeq	r0, r0, r1, asr #32
    adb4:	00000041 	andeq	r0, r0, r1, asr #32
    adb8:	00000041 	andeq	r0, r0, r1, asr #32
    adbc:	00000040 	andeq	r0, r0, r0, asr #32
    adc0:	00000040 	andeq	r0, r0, r0, asr #32
    adc4:	0000003f 	andeq	r0, r0, pc, lsr r0
    adc8:	0000003f 	andeq	r0, r0, pc, lsr r0
    adcc:	0000003f 	andeq	r0, r0, pc, lsr r0
    add0:	0000003e 	andeq	r0, r0, lr, lsr r0
    add4:	0000003e 	andeq	r0, r0, lr, lsr r0
    add8:	0000003e 	andeq	r0, r0, lr, lsr r0
    addc:	0000003d 	andeq	r0, r0, sp, lsr r0
    ade0:	0000003d 	andeq	r0, r0, sp, lsr r0
    ade4:	0000003c 	andeq	r0, r0, ip, lsr r0
    ade8:	0000003c 	andeq	r0, r0, ip, lsr r0
    adec:	0000003c 	andeq	r0, r0, ip, lsr r0
    adf0:	0000003b 	andeq	r0, r0, fp, lsr r0
    adf4:	0000003b 	andeq	r0, r0, fp, lsr r0
    adf8:	0000003a 	andeq	r0, r0, sl, lsr r0
    adfc:	0000003a 	andeq	r0, r0, sl, lsr r0
    ae00:	0000003a 	andeq	r0, r0, sl, lsr r0
    ae04:	00000039 	andeq	r0, r0, r9, lsr r0
    ae08:	00000039 	andeq	r0, r0, r9, lsr r0
    ae0c:	00000038 	andeq	r0, r0, r8, lsr r0
    ae10:	00000038 	andeq	r0, r0, r8, lsr r0
    ae14:	00000038 	andeq	r0, r0, r8, lsr r0
    ae18:	00000037 	andeq	r0, r0, r7, lsr r0
    ae1c:	00000037 	andeq	r0, r0, r7, lsr r0
    ae20:	00000036 	andeq	r0, r0, r6, lsr r0
    ae24:	00000036 	andeq	r0, r0, r6, lsr r0
    ae28:	00000036 	andeq	r0, r0, r6, lsr r0
    ae2c:	00000035 	andeq	r0, r0, r5, lsr r0
    ae30:	00000035 	andeq	r0, r0, r5, lsr r0
    ae34:	00000035 	andeq	r0, r0, r5, lsr r0
    ae38:	00000034 	andeq	r0, r0, r4, lsr r0
    ae3c:	00000034 	andeq	r0, r0, r4, lsr r0
    ae40:	00000033 	andeq	r0, r0, r3, lsr r0
    ae44:	00000033 	andeq	r0, r0, r3, lsr r0
    ae48:	00000033 	andeq	r0, r0, r3, lsr r0
    ae4c:	00000032 	andeq	r0, r0, r2, lsr r0
    ae50:	00000032 	andeq	r0, r0, r2, lsr r0
    ae54:	00000031 	andeq	r0, r0, r1, lsr r0
    ae58:	00000031 	andeq	r0, r0, r1, lsr r0
    ae5c:	00000031 	andeq	r0, r0, r1, lsr r0
    ae60:	00000030 	andeq	r0, r0, r0, lsr r0
    ae64:	00000030 	andeq	r0, r0, r0, lsr r0
    ae68:	00000030 	andeq	r0, r0, r0, lsr r0
    ae6c:	0000002f 	andeq	r0, r0, pc, lsr #32
    ae70:	0000002f 	andeq	r0, r0, pc, lsr #32
    ae74:	0000002e 	andeq	r0, r0, lr, lsr #32
    ae78:	0000002e 	andeq	r0, r0, lr, lsr #32
    ae7c:	0000002e 	andeq	r0, r0, lr, lsr #32
    ae80:	0000002d 	andeq	r0, r0, sp, lsr #32
    ae84:	0000002d 	andeq	r0, r0, sp, lsr #32
    ae88:	0000002d 	andeq	r0, r0, sp, lsr #32
    ae8c:	0000002c 	andeq	r0, r0, ip, lsr #32
    ae90:	0000002c 	andeq	r0, r0, ip, lsr #32
    ae94:	0000002b 	andeq	r0, r0, fp, lsr #32
    ae98:	0000002b 	andeq	r0, r0, fp, lsr #32
    ae9c:	0000002b 	andeq	r0, r0, fp, lsr #32
    aea0:	0000002a 	andeq	r0, r0, sl, lsr #32
    aea4:	0000002a 	andeq	r0, r0, sl, lsr #32
    aea8:	0000002a 	andeq	r0, r0, sl, lsr #32
    aeac:	00000029 	andeq	r0, r0, r9, lsr #32
    aeb0:	00000029 	andeq	r0, r0, r9, lsr #32
    aeb4:	00000028 	andeq	r0, r0, r8, lsr #32
    aeb8:	00000028 	andeq	r0, r0, r8, lsr #32
    aebc:	00000028 	andeq	r0, r0, r8, lsr #32
    aec0:	00000027 	andeq	r0, r0, r7, lsr #32
    aec4:	00000027 	andeq	r0, r0, r7, lsr #32
    aec8:	00000027 	andeq	r0, r0, r7, lsr #32
    aecc:	00000026 	andeq	r0, r0, r6, lsr #32
    aed0:	00000026 	andeq	r0, r0, r6, lsr #32
    aed4:	00000026 	andeq	r0, r0, r6, lsr #32
    aed8:	00000025 	andeq	r0, r0, r5, lsr #32
    aedc:	00000025 	andeq	r0, r0, r5, lsr #32
    aee0:	00000024 	andeq	r0, r0, r4, lsr #32
    aee4:	00000024 	andeq	r0, r0, r4, lsr #32
    aee8:	00000024 	andeq	r0, r0, r4, lsr #32
    aeec:	00000023 	andeq	r0, r0, r3, lsr #32
    aef0:	00000023 	andeq	r0, r0, r3, lsr #32
    aef4:	00000023 	andeq	r0, r0, r3, lsr #32
    aef8:	00000022 	andeq	r0, r0, r2, lsr #32
    aefc:	00000022 	andeq	r0, r0, r2, lsr #32
    af00:	00000022 	andeq	r0, r0, r2, lsr #32
    af04:	00000021 	andeq	r0, r0, r1, lsr #32
    af08:	00000021 	andeq	r0, r0, r1, lsr #32
    af0c:	00000021 	andeq	r0, r0, r1, lsr #32
    af10:	00000020 	andeq	r0, r0, r0, lsr #32
    af14:	00000020 	andeq	r0, r0, r0, lsr #32
    af18:	00000020 	andeq	r0, r0, r0, lsr #32
    af1c:	0000001f 	andeq	r0, r0, pc, lsl r0
    af20:	0000001f 	andeq	r0, r0, pc, lsl r0
    af24:	0000001f 	andeq	r0, r0, pc, lsl r0
    af28:	0000001e 	andeq	r0, r0, lr, lsl r0
    af2c:	0000001e 	andeq	r0, r0, lr, lsl r0
    af30:	0000001e 	andeq	r0, r0, lr, lsl r0
    af34:	0000001d 	andeq	r0, r0, sp, lsl r0
    af38:	0000001d 	andeq	r0, r0, sp, lsl r0
    af3c:	0000001d 	andeq	r0, r0, sp, lsl r0
    af40:	0000001c 	andeq	r0, r0, ip, lsl r0
    af44:	0000001c 	andeq	r0, r0, ip, lsl r0
    af48:	0000001c 	andeq	r0, r0, ip, lsl r0
    af4c:	0000001b 	andeq	r0, r0, fp, lsl r0
    af50:	0000001b 	andeq	r0, r0, fp, lsl r0
    af54:	0000001b 	andeq	r0, r0, fp, lsl r0
    af58:	0000001a 	andeq	r0, r0, sl, lsl r0
    af5c:	0000001a 	andeq	r0, r0, sl, lsl r0
    af60:	0000001a 	andeq	r0, r0, sl, lsl r0
    af64:	00000019 	andeq	r0, r0, r9, lsl r0
    af68:	00000019 	andeq	r0, r0, r9, lsl r0
    af6c:	00000019 	andeq	r0, r0, r9, lsl r0
    af70:	00000018 	andeq	r0, r0, r8, lsl r0
    af74:	00000018 	andeq	r0, r0, r8, lsl r0
    af78:	00000018 	andeq	r0, r0, r8, lsl r0
    af7c:	00000018 	andeq	r0, r0, r8, lsl r0
    af80:	00000017 	andeq	r0, r0, r7, lsl r0
    af84:	00000017 	andeq	r0, r0, r7, lsl r0
    af88:	00000017 	andeq	r0, r0, r7, lsl r0
    af8c:	00000016 	andeq	r0, r0, r6, lsl r0
    af90:	00000016 	andeq	r0, r0, r6, lsl r0
    af94:	00000016 	andeq	r0, r0, r6, lsl r0
    af98:	00000015 	andeq	r0, r0, r5, lsl r0
    af9c:	00000015 	andeq	r0, r0, r5, lsl r0
    afa0:	00000015 	andeq	r0, r0, r5, lsl r0
    afa4:	00000015 	andeq	r0, r0, r5, lsl r0
    afa8:	00000014 	andeq	r0, r0, r4, lsl r0
    afac:	00000014 	andeq	r0, r0, r4, lsl r0
    afb0:	00000014 	andeq	r0, r0, r4, lsl r0
    afb4:	00000013 	andeq	r0, r0, r3, lsl r0
    afb8:	00000013 	andeq	r0, r0, r3, lsl r0
    afbc:	00000013 	andeq	r0, r0, r3, lsl r0
    afc0:	00000013 	andeq	r0, r0, r3, lsl r0
    afc4:	00000012 	andeq	r0, r0, r2, lsl r0
    afc8:	00000012 	andeq	r0, r0, r2, lsl r0
    afcc:	00000012 	andeq	r0, r0, r2, lsl r0
    afd0:	00000011 	andeq	r0, r0, r1, lsl r0
    afd4:	00000011 	andeq	r0, r0, r1, lsl r0
    afd8:	00000011 	andeq	r0, r0, r1, lsl r0
    afdc:	00000011 	andeq	r0, r0, r1, lsl r0
    afe0:	00000010 	andeq	r0, r0, r0, lsl r0
    afe4:	00000010 	andeq	r0, r0, r0, lsl r0
    afe8:	00000010 	andeq	r0, r0, r0, lsl r0
    afec:	00000010 	andeq	r0, r0, r0, lsl r0
    aff0:	0000000f 	andeq	r0, r0, pc
    aff4:	0000000f 	andeq	r0, r0, pc
    aff8:	0000000f 	andeq	r0, r0, pc
    affc:	0000000f 	andeq	r0, r0, pc
    b000:	0000000e 	andeq	r0, r0, lr
    b004:	0000000e 	andeq	r0, r0, lr
    b008:	0000000e 	andeq	r0, r0, lr
    b00c:	0000000e 	andeq	r0, r0, lr
    b010:	0000000d 	andeq	r0, r0, sp
    b014:	0000000d 	andeq	r0, r0, sp
    b018:	0000000d 	andeq	r0, r0, sp
    b01c:	0000000d 	andeq	r0, r0, sp
    b020:	0000000c 	andeq	r0, r0, ip
    b024:	0000000c 	andeq	r0, r0, ip
    b028:	0000000c 	andeq	r0, r0, ip
    b02c:	0000000c 	andeq	r0, r0, ip
    b030:	0000000b 	andeq	r0, r0, fp
    b034:	0000000b 	andeq	r0, r0, fp
    b038:	0000000b 	andeq	r0, r0, fp
    b03c:	0000000b 	andeq	r0, r0, fp
    b040:	0000000b 	andeq	r0, r0, fp
    b044:	0000000a 	andeq	r0, r0, sl
    b048:	0000000a 	andeq	r0, r0, sl
    b04c:	0000000a 	andeq	r0, r0, sl
    b050:	0000000a 	andeq	r0, r0, sl
    b054:	00000009 	andeq	r0, r0, r9
    b058:	00000009 	andeq	r0, r0, r9
    b05c:	00000009 	andeq	r0, r0, r9
    b060:	00000009 	andeq	r0, r0, r9
    b064:	00000009 	andeq	r0, r0, r9
    b068:	00000008 	andeq	r0, r0, r8
    b06c:	00000008 	andeq	r0, r0, r8
    b070:	00000008 	andeq	r0, r0, r8
    b074:	00000008 	andeq	r0, r0, r8
    b078:	00000008 	andeq	r0, r0, r8
    b07c:	00000007 	andeq	r0, r0, r7
    b080:	00000007 	andeq	r0, r0, r7
    b084:	00000007 	andeq	r0, r0, r7
    b088:	00000007 	andeq	r0, r0, r7
    b08c:	00000007 	andeq	r0, r0, r7
    b090:	00000007 	andeq	r0, r0, r7
    b094:	00000006 	andeq	r0, r0, r6
    b098:	00000006 	andeq	r0, r0, r6
    b09c:	00000006 	andeq	r0, r0, r6
    b0a0:	00000006 	andeq	r0, r0, r6
    b0a4:	00000006 	andeq	r0, r0, r6
    b0a8:	00000005 	andeq	r0, r0, r5
    b0ac:	00000005 	andeq	r0, r0, r5
    b0b0:	00000005 	andeq	r0, r0, r5
    b0b4:	00000005 	andeq	r0, r0, r5
    b0b8:	00000005 	andeq	r0, r0, r5
    b0bc:	00000005 	andeq	r0, r0, r5
    b0c0:	00000005 	andeq	r0, r0, r5
    b0c4:	00000004 	andeq	r0, r0, r4
    b0c8:	00000004 	andeq	r0, r0, r4
    b0cc:	00000004 	andeq	r0, r0, r4
    b0d0:	00000004 	andeq	r0, r0, r4
    b0d4:	00000004 	andeq	r0, r0, r4
    b0d8:	00000004 	andeq	r0, r0, r4
    b0dc:	00000004 	andeq	r0, r0, r4
    b0e0:	00000003 	andeq	r0, r0, r3
    b0e4:	00000003 	andeq	r0, r0, r3
    b0e8:	00000003 	andeq	r0, r0, r3
    b0ec:	00000003 	andeq	r0, r0, r3
    b0f0:	00000003 	andeq	r0, r0, r3
    b0f4:	00000003 	andeq	r0, r0, r3
    b0f8:	00000003 	andeq	r0, r0, r3
    b0fc:	00000002 	andeq	r0, r0, r2
    b100:	00000002 	andeq	r0, r0, r2
    b104:	00000002 	andeq	r0, r0, r2
    b108:	00000002 	andeq	r0, r0, r2
    b10c:	00000002 	andeq	r0, r0, r2
    b110:	00000002 	andeq	r0, r0, r2
    b114:	00000002 	andeq	r0, r0, r2
    b118:	00000002 	andeq	r0, r0, r2
    b11c:	00000002 	andeq	r0, r0, r2
    b120:	00000002 	andeq	r0, r0, r2
    b124:	00000001 	andeq	r0, r0, r1
    b128:	00000001 	andeq	r0, r0, r1
    b12c:	00000001 	andeq	r0, r0, r1
    b130:	00000001 	andeq	r0, r0, r1
    b134:	00000001 	andeq	r0, r0, r1
    b138:	00000001 	andeq	r0, r0, r1
    b13c:	00000001 	andeq	r0, r0, r1
    b140:	00000001 	andeq	r0, r0, r1
    b144:	00000001 	andeq	r0, r0, r1
    b148:	00000001 	andeq	r0, r0, r1
    b14c:	00000001 	andeq	r0, r0, r1
    b150:	00000001 	andeq	r0, r0, r1
	...
    b238:	00000001 	andeq	r0, r0, r1
    b23c:	00000001 	andeq	r0, r0, r1
    b240:	00000001 	andeq	r0, r0, r1
    b244:	00000001 	andeq	r0, r0, r1
    b248:	00000001 	andeq	r0, r0, r1
    b24c:	00000001 	andeq	r0, r0, r1
    b250:	00000001 	andeq	r0, r0, r1
    b254:	00000001 	andeq	r0, r0, r1
    b258:	00000001 	andeq	r0, r0, r1
    b25c:	00000001 	andeq	r0, r0, r1
    b260:	00000001 	andeq	r0, r0, r1
    b264:	00000001 	andeq	r0, r0, r1
    b268:	00000002 	andeq	r0, r0, r2
    b26c:	00000002 	andeq	r0, r0, r2
    b270:	00000002 	andeq	r0, r0, r2
    b274:	00000002 	andeq	r0, r0, r2
    b278:	00000002 	andeq	r0, r0, r2
    b27c:	00000002 	andeq	r0, r0, r2
    b280:	00000002 	andeq	r0, r0, r2
    b284:	00000002 	andeq	r0, r0, r2
    b288:	00000002 	andeq	r0, r0, r2
    b28c:	00000002 	andeq	r0, r0, r2
    b290:	00000003 	andeq	r0, r0, r3
    b294:	00000003 	andeq	r0, r0, r3
    b298:	00000003 	andeq	r0, r0, r3
    b29c:	00000003 	andeq	r0, r0, r3
    b2a0:	00000003 	andeq	r0, r0, r3
    b2a4:	00000003 	andeq	r0, r0, r3
    b2a8:	00000003 	andeq	r0, r0, r3
    b2ac:	00000004 	andeq	r0, r0, r4
    b2b0:	00000004 	andeq	r0, r0, r4
    b2b4:	00000004 	andeq	r0, r0, r4
    b2b8:	00000004 	andeq	r0, r0, r4
    b2bc:	00000004 	andeq	r0, r0, r4
    b2c0:	00000004 	andeq	r0, r0, r4
    b2c4:	00000004 	andeq	r0, r0, r4
    b2c8:	00000005 	andeq	r0, r0, r5
    b2cc:	00000005 	andeq	r0, r0, r5
    b2d0:	00000005 	andeq	r0, r0, r5
    b2d4:	00000005 	andeq	r0, r0, r5
    b2d8:	00000005 	andeq	r0, r0, r5
    b2dc:	00000005 	andeq	r0, r0, r5
    b2e0:	00000005 	andeq	r0, r0, r5
    b2e4:	00000006 	andeq	r0, r0, r6
    b2e8:	00000006 	andeq	r0, r0, r6
    b2ec:	00000006 	andeq	r0, r0, r6
    b2f0:	00000006 	andeq	r0, r0, r6
    b2f4:	00000006 	andeq	r0, r0, r6
    b2f8:	00000007 	andeq	r0, r0, r7
    b2fc:	00000007 	andeq	r0, r0, r7
    b300:	00000007 	andeq	r0, r0, r7
    b304:	00000007 	andeq	r0, r0, r7
    b308:	00000007 	andeq	r0, r0, r7
    b30c:	00000007 	andeq	r0, r0, r7
    b310:	00000008 	andeq	r0, r0, r8
    b314:	00000008 	andeq	r0, r0, r8
    b318:	00000008 	andeq	r0, r0, r8
    b31c:	00000008 	andeq	r0, r0, r8
    b320:	00000008 	andeq	r0, r0, r8
    b324:	00000009 	andeq	r0, r0, r9
    b328:	00000009 	andeq	r0, r0, r9
    b32c:	00000009 	andeq	r0, r0, r9
    b330:	00000009 	andeq	r0, r0, r9
    b334:	00000009 	andeq	r0, r0, r9
    b338:	0000000a 	andeq	r0, r0, sl
    b33c:	0000000a 	andeq	r0, r0, sl
    b340:	0000000a 	andeq	r0, r0, sl
    b344:	0000000a 	andeq	r0, r0, sl
    b348:	0000000b 	andeq	r0, r0, fp
    b34c:	0000000b 	andeq	r0, r0, fp
    b350:	0000000b 	andeq	r0, r0, fp
    b354:	0000000b 	andeq	r0, r0, fp
    b358:	0000000b 	andeq	r0, r0, fp
    b35c:	0000000c 	andeq	r0, r0, ip
    b360:	0000000c 	andeq	r0, r0, ip
    b364:	0000000c 	andeq	r0, r0, ip
    b368:	0000000c 	andeq	r0, r0, ip
    b36c:	0000000d 	andeq	r0, r0, sp
    b370:	0000000d 	andeq	r0, r0, sp
    b374:	0000000d 	andeq	r0, r0, sp
    b378:	0000000d 	andeq	r0, r0, sp
    b37c:	0000000e 	andeq	r0, r0, lr
    b380:	0000000e 	andeq	r0, r0, lr
    b384:	0000000e 	andeq	r0, r0, lr
    b388:	0000000e 	andeq	r0, r0, lr
    b38c:	0000000f 	andeq	r0, r0, pc
    b390:	0000000f 	andeq	r0, r0, pc
    b394:	0000000f 	andeq	r0, r0, pc
    b398:	0000000f 	andeq	r0, r0, pc
    b39c:	00000010 	andeq	r0, r0, r0, lsl r0
    b3a0:	00000010 	andeq	r0, r0, r0, lsl r0
    b3a4:	00000010 	andeq	r0, r0, r0, lsl r0
    b3a8:	00000010 	andeq	r0, r0, r0, lsl r0
    b3ac:	00000011 	andeq	r0, r0, r1, lsl r0
    b3b0:	00000011 	andeq	r0, r0, r1, lsl r0
    b3b4:	00000011 	andeq	r0, r0, r1, lsl r0
    b3b8:	00000011 	andeq	r0, r0, r1, lsl r0
    b3bc:	00000012 	andeq	r0, r0, r2, lsl r0
    b3c0:	00000012 	andeq	r0, r0, r2, lsl r0
    b3c4:	00000012 	andeq	r0, r0, r2, lsl r0
    b3c8:	00000013 	andeq	r0, r0, r3, lsl r0
    b3cc:	00000013 	andeq	r0, r0, r3, lsl r0
    b3d0:	00000013 	andeq	r0, r0, r3, lsl r0
    b3d4:	00000013 	andeq	r0, r0, r3, lsl r0
    b3d8:	00000014 	andeq	r0, r0, r4, lsl r0
    b3dc:	00000014 	andeq	r0, r0, r4, lsl r0
    b3e0:	00000014 	andeq	r0, r0, r4, lsl r0
    b3e4:	00000015 	andeq	r0, r0, r5, lsl r0
    b3e8:	00000015 	andeq	r0, r0, r5, lsl r0
    b3ec:	00000015 	andeq	r0, r0, r5, lsl r0
    b3f0:	00000015 	andeq	r0, r0, r5, lsl r0
    b3f4:	00000016 	andeq	r0, r0, r6, lsl r0
    b3f8:	00000016 	andeq	r0, r0, r6, lsl r0
    b3fc:	00000016 	andeq	r0, r0, r6, lsl r0
    b400:	00000017 	andeq	r0, r0, r7, lsl r0
    b404:	00000017 	andeq	r0, r0, r7, lsl r0
    b408:	00000017 	andeq	r0, r0, r7, lsl r0
    b40c:	00000018 	andeq	r0, r0, r8, lsl r0
    b410:	00000018 	andeq	r0, r0, r8, lsl r0
    b414:	00000018 	andeq	r0, r0, r8, lsl r0
    b418:	00000018 	andeq	r0, r0, r8, lsl r0
    b41c:	00000019 	andeq	r0, r0, r9, lsl r0
    b420:	00000019 	andeq	r0, r0, r9, lsl r0
    b424:	00000019 	andeq	r0, r0, r9, lsl r0
    b428:	0000001a 	andeq	r0, r0, sl, lsl r0
    b42c:	0000001a 	andeq	r0, r0, sl, lsl r0
    b430:	0000001a 	andeq	r0, r0, sl, lsl r0
    b434:	0000001b 	andeq	r0, r0, fp, lsl r0
    b438:	0000001b 	andeq	r0, r0, fp, lsl r0
    b43c:	0000001b 	andeq	r0, r0, fp, lsl r0
    b440:	0000001c 	andeq	r0, r0, ip, lsl r0
    b444:	0000001c 	andeq	r0, r0, ip, lsl r0
    b448:	0000001c 	andeq	r0, r0, ip, lsl r0
    b44c:	0000001d 	andeq	r0, r0, sp, lsl r0
    b450:	0000001d 	andeq	r0, r0, sp, lsl r0
    b454:	0000001d 	andeq	r0, r0, sp, lsl r0
    b458:	0000001e 	andeq	r0, r0, lr, lsl r0
    b45c:	0000001e 	andeq	r0, r0, lr, lsl r0
    b460:	0000001e 	andeq	r0, r0, lr, lsl r0
    b464:	0000001f 	andeq	r0, r0, pc, lsl r0
    b468:	0000001f 	andeq	r0, r0, pc, lsl r0
    b46c:	0000001f 	andeq	r0, r0, pc, lsl r0
    b470:	00000020 	andeq	r0, r0, r0, lsr #32
    b474:	00000020 	andeq	r0, r0, r0, lsr #32
    b478:	00000020 	andeq	r0, r0, r0, lsr #32
    b47c:	00000021 	andeq	r0, r0, r1, lsr #32
    b480:	00000021 	andeq	r0, r0, r1, lsr #32
    b484:	00000021 	andeq	r0, r0, r1, lsr #32
    b488:	00000022 	andeq	r0, r0, r2, lsr #32
    b48c:	00000022 	andeq	r0, r0, r2, lsr #32
    b490:	00000022 	andeq	r0, r0, r2, lsr #32
    b494:	00000023 	andeq	r0, r0, r3, lsr #32
    b498:	00000023 	andeq	r0, r0, r3, lsr #32
    b49c:	00000023 	andeq	r0, r0, r3, lsr #32
    b4a0:	00000024 	andeq	r0, r0, r4, lsr #32
    b4a4:	00000024 	andeq	r0, r0, r4, lsr #32
    b4a8:	00000024 	andeq	r0, r0, r4, lsr #32
    b4ac:	00000025 	andeq	r0, r0, r5, lsr #32
    b4b0:	00000025 	andeq	r0, r0, r5, lsr #32
    b4b4:	00000026 	andeq	r0, r0, r6, lsr #32
    b4b8:	00000026 	andeq	r0, r0, r6, lsr #32
    b4bc:	00000026 	andeq	r0, r0, r6, lsr #32
    b4c0:	00000027 	andeq	r0, r0, r7, lsr #32
    b4c4:	00000027 	andeq	r0, r0, r7, lsr #32
    b4c8:	00000027 	andeq	r0, r0, r7, lsr #32
    b4cc:	00000028 	andeq	r0, r0, r8, lsr #32
    b4d0:	00000028 	andeq	r0, r0, r8, lsr #32
    b4d4:	00000028 	andeq	r0, r0, r8, lsr #32
    b4d8:	00000029 	andeq	r0, r0, r9, lsr #32
    b4dc:	00000029 	andeq	r0, r0, r9, lsr #32
    b4e0:	0000002a 	andeq	r0, r0, sl, lsr #32
    b4e4:	0000002a 	andeq	r0, r0, sl, lsr #32
    b4e8:	0000002a 	andeq	r0, r0, sl, lsr #32
    b4ec:	0000002b 	andeq	r0, r0, fp, lsr #32
    b4f0:	0000002b 	andeq	r0, r0, fp, lsr #32
    b4f4:	0000002b 	andeq	r0, r0, fp, lsr #32
    b4f8:	0000002c 	andeq	r0, r0, ip, lsr #32
    b4fc:	0000002c 	andeq	r0, r0, ip, lsr #32
    b500:	0000002d 	andeq	r0, r0, sp, lsr #32
    b504:	0000002d 	andeq	r0, r0, sp, lsr #32
    b508:	0000002d 	andeq	r0, r0, sp, lsr #32
    b50c:	0000002e 	andeq	r0, r0, lr, lsr #32
    b510:	0000002e 	andeq	r0, r0, lr, lsr #32
    b514:	0000002e 	andeq	r0, r0, lr, lsr #32
    b518:	0000002f 	andeq	r0, r0, pc, lsr #32
    b51c:	0000002f 	andeq	r0, r0, pc, lsr #32
    b520:	00000030 	andeq	r0, r0, r0, lsr r0
    b524:	00000030 	andeq	r0, r0, r0, lsr r0
    b528:	00000030 	andeq	r0, r0, r0, lsr r0
    b52c:	00000031 	andeq	r0, r0, r1, lsr r0
    b530:	00000031 	andeq	r0, r0, r1, lsr r0
    b534:	00000031 	andeq	r0, r0, r1, lsr r0
    b538:	00000032 	andeq	r0, r0, r2, lsr r0
    b53c:	00000032 	andeq	r0, r0, r2, lsr r0
    b540:	00000033 	andeq	r0, r0, r3, lsr r0
    b544:	00000033 	andeq	r0, r0, r3, lsr r0
    b548:	00000033 	andeq	r0, r0, r3, lsr r0
    b54c:	00000034 	andeq	r0, r0, r4, lsr r0
    b550:	00000034 	andeq	r0, r0, r4, lsr r0
    b554:	00000035 	andeq	r0, r0, r5, lsr r0
    b558:	00000035 	andeq	r0, r0, r5, lsr r0
    b55c:	00000035 	andeq	r0, r0, r5, lsr r0
    b560:	00000036 	andeq	r0, r0, r6, lsr r0
    b564:	00000036 	andeq	r0, r0, r6, lsr r0
    b568:	00000036 	andeq	r0, r0, r6, lsr r0
    b56c:	00000037 	andeq	r0, r0, r7, lsr r0
    b570:	00000037 	andeq	r0, r0, r7, lsr r0
    b574:	00000038 	andeq	r0, r0, r8, lsr r0
    b578:	00000038 	andeq	r0, r0, r8, lsr r0
    b57c:	00000038 	andeq	r0, r0, r8, lsr r0
    b580:	00000039 	andeq	r0, r0, r9, lsr r0
    b584:	00000039 	andeq	r0, r0, r9, lsr r0
    b588:	0000003a 	andeq	r0, r0, sl, lsr r0
    b58c:	0000003a 	andeq	r0, r0, sl, lsr r0
    b590:	0000003a 	andeq	r0, r0, sl, lsr r0
    b594:	0000003b 	andeq	r0, r0, fp, lsr r0
    b598:	0000003b 	andeq	r0, r0, fp, lsr r0
    b59c:	0000003c 	andeq	r0, r0, ip, lsr r0
    b5a0:	0000003c 	andeq	r0, r0, ip, lsr r0
    b5a4:	0000003c 	andeq	r0, r0, ip, lsr r0
    b5a8:	0000003d 	andeq	r0, r0, sp, lsr r0
    b5ac:	0000003d 	andeq	r0, r0, sp, lsr r0
    b5b0:	0000003e 	andeq	r0, r0, lr, lsr r0
    b5b4:	0000003e 	andeq	r0, r0, lr, lsr r0
    b5b8:	0000003e 	andeq	r0, r0, lr, lsr r0
    b5bc:	0000003f 	andeq	r0, r0, pc, lsr r0
    b5c0:	0000003f 	andeq	r0, r0, pc, lsr r0
    b5c4:	00000040 	andeq	r0, r0, r0, asr #32

0000b5c8 <gpio>:
    b5c8:	20200000 	eorcs	r0, r0, r0

0000b5cc <waveform_sine_custom>:
    b5cc:	00000020 	andeq	r0, r0, r0, lsr #32
    b5d0:	00000020 	andeq	r0, r0, r0, lsr #32
    b5d4:	00000020 	andeq	r0, r0, r0, lsr #32
    b5d8:	00000020 	andeq	r0, r0, r0, lsr #32
    b5dc:	00000020 	andeq	r0, r0, r0, lsr #32
    b5e0:	00000020 	andeq	r0, r0, r0, lsr #32
    b5e4:	00000021 	andeq	r0, r0, r1, lsr #32
    b5e8:	00000021 	andeq	r0, r0, r1, lsr #32
    b5ec:	00000021 	andeq	r0, r0, r1, lsr #32
    b5f0:	00000021 	andeq	r0, r0, r1, lsr #32
    b5f4:	00000021 	andeq	r0, r0, r1, lsr #32
    b5f8:	00000022 	andeq	r0, r0, r2, lsr #32
    b5fc:	00000022 	andeq	r0, r0, r2, lsr #32
    b600:	00000022 	andeq	r0, r0, r2, lsr #32
    b604:	00000022 	andeq	r0, r0, r2, lsr #32
    b608:	00000022 	andeq	r0, r0, r2, lsr #32
    b60c:	00000023 	andeq	r0, r0, r3, lsr #32
    b610:	00000023 	andeq	r0, r0, r3, lsr #32
    b614:	00000023 	andeq	r0, r0, r3, lsr #32
    b618:	00000023 	andeq	r0, r0, r3, lsr #32
    b61c:	00000023 	andeq	r0, r0, r3, lsr #32
    b620:	00000024 	andeq	r0, r0, r4, lsr #32
    b624:	00000024 	andeq	r0, r0, r4, lsr #32
    b628:	00000024 	andeq	r0, r0, r4, lsr #32
    b62c:	00000024 	andeq	r0, r0, r4, lsr #32
    b630:	00000024 	andeq	r0, r0, r4, lsr #32
    b634:	00000025 	andeq	r0, r0, r5, lsr #32
    b638:	00000025 	andeq	r0, r0, r5, lsr #32
    b63c:	00000025 	andeq	r0, r0, r5, lsr #32
    b640:	00000025 	andeq	r0, r0, r5, lsr #32
    b644:	00000025 	andeq	r0, r0, r5, lsr #32
    b648:	00000026 	andeq	r0, r0, r6, lsr #32
    b64c:	00000026 	andeq	r0, r0, r6, lsr #32
    b650:	00000026 	andeq	r0, r0, r6, lsr #32
    b654:	00000026 	andeq	r0, r0, r6, lsr #32
    b658:	00000026 	andeq	r0, r0, r6, lsr #32
    b65c:	00000027 	andeq	r0, r0, r7, lsr #32
    b660:	00000027 	andeq	r0, r0, r7, lsr #32
    b664:	00000027 	andeq	r0, r0, r7, lsr #32
    b668:	00000027 	andeq	r0, r0, r7, lsr #32
    b66c:	00000027 	andeq	r0, r0, r7, lsr #32
    b670:	00000027 	andeq	r0, r0, r7, lsr #32
    b674:	00000028 	andeq	r0, r0, r8, lsr #32
    b678:	00000028 	andeq	r0, r0, r8, lsr #32
    b67c:	00000028 	andeq	r0, r0, r8, lsr #32
    b680:	00000028 	andeq	r0, r0, r8, lsr #32
    b684:	00000028 	andeq	r0, r0, r8, lsr #32
    b688:	00000029 	andeq	r0, r0, r9, lsr #32
    b68c:	00000029 	andeq	r0, r0, r9, lsr #32
    b690:	00000029 	andeq	r0, r0, r9, lsr #32
    b694:	00000029 	andeq	r0, r0, r9, lsr #32
    b698:	00000029 	andeq	r0, r0, r9, lsr #32
    b69c:	0000002a 	andeq	r0, r0, sl, lsr #32
    b6a0:	0000002a 	andeq	r0, r0, sl, lsr #32
    b6a4:	0000002a 	andeq	r0, r0, sl, lsr #32
    b6a8:	0000002a 	andeq	r0, r0, sl, lsr #32
    b6ac:	0000002a 	andeq	r0, r0, sl, lsr #32
    b6b0:	0000002a 	andeq	r0, r0, sl, lsr #32
    b6b4:	0000002b 	andeq	r0, r0, fp, lsr #32
    b6b8:	0000002b 	andeq	r0, r0, fp, lsr #32
    b6bc:	0000002b 	andeq	r0, r0, fp, lsr #32
    b6c0:	0000002b 	andeq	r0, r0, fp, lsr #32
    b6c4:	0000002b 	andeq	r0, r0, fp, lsr #32
    b6c8:	0000002c 	andeq	r0, r0, ip, lsr #32
    b6cc:	0000002c 	andeq	r0, r0, ip, lsr #32
    b6d0:	0000002c 	andeq	r0, r0, ip, lsr #32
    b6d4:	0000002c 	andeq	r0, r0, ip, lsr #32
    b6d8:	0000002c 	andeq	r0, r0, ip, lsr #32
    b6dc:	0000002c 	andeq	r0, r0, ip, lsr #32
    b6e0:	0000002d 	andeq	r0, r0, sp, lsr #32
    b6e4:	0000002d 	andeq	r0, r0, sp, lsr #32
    b6e8:	0000002d 	andeq	r0, r0, sp, lsr #32
    b6ec:	0000002d 	andeq	r0, r0, sp, lsr #32
    b6f0:	0000002d 	andeq	r0, r0, sp, lsr #32
    b6f4:	0000002e 	andeq	r0, r0, lr, lsr #32
    b6f8:	0000002e 	andeq	r0, r0, lr, lsr #32
    b6fc:	0000002e 	andeq	r0, r0, lr, lsr #32
    b700:	0000002e 	andeq	r0, r0, lr, lsr #32
    b704:	0000002e 	andeq	r0, r0, lr, lsr #32
    b708:	0000002e 	andeq	r0, r0, lr, lsr #32
    b70c:	0000002f 	andeq	r0, r0, pc, lsr #32
    b710:	0000002f 	andeq	r0, r0, pc, lsr #32
    b714:	0000002f 	andeq	r0, r0, pc, lsr #32
    b718:	0000002f 	andeq	r0, r0, pc, lsr #32
    b71c:	0000002f 	andeq	r0, r0, pc, lsr #32
    b720:	0000002f 	andeq	r0, r0, pc, lsr #32
    b724:	00000030 	andeq	r0, r0, r0, lsr r0
    b728:	00000030 	andeq	r0, r0, r0, lsr r0
    b72c:	00000030 	andeq	r0, r0, r0, lsr r0
    b730:	00000030 	andeq	r0, r0, r0, lsr r0
    b734:	00000030 	andeq	r0, r0, r0, lsr r0
    b738:	00000030 	andeq	r0, r0, r0, lsr r0
    b73c:	00000031 	andeq	r0, r0, r1, lsr r0
    b740:	00000031 	andeq	r0, r0, r1, lsr r0
    b744:	00000031 	andeq	r0, r0, r1, lsr r0
    b748:	00000031 	andeq	r0, r0, r1, lsr r0
    b74c:	00000031 	andeq	r0, r0, r1, lsr r0
    b750:	00000031 	andeq	r0, r0, r1, lsr r0
    b754:	00000032 	andeq	r0, r0, r2, lsr r0
    b758:	00000032 	andeq	r0, r0, r2, lsr r0
    b75c:	00000032 	andeq	r0, r0, r2, lsr r0
    b760:	00000032 	andeq	r0, r0, r2, lsr r0
    b764:	00000032 	andeq	r0, r0, r2, lsr r0
    b768:	00000032 	andeq	r0, r0, r2, lsr r0
    b76c:	00000033 	andeq	r0, r0, r3, lsr r0
    b770:	00000033 	andeq	r0, r0, r3, lsr r0
    b774:	00000033 	andeq	r0, r0, r3, lsr r0
    b778:	00000033 	andeq	r0, r0, r3, lsr r0
    b77c:	00000033 	andeq	r0, r0, r3, lsr r0
    b780:	00000033 	andeq	r0, r0, r3, lsr r0
    b784:	00000033 	andeq	r0, r0, r3, lsr r0
    b788:	00000034 	andeq	r0, r0, r4, lsr r0
    b78c:	00000034 	andeq	r0, r0, r4, lsr r0
    b790:	00000034 	andeq	r0, r0, r4, lsr r0
    b794:	00000034 	andeq	r0, r0, r4, lsr r0
    b798:	00000034 	andeq	r0, r0, r4, lsr r0
    b79c:	00000034 	andeq	r0, r0, r4, lsr r0
    b7a0:	00000035 	andeq	r0, r0, r5, lsr r0
    b7a4:	00000035 	andeq	r0, r0, r5, lsr r0
    b7a8:	00000035 	andeq	r0, r0, r5, lsr r0
    b7ac:	00000035 	andeq	r0, r0, r5, lsr r0
    b7b0:	00000035 	andeq	r0, r0, r5, lsr r0
    b7b4:	00000035 	andeq	r0, r0, r5, lsr r0
    b7b8:	00000035 	andeq	r0, r0, r5, lsr r0
    b7bc:	00000036 	andeq	r0, r0, r6, lsr r0
    b7c0:	00000036 	andeq	r0, r0, r6, lsr r0
    b7c4:	00000036 	andeq	r0, r0, r6, lsr r0
    b7c8:	00000036 	andeq	r0, r0, r6, lsr r0
    b7cc:	00000036 	andeq	r0, r0, r6, lsr r0
    b7d0:	00000036 	andeq	r0, r0, r6, lsr r0
    b7d4:	00000036 	andeq	r0, r0, r6, lsr r0
    b7d8:	00000037 	andeq	r0, r0, r7, lsr r0
    b7dc:	00000037 	andeq	r0, r0, r7, lsr r0
    b7e0:	00000037 	andeq	r0, r0, r7, lsr r0
    b7e4:	00000037 	andeq	r0, r0, r7, lsr r0
    b7e8:	00000037 	andeq	r0, r0, r7, lsr r0
    b7ec:	00000037 	andeq	r0, r0, r7, lsr r0
    b7f0:	00000037 	andeq	r0, r0, r7, lsr r0
    b7f4:	00000037 	andeq	r0, r0, r7, lsr r0
    b7f8:	00000038 	andeq	r0, r0, r8, lsr r0
    b7fc:	00000038 	andeq	r0, r0, r8, lsr r0
    b800:	00000038 	andeq	r0, r0, r8, lsr r0
    b804:	00000038 	andeq	r0, r0, r8, lsr r0
    b808:	00000038 	andeq	r0, r0, r8, lsr r0
    b80c:	00000038 	andeq	r0, r0, r8, lsr r0
    b810:	00000038 	andeq	r0, r0, r8, lsr r0
    b814:	00000038 	andeq	r0, r0, r8, lsr r0
    b818:	00000039 	andeq	r0, r0, r9, lsr r0
    b81c:	00000039 	andeq	r0, r0, r9, lsr r0
    b820:	00000039 	andeq	r0, r0, r9, lsr r0
    b824:	00000039 	andeq	r0, r0, r9, lsr r0
    b828:	00000039 	andeq	r0, r0, r9, lsr r0
    b82c:	00000039 	andeq	r0, r0, r9, lsr r0
    b830:	00000039 	andeq	r0, r0, r9, lsr r0
    b834:	00000039 	andeq	r0, r0, r9, lsr r0
    b838:	0000003a 	andeq	r0, r0, sl, lsr r0
    b83c:	0000003a 	andeq	r0, r0, sl, lsr r0
    b840:	0000003a 	andeq	r0, r0, sl, lsr r0
    b844:	0000003a 	andeq	r0, r0, sl, lsr r0
    b848:	0000003a 	andeq	r0, r0, sl, lsr r0
    b84c:	0000003a 	andeq	r0, r0, sl, lsr r0
    b850:	0000003a 	andeq	r0, r0, sl, lsr r0
    b854:	0000003a 	andeq	r0, r0, sl, lsr r0
    b858:	0000003a 	andeq	r0, r0, sl, lsr r0
    b85c:	0000003b 	andeq	r0, r0, fp, lsr r0
    b860:	0000003b 	andeq	r0, r0, fp, lsr r0
    b864:	0000003b 	andeq	r0, r0, fp, lsr r0
    b868:	0000003b 	andeq	r0, r0, fp, lsr r0
    b86c:	0000003b 	andeq	r0, r0, fp, lsr r0
    b870:	0000003b 	andeq	r0, r0, fp, lsr r0
    b874:	0000003b 	andeq	r0, r0, fp, lsr r0
    b878:	0000003b 	andeq	r0, r0, fp, lsr r0
    b87c:	0000003b 	andeq	r0, r0, fp, lsr r0
    b880:	0000003b 	andeq	r0, r0, fp, lsr r0
    b884:	0000003c 	andeq	r0, r0, ip, lsr r0
    b888:	0000003c 	andeq	r0, r0, ip, lsr r0
    b88c:	0000003c 	andeq	r0, r0, ip, lsr r0
    b890:	0000003c 	andeq	r0, r0, ip, lsr r0
    b894:	0000003c 	andeq	r0, r0, ip, lsr r0
    b898:	0000003c 	andeq	r0, r0, ip, lsr r0
    b89c:	0000003c 	andeq	r0, r0, ip, lsr r0
    b8a0:	0000003c 	andeq	r0, r0, ip, lsr r0
    b8a4:	0000003c 	andeq	r0, r0, ip, lsr r0
    b8a8:	0000003c 	andeq	r0, r0, ip, lsr r0
    b8ac:	0000003c 	andeq	r0, r0, ip, lsr r0
    b8b0:	0000003d 	andeq	r0, r0, sp, lsr r0
    b8b4:	0000003d 	andeq	r0, r0, sp, lsr r0
    b8b8:	0000003d 	andeq	r0, r0, sp, lsr r0
    b8bc:	0000003d 	andeq	r0, r0, sp, lsr r0
    b8c0:	0000003d 	andeq	r0, r0, sp, lsr r0
    b8c4:	0000003d 	andeq	r0, r0, sp, lsr r0
    b8c8:	0000003d 	andeq	r0, r0, sp, lsr r0
    b8cc:	0000003d 	andeq	r0, r0, sp, lsr r0
    b8d0:	0000003d 	andeq	r0, r0, sp, lsr r0
    b8d4:	0000003d 	andeq	r0, r0, sp, lsr r0
    b8d8:	0000003d 	andeq	r0, r0, sp, lsr r0
    b8dc:	0000003d 	andeq	r0, r0, sp, lsr r0
    b8e0:	0000003d 	andeq	r0, r0, sp, lsr r0
    b8e4:	0000003d 	andeq	r0, r0, sp, lsr r0
    b8e8:	0000003e 	andeq	r0, r0, lr, lsr r0
    b8ec:	0000003e 	andeq	r0, r0, lr, lsr r0
    b8f0:	0000003e 	andeq	r0, r0, lr, lsr r0
    b8f4:	0000003e 	andeq	r0, r0, lr, lsr r0
    b8f8:	0000003e 	andeq	r0, r0, lr, lsr r0
    b8fc:	0000003e 	andeq	r0, r0, lr, lsr r0
    b900:	0000003e 	andeq	r0, r0, lr, lsr r0
    b904:	0000003e 	andeq	r0, r0, lr, lsr r0
    b908:	0000003e 	andeq	r0, r0, lr, lsr r0
    b90c:	0000003e 	andeq	r0, r0, lr, lsr r0
    b910:	0000003e 	andeq	r0, r0, lr, lsr r0
    b914:	0000003e 	andeq	r0, r0, lr, lsr r0
    b918:	0000003e 	andeq	r0, r0, lr, lsr r0
    b91c:	0000003e 	andeq	r0, r0, lr, lsr r0
    b920:	0000003e 	andeq	r0, r0, lr, lsr r0
    b924:	0000003e 	andeq	r0, r0, lr, lsr r0
    b928:	0000003e 	andeq	r0, r0, lr, lsr r0
    b92c:	0000003f 	andeq	r0, r0, pc, lsr r0
    b930:	0000003f 	andeq	r0, r0, pc, lsr r0
    b934:	0000003f 	andeq	r0, r0, pc, lsr r0
    b938:	0000003f 	andeq	r0, r0, pc, lsr r0
    b93c:	0000003f 	andeq	r0, r0, pc, lsr r0
    b940:	0000003f 	andeq	r0, r0, pc, lsr r0
    b944:	0000003f 	andeq	r0, r0, pc, lsr r0
    b948:	0000003f 	andeq	r0, r0, pc, lsr r0
    b94c:	0000003f 	andeq	r0, r0, pc, lsr r0
    b950:	0000003f 	andeq	r0, r0, pc, lsr r0
    b954:	0000003f 	andeq	r0, r0, pc, lsr r0
    b958:	0000003f 	andeq	r0, r0, pc, lsr r0
    b95c:	0000003f 	andeq	r0, r0, pc, lsr r0
    b960:	0000003f 	andeq	r0, r0, pc, lsr r0
    b964:	0000003f 	andeq	r0, r0, pc, lsr r0
    b968:	0000003f 	andeq	r0, r0, pc, lsr r0
    b96c:	0000003f 	andeq	r0, r0, pc, lsr r0
    b970:	0000003f 	andeq	r0, r0, pc, lsr r0
    b974:	0000003f 	andeq	r0, r0, pc, lsr r0
    b978:	0000003f 	andeq	r0, r0, pc, lsr r0
    b97c:	0000003f 	andeq	r0, r0, pc, lsr r0
    b980:	0000003f 	andeq	r0, r0, pc, lsr r0
    b984:	0000003f 	andeq	r0, r0, pc, lsr r0
    b988:	0000003f 	andeq	r0, r0, pc, lsr r0
    b98c:	0000003f 	andeq	r0, r0, pc, lsr r0
    b990:	0000003f 	andeq	r0, r0, pc, lsr r0
    b994:	0000003f 	andeq	r0, r0, pc, lsr r0
    b998:	0000003f 	andeq	r0, r0, pc, lsr r0
    b99c:	0000003f 	andeq	r0, r0, pc, lsr r0
    b9a0:	0000003f 	andeq	r0, r0, pc, lsr r0
    b9a4:	0000003f 	andeq	r0, r0, pc, lsr r0
    b9a8:	0000003f 	andeq	r0, r0, pc, lsr r0
    b9ac:	0000003f 	andeq	r0, r0, pc, lsr r0
    b9b0:	0000003f 	andeq	r0, r0, pc, lsr r0
    b9b4:	0000003f 	andeq	r0, r0, pc, lsr r0
    b9b8:	0000003f 	andeq	r0, r0, pc, lsr r0
    b9bc:	0000003f 	andeq	r0, r0, pc, lsr r0
    b9c0:	0000003f 	andeq	r0, r0, pc, lsr r0
    b9c4:	0000003f 	andeq	r0, r0, pc, lsr r0
    b9c8:	0000003f 	andeq	r0, r0, pc, lsr r0
    b9cc:	00000040 	andeq	r0, r0, r0, asr #32
    b9d0:	0000003f 	andeq	r0, r0, pc, lsr r0
    b9d4:	0000003f 	andeq	r0, r0, pc, lsr r0
    b9d8:	0000003f 	andeq	r0, r0, pc, lsr r0
    b9dc:	0000003f 	andeq	r0, r0, pc, lsr r0
    b9e0:	0000003f 	andeq	r0, r0, pc, lsr r0
    b9e4:	0000003f 	andeq	r0, r0, pc, lsr r0
    b9e8:	0000003f 	andeq	r0, r0, pc, lsr r0
    b9ec:	0000003f 	andeq	r0, r0, pc, lsr r0
    b9f0:	0000003f 	andeq	r0, r0, pc, lsr r0
    b9f4:	0000003f 	andeq	r0, r0, pc, lsr r0
    b9f8:	0000003f 	andeq	r0, r0, pc, lsr r0
    b9fc:	0000003f 	andeq	r0, r0, pc, lsr r0
    ba00:	0000003f 	andeq	r0, r0, pc, lsr r0
    ba04:	0000003f 	andeq	r0, r0, pc, lsr r0
    ba08:	0000003f 	andeq	r0, r0, pc, lsr r0
    ba0c:	0000003f 	andeq	r0, r0, pc, lsr r0
    ba10:	0000003f 	andeq	r0, r0, pc, lsr r0
    ba14:	0000003f 	andeq	r0, r0, pc, lsr r0
    ba18:	0000003f 	andeq	r0, r0, pc, lsr r0
    ba1c:	0000003f 	andeq	r0, r0, pc, lsr r0
    ba20:	0000003f 	andeq	r0, r0, pc, lsr r0
    ba24:	0000003f 	andeq	r0, r0, pc, lsr r0
    ba28:	0000003f 	andeq	r0, r0, pc, lsr r0
    ba2c:	0000003f 	andeq	r0, r0, pc, lsr r0
    ba30:	0000003f 	andeq	r0, r0, pc, lsr r0
    ba34:	0000003f 	andeq	r0, r0, pc, lsr r0
    ba38:	0000003f 	andeq	r0, r0, pc, lsr r0
    ba3c:	0000003f 	andeq	r0, r0, pc, lsr r0
    ba40:	0000003f 	andeq	r0, r0, pc, lsr r0
    ba44:	0000003f 	andeq	r0, r0, pc, lsr r0
    ba48:	0000003f 	andeq	r0, r0, pc, lsr r0
    ba4c:	0000003f 	andeq	r0, r0, pc, lsr r0
    ba50:	0000003f 	andeq	r0, r0, pc, lsr r0
    ba54:	0000003f 	andeq	r0, r0, pc, lsr r0
    ba58:	0000003f 	andeq	r0, r0, pc, lsr r0
    ba5c:	0000003f 	andeq	r0, r0, pc, lsr r0
    ba60:	0000003f 	andeq	r0, r0, pc, lsr r0
    ba64:	0000003f 	andeq	r0, r0, pc, lsr r0
    ba68:	0000003f 	andeq	r0, r0, pc, lsr r0
    ba6c:	0000003f 	andeq	r0, r0, pc, lsr r0
    ba70:	0000003e 	andeq	r0, r0, lr, lsr r0
    ba74:	0000003e 	andeq	r0, r0, lr, lsr r0
    ba78:	0000003e 	andeq	r0, r0, lr, lsr r0
    ba7c:	0000003e 	andeq	r0, r0, lr, lsr r0
    ba80:	0000003e 	andeq	r0, r0, lr, lsr r0
    ba84:	0000003e 	andeq	r0, r0, lr, lsr r0
    ba88:	0000003e 	andeq	r0, r0, lr, lsr r0
    ba8c:	0000003e 	andeq	r0, r0, lr, lsr r0
    ba90:	0000003e 	andeq	r0, r0, lr, lsr r0
    ba94:	0000003e 	andeq	r0, r0, lr, lsr r0
    ba98:	0000003e 	andeq	r0, r0, lr, lsr r0
    ba9c:	0000003e 	andeq	r0, r0, lr, lsr r0
    baa0:	0000003e 	andeq	r0, r0, lr, lsr r0
    baa4:	0000003e 	andeq	r0, r0, lr, lsr r0
    baa8:	0000003e 	andeq	r0, r0, lr, lsr r0
    baac:	0000003e 	andeq	r0, r0, lr, lsr r0
    bab0:	0000003e 	andeq	r0, r0, lr, lsr r0
    bab4:	0000003d 	andeq	r0, r0, sp, lsr r0
    bab8:	0000003d 	andeq	r0, r0, sp, lsr r0
    babc:	0000003d 	andeq	r0, r0, sp, lsr r0
    bac0:	0000003d 	andeq	r0, r0, sp, lsr r0
    bac4:	0000003d 	andeq	r0, r0, sp, lsr r0
    bac8:	0000003d 	andeq	r0, r0, sp, lsr r0
    bacc:	0000003d 	andeq	r0, r0, sp, lsr r0
    bad0:	0000003d 	andeq	r0, r0, sp, lsr r0
    bad4:	0000003d 	andeq	r0, r0, sp, lsr r0
    bad8:	0000003d 	andeq	r0, r0, sp, lsr r0
    badc:	0000003d 	andeq	r0, r0, sp, lsr r0
    bae0:	0000003d 	andeq	r0, r0, sp, lsr r0
    bae4:	0000003d 	andeq	r0, r0, sp, lsr r0
    bae8:	0000003d 	andeq	r0, r0, sp, lsr r0
    baec:	0000003c 	andeq	r0, r0, ip, lsr r0
    baf0:	0000003c 	andeq	r0, r0, ip, lsr r0
    baf4:	0000003c 	andeq	r0, r0, ip, lsr r0
    baf8:	0000003c 	andeq	r0, r0, ip, lsr r0
    bafc:	0000003c 	andeq	r0, r0, ip, lsr r0
    bb00:	0000003c 	andeq	r0, r0, ip, lsr r0
    bb04:	0000003c 	andeq	r0, r0, ip, lsr r0
    bb08:	0000003c 	andeq	r0, r0, ip, lsr r0
    bb0c:	0000003c 	andeq	r0, r0, ip, lsr r0
    bb10:	0000003c 	andeq	r0, r0, ip, lsr r0
    bb14:	0000003c 	andeq	r0, r0, ip, lsr r0
    bb18:	0000003b 	andeq	r0, r0, fp, lsr r0
    bb1c:	0000003b 	andeq	r0, r0, fp, lsr r0
    bb20:	0000003b 	andeq	r0, r0, fp, lsr r0
    bb24:	0000003b 	andeq	r0, r0, fp, lsr r0
    bb28:	0000003b 	andeq	r0, r0, fp, lsr r0
    bb2c:	0000003b 	andeq	r0, r0, fp, lsr r0
    bb30:	0000003b 	andeq	r0, r0, fp, lsr r0
    bb34:	0000003b 	andeq	r0, r0, fp, lsr r0
    bb38:	0000003b 	andeq	r0, r0, fp, lsr r0
    bb3c:	0000003b 	andeq	r0, r0, fp, lsr r0
    bb40:	0000003a 	andeq	r0, r0, sl, lsr r0
    bb44:	0000003a 	andeq	r0, r0, sl, lsr r0
    bb48:	0000003a 	andeq	r0, r0, sl, lsr r0
    bb4c:	0000003a 	andeq	r0, r0, sl, lsr r0
    bb50:	0000003a 	andeq	r0, r0, sl, lsr r0
    bb54:	0000003a 	andeq	r0, r0, sl, lsr r0
    bb58:	0000003a 	andeq	r0, r0, sl, lsr r0
    bb5c:	0000003a 	andeq	r0, r0, sl, lsr r0
    bb60:	0000003a 	andeq	r0, r0, sl, lsr r0
    bb64:	00000039 	andeq	r0, r0, r9, lsr r0
    bb68:	00000039 	andeq	r0, r0, r9, lsr r0
    bb6c:	00000039 	andeq	r0, r0, r9, lsr r0
    bb70:	00000039 	andeq	r0, r0, r9, lsr r0
    bb74:	00000039 	andeq	r0, r0, r9, lsr r0
    bb78:	00000039 	andeq	r0, r0, r9, lsr r0
    bb7c:	00000039 	andeq	r0, r0, r9, lsr r0
    bb80:	00000039 	andeq	r0, r0, r9, lsr r0
    bb84:	00000038 	andeq	r0, r0, r8, lsr r0
    bb88:	00000038 	andeq	r0, r0, r8, lsr r0
    bb8c:	00000038 	andeq	r0, r0, r8, lsr r0
    bb90:	00000038 	andeq	r0, r0, r8, lsr r0
    bb94:	00000038 	andeq	r0, r0, r8, lsr r0
    bb98:	00000038 	andeq	r0, r0, r8, lsr r0
    bb9c:	00000038 	andeq	r0, r0, r8, lsr r0
    bba0:	00000038 	andeq	r0, r0, r8, lsr r0
    bba4:	00000037 	andeq	r0, r0, r7, lsr r0
    bba8:	00000037 	andeq	r0, r0, r7, lsr r0
    bbac:	00000037 	andeq	r0, r0, r7, lsr r0
    bbb0:	00000037 	andeq	r0, r0, r7, lsr r0
    bbb4:	00000037 	andeq	r0, r0, r7, lsr r0
    bbb8:	00000037 	andeq	r0, r0, r7, lsr r0
    bbbc:	00000037 	andeq	r0, r0, r7, lsr r0
    bbc0:	00000037 	andeq	r0, r0, r7, lsr r0
    bbc4:	00000036 	andeq	r0, r0, r6, lsr r0
    bbc8:	00000036 	andeq	r0, r0, r6, lsr r0
    bbcc:	00000036 	andeq	r0, r0, r6, lsr r0
    bbd0:	00000036 	andeq	r0, r0, r6, lsr r0
    bbd4:	00000036 	andeq	r0, r0, r6, lsr r0
    bbd8:	00000036 	andeq	r0, r0, r6, lsr r0
    bbdc:	00000036 	andeq	r0, r0, r6, lsr r0
    bbe0:	00000035 	andeq	r0, r0, r5, lsr r0
    bbe4:	00000035 	andeq	r0, r0, r5, lsr r0
    bbe8:	00000035 	andeq	r0, r0, r5, lsr r0
    bbec:	00000035 	andeq	r0, r0, r5, lsr r0
    bbf0:	00000035 	andeq	r0, r0, r5, lsr r0
    bbf4:	00000035 	andeq	r0, r0, r5, lsr r0
    bbf8:	00000035 	andeq	r0, r0, r5, lsr r0
    bbfc:	00000034 	andeq	r0, r0, r4, lsr r0
    bc00:	00000034 	andeq	r0, r0, r4, lsr r0
    bc04:	00000034 	andeq	r0, r0, r4, lsr r0
    bc08:	00000034 	andeq	r0, r0, r4, lsr r0
    bc0c:	00000034 	andeq	r0, r0, r4, lsr r0
    bc10:	00000034 	andeq	r0, r0, r4, lsr r0
    bc14:	00000033 	andeq	r0, r0, r3, lsr r0
    bc18:	00000033 	andeq	r0, r0, r3, lsr r0
    bc1c:	00000033 	andeq	r0, r0, r3, lsr r0
    bc20:	00000033 	andeq	r0, r0, r3, lsr r0
    bc24:	00000033 	andeq	r0, r0, r3, lsr r0
    bc28:	00000033 	andeq	r0, r0, r3, lsr r0
    bc2c:	00000033 	andeq	r0, r0, r3, lsr r0
    bc30:	00000032 	andeq	r0, r0, r2, lsr r0
    bc34:	00000032 	andeq	r0, r0, r2, lsr r0
    bc38:	00000032 	andeq	r0, r0, r2, lsr r0
    bc3c:	00000032 	andeq	r0, r0, r2, lsr r0
    bc40:	00000032 	andeq	r0, r0, r2, lsr r0
    bc44:	00000032 	andeq	r0, r0, r2, lsr r0
    bc48:	00000031 	andeq	r0, r0, r1, lsr r0
    bc4c:	00000031 	andeq	r0, r0, r1, lsr r0
    bc50:	00000031 	andeq	r0, r0, r1, lsr r0
    bc54:	00000031 	andeq	r0, r0, r1, lsr r0
    bc58:	00000031 	andeq	r0, r0, r1, lsr r0
    bc5c:	00000031 	andeq	r0, r0, r1, lsr r0
    bc60:	00000030 	andeq	r0, r0, r0, lsr r0
    bc64:	00000030 	andeq	r0, r0, r0, lsr r0
    bc68:	00000030 	andeq	r0, r0, r0, lsr r0
    bc6c:	00000030 	andeq	r0, r0, r0, lsr r0
    bc70:	00000030 	andeq	r0, r0, r0, lsr r0
    bc74:	00000030 	andeq	r0, r0, r0, lsr r0
    bc78:	0000002f 	andeq	r0, r0, pc, lsr #32
    bc7c:	0000002f 	andeq	r0, r0, pc, lsr #32
    bc80:	0000002f 	andeq	r0, r0, pc, lsr #32
    bc84:	0000002f 	andeq	r0, r0, pc, lsr #32
    bc88:	0000002f 	andeq	r0, r0, pc, lsr #32
    bc8c:	0000002f 	andeq	r0, r0, pc, lsr #32
    bc90:	0000002e 	andeq	r0, r0, lr, lsr #32
    bc94:	0000002e 	andeq	r0, r0, lr, lsr #32
    bc98:	0000002e 	andeq	r0, r0, lr, lsr #32
    bc9c:	0000002e 	andeq	r0, r0, lr, lsr #32
    bca0:	0000002e 	andeq	r0, r0, lr, lsr #32
    bca4:	0000002e 	andeq	r0, r0, lr, lsr #32
    bca8:	0000002d 	andeq	r0, r0, sp, lsr #32
    bcac:	0000002d 	andeq	r0, r0, sp, lsr #32
    bcb0:	0000002d 	andeq	r0, r0, sp, lsr #32
    bcb4:	0000002d 	andeq	r0, r0, sp, lsr #32
    bcb8:	0000002d 	andeq	r0, r0, sp, lsr #32
    bcbc:	0000002c 	andeq	r0, r0, ip, lsr #32
    bcc0:	0000002c 	andeq	r0, r0, ip, lsr #32
    bcc4:	0000002c 	andeq	r0, r0, ip, lsr #32
    bcc8:	0000002c 	andeq	r0, r0, ip, lsr #32
    bccc:	0000002c 	andeq	r0, r0, ip, lsr #32
    bcd0:	0000002c 	andeq	r0, r0, ip, lsr #32
    bcd4:	0000002b 	andeq	r0, r0, fp, lsr #32
    bcd8:	0000002b 	andeq	r0, r0, fp, lsr #32
    bcdc:	0000002b 	andeq	r0, r0, fp, lsr #32
    bce0:	0000002b 	andeq	r0, r0, fp, lsr #32
    bce4:	0000002b 	andeq	r0, r0, fp, lsr #32
    bce8:	0000002a 	andeq	r0, r0, sl, lsr #32
    bcec:	0000002a 	andeq	r0, r0, sl, lsr #32
    bcf0:	0000002a 	andeq	r0, r0, sl, lsr #32
    bcf4:	0000002a 	andeq	r0, r0, sl, lsr #32
    bcf8:	0000002a 	andeq	r0, r0, sl, lsr #32
    bcfc:	0000002a 	andeq	r0, r0, sl, lsr #32
    bd00:	00000029 	andeq	r0, r0, r9, lsr #32
    bd04:	00000029 	andeq	r0, r0, r9, lsr #32
    bd08:	00000029 	andeq	r0, r0, r9, lsr #32
    bd0c:	00000029 	andeq	r0, r0, r9, lsr #32
    bd10:	00000029 	andeq	r0, r0, r9, lsr #32
    bd14:	00000028 	andeq	r0, r0, r8, lsr #32
    bd18:	00000028 	andeq	r0, r0, r8, lsr #32
    bd1c:	00000028 	andeq	r0, r0, r8, lsr #32
    bd20:	00000028 	andeq	r0, r0, r8, lsr #32
    bd24:	00000028 	andeq	r0, r0, r8, lsr #32
    bd28:	00000027 	andeq	r0, r0, r7, lsr #32
    bd2c:	00000027 	andeq	r0, r0, r7, lsr #32
    bd30:	00000027 	andeq	r0, r0, r7, lsr #32
    bd34:	00000027 	andeq	r0, r0, r7, lsr #32
    bd38:	00000027 	andeq	r0, r0, r7, lsr #32
    bd3c:	00000027 	andeq	r0, r0, r7, lsr #32
    bd40:	00000026 	andeq	r0, r0, r6, lsr #32
    bd44:	00000026 	andeq	r0, r0, r6, lsr #32
    bd48:	00000026 	andeq	r0, r0, r6, lsr #32
    bd4c:	00000026 	andeq	r0, r0, r6, lsr #32
    bd50:	00000026 	andeq	r0, r0, r6, lsr #32
    bd54:	00000025 	andeq	r0, r0, r5, lsr #32
    bd58:	00000025 	andeq	r0, r0, r5, lsr #32
    bd5c:	00000025 	andeq	r0, r0, r5, lsr #32
    bd60:	00000025 	andeq	r0, r0, r5, lsr #32
    bd64:	00000025 	andeq	r0, r0, r5, lsr #32
    bd68:	00000024 	andeq	r0, r0, r4, lsr #32
    bd6c:	00000024 	andeq	r0, r0, r4, lsr #32
    bd70:	00000024 	andeq	r0, r0, r4, lsr #32
    bd74:	00000024 	andeq	r0, r0, r4, lsr #32
    bd78:	00000024 	andeq	r0, r0, r4, lsr #32
    bd7c:	00000023 	andeq	r0, r0, r3, lsr #32
    bd80:	00000023 	andeq	r0, r0, r3, lsr #32
    bd84:	00000023 	andeq	r0, r0, r3, lsr #32
    bd88:	00000023 	andeq	r0, r0, r3, lsr #32
    bd8c:	00000023 	andeq	r0, r0, r3, lsr #32
    bd90:	00000022 	andeq	r0, r0, r2, lsr #32
    bd94:	00000022 	andeq	r0, r0, r2, lsr #32
    bd98:	00000022 	andeq	r0, r0, r2, lsr #32
    bd9c:	00000022 	andeq	r0, r0, r2, lsr #32
    bda0:	00000022 	andeq	r0, r0, r2, lsr #32
    bda4:	00000021 	andeq	r0, r0, r1, lsr #32
    bda8:	00000021 	andeq	r0, r0, r1, lsr #32
    bdac:	00000021 	andeq	r0, r0, r1, lsr #32
    bdb0:	00000021 	andeq	r0, r0, r1, lsr #32
    bdb4:	00000021 	andeq	r0, r0, r1, lsr #32
    bdb8:	00000020 	andeq	r0, r0, r0, lsr #32
    bdbc:	00000020 	andeq	r0, r0, r0, lsr #32
    bdc0:	00000020 	andeq	r0, r0, r0, lsr #32
    bdc4:	00000020 	andeq	r0, r0, r0, lsr #32
    bdc8:	00000020 	andeq	r0, r0, r0, lsr #32
    bdcc:	0000001f 	andeq	r0, r0, pc, lsl r0
    bdd0:	0000001f 	andeq	r0, r0, pc, lsl r0
    bdd4:	0000001f 	andeq	r0, r0, pc, lsl r0
    bdd8:	0000001f 	andeq	r0, r0, pc, lsl r0
    bddc:	0000001f 	andeq	r0, r0, pc, lsl r0
    bde0:	0000001f 	andeq	r0, r0, pc, lsl r0
    bde4:	0000001e 	andeq	r0, r0, lr, lsl r0
    bde8:	0000001e 	andeq	r0, r0, lr, lsl r0
    bdec:	0000001e 	andeq	r0, r0, lr, lsl r0
    bdf0:	0000001e 	andeq	r0, r0, lr, lsl r0
    bdf4:	0000001e 	andeq	r0, r0, lr, lsl r0
    bdf8:	0000001d 	andeq	r0, r0, sp, lsl r0
    bdfc:	0000001d 	andeq	r0, r0, sp, lsl r0
    be00:	0000001d 	andeq	r0, r0, sp, lsl r0
    be04:	0000001d 	andeq	r0, r0, sp, lsl r0
    be08:	0000001d 	andeq	r0, r0, sp, lsl r0
    be0c:	0000001c 	andeq	r0, r0, ip, lsl r0
    be10:	0000001c 	andeq	r0, r0, ip, lsl r0
    be14:	0000001c 	andeq	r0, r0, ip, lsl r0
    be18:	0000001c 	andeq	r0, r0, ip, lsl r0
    be1c:	0000001c 	andeq	r0, r0, ip, lsl r0
    be20:	0000001b 	andeq	r0, r0, fp, lsl r0
    be24:	0000001b 	andeq	r0, r0, fp, lsl r0
    be28:	0000001b 	andeq	r0, r0, fp, lsl r0
    be2c:	0000001b 	andeq	r0, r0, fp, lsl r0
    be30:	0000001b 	andeq	r0, r0, fp, lsl r0
    be34:	0000001a 	andeq	r0, r0, sl, lsl r0
    be38:	0000001a 	andeq	r0, r0, sl, lsl r0
    be3c:	0000001a 	andeq	r0, r0, sl, lsl r0
    be40:	0000001a 	andeq	r0, r0, sl, lsl r0
    be44:	0000001a 	andeq	r0, r0, sl, lsl r0
    be48:	00000019 	andeq	r0, r0, r9, lsl r0
    be4c:	00000019 	andeq	r0, r0, r9, lsl r0
    be50:	00000019 	andeq	r0, r0, r9, lsl r0
    be54:	00000019 	andeq	r0, r0, r9, lsl r0
    be58:	00000019 	andeq	r0, r0, r9, lsl r0
    be5c:	00000018 	andeq	r0, r0, r8, lsl r0
    be60:	00000018 	andeq	r0, r0, r8, lsl r0
    be64:	00000018 	andeq	r0, r0, r8, lsl r0
    be68:	00000018 	andeq	r0, r0, r8, lsl r0
    be6c:	00000018 	andeq	r0, r0, r8, lsl r0
    be70:	00000018 	andeq	r0, r0, r8, lsl r0
    be74:	00000017 	andeq	r0, r0, r7, lsl r0
    be78:	00000017 	andeq	r0, r0, r7, lsl r0
    be7c:	00000017 	andeq	r0, r0, r7, lsl r0
    be80:	00000017 	andeq	r0, r0, r7, lsl r0
    be84:	00000017 	andeq	r0, r0, r7, lsl r0
    be88:	00000016 	andeq	r0, r0, r6, lsl r0
    be8c:	00000016 	andeq	r0, r0, r6, lsl r0
    be90:	00000016 	andeq	r0, r0, r6, lsl r0
    be94:	00000016 	andeq	r0, r0, r6, lsl r0
    be98:	00000016 	andeq	r0, r0, r6, lsl r0
    be9c:	00000015 	andeq	r0, r0, r5, lsl r0
    bea0:	00000015 	andeq	r0, r0, r5, lsl r0
    bea4:	00000015 	andeq	r0, r0, r5, lsl r0
    bea8:	00000015 	andeq	r0, r0, r5, lsl r0
    beac:	00000015 	andeq	r0, r0, r5, lsl r0
    beb0:	00000015 	andeq	r0, r0, r5, lsl r0
    beb4:	00000014 	andeq	r0, r0, r4, lsl r0
    beb8:	00000014 	andeq	r0, r0, r4, lsl r0
    bebc:	00000014 	andeq	r0, r0, r4, lsl r0
    bec0:	00000014 	andeq	r0, r0, r4, lsl r0
    bec4:	00000014 	andeq	r0, r0, r4, lsl r0
    bec8:	00000013 	andeq	r0, r0, r3, lsl r0
    becc:	00000013 	andeq	r0, r0, r3, lsl r0
    bed0:	00000013 	andeq	r0, r0, r3, lsl r0
    bed4:	00000013 	andeq	r0, r0, r3, lsl r0
    bed8:	00000013 	andeq	r0, r0, r3, lsl r0
    bedc:	00000013 	andeq	r0, r0, r3, lsl r0
    bee0:	00000012 	andeq	r0, r0, r2, lsl r0
    bee4:	00000012 	andeq	r0, r0, r2, lsl r0
    bee8:	00000012 	andeq	r0, r0, r2, lsl r0
    beec:	00000012 	andeq	r0, r0, r2, lsl r0
    bef0:	00000012 	andeq	r0, r0, r2, lsl r0
    bef4:	00000011 	andeq	r0, r0, r1, lsl r0
    bef8:	00000011 	andeq	r0, r0, r1, lsl r0
    befc:	00000011 	andeq	r0, r0, r1, lsl r0
    bf00:	00000011 	andeq	r0, r0, r1, lsl r0
    bf04:	00000011 	andeq	r0, r0, r1, lsl r0
    bf08:	00000011 	andeq	r0, r0, r1, lsl r0
    bf0c:	00000010 	andeq	r0, r0, r0, lsl r0
    bf10:	00000010 	andeq	r0, r0, r0, lsl r0
    bf14:	00000010 	andeq	r0, r0, r0, lsl r0
    bf18:	00000010 	andeq	r0, r0, r0, lsl r0
    bf1c:	00000010 	andeq	r0, r0, r0, lsl r0
    bf20:	00000010 	andeq	r0, r0, r0, lsl r0
    bf24:	0000000f 	andeq	r0, r0, pc
    bf28:	0000000f 	andeq	r0, r0, pc
    bf2c:	0000000f 	andeq	r0, r0, pc
    bf30:	0000000f 	andeq	r0, r0, pc
    bf34:	0000000f 	andeq	r0, r0, pc
    bf38:	0000000f 	andeq	r0, r0, pc
    bf3c:	0000000e 	andeq	r0, r0, lr
    bf40:	0000000e 	andeq	r0, r0, lr
    bf44:	0000000e 	andeq	r0, r0, lr
    bf48:	0000000e 	andeq	r0, r0, lr
    bf4c:	0000000e 	andeq	r0, r0, lr
    bf50:	0000000e 	andeq	r0, r0, lr
    bf54:	0000000d 	andeq	r0, r0, sp
    bf58:	0000000d 	andeq	r0, r0, sp
    bf5c:	0000000d 	andeq	r0, r0, sp
    bf60:	0000000d 	andeq	r0, r0, sp
    bf64:	0000000d 	andeq	r0, r0, sp
    bf68:	0000000d 	andeq	r0, r0, sp
    bf6c:	0000000c 	andeq	r0, r0, ip
    bf70:	0000000c 	andeq	r0, r0, ip
    bf74:	0000000c 	andeq	r0, r0, ip
    bf78:	0000000c 	andeq	r0, r0, ip
    bf7c:	0000000c 	andeq	r0, r0, ip
    bf80:	0000000c 	andeq	r0, r0, ip
    bf84:	0000000c 	andeq	r0, r0, ip
    bf88:	0000000b 	andeq	r0, r0, fp
    bf8c:	0000000b 	andeq	r0, r0, fp
    bf90:	0000000b 	andeq	r0, r0, fp
    bf94:	0000000b 	andeq	r0, r0, fp
    bf98:	0000000b 	andeq	r0, r0, fp
    bf9c:	0000000b 	andeq	r0, r0, fp
    bfa0:	0000000a 	andeq	r0, r0, sl
    bfa4:	0000000a 	andeq	r0, r0, sl
    bfa8:	0000000a 	andeq	r0, r0, sl
    bfac:	0000000a 	andeq	r0, r0, sl
    bfb0:	0000000a 	andeq	r0, r0, sl
    bfb4:	0000000a 	andeq	r0, r0, sl
    bfb8:	0000000a 	andeq	r0, r0, sl
    bfbc:	00000009 	andeq	r0, r0, r9
    bfc0:	00000009 	andeq	r0, r0, r9
    bfc4:	00000009 	andeq	r0, r0, r9
    bfc8:	00000009 	andeq	r0, r0, r9
    bfcc:	00000009 	andeq	r0, r0, r9
    bfd0:	00000009 	andeq	r0, r0, r9
    bfd4:	00000009 	andeq	r0, r0, r9
    bfd8:	00000008 	andeq	r0, r0, r8
    bfdc:	00000008 	andeq	r0, r0, r8
    bfe0:	00000008 	andeq	r0, r0, r8
    bfe4:	00000008 	andeq	r0, r0, r8
    bfe8:	00000008 	andeq	r0, r0, r8
    bfec:	00000008 	andeq	r0, r0, r8
    bff0:	00000008 	andeq	r0, r0, r8
    bff4:	00000008 	andeq	r0, r0, r8
    bff8:	00000007 	andeq	r0, r0, r7
    bffc:	00000007 	andeq	r0, r0, r7
    c000:	00000007 	andeq	r0, r0, r7
    c004:	00000007 	andeq	r0, r0, r7
    c008:	00000007 	andeq	r0, r0, r7
    c00c:	00000007 	andeq	r0, r0, r7
    c010:	00000007 	andeq	r0, r0, r7
    c014:	00000007 	andeq	r0, r0, r7
    c018:	00000006 	andeq	r0, r0, r6
    c01c:	00000006 	andeq	r0, r0, r6
    c020:	00000006 	andeq	r0, r0, r6
    c024:	00000006 	andeq	r0, r0, r6
    c028:	00000006 	andeq	r0, r0, r6
    c02c:	00000006 	andeq	r0, r0, r6
    c030:	00000006 	andeq	r0, r0, r6
    c034:	00000006 	andeq	r0, r0, r6
    c038:	00000005 	andeq	r0, r0, r5
    c03c:	00000005 	andeq	r0, r0, r5
    c040:	00000005 	andeq	r0, r0, r5
    c044:	00000005 	andeq	r0, r0, r5
    c048:	00000005 	andeq	r0, r0, r5
    c04c:	00000005 	andeq	r0, r0, r5
    c050:	00000005 	andeq	r0, r0, r5
    c054:	00000005 	andeq	r0, r0, r5
    c058:	00000005 	andeq	r0, r0, r5
    c05c:	00000004 	andeq	r0, r0, r4
    c060:	00000004 	andeq	r0, r0, r4
    c064:	00000004 	andeq	r0, r0, r4
    c068:	00000004 	andeq	r0, r0, r4
    c06c:	00000004 	andeq	r0, r0, r4
    c070:	00000004 	andeq	r0, r0, r4
    c074:	00000004 	andeq	r0, r0, r4
    c078:	00000004 	andeq	r0, r0, r4
    c07c:	00000004 	andeq	r0, r0, r4
    c080:	00000004 	andeq	r0, r0, r4
    c084:	00000003 	andeq	r0, r0, r3
    c088:	00000003 	andeq	r0, r0, r3
    c08c:	00000003 	andeq	r0, r0, r3
    c090:	00000003 	andeq	r0, r0, r3
    c094:	00000003 	andeq	r0, r0, r3
    c098:	00000003 	andeq	r0, r0, r3
    c09c:	00000003 	andeq	r0, r0, r3
    c0a0:	00000003 	andeq	r0, r0, r3
    c0a4:	00000003 	andeq	r0, r0, r3
    c0a8:	00000003 	andeq	r0, r0, r3
    c0ac:	00000003 	andeq	r0, r0, r3
    c0b0:	00000002 	andeq	r0, r0, r2
    c0b4:	00000002 	andeq	r0, r0, r2
    c0b8:	00000002 	andeq	r0, r0, r2
    c0bc:	00000002 	andeq	r0, r0, r2
    c0c0:	00000002 	andeq	r0, r0, r2
    c0c4:	00000002 	andeq	r0, r0, r2
    c0c8:	00000002 	andeq	r0, r0, r2
    c0cc:	00000002 	andeq	r0, r0, r2
    c0d0:	00000002 	andeq	r0, r0, r2
    c0d4:	00000002 	andeq	r0, r0, r2
    c0d8:	00000002 	andeq	r0, r0, r2
    c0dc:	00000002 	andeq	r0, r0, r2
    c0e0:	00000002 	andeq	r0, r0, r2
    c0e4:	00000002 	andeq	r0, r0, r2
    c0e8:	00000001 	andeq	r0, r0, r1
    c0ec:	00000001 	andeq	r0, r0, r1
    c0f0:	00000001 	andeq	r0, r0, r1
    c0f4:	00000001 	andeq	r0, r0, r1
    c0f8:	00000001 	andeq	r0, r0, r1
    c0fc:	00000001 	andeq	r0, r0, r1
    c100:	00000001 	andeq	r0, r0, r1
    c104:	00000001 	andeq	r0, r0, r1
    c108:	00000001 	andeq	r0, r0, r1
    c10c:	00000001 	andeq	r0, r0, r1
    c110:	00000001 	andeq	r0, r0, r1
    c114:	00000001 	andeq	r0, r0, r1
    c118:	00000001 	andeq	r0, r0, r1
    c11c:	00000001 	andeq	r0, r0, r1
    c120:	00000001 	andeq	r0, r0, r1
    c124:	00000001 	andeq	r0, r0, r1
    c128:	00000001 	andeq	r0, r0, r1
	...
    c270:	00000001 	andeq	r0, r0, r1
    c274:	00000001 	andeq	r0, r0, r1
    c278:	00000001 	andeq	r0, r0, r1
    c27c:	00000001 	andeq	r0, r0, r1
    c280:	00000001 	andeq	r0, r0, r1
    c284:	00000001 	andeq	r0, r0, r1
    c288:	00000001 	andeq	r0, r0, r1
    c28c:	00000001 	andeq	r0, r0, r1
    c290:	00000001 	andeq	r0, r0, r1
    c294:	00000001 	andeq	r0, r0, r1
    c298:	00000001 	andeq	r0, r0, r1
    c29c:	00000001 	andeq	r0, r0, r1
    c2a0:	00000001 	andeq	r0, r0, r1
    c2a4:	00000001 	andeq	r0, r0, r1
    c2a8:	00000001 	andeq	r0, r0, r1
    c2ac:	00000001 	andeq	r0, r0, r1
    c2b0:	00000001 	andeq	r0, r0, r1
    c2b4:	00000002 	andeq	r0, r0, r2
    c2b8:	00000002 	andeq	r0, r0, r2
    c2bc:	00000002 	andeq	r0, r0, r2
    c2c0:	00000002 	andeq	r0, r0, r2
    c2c4:	00000002 	andeq	r0, r0, r2
    c2c8:	00000002 	andeq	r0, r0, r2
    c2cc:	00000002 	andeq	r0, r0, r2
    c2d0:	00000002 	andeq	r0, r0, r2
    c2d4:	00000002 	andeq	r0, r0, r2
    c2d8:	00000002 	andeq	r0, r0, r2
    c2dc:	00000002 	andeq	r0, r0, r2
    c2e0:	00000002 	andeq	r0, r0, r2
    c2e4:	00000002 	andeq	r0, r0, r2
    c2e8:	00000002 	andeq	r0, r0, r2
    c2ec:	00000003 	andeq	r0, r0, r3
    c2f0:	00000003 	andeq	r0, r0, r3
    c2f4:	00000003 	andeq	r0, r0, r3
    c2f8:	00000003 	andeq	r0, r0, r3
    c2fc:	00000003 	andeq	r0, r0, r3
    c300:	00000003 	andeq	r0, r0, r3
    c304:	00000003 	andeq	r0, r0, r3
    c308:	00000003 	andeq	r0, r0, r3
    c30c:	00000003 	andeq	r0, r0, r3
    c310:	00000003 	andeq	r0, r0, r3
    c314:	00000003 	andeq	r0, r0, r3
    c318:	00000004 	andeq	r0, r0, r4
    c31c:	00000004 	andeq	r0, r0, r4
    c320:	00000004 	andeq	r0, r0, r4
    c324:	00000004 	andeq	r0, r0, r4
    c328:	00000004 	andeq	r0, r0, r4
    c32c:	00000004 	andeq	r0, r0, r4
    c330:	00000004 	andeq	r0, r0, r4
    c334:	00000004 	andeq	r0, r0, r4
    c338:	00000004 	andeq	r0, r0, r4
    c33c:	00000004 	andeq	r0, r0, r4
    c340:	00000005 	andeq	r0, r0, r5
    c344:	00000005 	andeq	r0, r0, r5
    c348:	00000005 	andeq	r0, r0, r5
    c34c:	00000005 	andeq	r0, r0, r5
    c350:	00000005 	andeq	r0, r0, r5
    c354:	00000005 	andeq	r0, r0, r5
    c358:	00000005 	andeq	r0, r0, r5
    c35c:	00000005 	andeq	r0, r0, r5
    c360:	00000005 	andeq	r0, r0, r5
    c364:	00000006 	andeq	r0, r0, r6
    c368:	00000006 	andeq	r0, r0, r6
    c36c:	00000006 	andeq	r0, r0, r6
    c370:	00000006 	andeq	r0, r0, r6
    c374:	00000006 	andeq	r0, r0, r6
    c378:	00000006 	andeq	r0, r0, r6
    c37c:	00000006 	andeq	r0, r0, r6
    c380:	00000006 	andeq	r0, r0, r6
    c384:	00000007 	andeq	r0, r0, r7
    c388:	00000007 	andeq	r0, r0, r7
    c38c:	00000007 	andeq	r0, r0, r7
    c390:	00000007 	andeq	r0, r0, r7
    c394:	00000007 	andeq	r0, r0, r7
    c398:	00000007 	andeq	r0, r0, r7
    c39c:	00000007 	andeq	r0, r0, r7
    c3a0:	00000007 	andeq	r0, r0, r7
    c3a4:	00000008 	andeq	r0, r0, r8
    c3a8:	00000008 	andeq	r0, r0, r8
    c3ac:	00000008 	andeq	r0, r0, r8
    c3b0:	00000008 	andeq	r0, r0, r8
    c3b4:	00000008 	andeq	r0, r0, r8
    c3b8:	00000008 	andeq	r0, r0, r8
    c3bc:	00000008 	andeq	r0, r0, r8
    c3c0:	00000008 	andeq	r0, r0, r8
    c3c4:	00000009 	andeq	r0, r0, r9
    c3c8:	00000009 	andeq	r0, r0, r9
    c3cc:	00000009 	andeq	r0, r0, r9
    c3d0:	00000009 	andeq	r0, r0, r9
    c3d4:	00000009 	andeq	r0, r0, r9
    c3d8:	00000009 	andeq	r0, r0, r9
    c3dc:	00000009 	andeq	r0, r0, r9
    c3e0:	0000000a 	andeq	r0, r0, sl
    c3e4:	0000000a 	andeq	r0, r0, sl
    c3e8:	0000000a 	andeq	r0, r0, sl
    c3ec:	0000000a 	andeq	r0, r0, sl
    c3f0:	0000000a 	andeq	r0, r0, sl
    c3f4:	0000000a 	andeq	r0, r0, sl
    c3f8:	0000000a 	andeq	r0, r0, sl
    c3fc:	0000000b 	andeq	r0, r0, fp
    c400:	0000000b 	andeq	r0, r0, fp
    c404:	0000000b 	andeq	r0, r0, fp
    c408:	0000000b 	andeq	r0, r0, fp
    c40c:	0000000b 	andeq	r0, r0, fp
    c410:	0000000b 	andeq	r0, r0, fp
    c414:	0000000c 	andeq	r0, r0, ip
    c418:	0000000c 	andeq	r0, r0, ip
    c41c:	0000000c 	andeq	r0, r0, ip
    c420:	0000000c 	andeq	r0, r0, ip
    c424:	0000000c 	andeq	r0, r0, ip
    c428:	0000000c 	andeq	r0, r0, ip
    c42c:	0000000c 	andeq	r0, r0, ip
    c430:	0000000d 	andeq	r0, r0, sp
    c434:	0000000d 	andeq	r0, r0, sp
    c438:	0000000d 	andeq	r0, r0, sp
    c43c:	0000000d 	andeq	r0, r0, sp
    c440:	0000000d 	andeq	r0, r0, sp
    c444:	0000000d 	andeq	r0, r0, sp
    c448:	0000000e 	andeq	r0, r0, lr
    c44c:	0000000e 	andeq	r0, r0, lr
    c450:	0000000e 	andeq	r0, r0, lr
    c454:	0000000e 	andeq	r0, r0, lr
    c458:	0000000e 	andeq	r0, r0, lr
    c45c:	0000000e 	andeq	r0, r0, lr
    c460:	0000000f 	andeq	r0, r0, pc
    c464:	0000000f 	andeq	r0, r0, pc
    c468:	0000000f 	andeq	r0, r0, pc
    c46c:	0000000f 	andeq	r0, r0, pc
    c470:	0000000f 	andeq	r0, r0, pc
    c474:	0000000f 	andeq	r0, r0, pc
    c478:	00000010 	andeq	r0, r0, r0, lsl r0
    c47c:	00000010 	andeq	r0, r0, r0, lsl r0
    c480:	00000010 	andeq	r0, r0, r0, lsl r0
    c484:	00000010 	andeq	r0, r0, r0, lsl r0
    c488:	00000010 	andeq	r0, r0, r0, lsl r0
    c48c:	00000010 	andeq	r0, r0, r0, lsl r0
    c490:	00000011 	andeq	r0, r0, r1, lsl r0
    c494:	00000011 	andeq	r0, r0, r1, lsl r0
    c498:	00000011 	andeq	r0, r0, r1, lsl r0
    c49c:	00000011 	andeq	r0, r0, r1, lsl r0
    c4a0:	00000011 	andeq	r0, r0, r1, lsl r0
    c4a4:	00000011 	andeq	r0, r0, r1, lsl r0
    c4a8:	00000012 	andeq	r0, r0, r2, lsl r0
    c4ac:	00000012 	andeq	r0, r0, r2, lsl r0
    c4b0:	00000012 	andeq	r0, r0, r2, lsl r0
    c4b4:	00000012 	andeq	r0, r0, r2, lsl r0
    c4b8:	00000012 	andeq	r0, r0, r2, lsl r0
    c4bc:	00000013 	andeq	r0, r0, r3, lsl r0
    c4c0:	00000013 	andeq	r0, r0, r3, lsl r0
    c4c4:	00000013 	andeq	r0, r0, r3, lsl r0
    c4c8:	00000013 	andeq	r0, r0, r3, lsl r0
    c4cc:	00000013 	andeq	r0, r0, r3, lsl r0
    c4d0:	00000013 	andeq	r0, r0, r3, lsl r0
    c4d4:	00000014 	andeq	r0, r0, r4, lsl r0
    c4d8:	00000014 	andeq	r0, r0, r4, lsl r0
    c4dc:	00000014 	andeq	r0, r0, r4, lsl r0
    c4e0:	00000014 	andeq	r0, r0, r4, lsl r0
    c4e4:	00000014 	andeq	r0, r0, r4, lsl r0
    c4e8:	00000015 	andeq	r0, r0, r5, lsl r0
    c4ec:	00000015 	andeq	r0, r0, r5, lsl r0
    c4f0:	00000015 	andeq	r0, r0, r5, lsl r0
    c4f4:	00000015 	andeq	r0, r0, r5, lsl r0
    c4f8:	00000015 	andeq	r0, r0, r5, lsl r0
    c4fc:	00000015 	andeq	r0, r0, r5, lsl r0
    c500:	00000016 	andeq	r0, r0, r6, lsl r0
    c504:	00000016 	andeq	r0, r0, r6, lsl r0
    c508:	00000016 	andeq	r0, r0, r6, lsl r0
    c50c:	00000016 	andeq	r0, r0, r6, lsl r0
    c510:	00000016 	andeq	r0, r0, r6, lsl r0
    c514:	00000017 	andeq	r0, r0, r7, lsl r0
    c518:	00000017 	andeq	r0, r0, r7, lsl r0
    c51c:	00000017 	andeq	r0, r0, r7, lsl r0
    c520:	00000017 	andeq	r0, r0, r7, lsl r0
    c524:	00000017 	andeq	r0, r0, r7, lsl r0
    c528:	00000018 	andeq	r0, r0, r8, lsl r0
    c52c:	00000018 	andeq	r0, r0, r8, lsl r0
    c530:	00000018 	andeq	r0, r0, r8, lsl r0
    c534:	00000018 	andeq	r0, r0, r8, lsl r0
    c538:	00000018 	andeq	r0, r0, r8, lsl r0
    c53c:	00000018 	andeq	r0, r0, r8, lsl r0
    c540:	00000019 	andeq	r0, r0, r9, lsl r0
    c544:	00000019 	andeq	r0, r0, r9, lsl r0
    c548:	00000019 	andeq	r0, r0, r9, lsl r0
    c54c:	00000019 	andeq	r0, r0, r9, lsl r0
    c550:	00000019 	andeq	r0, r0, r9, lsl r0
    c554:	0000001a 	andeq	r0, r0, sl, lsl r0
    c558:	0000001a 	andeq	r0, r0, sl, lsl r0
    c55c:	0000001a 	andeq	r0, r0, sl, lsl r0
    c560:	0000001a 	andeq	r0, r0, sl, lsl r0
    c564:	0000001a 	andeq	r0, r0, sl, lsl r0
    c568:	0000001b 	andeq	r0, r0, fp, lsl r0
    c56c:	0000001b 	andeq	r0, r0, fp, lsl r0
    c570:	0000001b 	andeq	r0, r0, fp, lsl r0
    c574:	0000001b 	andeq	r0, r0, fp, lsl r0
    c578:	0000001b 	andeq	r0, r0, fp, lsl r0
    c57c:	0000001c 	andeq	r0, r0, ip, lsl r0
    c580:	0000001c 	andeq	r0, r0, ip, lsl r0
    c584:	0000001c 	andeq	r0, r0, ip, lsl r0
    c588:	0000001c 	andeq	r0, r0, ip, lsl r0
    c58c:	0000001c 	andeq	r0, r0, ip, lsl r0
    c590:	0000001d 	andeq	r0, r0, sp, lsl r0
    c594:	0000001d 	andeq	r0, r0, sp, lsl r0
    c598:	0000001d 	andeq	r0, r0, sp, lsl r0
    c59c:	0000001d 	andeq	r0, r0, sp, lsl r0
    c5a0:	0000001d 	andeq	r0, r0, sp, lsl r0
    c5a4:	0000001e 	andeq	r0, r0, lr, lsl r0
    c5a8:	0000001e 	andeq	r0, r0, lr, lsl r0
    c5ac:	0000001e 	andeq	r0, r0, lr, lsl r0
    c5b0:	0000001e 	andeq	r0, r0, lr, lsl r0
    c5b4:	0000001e 	andeq	r0, r0, lr, lsl r0
    c5b8:	0000001f 	andeq	r0, r0, pc, lsl r0
    c5bc:	0000001f 	andeq	r0, r0, pc, lsl r0
    c5c0:	0000001f 	andeq	r0, r0, pc, lsl r0
    c5c4:	0000001f 	andeq	r0, r0, pc, lsl r0
    c5c8:	0000001f 	andeq	r0, r0, pc, lsl r0
    c5cc:	00000020 	andeq	r0, r0, r0, lsr #32

0000c5d0 <waveform_sine>:
    c5d0:	00000020 	andeq	r0, r0, r0, lsr #32
    c5d4:	00000023 	andeq	r0, r0, r3, lsr #32
    c5d8:	00000026 	andeq	r0, r0, r6, lsr #32
    c5dc:	00000029 	andeq	r0, r0, r9, lsr #32
    c5e0:	0000002c 	andeq	r0, r0, ip, lsr #32
    c5e4:	0000002f 	andeq	r0, r0, pc, lsr #32
    c5e8:	00000031 	andeq	r0, r0, r1, lsr r0
    c5ec:	00000034 	andeq	r0, r0, r4, lsr r0
    c5f0:	00000036 	andeq	r0, r0, r6, lsr r0
    c5f4:	00000038 	andeq	r0, r0, r8, lsr r0
    c5f8:	0000003a 	andeq	r0, r0, sl, lsr r0
    c5fc:	0000003c 	andeq	r0, r0, ip, lsr r0
    c600:	0000003d 	andeq	r0, r0, sp, lsr r0
    c604:	0000003e 	andeq	r0, r0, lr, lsr r0
    c608:	0000003f 	andeq	r0, r0, pc, lsr r0
    c60c:	00000040 	andeq	r0, r0, r0, asr #32
    c610:	00000040 	andeq	r0, r0, r0, asr #32
    c614:	0000003f 	andeq	r0, r0, pc, lsr r0
    c618:	0000003f 	andeq	r0, r0, pc, lsr r0
    c61c:	0000003e 	andeq	r0, r0, lr, lsr r0
    c620:	0000003d 	andeq	r0, r0, sp, lsr r0
    c624:	0000003c 	andeq	r0, r0, ip, lsr r0
    c628:	0000003a 	andeq	r0, r0, sl, lsr r0
    c62c:	00000038 	andeq	r0, r0, r8, lsr r0
    c630:	00000036 	andeq	r0, r0, r6, lsr r0
    c634:	00000034 	andeq	r0, r0, r4, lsr r0
    c638:	00000031 	andeq	r0, r0, r1, lsr r0
    c63c:	0000002f 	andeq	r0, r0, pc, lsr #32
    c640:	0000002c 	andeq	r0, r0, ip, lsr #32
    c644:	00000029 	andeq	r0, r0, r9, lsr #32
    c648:	00000026 	andeq	r0, r0, r6, lsr #32
    c64c:	00000023 	andeq	r0, r0, r3, lsr #32
    c650:	00000020 	andeq	r0, r0, r0, lsr #32
    c654:	0000001d 	andeq	r0, r0, sp, lsl r0
    c658:	0000001a 	andeq	r0, r0, sl, lsl r0
    c65c:	00000017 	andeq	r0, r0, r7, lsl r0
    c660:	00000014 	andeq	r0, r0, r4, lsl r0
    c664:	00000011 	andeq	r0, r0, r1, lsl r0
    c668:	0000000f 	andeq	r0, r0, pc
    c66c:	0000000c 	andeq	r0, r0, ip
    c670:	0000000a 	andeq	r0, r0, sl
    c674:	00000008 	andeq	r0, r0, r8
    c678:	00000006 	andeq	r0, r0, r6
    c67c:	00000004 	andeq	r0, r0, r4
    c680:	00000003 	andeq	r0, r0, r3
    c684:	00000002 	andeq	r0, r0, r2
    c688:	00000001 	andeq	r0, r0, r1
    c68c:	00000001 	andeq	r0, r0, r1
    c690:	00000000 	andeq	r0, r0, r0
    c694:	00000001 	andeq	r0, r0, r1
    c698:	00000001 	andeq	r0, r0, r1
    c69c:	00000002 	andeq	r0, r0, r2
    c6a0:	00000003 	andeq	r0, r0, r3
    c6a4:	00000004 	andeq	r0, r0, r4
    c6a8:	00000006 	andeq	r0, r0, r6
    c6ac:	00000008 	andeq	r0, r0, r8
    c6b0:	0000000a 	andeq	r0, r0, sl
    c6b4:	0000000c 	andeq	r0, r0, ip
    c6b8:	0000000f 	andeq	r0, r0, pc
    c6bc:	00000011 	andeq	r0, r0, r1, lsl r0
    c6c0:	00000014 	andeq	r0, r0, r4, lsl r0
    c6c4:	00000017 	andeq	r0, r0, r7, lsl r0
    c6c8:	0000001a 	andeq	r0, r0, sl, lsl r0
    c6cc:	0000001d 	andeq	r0, r0, sp, lsl r0
    c6d0:	00000020 	andeq	r0, r0, r0, lsr #32

0000c6d4 <spi>:
    c6d4:	20204000 	eorcs	r4, r0, r0

Disassembly of section .rodata:

0000c6d8 <SYSTIMERCLO-0x18>:
    c6d8:	3a656e6f 	bcc	196809c <__bss_end__+0x195b994>
    c6dc:	0a642520 	beq	1915b64 <__bss_end__+0x190945c>
    c6e0:	00000000 	andeq	r0, r0, r0
    c6e4:	3a6f7774 	bcc	1bea4bc <__bss_end__+0x1bdddb4>
    c6e8:	0a642520 	beq	1915b70 <__bss_end__+0x1909468>
    c6ec:	00000000 	andeq	r0, r0, r0

0000c6f0 <SYSTIMERCLO>:
    c6f0:	20003004 	andcs	r3, r0, r4

Disassembly of section .bss:

0000c6f8 <i>:
	...

0000c700 <increment_total>:
	...

Disassembly of section .debug_info:

00000000 <.debug_info>:
       0:	000002cc 	andeq	r0, r0, ip, asr #5
       4:	00000004 	andeq	r0, r0, r4
       8:	01040000 	mrseq	r0, (UNDEF: 4)
       c:	00000069 	andeq	r0, r0, r9, rrx
      10:	00005301 	andeq	r5, r0, r1, lsl #6
      14:	0000db00 	andeq	sp, r0, r0, lsl #22
      18:	00801000 	addeq	r1, r0, r0
      1c:	00003000 	andeq	r3, r0, r0
      20:	00000000 	andeq	r0, r0, r0
      24:	05040200 	streq	r0, [r4, #-512]	; 0x200
      28:	00746e69 	rsbseq	r6, r4, r9, ror #28
      2c:	22070403 	andcs	r0, r7, #50331648	; 0x3000000
      30:	04000007 	streq	r0, [r0], #-7
      34:	4d160204 	lfmmi	f0, 4, [r6, #-16]
      38:	05000001 	streq	r0, [r0, #-1]
      3c:	d9003542 	stmdble	r0, {r1, r6, r8, sl, ip, sp}
      40:	41050683 	smlabbmi	r5, r3, r6, r0
      44:	b1007335 	tstlt	r0, r5, lsr r3
      48:	410505d8 	ldrdmi	r0, [r5, -r8]
      4c:	afc00035 	svcge	0x00c00035
      50:	35470505 	strbcc	r0, [r7, #-1285]	; 0x505
      54:	88f50073 	ldmhi	r5!, {r0, r1, r4, r5, r6}^
      58:	35470505 	strbcc	r0, [r7, #-1285]	; 0x505
      5c:	04e4bf00 	strbteq	fp, [r4], #3840	; 0xf00
      60:	73354605 	teqvc	r5, #5242880	; 0x500000
      64:	04c28f00 	strbeq	r8, [r2], #3840	; 0xf00
      68:	00354605 	eorseq	r4, r5, r5, lsl #12
      6c:	0504a1d6 	streq	sl, [r4, #-470]	; 0x1d6
      70:	86003545 	strhi	r3, [r0], -r5, asr #10
      74:	44050483 	strmi	r0, [r5], #-1155	; 0x483
      78:	91007335 	tstls	r0, r5, lsr r3
      7c:	440503e6 	strmi	r0, [r5], #-998	; 0x3e6
      80:	caed0035 	bgt	ffb4015c <__bss_end__+0xffb33a54>
      84:	35430503 	strbcc	r0, [r3, #-1283]	; 0x503
      88:	b18d0073 	orrlt	r0, sp, r3, ror r0
      8c:	35430503 	strbcc	r0, [r3, #-1283]	; 0x503
      90:	0398e500 	orrseq	lr, r8, #0, 10
      94:	00344205 	eorseq	r4, r4, r5, lsl #4
      98:	050381ec 	streq	r8, [r3, #-492]	; 0x1ec
      9c:	00733441 	rsbseq	r3, r3, r1, asr #8
      a0:	0502ec98 	streq	lr, [r2, #-3224]	; 0xc98
      a4:	e0003441 	and	r3, r0, r1, asr #8
      a8:	470502d7 			; <UNDEFINED> instruction: 0x470502d7
      ac:	ba007334 	blt	1cd84 <__bss_end__+0x1067c>
      b0:	470502c4 	strmi	r0, [r5, -r4, asr #5]
      b4:	b2a00034 	adclt	r0, r0, #52	; 0x34
      b8:	34460502 	strbcc	r0, [r6], #-1282	; 0x502
      bc:	a1870073 	orrge	r0, r7, r3, ror r0
      c0:	34460502 	strbcc	r0, [r6], #-1282	; 0x502
      c4:	0290eb00 	addseq	lr, r0, #0, 22
      c8:	00344505 	eorseq	r4, r4, r5, lsl #10
      cc:	050281c3 	streq	r8, [r2, #-451]	; 0x1c3
      d0:	00733444 	rsbseq	r3, r3, r4, asr #8
      d4:	0501f389 	streq	pc, [r1, #-905]	; 0x389
      d8:	b6003444 	strlt	r3, [r0], -r4, asr #8
      dc:	430501e5 	movwmi	r0, #20965	; 0x51e5
      e0:	c6007334 			; <UNDEFINED> instruction: 0xc6007334
      e4:	430501d8 	movwmi	r0, #20952	; 0x51d8
      e8:	ccb30034 	ldcgt	0, cr0, [r3], #208	; 0xd0
      ec:	33420501 	movtcc	r0, #9473	; 0x2501
      f0:	01c0f600 	biceq	pc, r0, r0, lsl #12
      f4:	73334105 	teqvc	r3, #1073741825	; 0x40000001
      f8:	01b68c00 			; <UNDEFINED> instruction: 0x01b68c00
      fc:	00334105 	eorseq	r4, r3, r5, lsl #2
     100:	0501abf0 	streq	sl, [r1, #-3056]	; 0xbf0
     104:	00733347 	rsbseq	r3, r3, r7, asr #6
     108:	0501a29d 	streq	sl, [r1, #-669]	; 0x29d
     10c:	90003347 	andls	r3, r0, r7, asr #6
     110:	46050199 			; <UNDEFINED> instruction: 0x46050199
     114:	c4007333 	strgt	r7, [r0], #-819	; 0x333
     118:	46050190 			; <UNDEFINED> instruction: 0x46050190
     11c:	88b50033 	ldmhi	r5!, {r0, r1, r4, r5}
     120:	33450501 	movtcc	r0, #21761	; 0x5501
     124:	0180e100 	orreq	lr, r0, r0, lsl #2
     128:	73334405 	teqvc	r3, #83886080	; 0x5000000
     12c:	00f9c400 	rscseq	ip, r9, r0, lsl #8
     130:	00334405 	eorseq	r4, r3, r5, lsl #8
     134:	0500f2db 	streq	pc, [r0, #-731]	; 0x2db
     138:	00733343 	rsbseq	r3, r3, r3, asr #6
     13c:	0500eca3 	streq	lr, [r0, #-3235]	; 0xca3
     140:	9a003343 	bls	ce54 <__bss_end__+0x74c>
     144:	5e0600e6 	cdppl	0, 0, cr0, cr6, cr6, {7}
     148:	00000000 	andeq	r0, r0, r0
     14c:	011b0700 	tsteq	fp, r0, lsl #14
     150:	41020000 	mrsmi	r0, (UNDEF: 2)
     154:	00000033 	andeq	r0, r0, r3, lsr r0
     158:	43020204 	movwmi	r0, #8708	; 0x2204
     15c:	0000018d 	andeq	r0, r0, sp, lsl #3
     160:	00009406 	andeq	r9, r0, r6, lsl #8
     164:	0286c000 	addeq	ip, r6, #0
     168:	00004806 	andeq	r4, r0, r6, lsl #16
     16c:	0183a000 	orreq	sl, r3, r0
     170:	52545105 	subspl	r5, r4, #1073741825	; 0x40000001
     174:	00c1d000 	sbceq	sp, r1, r0
     178:	54494505 	strbpl	r4, [r9], #-1285	; 0x505
     17c:	0520e800 	streq	lr, [r0, #-2048]!	; 0x800
     180:	00584953 	subseq	r4, r8, r3, asr r9
     184:	0e0610b4 	mcreq	0, 0, r1, cr6, cr4, {5}
     188:	28000000 	stmdacs	r0, {}	; <UNPREDICTABLE>
     18c:	009a0700 	addseq	r0, sl, r0, lsl #14
     190:	4c020000 	stcmi	0, cr0, [r2], {-0}
     194:	00000158 	andeq	r0, r0, r8, asr r1
     198:	4e020808 	cdpmi	8, 0, cr0, cr2, cr8, {0}
     19c:	000001b9 			; <UNDEFINED> instruction: 0x000001b9
     1a0:	0001a909 	andeq	sl, r1, r9, lsl #18
     1a4:	4d4f0200 	sfmmi	f0, 2, [pc, #-0]	; 1ac <_start-0x7e54>
     1a8:	00000001 	andeq	r0, r0, r1
     1ac:	0008b809 	andeq	fp, r8, r9, lsl #16
     1b0:	8d500200 	lfmhi	f0, 2, [r0, #-0]
     1b4:	04000001 	streq	r0, [r0], #-1
     1b8:	00d30700 	sbcseq	r0, r3, r0, lsl #14
     1bc:	51020000 	mrspl	r0, (UNDEF: 2)
     1c0:	00000198 	muleq	r0, r8, r1
     1c4:	0e030408 	cdpeq	4, 0, cr0, cr3, cr8, {0}
     1c8:	000001e5 	andeq	r0, r0, r5, ror #3
     1cc:	0000a209 	andeq	sl, r0, r9, lsl #4
     1d0:	250f0300 	strcs	r0, [pc, #-768]	; fffffed8 <__bss_end__+0xffff37d0>
     1d4:	00000000 	andeq	r0, r0, r0
     1d8:	00004d09 	andeq	r4, r0, r9, lsl #26
     1dc:	e5100300 	ldr	r0, [r0, #-768]	; 0x300
     1e0:	04000001 	streq	r0, [r0], #-1
     1e4:	01b90a00 			; <UNDEFINED> instruction: 0x01b90a00
     1e8:	01f40000 	mvnseq	r0, r0
     1ec:	f40b0000 	vst4.8	{d0-d3}, [fp], r0
     1f0:	00000001 	andeq	r0, r0, r1
     1f4:	22070403 	andcs	r0, r7, #50331648	; 0x3000000
     1f8:	07000000 	streq	r0, [r0, -r0]
     1fc:	00000113 	andeq	r0, r0, r3, lsl r1
     200:	01c41103 	biceq	r1, r4, r3, lsl #2
     204:	2b0c0000 	blcs	30020c <__bss_end__+0x2f3b04>
     208:	01000000 	mrseq	r0, (UNDEF: 0)
     20c:	0080100c 	addeq	r1, r0, ip
     210:	00003000 	andeq	r3, r0, r0
     214:	4a9c0100 	bmi	fe70061c <__bss_end__+0xfe6f3f14>
     218:	0d000002 	stceq	0, cr0, [r0, #-8]
     21c:	00008018 	andeq	r8, r0, r8, lsl r0
     220:	0000028f 	andeq	r0, r0, pc, lsl #5
     224:	00801c0d 	addeq	r1, r0, sp, lsl #24
     228:	00029c00 	andeq	r9, r2, r0, lsl #24
     22c:	80340e00 	eorshi	r0, r4, r0, lsl #28
     230:	02a90000 	adceq	r0, r9, #0
     234:	010f0000 	mrseq	r0, CPSR
     238:	34030552 	strcc	r0, [r3], #-1362	; 0x552
     23c:	0f0000a4 	svceq	0x000000a4
     240:	03055001 	movweq	r5, #20481	; 0x5001
     244:	0000a438 	andeq	sl, r0, r8, lsr r4
     248:	13100000 	tstne	r0, #0
     24c:	03000000 	movweq	r0, #0
     250:	0001fb15 	andeq	pc, r1, r5, lsl fp	; <UNPREDICTABLE>
     254:	a8030500 	stmdage	r3, {r8, sl}
     258:	110000a4 	smlatbne	r0, r4, r0, r0
     25c:	000000c3 	andeq	r0, r0, r3, asr #1
     260:	01fb3803 	mvnseq	r3, r3, lsl #16
     264:	35110000 	ldrcc	r0, [r1, #-0]
     268:	03000000 	movweq	r0, #0
     26c:	0001fb8f 	andeq	pc, r1, pc, lsl #23
     270:	00301200 	eorseq	r1, r0, r0, lsl #4
     274:	6a030000 	bvs	c027c <__bss_end__+0xb3b74>
     278:	0001fb01 	andeq	pc, r1, r1, lsl #22
     27c:	00631300 	rsbeq	r1, r3, r0, lsl #6
     280:	43030000 	movwmi	r0, #12288	; 0x3000
     284:	0001fb02 	andeq	pc, r1, r2, lsl #22
     288:	34030500 	strcc	r0, [r3], #-1280	; 0x500
     28c:	140000a4 	strne	r0, [r0], #-164	; 0xa4
     290:	000000b8 	strheq	r0, [r0], -r8
     294:	029c5302 	addseq	r5, ip, #134217728	; 0x8000000
     298:	00150000 	andseq	r0, r5, r0
     29c:	0000a714 	andeq	sl, r0, r4, lsl r7
     2a0:	a9050400 	stmdbge	r5, {sl}
     2a4:	15000002 	strne	r0, [r0, #-2]
     2a8:	00001600 	andeq	r1, r0, r0, lsl #12
     2ac:	0d050000 	stceq	0, cr0, [r5, #-0]
     2b0:	000002c9 	andeq	r0, r0, r9, asr #5
     2b4:	0002c917 	andeq	ip, r2, r7, lsl r9
     2b8:	00251700 	eoreq	r1, r5, r0, lsl #14
     2bc:	c9170000 	ldmdbgt	r7, {}	; <UNPREDICTABLE>
     2c0:	17000002 	strne	r0, [r0, -r2]
     2c4:	00000025 	andeq	r0, r0, r5, lsr #32
     2c8:	b9041800 	stmdblt	r4, {fp, ip}
     2cc:	00000001 	andeq	r0, r0, r1
     2d0:	00000087 	andeq	r0, r0, r7, lsl #1
     2d4:	012d0004 	teqeq	sp, r4
     2d8:	01040000 	mrseq	r0, (UNDEF: 4)
     2dc:	00000069 	andeq	r0, r0, r9, rrx
     2e0:	00013701 	andeq	r3, r1, r1, lsl #14
     2e4:	0000db00 	andeq	sp, r0, r0, lsl #22
     2e8:	00804000 	addeq	r4, r0, r0
     2ec:	00003800 	andeq	r3, r0, r0, lsl #16
     2f0:	00007700 	andeq	r7, r0, r0, lsl #14
     2f4:	01400200 	mrseq	r0, (UNDEF: 96)
     2f8:	06010000 	streq	r0, [r1], -r0
     2fc:	00008040 	andeq	r8, r0, r0, asr #32
     300:	00000038 	andeq	r0, r0, r8, lsr r0
     304:	005e9c01 	subseq	r9, lr, r1, lsl #24
     308:	62030000 	andvs	r0, r3, #0
     30c:	01007373 	tsteq	r0, r3, ror r3
     310:	00005e07 	andeq	r5, r0, r7, lsl #28
     314:	00000000 	andeq	r0, r0, r0
     318:	012f0400 	teqeq	pc, r0, lsl #8
     31c:	08010000 	stmdaeq	r1, {}	; <UNPREDICTABLE>
     320:	0000005e 	andeq	r0, r0, lr, asr r0
     324:	00806805 	addeq	r6, r0, r5, lsl #16
     328:	00008100 	andeq	r8, r0, r0, lsl #2
     32c:	04060000 	streq	r0, [r6], #-0
     330:	00000064 	andeq	r0, r0, r4, rrx
     334:	69050407 	stmdbvs	r5, {r0, r1, r2, sl}
     338:	0800746e 	stmdaeq	r0, {r1, r2, r3, r5, r6, sl, ip, sp, lr}
     33c:	00000148 	andeq	r0, r0, r8, asr #2
     340:	00640101 	rsbeq	r0, r4, r1, lsl #2
     344:	23080000 	movwcs	r0, #32768	; 0x8000
     348:	01000001 	tsteq	r0, r1
     34c:	00006402 	andeq	r6, r0, r2, lsl #8
     350:	002b0900 	eoreq	r0, fp, r0, lsl #18
     354:	04010000 	streq	r0, [r1], #-0
     358:	3000000a 	andcc	r0, r0, sl
     35c:	04000002 	streq	r0, [r0], #-2
     360:	0001b900 	andeq	fp, r1, r0, lsl #18
     364:	69010400 	stmdbvs	r1, {sl}
     368:	01000000 	mrseq	r0, (UNDEF: 0)
     36c:	000001f7 	strdeq	r0, [r0], -r7
     370:	000000db 	ldrdeq	r0, [r0], -fp
     374:	00008078 	andeq	r8, r0, r8, ror r0
     378:	00000270 	andeq	r0, r0, r0, ror r2
     37c:	000000b9 	strheq	r0, [r0], -r9
     380:	00020c02 	andeq	r0, r2, r2, lsl #24
     384:	6c5c0100 	ldfvse	f0, [ip], {-0}
     388:	78000000 	stmdavc	r0, {}	; <UNPREDICTABLE>
     38c:	8c000080 	stchi	0, cr0, [r0], {128}	; 0x80
     390:	01000000 	mrseq	r0, (UNDEF: 0)
     394:	00006c9c 	muleq	r0, ip, ip
     398:	01b70300 			; <UNDEFINED> instruction: 0x01b70300
     39c:	5c010000 	stcpl	0, cr0, [r1], {-0}
     3a0:	0000006c 	andeq	r0, r0, ip, rrx
     3a4:	00000020 	andeq	r0, r0, r0, lsr #32
     3a8:	0001ff04 	andeq	pc, r1, r4, lsl #30
     3ac:	6c650100 	stfvse	f0, [r5], #-0
     3b0:	4e000000 	cdpmi	0, 0, cr0, cr0, cr0, {0}
     3b4:	04000000 	streq	r0, [r0], #-0
     3b8:	000001e7 	andeq	r0, r0, r7, ror #3
     3bc:	006c6601 	rsbeq	r6, ip, r1, lsl #12
     3c0:	006c0000 	rsbeq	r0, ip, r0
     3c4:	05000000 	streq	r0, [r0, #-0]
     3c8:	07220704 	streq	r0, [r2, -r4, lsl #14]!
     3cc:	9e060000 	cdpls	0, 0, cr0, cr6, cr0, {0}
     3d0:	01000001 	tsteq	r0, r1
     3d4:	00810482 	addeq	r0, r1, r2, lsl #9
     3d8:	00014400 	andeq	r4, r1, r0, lsl #8
     3dc:	d99c0100 	ldmible	ip, {r8}
     3e0:	07000000 	streq	r0, [r0, -r0]
     3e4:	01007a68 	tsteq	r0, r8, ror #20
     3e8:	0000d982 	andeq	sp, r0, r2, lsl #19
     3ec:	0000c500 	andeq	ip, r0, r0, lsl #10
     3f0:	018c0300 	orreq	r0, ip, r0, lsl #6
     3f4:	82010000 	andhi	r0, r1, #0
     3f8:	000000d9 	ldrdeq	r0, [r0], -r9
     3fc:	000000e6 	andeq	r0, r0, r6, ror #1
     400:	00016604 	andeq	r6, r1, r4, lsl #12
     404:	e0840100 	add	r0, r4, r0, lsl #2
     408:	05000000 	streq	r0, [r0, #-0]
     40c:	04000001 	streq	r0, [r0], #-1
     410:	00000193 	muleq	r0, r3, r1
     414:	00d98501 	sbcseq	r8, r9, r1, lsl #10
     418:	01350000 	teqeq	r5, r0
     41c:	00080000 	andeq	r0, r8, r0
     420:	04000000 	streq	r0, [r0], #-0
     424:	00000652 	andeq	r0, r0, r2, asr r6
     428:	00d98801 	sbcseq	r8, r9, r1, lsl #16
     42c:	01540000 	cmpeq	r4, r0
     430:	00000000 	andeq	r0, r0, r0
     434:	69050409 	stmdbvs	r5, {r0, r3, sl}
     438:	0500746e 	streq	r7, [r0, #-1134]	; 0x46e
     43c:	01850408 	orreq	r0, r5, r8, lsl #8
     440:	b80a0000 	stmdalt	sl, {}	; <UNPREDICTABLE>
     444:	01000000 	mrseq	r0, (UNDEF: 0)
     448:	0082489d 	umulleq	r4, r2, sp, r8
     44c:	0000a000 	andeq	sl, r0, r0
     450:	6b9c0100 	blvs	fe700858 <__bss_end__+0xfe6f4150>
     454:	0b000001 	bleq	460 <_start-0x7ba0>
     458:	9e010069 	cdpls	0, 0, cr0, cr1, cr9, {3}
     45c:	000000d9 	ldrdeq	r0, [r0], -r9
     460:	0082740c 	addeq	r7, r2, ip, lsl #8
     464:	00022600 	andeq	r2, r2, r0, lsl #12
     468:	00011a00 	andeq	r1, r1, r0, lsl #20
     46c:	50010d00 	andpl	r0, r1, r0, lsl #26
     470:	07d00a03 	ldrbeq	r0, [r0, r3, lsl #20]
     474:	827c0c00 	rsbshi	r0, ip, #0, 24
     478:	00250000 	eoreq	r0, r5, r0
     47c:	012f0000 	teqeq	pc, r0
     480:	010d0000 	mrseq	r0, (UNDEF: 13)
     484:	e80a0350 	stmda	sl, {r4, r6, r8, r9}
     488:	9c0c0003 	stcls	0, cr0, [ip], {3}
     48c:	26000082 	strcs	r0, [r0], -r2, lsl #1
     490:	44000002 	strmi	r0, [r0], #-2
     494:	0d000001 	stceq	0, cr0, [r0, #-4]
     498:	0a035001 	beq	d44a4 <__bss_end__+0xc7d9c>
     49c:	0c0007d0 	stceq	7, cr0, [r0], {208}	; 0xd0
     4a0:	000082b0 			; <UNDEFINED> instruction: 0x000082b0
     4a4:	00000226 	andeq	r0, r0, r6, lsr #4
     4a8:	00000159 	andeq	r0, r0, r9, asr r1
     4ac:	0350010d 	cmpeq	r0, #1073741827	; 0x40000003
     4b0:	0007d00a 	andeq	sp, r7, sl
     4b4:	0082d00e 	addeq	sp, r2, lr
     4b8:	00022600 	andeq	r2, r2, r0, lsl #12
     4bc:	50010d00 	andpl	r0, r1, r0, lsl #26
     4c0:	07d00a03 	ldrbeq	r0, [r0, r3, lsl #20]
     4c4:	990f0000 	stmdbls	pc, {}	; <UNPREDICTABLE>
     4c8:	01000001 	tsteq	r0, r1
     4cc:	00017c4a 	andeq	r7, r1, sl, asr #24
     4d0:	c8030500 	stmdagt	r3, {r8, sl}
     4d4:	100000b5 	strhne	r0, [r0], -r5
     4d8:	00018204 	andeq	r8, r1, r4, lsl #4
     4dc:	006c1100 	rsbeq	r1, ip, r0, lsl #2
     4e0:	63120000 	tstvs	r2, #0
     4e4:	01006b6c 	tsteq	r0, ip, ror #22
     4e8:	00017c4b 	andeq	r7, r1, fp, asr #24
     4ec:	bc030500 	cfstr32lt	mvfx0, [r3], {-0}
     4f0:	120000a5 	andne	r0, r0, #165	; 0xa5
     4f4:	006d7770 	rsbeq	r7, sp, r0, ror r7
     4f8:	017c4c01 	cmneq	ip, r1, lsl #24
     4fc:	03050000 	movweq	r0, #20480	; 0x5000
     500:	0000a5c0 	andeq	sl, r0, r0, asr #11
     504:	00006c13 	andeq	r6, r0, r3, lsl ip
     508:	0001b900 	andeq	fp, r1, r0, lsl #18
     50c:	01b91400 			; <UNDEFINED> instruction: 0x01b91400
     510:	00400000 	subeq	r0, r0, r0
     514:	22070405 	andcs	r0, r7, #83886080	; 0x5000000
     518:	0f000000 	svceq	0x00000000
     51c:	000001d9 	ldrdeq	r0, [r0], -r9
     520:	01a9c501 			; <UNDEFINED> instruction: 0x01a9c501
     524:	03050000 	movweq	r0, #20480	; 0x5000
     528:	0000c5d0 	ldrdeq	ip, [r0], -r0
     52c:	00006c13 	andeq	r6, r0, r3, lsl ip
     530:	0001e200 	andeq	lr, r1, r0, lsl #4
     534:	01b91500 			; <UNDEFINED> instruction: 0x01b91500
     538:	04000000 	streq	r0, [r0], #-0
     53c:	01701600 	cmneq	r0, r0, lsl #12
     540:	0b010000 	bleq	40548 <__bss_end__+0x33e40>
     544:	0001d105 	andeq	sp, r1, r5, lsl #2
     548:	cc030500 	cfstr32gt	mvfx0, [r3], {-0}
     54c:	160000b5 			; <UNDEFINED> instruction: 0x160000b5
     550:	000001c1 	andeq	r0, r0, r1, asr #3
     554:	d1010801 	tstle	r1, r1, lsl #16
     558:	05000001 	streq	r0, [r0, #-1]
     55c:	00a5c403 	adceq	ip, r5, r3, lsl #8
     560:	00691200 	rsbeq	r1, r9, r0, lsl #4
     564:	00d97f01 	sbcseq	r7, r9, r1, lsl #30
     568:	03050000 	movweq	r0, #20480	; 0x5000
     56c:	0000c6f8 	strdeq	ip, [r0], -r8
     570:	0001560f 	andeq	r5, r1, pc, lsl #12
     574:	e0800100 	add	r0, r0, r0, lsl #2
     578:	05000000 	streq	r0, [r0, #-0]
     57c:	00c70003 	sbceq	r0, r7, r3
     580:	01ae1700 			; <UNDEFINED> instruction: 0x01ae1700
     584:	0f020000 	svceq	0x00020000
     588:	00006c18 	andeq	r6, r0, r8, lsl ip
     58c:	c8000000 	stmdagt	r0, {}	; <UNPREDICTABLE>
     590:	04000000 	streq	r0, [r0], #-0
     594:	00030c00 	andeq	r0, r3, r0, lsl #24
     598:	69010400 	stmdbvs	r1, {sl}
     59c:	01000000 	mrseq	r0, (UNDEF: 0)
     5a0:	0000022a 	andeq	r0, r0, sl, lsr #4
     5a4:	000000db 	ldrdeq	r0, [r0], -fp
     5a8:	000082e8 	andeq	r8, r0, r8, ror #5
     5ac:	00000020 	andeq	r0, r0, r0, lsr #32
     5b0:	00000135 	andeq	r0, r0, r5, lsr r1
     5b4:	69050402 	stmdbvs	r5, {r1, sl}
     5b8:	0300746e 	movweq	r7, #1134	; 0x46e
     5bc:	0000021c 	andeq	r0, r0, ip, lsl r2
     5c0:	0037d402 	eorseq	sp, r7, r2, lsl #8
     5c4:	04040000 	streq	r0, [r4], #-0
     5c8:	00072207 	andeq	r2, r7, r7, lsl #4
     5cc:	02230500 	eoreq	r0, r3, #0, 10
     5d0:	0b010000 	bleq	405d8 <__bss_end__+0x33ed0>
     5d4:	00000025 	andeq	r0, r0, r5, lsr #32
     5d8:	000082e8 	andeq	r8, r0, r8, ror #5
     5dc:	00000020 	andeq	r0, r0, r0, lsr #32
     5e0:	00aa9c01 	adceq	r9, sl, r1, lsl #24
     5e4:	64060000 	strvs	r0, [r6], #-0
     5e8:	01007473 	tsteq	r0, r3, ror r4
     5ec:	0000aa0b 	andeq	sl, r0, fp, lsl #20
     5f0:	06500100 	ldrbeq	r0, [r0], -r0, lsl #2
     5f4:	00637273 	rsbeq	r7, r3, r3, ror r2
     5f8:	00ac0b01 	adceq	r0, ip, r1, lsl #22
     5fc:	51010000 	mrspl	r0, (UNDEF: 1)
     600:	01006e06 	tsteq	r0, r6, lsl #28
     604:	00002c0b 	andeq	r2, r0, fp, lsl #24
     608:	07520100 	ldrbeq	r0, [r2, -r0, lsl #2]
     60c:	0c010064 	stceq	0, cr0, [r1], {100}	; 0x64
     610:	000000b3 	strheq	r0, [r0], -r3
     614:	73075001 	movwvc	r5, #28673	; 0x7001
     618:	c00d0100 	andgt	r0, sp, r0, lsl #2
     61c:	01000000 	mrseq	r0, (UNDEF: 0)
     620:	82e80851 	rschi	r0, r8, #5308416	; 0x510000
     624:	001c0000 	andseq	r0, ip, r0
     628:	69090000 	stmdbvs	r9, {}	; <UNPREDICTABLE>
     62c:	250e0100 	strcs	r0, [lr, #-256]	; 0x100
     630:	67000000 	strvs	r0, [r0, -r0]
     634:	00000001 	andeq	r0, r0, r1
     638:	0b040a00 	bleq	102e40 <__bss_end__+0xf6738>
     63c:	0000b204 	andeq	fp, r0, r4, lsl #4
     640:	040b0c00 	streq	r0, [fp], #-3072	; 0xc00
     644:	000000b9 	strheq	r0, [r0], -r9
     648:	4c080104 	stfmis	f0, [r8], {4}
     64c:	0b000005 	bleq	668 <_start-0x7998>
     650:	0000c604 	andeq	ip, r0, r4, lsl #12
     654:	00b90d00 	adcseq	r0, r9, r0, lsl #26
     658:	92000000 	andls	r0, r0, #0
     65c:	04000003 	streq	r0, [r0], #-3
     660:	0003b100 	andeq	fp, r3, r0, lsl #2
     664:	69010400 	stmdbvs	r1, {sl}
     668:	01000000 	mrseq	r0, (UNDEF: 0)
     66c:	00000443 	andeq	r0, r0, r3, asr #8
     670:	000000db 	ldrdeq	r0, [r0], -fp
     674:	00008308 	andeq	r8, r0, r8, lsl #6
     678:	00000158 	andeq	r0, r0, r8, asr r1
     67c:	000001dd 	ldrdeq	r0, [r0], -sp
     680:	12020102 	andne	r0, r2, #-2147483648	; 0x80000000
     684:	0000017e 	andeq	r0, r0, lr, ror r1
     688:	0003ea03 	andeq	lr, r3, r3, lsl #20
     68c:	25030000 	strcs	r0, [r3, #-0]
     690:	00000004 	andeq	r0, r0, r4
     694:	00042f03 	andeq	r2, r4, r3, lsl #30
     698:	39030100 	stmdbcc	r3, {r8}
     69c:	02000004 	andeq	r0, r0, #4
     6a0:	00046f03 	andeq	r6, r4, r3, lsl #30
     6a4:	51030300 	mrspl	r0, SP_svc
     6a8:	04000004 	streq	r0, [r0], #-4
     6ac:	00045b03 	andeq	r5, r4, r3, lsl #22
     6b0:	65030500 	strvs	r0, [r3, #-1280]	; 0x500
     6b4:	06000004 	streq	r0, [r0], -r4
     6b8:	0004c403 	andeq	ip, r4, r3, lsl #8
     6bc:	79030700 	stmdbvc	r3, {r8, r9, sl}
     6c0:	08000004 	stmdaeq	r0, {r2}
     6c4:	00048303 	andeq	r8, r4, r3, lsl #6
     6c8:	cc030900 	stcgt	9, cr0, [r3], {-0}
     6cc:	0a000002 	beq	6dc <_start-0x7924>
     6d0:	0002d703 	andeq	sp, r2, r3, lsl #14
     6d4:	e2030b00 	and	r0, r3, #0, 22
     6d8:	0c000002 	stceq	0, cr0, [r0], {2}
     6dc:	0002ed03 	andeq	lr, r2, r3, lsl #26
     6e0:	f8030d00 			; <UNDEFINED> instruction: 0xf8030d00
     6e4:	0e000002 	cdpeq	0, 0, cr0, cr0, cr2, {0}
     6e8:	00030303 	andeq	r0, r3, r3, lsl #6
     6ec:	0e030f00 	cdpeq	15, 0, cr0, cr3, cr0, {0}
     6f0:	10000003 	andne	r0, r0, r3
     6f4:	00031903 	andeq	r1, r3, r3, lsl #18
     6f8:	24031100 	strcs	r1, [r3], #-256	; 0x100
     6fc:	12000003 	andne	r0, r0, #3
     700:	00032f03 	andeq	r2, r3, r3, lsl #30
     704:	f9031300 			; <UNDEFINED> instruction: 0xf9031300
     708:	14000004 	strne	r0, [r0], #-4
     70c:	00050403 	andeq	r0, r5, r3, lsl #8
     710:	0f031500 	svceq	0x00031500
     714:	16000005 	strne	r0, [r0], -r5
     718:	00051a03 	andeq	r1, r5, r3, lsl #20
     71c:	c3031700 	movwgt	r1, #14080	; 0x3700
     720:	18000003 	stmdane	r0, {r0, r1}
     724:	00023e03 	andeq	r3, r2, r3, lsl #28
     728:	54031900 	strpl	r1, [r3], #-2304	; 0x900
     72c:	1a000002 	bne	73c <_start-0x78c4>
     730:	00025f03 	andeq	r5, r2, r3, lsl #30
     734:	6a031b00 	bvs	c733c <__bss_end__+0xbac34>
     738:	1c000002 	stcne	0, cr0, [r0], {2}
     73c:	00048d03 	andeq	r8, r4, r3, lsl #26
     740:	25031d00 	strcs	r1, [r3, #-3328]	; 0xd00
     744:	1e000005 	cdpne	0, 0, cr0, cr0, cr5, {0}
     748:	00023303 	andeq	r3, r2, r3, lsl #6
     74c:	49031f00 	stmdbmi	r3, {r8, r9, sl, fp, ip}
     750:	20000002 	andcs	r0, r0, r2
     754:	00033a03 	andeq	r3, r3, r3, lsl #20
     758:	45032100 	strmi	r2, [r3, #-256]	; 0x100
     75c:	22000003 	andcs	r0, r0, #3
     760:	00035003 	andeq	r5, r3, r3
     764:	5b032300 	blpl	c936c <__bss_end__+0xbcc64>
     768:	24000003 	strcs	r0, [r0], #-3
     76c:	00036603 	andeq	r6, r3, r3, lsl #12
     770:	71032500 	tstvc	r3, r0, lsl #10
     774:	26000003 	strcs	r0, [r0], -r3
     778:	00037c03 	andeq	r7, r3, r3, lsl #24
     77c:	92032700 	andls	r2, r3, #0, 14
     780:	28000003 	stmdacs	r0, {r0, r1}
     784:	00027503 	andeq	r7, r2, r3, lsl #10
     788:	80032900 	andhi	r2, r3, r0, lsl #18
     78c:	2a000002 	bcs	79c <_start-0x7864>
     790:	00049803 	andeq	r9, r4, r3, lsl #16
     794:	a3032b00 	movwge	r2, #15104	; 0x3b00
     798:	2c000004 	stccs	0, cr0, [r0], {4}
     79c:	0004ae03 	andeq	sl, r4, r3, lsl #28
     7a0:	b9032d00 	stmdblt	r3, {r8, sl, fp, sp}
     7a4:	2e000004 	cdpcs	0, 0, cr0, cr0, cr4, {0}
     7a8:	0002b403 	andeq	fp, r2, r3, lsl #8
     7ac:	ce032f00 	cdpgt	15, 0, cr2, cr3, cr0, {0}
     7b0:	30000004 	andcc	r0, r0, r4
     7b4:	0004d903 	andeq	sp, r4, r3, lsl #18
     7b8:	93033100 	movwls	r3, #12544	; 0x3100
     7bc:	32000002 	andcc	r0, r0, #2
     7c0:	00029e03 	andeq	r9, r2, r3, lsl #28
     7c4:	a9033300 	stmdbge	r3, {r8, r9, ip, sp}
     7c8:	34000002 	strcc	r0, [r0], #-2
     7cc:	00038703 	andeq	r8, r3, r3, lsl #14
     7d0:	e4033500 	str	r3, [r3], #-1280	; 0x500
     7d4:	35000004 	strcc	r0, [r0, #-4]
     7d8:	00a70400 	adceq	r0, r7, r0, lsl #8
     7dc:	11010000 	mrsne	r0, (UNDEF: 1)
     7e0:	00008308 	andeq	r8, r0, r8, lsl #6
     7e4:	00000040 	andeq	r0, r0, r0, asr #32
     7e8:	021c9c01 	andseq	r9, ip, #256	; 0x100
     7ec:	0f050000 	svceq	0x00050000
     7f0:	01000004 	tsteq	r0, r4
     7f4:	00021c15 	andeq	r1, r2, r5, lsl ip
     7f8:	0001a400 	andeq	sl, r1, r0, lsl #8
     7fc:	07000600 	streq	r0, [r0, -r0, lsl #12]
     800:	00008310 	andeq	r8, r0, r0, lsl r3
     804:	00000340 	andeq	r0, r0, r0, asr #6
     808:	00831808 	addeq	r1, r3, r8, lsl #16
     80c:	00034d00 	andeq	r4, r3, r0, lsl #26
     810:	0001c000 	andeq	ip, r1, r0
     814:	50010900 	andpl	r0, r1, r0, lsl #18
     818:	08004401 	stmdaeq	r0, {r0, sl, lr}
     81c:	00008320 	andeq	r8, r0, r0, lsr #6
     820:	0000035e 	andeq	r0, r0, lr, asr r3
     824:	000001d3 	ldrdeq	r0, [r0], -r3
     828:	01500109 	cmpeq	r0, r9, lsl #2
     82c:	28080044 	stmdacs	r8, {r2, r6}
     830:	4d000083 	stcmi	0, cr0, [r0, #-524]	; 0xfffffdf4
     834:	e6000003 	str	r0, [r0], -r3
     838:	09000001 	stmdbeq	r0, {r0}
     83c:	45015001 	strmi	r5, [r1, #-1]
     840:	83300800 	teqhi	r0, #0, 16
     844:	035e0000 	cmpeq	lr, #0
     848:	01f90000 	mvnseq	r0, r0
     84c:	01090000 	mrseq	r0, (UNDEF: 9)
     850:	00450150 	subeq	r0, r5, r0, asr r1
     854:	00833808 	addeq	r3, r3, r8, lsl #16
     858:	00034d00 	andeq	r4, r3, r0, lsl #26
     85c:	00020c00 	andeq	r0, r2, r0, lsl #24
     860:	50010900 	andpl	r0, r1, r0, lsl #18
     864:	0a004001 	beq	10870 <__bss_end__+0x4168>
     868:	00008340 	andeq	r8, r0, r0, asr #6
     86c:	0000035e 	andeq	r0, r0, lr, asr r3
     870:	01500109 	cmpeq	r0, r9, lsl #2
     874:	0b000040 	bleq	97c <_start-0x7684>
     878:	6e690504 	cdpvs	5, 6, cr0, cr9, cr4, {0}
     87c:	ac0c0074 	stcge	0, cr0, [ip], {116}	; 0x74
     880:	01000003 	tsteq	r0, r3
     884:	00025d20 	andeq	r5, r2, r0, lsr #26
     888:	00834800 	addeq	r4, r3, r0, lsl #16
     88c:	00001000 	andeq	r1, r0, r0
     890:	5d9c0100 	ldfpls	f0, [ip]
     894:	0d000002 	stceq	0, cr0, [r0, #-8]
     898:	000004f2 	strdeq	r0, [r0], -r2
     89c:	021c2001 	andseq	r2, ip, #1
     8a0:	01860000 	orreq	r0, r6, r0
     8a4:	500a0000 	andpl	r0, sl, r0
     8a8:	6f000083 	svcvs	0x00000083
     8ac:	09000003 	stmdbeq	r0, {r0, r1}
     8b0:	f3035001 	vhadd.u8	d5, d3, d1
     8b4:	00005001 	andeq	r5, r0, r1
     8b8:	2207040e 	andcs	r0, r7, #234881024	; 0xe000000
     8bc:	0f000007 	svceq	0x00000007
     8c0:	000003d8 	ldrdeq	r0, [r0], -r8
     8c4:	021c2701 	andseq	r2, ip, #262144	; 0x40000
     8c8:	83580000 	cmphi	r8, #0
     8cc:	003c0000 	eorseq	r0, ip, r0
     8d0:	9c010000 	stcls	0, cr0, [r1], {-0}
     8d4:	0000029a 	muleq	r0, sl, r2
     8d8:	00063110 	andeq	r3, r6, r0, lsl r1
     8dc:	1c280100 	stfnes	f0, [r8], #-0
     8e0:	01000002 	tsteq	r0, r2
     8e4:	83640a50 	cmnhi	r4, #80, 20	; 0x50000
     8e8:	03840000 	orreq	r0, r4, #0
     8ec:	01090000 	mrseq	r0, (UNDEF: 9)
     8f0:	00330150 	eorseq	r0, r3, r0, asr r1
     8f4:	03ce0f00 	biceq	r0, lr, #0, 30
     8f8:	2d010000 	stccs	0, cr0, [r1, #-0]
     8fc:	0000021c 	andeq	r0, r0, ip, lsl r2
     900:	00008394 	muleq	r0, r4, r3
     904:	00000090 	muleq	r0, r0, r0
     908:	02e19c01 	rsceq	r9, r1, #256	; 0x100
     90c:	8c110000 	ldchi	0, cr0, [r1], {-0}
     910:	01000001 	tsteq	r0, r1
     914:	0002e12f 	andeq	lr, r2, pc, lsr #2
     918:	0001a700 	andeq	sl, r1, r0, lsl #14
     91c:	03f91100 	mvnseq	r1, #0, 2
     920:	30010000 	andcc	r0, r1, r0
     924:	0000021c 	andeq	r0, r0, ip, lsl r2
     928:	000001bf 			; <UNDEFINED> instruction: 0x000001bf
     92c:	0083a00a 	addeq	sl, r3, sl
     930:	00038400 	andeq	r8, r3, r0, lsl #8
     934:	50010900 	andpl	r0, r1, r0, lsl #18
     938:	00003001 	andeq	r3, r0, r1
     93c:	8504080e 	strhi	r0, [r4, #-2062]	; 0x80e
     940:	12000001 	andne	r0, r0, #1
     944:	000003ba 			; <UNDEFINED> instruction: 0x000003ba
     948:	021c4101 	andseq	r4, ip, #1073741824	; 0x40000000
     94c:	84240000 	strthi	r0, [r4], #-0
     950:	003c0000 	eorseq	r0, ip, r0
     954:	9c010000 	stcls	0, cr0, [r1], {-0}
     958:	00000340 	andeq	r0, r0, r0, asr #6
     95c:	00028b0d 	andeq	r8, r2, sp, lsl #22
     960:	1c410100 	stfnee	f0, [r1], {-0}
     964:	09000002 	stmdbeq	r0, {r1}
     968:	11000002 	tstne	r0, r2
     96c:	0000041f 	andeq	r0, r0, pc, lsl r4
     970:	02e14301 	rsceq	r4, r1, #67108864	; 0x4000000
     974:	022a0000 	eoreq	r0, sl, #0
     978:	f9110000 			; <UNDEFINED> instruction: 0xf9110000
     97c:	01000003 	tsteq	r0, r3
     980:	00021c44 	andeq	r1, r2, r4, asr #24
     984:	00024200 	andeq	r4, r2, r0, lsl #4
     988:	842c0a00 	strthi	r0, [ip], #-2560	; 0xa00
     98c:	03840000 	orreq	r0, r4, #0
     990:	01090000 	mrseq	r0, (UNDEF: 9)
     994:	01f30350 	mvnseq	r0, r0, asr r3
     998:	13000050 	movwne	r0, #80	; 0x50
     99c:	000002bf 			; <UNDEFINED> instruction: 0x000002bf
     9a0:	034d0403 	movteq	r0, #54275	; 0xd403
     9a4:	00060000 	andeq	r0, r6, r0
     9a8:	00039d14 	andeq	r9, r3, r4, lsl sp
     9ac:	5e5d0200 	cdppl	2, 5, cr0, cr13, cr0, {0}
     9b0:	15000003 	strne	r0, [r0, #-3]
     9b4:	0000025d 	andeq	r0, r0, sp, asr r2
     9b8:	040f0500 	streq	r0, [pc], #-1280	; 9c0 <_start-0x7640>
     9bc:	15010000 	strne	r0, [r1, #-0]
     9c0:	0000021c 	andeq	r0, r0, ip, lsl r2
     9c4:	0000036f 	andeq	r0, r0, pc, ror #6
     9c8:	e0160006 	ands	r0, r6, r6
     9cc:	02000003 	andeq	r0, r0, #3
     9d0:	00025d61 	andeq	r5, r2, r1, ror #26
     9d4:	00038400 	andeq	r8, r3, r0, lsl #8
     9d8:	025d1500 	subseq	r1, sp, #0, 10
     9dc:	17000000 	strne	r0, [r0, -r0]
     9e0:	00000402 	andeq	r0, r0, r2, lsl #8
     9e4:	025d0503 	subseq	r0, sp, #12582912	; 0xc00000
     9e8:	5d150000 	ldcpl	0, cr0, [r5, #-0]
     9ec:	00000002 	andeq	r0, r0, r2
     9f0:	00010800 	andeq	r0, r1, r0, lsl #16
     9f4:	22000400 	andcs	r0, r0, #0, 8
     9f8:	04000005 	streq	r0, [r0], #-5
     9fc:	00006901 	andeq	r6, r0, r1, lsl #18
     a00:	05390100 	ldreq	r0, [r9, #-256]!	; 0x100
     a04:	00db0000 	sbcseq	r0, fp, r0
     a08:	84600000 	strbthi	r0, [r0], #-0
     a0c:	006c0000 	rsbeq	r0, ip, r0
     a10:	02770000 	rsbseq	r0, r7, #0
     a14:	bf020000 	svclt	0x00020000
     a18:	01000002 	tsteq	r0, r2
     a1c:	00846004 	addeq	r6, r4, r4
     a20:	00001800 	andeq	r1, r0, r0, lsl #16
     a24:	519c0100 	orrspl	r0, ip, r0, lsl #2
     a28:	03000000 	movweq	r0, #0
     a2c:	00008470 	andeq	r8, r0, r0, ror r4
     a30:	000000d4 	ldrdeq	r0, [r0], -r4
     a34:	03510104 	cmpeq	r1, #4, 2
     a38:	0404000a 	streq	r0, [r4], #-10
     a3c:	30015001 	andcc	r5, r1, r1
     a40:	02050000 	andeq	r0, r5, #0
     a44:	01000004 	tsteq	r0, r4
     a48:	0000af08 	andeq	sl, r0, r8, lsl #30
     a4c:	00847800 	addeq	r7, r4, r0, lsl #16
     a50:	00005400 	andeq	r5, r0, r0, lsl #8
     a54:	af9c0100 	svcge	0x009c0100
     a58:	06000000 	streq	r0, [r0], -r0
     a5c:	0000028b 	andeq	r0, r0, fp, lsl #5
     a60:	00af0801 	adceq	r0, pc, r1, lsl #16
     a64:	02620000 	rsbeq	r0, r2, #0
     a68:	74070000 	strvc	r0, [r7], #-0
     a6c:	09010078 	stmdbeq	r1, {r3, r4, r5, r6}
     a70:	000000b6 	strheq	r0, [r0], -r6
     a74:	07749102 	ldrbeq	r9, [r4, -r2, lsl #2]!
     a78:	01007872 	tsteq	r0, r2, ror r8
     a7c:	0000b60a 	andeq	fp, r0, sl, lsl #12
     a80:	70910200 	addsvc	r0, r1, r0, lsl #4
     a84:	0084b003 	addeq	fp, r4, r3
     a88:	0000ea00 	andeq	lr, r0, r0, lsl #20
     a8c:	52010400 	andpl	r0, r1, #0, 8
     a90:	01043301 	tsteq	r4, r1, lsl #6
     a94:	007d0251 	rsbseq	r0, sp, r1, asr r2
     a98:	02500104 	subseq	r0, r0, #4, 2
     a9c:	00006c91 	muleq	r0, r1, ip
     aa0:	22070408 	andcs	r0, r7, #8, 8	; 0x8000000
     aa4:	09000007 	stmdbeq	r0, {r0, r1, r2}
     aa8:	000000cd 	andeq	r0, r0, sp, asr #1
     aac:	000000c6 	andeq	r0, r0, r6, asr #1
     ab0:	0000c60a 	andeq	ip, r0, sl, lsl #12
     ab4:	08000200 	stmdaeq	r0, {r9}
     ab8:	00220704 	eoreq	r0, r2, r4, lsl #14
     abc:	01080000 	mrseq	r0, (UNDEF: 8)
     ac0:	00054308 	andeq	r4, r5, r8, lsl #6
     ac4:	05300b00 	ldreq	r0, [r0, #-2816]!	; 0xb00
     ac8:	0d020000 	stceq	0, cr0, [r2, #-0]
     acc:	000000ea 	andeq	r0, r0, sl, ror #1
     ad0:	0000af0c 	andeq	sl, r0, ip, lsl #30
     ad4:	00af0c00 	adceq	r0, pc, r0, lsl #24
     ad8:	0b000000 	bleq	ae0 <_start-0x7520>
     adc:	00000551 	andeq	r0, r0, r1, asr r5
     ae0:	01050e02 	tsteq	r5, r2, lsl #28
     ae4:	050c0000 	streq	r0, [ip, #-0]
     ae8:	0c000001 	stceq	0, cr0, [r0], {1}
     aec:	00000105 	andeq	r0, r0, r5, lsl #2
     af0:	0000af0c 	andeq	sl, r0, ip, lsl #30
     af4:	040d0000 	streq	r0, [sp], #-0
     af8:	000000cd 	andeq	r0, r0, sp, asr #1
     afc:	0001f300 	andeq	pc, r1, r0, lsl #6
     b00:	df000400 	svcle	0x00000400
     b04:	04000005 	streq	r0, [r0], #-5
     b08:	00006901 	andeq	r6, r0, r1, lsl #18
     b0c:	00570100 	subseq	r0, r7, r0, lsl #2
     b10:	00db0000 	sbcseq	r0, fp, r0
     b14:	84d00000 	ldrbhi	r0, [r0], #0
     b18:	02a00000 	adceq	r0, r0, #0
     b1c:	02c00000 	sbceq	r0, r0, #0
     b20:	08020000 	stmdaeq	r2, {}	; <UNPREDICTABLE>
     b24:	00018504 	andeq	r8, r1, r4, lsl #10
     b28:	05d10300 	ldrbeq	r0, [r1, #768]	; 0x300
     b2c:	12010000 	andne	r0, r1, #0
     b30:	00000025 	andeq	r0, r0, r5, lsr #32
     b34:	000084d0 	ldrdeq	r8, [r0], -r0
     b38:	00000074 	andeq	r0, r0, r4, ror r0
     b3c:	00849c01 	addeq	r9, r4, r1, lsl #24
     b40:	78040000 	stmdavc	r4, {}	; <UNPREDICTABLE>
     b44:	25120100 	ldrcs	r0, [r2, #-256]	; 0x100
     b48:	83000000 	movwhi	r0, #0
     b4c:	05000002 	streq	r0, [r0, #-2]
     b50:	0000056d 	andeq	r0, r0, sp, ror #10
     b54:	00251201 	eoreq	r1, r5, r1, lsl #4
     b58:	02ab0000 	adceq	r0, fp, #0
     b5c:	a1060000 	mrsge	r0, (UNDEF: 6)
     b60:	01000005 	tsteq	r0, r5
     b64:	00002513 	andeq	r2, r0, r3, lsl r5
     b68:	0002d300 	andeq	sp, r2, r0, lsl #6
     b6c:	00180700 	andseq	r0, r8, r0, lsl #14
     b70:	69080000 	stmdbvs	r8, {}	; <UNPREDICTABLE>
     b74:	84140100 	ldrhi	r0, [r4], #-256	; 0x100
     b78:	0f000000 	svceq	0x00000000
     b7c:	00000003 	andeq	r0, r0, r3
     b80:	05040900 	streq	r0, [r4, #-2304]	; 0x900
     b84:	00746e69 	rsbseq	r6, r4, r9, ror #28
     b88:	0005b703 	andeq	fp, r5, r3, lsl #14
     b8c:	25270100 	strcs	r0, [r7, #-256]!	; 0x100
     b90:	44000000 	strmi	r0, [r0], #-0
     b94:	90000085 	andls	r0, r0, r5, lsl #1
     b98:	01000000 	mrseq	r0, (UNDEF: 0)
     b9c:	0000ce9c 	muleq	r0, ip, lr
     ba0:	00780400 	rsbseq	r0, r8, r0, lsl #8
     ba4:	00252701 	eoreq	r2, r5, r1, lsl #14
     ba8:	032e0000 	teqeq	lr, #0
     bac:	79040000 	stmdbvc	r4, {}	; <UNPREDICTABLE>
     bb0:	25270100 	strcs	r0, [r7, #-256]!	; 0x100
     bb4:	56000000 	strpl	r0, [r0], -r0
     bb8:	06000003 	streq	r0, [r0], -r3
     bbc:	00000576 	andeq	r0, r0, r6, ror r5
     bc0:	00842801 	addeq	r2, r4, r1, lsl #16
     bc4:	037e0000 	cmneq	lr, #0
     bc8:	03000000 	movweq	r0, #0
     bcc:	000001e2 	andeq	r0, r0, r2, ror #3
     bd0:	00251a01 	eoreq	r1, r5, r1, lsl #20
     bd4:	85d40000 	ldrbhi	r0, [r4]
     bd8:	019c0000 	orrseq	r0, ip, r0
     bdc:	9c010000 	stcls	0, cr0, [r1], {-0}
     be0:	00000179 	andeq	r0, r0, r9, ror r1
     be4:	01007804 	tsteq	r0, r4, lsl #16
     be8:	0000251a 	andeq	r2, r0, sl, lsl r5
     bec:	00039c00 	andeq	r9, r3, r0, lsl #24
     bf0:	05d70600 	ldrbeq	r0, [r7, #1536]	; 0x600
     bf4:	1b010000 	blne	40bfc <__bss_end__+0x344f4>
     bf8:	00000025 	andeq	r0, r0, r5, lsr #32
     bfc:	000003c4 	andeq	r0, r0, r4, asr #7
     c00:	0005a106 	andeq	sl, r5, r6, lsl #2
     c04:	251c0100 	ldrcs	r0, [ip, #-256]	; 0x100
     c08:	dc000000 	stcle	0, cr0, [r0], {-0}
     c0c:	0a000003 	beq	c20 <_start-0x73e0>
     c10:	000085e4 	andeq	r8, r0, r4, ror #11
     c14:	0000008b 	andeq	r0, r0, fp, lsl #1
     c18:	00000142 	andeq	r0, r0, r2, asr #2
     c1c:	9352060b 	cmpls	r2, #11534336	; 0xb00000
     c20:	04935304 	ldreq	r5, [r3], #772	; 0x304
     c24:	0825f40b 	stmdaeq	r5!, {r0, r1, r3, sl, ip, sp, lr, pc}
     c28:	4d12d84a 	ldcmi	8, cr13, [r2, #-296]	; 0xfffffed8
     c2c:	400921fb 	strdmi	r2, [r9], -fp
     c30:	9350060b 	cmpls	r0, #11534336	; 0xb00000
     c34:	04935104 	ldreq	r5, [r3], #260	; 0x104
     c38:	f503f305 			; <UNDEFINED> instruction: 0xf503f305
     c3c:	0c002500 	cfstr32eq	mvfx2, [r0], {-0}
     c40:	000085f8 	strdeq	r8, [r0], -r8	; <UNPREDICTABLE>
     c44:	0000002c 	andeq	r0, r0, ip, lsr #32
     c48:	0086340c 	addeq	r3, r6, ip, lsl #8
     c4c:	00002c00 	andeq	r2, r0, r0, lsl #24
     c50:	86680c00 	strbthi	r0, [r8], -r0, lsl #24
     c54:	002c0000 	eoreq	r0, ip, r0
     c58:	a40c0000 	strge	r0, [ip], #-0
     c5c:	2c000086 	stccs	0, cr0, [r0], {134}	; 0x86
     c60:	0c000000 	stceq	0, cr0, [r0], {-0}
     c64:	000086d8 	ldrdeq	r8, [r0], -r8	; <UNPREDICTABLE>
     c68:	0000002c 	andeq	r0, r0, ip, lsr #32
     c6c:	0087140c 	addeq	r1, r7, ip, lsl #8
     c70:	00002c00 	andeq	r2, r0, r0, lsl #24
     c74:	c10d0000 	mrsgt	r0, (UNDEF: 13)
     c78:	01000005 	tsteq	r0, r5
     c7c:	00018d0b 	andeq	r8, r1, fp, lsl #26
     c80:	00000800 	andeq	r0, r0, r0, lsl #16
     c84:	00000000 	andeq	r0, r0, r0
     c88:	250e4018 	strcs	r4, [lr, #-24]
     c8c:	0d000000 	stceq	0, cr0, [r0, #-0]
     c90:	000005a8 	andeq	r0, r0, r8, lsr #11
     c94:	018d0c01 	orreq	r0, sp, r1, lsl #24
     c98:	00080000 	andeq	r0, r8, r0
     c9c:	00000000 	andeq	r0, r0, r0
     ca0:	0d405e00 	stcleq	14, cr5, [r0, #-0]
     ca4:	00000591 	muleq	r0, r1, r5
     ca8:	018d0d01 	orreq	r0, sp, r1, lsl #26
     cac:	00080000 	andeq	r0, r8, r0
     cb0:	00000000 	andeq	r0, r0, r0
     cb4:	0d40b3b0 	stcleq	3, cr11, [r0, #-704]	; 0xfffffd40
     cb8:	0000055e 	andeq	r0, r0, lr, asr r5
     cbc:	018d0e01 	orreq	r0, sp, r1, lsl #28
     cc0:	00080000 	andeq	r0, r8, r0
     cc4:	00000000 	andeq	r0, r0, r0
     cc8:	0d411626 	stcleq	6, cr1, [r1, #-152]	; 0xffffff68
     ccc:	00000580 	andeq	r0, r0, r0, lsl #11
     cd0:	018d0f01 	orreq	r0, sp, r1, lsl #30
     cd4:	00080000 	andeq	r0, r8, r0
     cd8:	a8000000 	stmdage	r0, {}	; <UNPREDICTABLE>
     cdc:	0d418308 	stcleq	3, cr8, [r1, #-32]	; 0xffffffe0
     ce0:	000005dd 	ldrdeq	r0, [r0], -sp
     ce4:	018d1001 	orreq	r1, sp, r1
     ce8:	00080000 	andeq	r0, r8, r0
     cec:	8cc00000 	stclhi	0, cr0, [r0], {0}
     cf0:	0041f732 	subeq	pc, r1, r2, lsr r7	; <UNPREDICTABLE>
     cf4:	00000282 	andeq	r0, r0, r2, lsl #5
     cf8:	06a20004 	strteq	r0, [r2], r4
     cfc:	01040000 	mrseq	r0, (UNDEF: 4)
     d00:	00000069 	andeq	r0, r0, r9, rrx
     d04:	0005fa01 	andeq	pc, r5, r1, lsl #20
     d08:	0000db00 	andeq	sp, r0, r0, lsl #22
     d0c:	00877000 	addeq	r7, r7, r0
     d10:	00001800 	andeq	r1, r0, r0, lsl #16
     d14:	00032600 	andeq	r2, r3, r0, lsl #12
     d18:	02040200 	andeq	r0, r4, #0, 4
     d1c:	00013f16 	andeq	r3, r1, r6, lsl pc
     d20:	35420300 	strbcc	r0, [r2, #-768]	; 0x300
     d24:	0683d900 	streq	sp, [r3], r0, lsl #18
     d28:	73354103 	teqvc	r5, #-1073741824	; 0xc0000000
     d2c:	05d8b100 	ldrbeq	fp, [r8, #256]	; 0x100
     d30:	00354103 	eorseq	r4, r5, r3, lsl #2
     d34:	0305afc0 	movweq	sl, #24512	; 0x5fc0
     d38:	00733547 	rsbseq	r3, r3, r7, asr #10
     d3c:	030588f5 	movweq	r8, #22773	; 0x58f5
     d40:	bf003547 	svclt	0x00003547
     d44:	460304e4 	strmi	r0, [r3], -r4, ror #9
     d48:	8f007335 	svchi	0x00007335
     d4c:	460304c2 	strmi	r0, [r3], -r2, asr #9
     d50:	a1d60035 	bicsge	r0, r6, r5, lsr r0
     d54:	35450304 	strbcc	r0, [r5, #-772]	; 0x304
     d58:	04838600 	streq	r8, [r3], #1536	; 0x600
     d5c:	73354403 	teqvc	r5, #50331648	; 0x3000000
     d60:	03e69100 	mvneq	r9, #0, 2
     d64:	00354403 	eorseq	r4, r5, r3, lsl #8
     d68:	0303caed 	movweq	ip, #15085	; 0x3aed
     d6c:	00733543 	rsbseq	r3, r3, r3, asr #10
     d70:	0303b18d 	movweq	fp, #12685	; 0x318d
     d74:	e5003543 	str	r3, [r0, #-1347]	; 0x543
     d78:	42030398 	andmi	r0, r3, #152, 6	; 0x60000002
     d7c:	81ec0034 	mvnhi	r0, r4, lsr r0
     d80:	34410303 	strbcc	r0, [r1], #-771	; 0x303
     d84:	ec980073 	ldc	0, cr0, [r8], {115}	; 0x73
     d88:	34410302 	strbcc	r0, [r1], #-770	; 0x302
     d8c:	02d7e000 	sbcseq	lr, r7, #0
     d90:	73344703 	teqvc	r4, #786432	; 0xc0000
     d94:	02c4ba00 	sbceq	fp, r4, #0, 20
     d98:	00344703 	eorseq	r4, r4, r3, lsl #14
     d9c:	0302b2a0 	movweq	fp, #8864	; 0x22a0
     da0:	00733446 	rsbseq	r3, r3, r6, asr #8
     da4:	0302a187 	movweq	sl, #8583	; 0x2187
     da8:	eb003446 	bl	dec8 <__bss_end__+0x17c0>
     dac:	45030290 	strmi	r0, [r3, #-656]	; 0x290
     db0:	81c30034 	bichi	r0, r3, r4, lsr r0
     db4:	34440302 	strbcc	r0, [r4], #-770	; 0x302
     db8:	f3890073 	vshr.u8	q0, <illegal reg q9.5>, #7
     dbc:	34440301 	strbcc	r0, [r4], #-769	; 0x301
     dc0:	01e5b600 	mvneq	fp, r0, lsl #12
     dc4:	73344303 	teqvc	r4, #201326592	; 0xc000000
     dc8:	01d8c600 	bicseq	ip, r8, r0, lsl #12
     dcc:	00344303 	eorseq	r4, r4, r3, lsl #6
     dd0:	0301ccb3 	movweq	ip, #7347	; 0x1cb3
     dd4:	f6003342 			; <UNDEFINED> instruction: 0xf6003342
     dd8:	410301c0 	smlabtmi	r3, r0, r1, r0
     ddc:	8c007333 	stchi	3, cr7, [r0], {51}	; 0x33
     de0:	410301b6 			; <UNDEFINED> instruction: 0x410301b6
     de4:	abf00033 	blge	ffc00eb8 <__bss_end__+0xffbf47b0>
     de8:	33470301 	movtcc	r0, #29441	; 0x7301
     dec:	a29d0073 	addsge	r0, sp, #115	; 0x73
     df0:	33470301 	movtcc	r0, #29441	; 0x7301
     df4:	01999000 	orrseq	r9, r9, r0
     df8:	73334603 	teqvc	r3, #3145728	; 0x300000
     dfc:	0190c400 	orrseq	ip, r0, r0, lsl #8
     e00:	00334603 	eorseq	r4, r3, r3, lsl #12
     e04:	030188b5 	movweq	r8, #6325	; 0x18b5
     e08:	e1003345 	tst	r0, r5, asr #6
     e0c:	44030180 	strmi	r0, [r3], #-384	; 0x180
     e10:	c4007333 	strgt	r7, [r0], #-819	; 0x333
     e14:	440300f9 	strmi	r0, [r3], #-249	; 0xf9
     e18:	f2db0033 	vshr.s16	d16, d19, #5
     e1c:	33430300 	movtcc	r0, #13056	; 0x3300
     e20:	eca30073 	stc	0, cr0, [r3], #460	; 0x1cc
     e24:	33430300 	movtcc	r0, #13056	; 0x3300
     e28:	00e69a00 	rsceq	r9, r6, r0, lsl #20
     e2c:	00005e04 	andeq	r5, r0, r4, lsl #28
     e30:	05000000 	streq	r0, [r0, #-0]
     e34:	0000011b 	andeq	r0, r0, fp, lsl r1
     e38:	00254102 	eoreq	r4, r5, r2, lsl #2
     e3c:	02020000 	andeq	r0, r2, #0
     e40:	017f4302 	cmneq	pc, r2, lsl #6
     e44:	94040000 	strls	r0, [r4], #-0
     e48:	c0000000 	andgt	r0, r0, r0
     e4c:	48040286 	stmdami	r4, {r1, r2, r7, r9}
     e50:	a0000000 	andge	r0, r0, r0
     e54:	51030183 	smlabbpl	r3, r3, r1, r0
     e58:	d0005254 	andle	r5, r0, r4, asr r2
     e5c:	450300c1 	strmi	r0, [r3, #-193]	; 0xc1
     e60:	e8005449 	stmda	r0, {r0, r3, r6, sl, ip, lr}
     e64:	49530320 	ldmdbmi	r3, {r5, r8, r9}^
     e68:	10b40058 	adcsne	r0, r4, r8, asr r0
     e6c:	00000e04 	andeq	r0, r0, r4, lsl #28
     e70:	05002800 	streq	r2, [r0, #-2048]	; 0x800
     e74:	0000009a 	muleq	r0, sl, r0
     e78:	014a4c02 	cmpeq	sl, r2, lsl #24
     e7c:	08060000 	stmdaeq	r6, {}	; <UNPREDICTABLE>
     e80:	01ab4e02 			; <UNDEFINED> instruction: 0x01ab4e02
     e84:	a9070000 	stmdbge	r7, {}	; <UNPREDICTABLE>
     e88:	02000001 	andeq	r0, r0, #1
     e8c:	00013f4f 	andeq	r3, r1, pc, asr #30
     e90:	b8070000 	stmdalt	r7, {}	; <UNPREDICTABLE>
     e94:	02000008 	andeq	r0, r0, #8
     e98:	00017f50 	andeq	r7, r1, r0, asr pc
     e9c:	05000400 	streq	r0, [r0, #-1024]	; 0x400
     ea0:	000000d3 	ldrdeq	r0, [r0], -r3
     ea4:	018a5102 	orreq	r5, sl, r2, lsl #2
     ea8:	04060000 	streq	r0, [r6], #-0
     eac:	01d70e03 	bicseq	r0, r7, r3, lsl #28
     eb0:	a2070000 	andge	r0, r7, #0
     eb4:	03000000 	movweq	r0, #0
     eb8:	0001d70f 	andeq	sp, r1, pc, lsl #14
     ebc:	4d070000 	stcmi	0, cr0, [r7, #-0]
     ec0:	03000000 	movweq	r0, #0
     ec4:	0001de10 	andeq	sp, r1, r0, lsl lr
     ec8:	08000400 	stmdaeq	r0, {sl}
     ecc:	6e690504 	cdpvs	5, 6, cr0, cr9, cr4, {0}
     ed0:	ab090074 	blge	2410a8 <__bss_end__+0x2349a0>
     ed4:	ed000001 	stc	0, cr0, [r0, #-4]
     ed8:	0a000001 	beq	ee4 <_start-0x711c>
     edc:	000001ed 	andeq	r0, r0, sp, ror #3
     ee0:	07040b00 	streq	r0, [r4, -r0, lsl #22]
     ee4:	00000022 	andeq	r0, r0, r2, lsr #32
     ee8:	00011305 	andeq	r1, r1, r5, lsl #6
     eec:	b6110300 	ldrlt	r0, [r1], -r0, lsl #6
     ef0:	0c000001 	stceq	0, cr0, [r0], {1}
     ef4:	000005f0 	strdeq	r0, [r0], -r0	; <UNPREDICTABLE>
     ef8:	87700e01 	ldrbhi	r0, [r0, -r1, lsl #28]!
     efc:	00180000 	andseq	r0, r8, r0
     f00:	9c010000 	stcls	0, cr0, [r1], {-0}
     f04:	00000246 	andeq	r0, r0, r6, asr #4
     f08:	00004d0d 	andeq	r4, r0, sp, lsl #26
     f0c:	460e0100 	strmi	r0, [lr], -r0, lsl #2
     f10:	01000002 	tsteq	r0, r2
     f14:	00a20d50 	adceq	r0, r2, r0, asr sp
     f18:	0e010000 	cdpeq	0, 0, cr0, cr1, cr0, {0}
     f1c:	000001d7 	ldrdeq	r0, [r0], -r7
     f20:	700e5101 	andvc	r5, lr, r1, lsl #2
     f24:	14000087 	strne	r0, [r0], #-135	; 0x87
     f28:	0f000000 	svceq	0x00000000
     f2c:	0f010069 	svceq	0x00010069
     f30:	000001d7 	ldrdeq	r0, [r0], -r7
     f34:	00000454 	andeq	r0, r0, r4, asr r4
     f38:	04100000 	ldreq	r0, [r0], #-0
     f3c:	000001ab 	andeq	r0, r0, fp, lsr #3
     f40:	00001311 	andeq	r1, r0, r1, lsl r3
     f44:	f4150300 			; <UNDEFINED> instruction: 0xf4150300
     f48:	11000001 	tstne	r0, r1
     f4c:	000000c3 	andeq	r0, r0, r3, asr #1
     f50:	01f43803 	mvnseq	r3, r3, lsl #16
     f54:	35110000 	ldrcc	r0, [r1, #-0]
     f58:	03000000 	movweq	r0, #0
     f5c:	0001f48f 	andeq	pc, r1, pc, lsl #9
     f60:	00301200 	eorseq	r1, r0, r0, lsl #4
     f64:	6a030000 	bvs	c0f6c <__bss_end__+0xb4864>
     f68:	0001f401 	andeq	pc, r1, r1, lsl #8
     f6c:	00631200 	rsbeq	r1, r3, r0, lsl #4
     f70:	43030000 	movwmi	r0, #12288	; 0x3000
     f74:	0001f402 	andeq	pc, r1, r2, lsl #8
     f78:	00590000 	subseq	r0, r9, r0
     f7c:	00040000 	andeq	r0, r4, r0
     f80:	00000788 	andeq	r0, r0, r8, lsl #15
     f84:	00690104 	rsbeq	r0, r9, r4, lsl #2
     f88:	01010000 	mrseq	r0, (UNDEF: 1)
     f8c:	db000006 	blle	fac <_start-0x7054>
     f90:	88000000 	stmdahi	r0, {}	; <UNPREDICTABLE>
     f94:	68000087 	stmdavs	r0, {r0, r1, r2, r7}
     f98:	7f000000 	svcvc	0x00000000
     f9c:	02000003 	andeq	r0, r0, #3
     fa0:	01850408 	orreq	r0, r5, r8, lsl #8
     fa4:	09030000 	stmdbeq	r3, {}	; <UNPREDICTABLE>
     fa8:	01000006 	tsteq	r0, r6
     fac:	0000550b 	andeq	r5, r0, fp, lsl #10
     fb0:	00878800 	addeq	r8, r7, r0, lsl #16
     fb4:	00006800 	andeq	r6, r0, r0, lsl #16
     fb8:	559c0100 	ldrpl	r0, [ip, #256]	; 0x100
     fbc:	04000000 	streq	r0, [r0], #-0
     fc0:	006d756e 	rsbeq	r7, sp, lr, ror #10
     fc4:	00250b01 	eoreq	r0, r5, r1, lsl #22
     fc8:	04730000 	ldrbteq	r0, [r3], #-0
     fcc:	05000000 	streq	r0, [r0, #-0]
     fd0:	6e690504 	cdpvs	5, 6, cr0, cr9, cr4, {0}
     fd4:	90000074 	andls	r0, r0, r4, ror r0
     fd8:	04000006 	streq	r0, [r0], #-6
     fdc:	0007dd00 	andeq	sp, r7, r0, lsl #26
     fe0:	69010400 	stmdbvs	r1, {sl}
     fe4:	01000000 	mrseq	r0, (UNDEF: 0)
     fe8:	0000068a 	andeq	r0, r0, sl, lsl #13
     fec:	000000db 	ldrdeq	r0, [r0], -fp
     ff0:	000087f0 	strdeq	r8, [r0], -r0
     ff4:	00000444 	andeq	r0, r0, r4, asr #8
     ff8:	000003ba 			; <UNDEFINED> instruction: 0x000003ba
     ffc:	16020402 	strne	r0, [r2], -r2, lsl #8
    1000:	0000013f 	andeq	r0, r0, pc, lsr r1
    1004:	00354203 	eorseq	r4, r5, r3, lsl #4
    1008:	030683d9 	movweq	r8, #25561	; 0x63d9
    100c:	00733541 	rsbseq	r3, r3, r1, asr #10
    1010:	0305d8b1 	movweq	sp, #22705	; 0x58b1
    1014:	c0003541 	andgt	r3, r0, r1, asr #10
    1018:	470305af 	strmi	r0, [r3, -pc, lsr #11]
    101c:	f5007335 			; <UNDEFINED> instruction: 0xf5007335
    1020:	47030588 	strmi	r0, [r3, -r8, lsl #11]
    1024:	e4bf0035 	ldrt	r0, [pc], #53	; 102c <_start-0x6fd4>
    1028:	35460304 	strbcc	r0, [r6, #-772]	; 0x304
    102c:	c28f0073 	addgt	r0, pc, #115	; 0x73
    1030:	35460304 	strbcc	r0, [r6, #-772]	; 0x304
    1034:	04a1d600 	strteq	sp, [r1], #1536	; 0x600
    1038:	00354503 	eorseq	r4, r5, r3, lsl #10
    103c:	03048386 	movweq	r8, #17286	; 0x4386
    1040:	00733544 	rsbseq	r3, r3, r4, asr #10
    1044:	0303e691 	movweq	lr, #13969	; 0x3691
    1048:	ed003544 	cfstr32	mvfx3, [r0, #-272]	; 0xfffffef0
    104c:	430303ca 	movwmi	r0, #13258	; 0x33ca
    1050:	8d007335 	stchi	3, cr7, [r0, #-212]	; 0xffffff2c
    1054:	430303b1 	movwmi	r0, #13233	; 0x33b1
    1058:	98e50035 	stmials	r5!, {r0, r2, r4, r5}^
    105c:	34420303 	strbcc	r0, [r2], #-771	; 0x303
    1060:	0381ec00 	orreq	lr, r1, #0, 24
    1064:	73344103 	teqvc	r4, #-1073741824	; 0xc0000000
    1068:	02ec9800 	rsceq	r9, ip, #0, 16
    106c:	00344103 	eorseq	r4, r4, r3, lsl #2
    1070:	0302d7e0 	movweq	sp, #10208	; 0x27e0
    1074:	00733447 	rsbseq	r3, r3, r7, asr #8
    1078:	0302c4ba 	movweq	ip, #9402	; 0x24ba
    107c:	a0003447 	andge	r3, r0, r7, asr #8
    1080:	460302b2 			; <UNDEFINED> instruction: 0x460302b2
    1084:	87007334 	smladxhi	r0, r4, r3, r7
    1088:	460302a1 	strmi	r0, [r3], -r1, lsr #5
    108c:	90eb0034 	rscls	r0, fp, r4, lsr r0
    1090:	34450302 	strbcc	r0, [r5], #-770	; 0x302
    1094:	0281c300 	addeq	ip, r1, #0, 6
    1098:	73344403 	teqvc	r4, #50331648	; 0x3000000
    109c:	01f38900 	mvnseq	r8, r0, lsl #18
    10a0:	00344403 	eorseq	r4, r4, r3, lsl #8
    10a4:	0301e5b6 	movweq	lr, #5558	; 0x15b6
    10a8:	00733443 	rsbseq	r3, r3, r3, asr #8
    10ac:	0301d8c6 	movweq	sp, #6342	; 0x18c6
    10b0:	b3003443 	movwlt	r3, #1091	; 0x443
    10b4:	420301cc 	andmi	r0, r3, #204, 2	; 0x33
    10b8:	c0f60033 	rscsgt	r0, r6, r3, lsr r0
    10bc:	33410301 	movtcc	r0, #4865	; 0x1301
    10c0:	b68c0073 	sxtab16lt	r0, ip, r3
    10c4:	33410301 	movtcc	r0, #4865	; 0x1301
    10c8:	01abf000 			; <UNDEFINED> instruction: 0x01abf000
    10cc:	73334703 	teqvc	r3, #786432	; 0xc0000
    10d0:	01a29d00 			; <UNDEFINED> instruction: 0x01a29d00
    10d4:	00334703 	eorseq	r4, r3, r3, lsl #14
    10d8:	03019990 	movweq	r9, #6544	; 0x1990
    10dc:	00733346 	rsbseq	r3, r3, r6, asr #6
    10e0:	030190c4 	movweq	r9, #4292	; 0x10c4
    10e4:	b5003346 	strlt	r3, [r0, #-838]	; 0x346
    10e8:	45030188 	strmi	r0, [r3, #-392]	; 0x188
    10ec:	80e10033 	rschi	r0, r1, r3, lsr r0
    10f0:	33440301 	movtcc	r0, #17153	; 0x4301
    10f4:	f9c40073 			; <UNDEFINED> instruction: 0xf9c40073
    10f8:	33440300 	movtcc	r0, #17152	; 0x4300
    10fc:	00f2db00 	rscseq	sp, r2, r0, lsl #22
    1100:	73334303 	teqvc	r3, #201326592	; 0xc000000
    1104:	00eca300 	rsceq	sl, ip, r0, lsl #6
    1108:	00334303 	eorseq	r4, r3, r3, lsl #6
    110c:	0400e69a 	streq	lr, [r0], #-1690	; 0x69a
    1110:	0000005e 	andeq	r0, r0, lr, asr r0
    1114:	1b050000 	blne	14111c <__bss_end__+0x134a14>
    1118:	02000001 	andeq	r0, r0, #1
    111c:	00002541 	andeq	r2, r0, r1, asr #10
    1120:	02020200 	andeq	r0, r2, #0, 4
    1124:	00017f43 	andeq	r7, r1, r3, asr #30
    1128:	00940400 	addseq	r0, r4, r0, lsl #8
    112c:	86c00000 	strbhi	r0, [r0], r0
    1130:	00480402 	subeq	r0, r8, r2, lsl #8
    1134:	83a00000 	movhi	r0, #0
    1138:	54510301 	ldrbpl	r0, [r1], #-769	; 0x301
    113c:	c1d00052 	bicsgt	r0, r0, r2, asr r0
    1140:	49450300 	stmdbmi	r5, {r8, r9}^
    1144:	20e80054 	rsccs	r0, r8, r4, asr r0
    1148:	58495303 	stmdapl	r9, {r0, r1, r8, r9, ip, lr}^
    114c:	0410b400 	ldreq	fp, [r0], #-1024	; 0x400
    1150:	0000000e 	andeq	r0, r0, lr
    1154:	9a050028 	bls	1411fc <__bss_end__+0x134af4>
    1158:	02000000 	andeq	r0, r0, #0
    115c:	00014a4c 	andeq	r4, r1, ip, asr #20
    1160:	02080600 	andeq	r0, r8, #0, 12
    1164:	0001ab4e 	andeq	sl, r1, lr, asr #22
    1168:	01a90700 			; <UNDEFINED> instruction: 0x01a90700
    116c:	4f020000 	svcmi	0x00020000
    1170:	0000013f 	andeq	r0, r0, pc, lsr r1
    1174:	08b80700 	ldmeq	r8!, {r8, r9, sl}
    1178:	50020000 	andpl	r0, r2, r0
    117c:	0000017f 	andeq	r0, r0, pc, ror r1
    1180:	d3050004 	movwle	r0, #20484	; 0x5004
    1184:	02000000 	andeq	r0, r0, #0
    1188:	00018a51 	andeq	r8, r1, r1, asr sl
    118c:	03010200 	movweq	r0, #4608	; 0x1200
    1190:	00030f12 	andeq	r0, r3, r2, lsl pc
    1194:	03ea0400 	mvneq	r0, #0, 8
    1198:	04000000 	streq	r0, [r0], #-0
    119c:	00000425 	andeq	r0, r0, r5, lsr #8
    11a0:	042f0400 	strteq	r0, [pc], #-1024	; 11a8 <_start-0x6e58>
    11a4:	04010000 	streq	r0, [r1], #-0
    11a8:	00000439 	andeq	r0, r0, r9, lsr r4
    11ac:	046f0402 	strbteq	r0, [pc], #-1026	; 11b4 <_start-0x6e4c>
    11b0:	04030000 	streq	r0, [r3], #-0
    11b4:	00000451 	andeq	r0, r0, r1, asr r4
    11b8:	045b0404 	ldrbeq	r0, [fp], #-1028	; 0x404
    11bc:	04050000 	streq	r0, [r5], #-0
    11c0:	00000465 	andeq	r0, r0, r5, ror #8
    11c4:	04c40406 	strbeq	r0, [r4], #1030	; 0x406
    11c8:	04070000 	streq	r0, [r7], #-0
    11cc:	00000479 	andeq	r0, r0, r9, ror r4
    11d0:	04830408 	streq	r0, [r3], #1032	; 0x408
    11d4:	04090000 	streq	r0, [r9], #-0
    11d8:	000002cc 	andeq	r0, r0, ip, asr #5
    11dc:	02d7040a 	sbcseq	r0, r7, #167772160	; 0xa000000
    11e0:	040b0000 	streq	r0, [fp], #-0
    11e4:	000002e2 	andeq	r0, r0, r2, ror #5
    11e8:	02ed040c 	rsceq	r0, sp, #12, 8	; 0xc000000
    11ec:	040d0000 	streq	r0, [sp], #-0
    11f0:	000002f8 	strdeq	r0, [r0], -r8
    11f4:	0303040e 	movweq	r0, #13326	; 0x340e
    11f8:	040f0000 	streq	r0, [pc], #-0	; 1200 <_start-0x6e00>
    11fc:	0000030e 	andeq	r0, r0, lr, lsl #6
    1200:	03190410 	tsteq	r9, #16, 8	; 0x10000000
    1204:	04110000 	ldreq	r0, [r1], #-0
    1208:	00000324 	andeq	r0, r0, r4, lsr #6
    120c:	032f0412 	teqeq	pc, #301989888	; 0x12000000
    1210:	04130000 	ldreq	r0, [r3], #-0
    1214:	000004f9 	strdeq	r0, [r0], -r9
    1218:	05040414 	streq	r0, [r4, #-1044]	; 0x414
    121c:	04150000 	ldreq	r0, [r5], #-0
    1220:	0000050f 	andeq	r0, r0, pc, lsl #10
    1224:	051a0416 	ldreq	r0, [sl, #-1046]	; 0x416
    1228:	04170000 	ldreq	r0, [r7], #-0
    122c:	000003c3 	andeq	r0, r0, r3, asr #7
    1230:	023e0418 	eorseq	r0, lr, #24, 8	; 0x18000000
    1234:	04190000 	ldreq	r0, [r9], #-0
    1238:	00000254 	andeq	r0, r0, r4, asr r2
    123c:	025f041a 	subseq	r0, pc, #436207616	; 0x1a000000
    1240:	041b0000 	ldreq	r0, [fp], #-0
    1244:	0000026a 	andeq	r0, r0, sl, ror #4
    1248:	048d041c 	streq	r0, [sp], #1052	; 0x41c
    124c:	041d0000 	ldreq	r0, [sp], #-0
    1250:	00000525 	andeq	r0, r0, r5, lsr #10
    1254:	0233041e 	eorseq	r0, r3, #503316480	; 0x1e000000
    1258:	041f0000 	ldreq	r0, [pc], #-0	; 1260 <_start-0x6da0>
    125c:	00000249 	andeq	r0, r0, r9, asr #4
    1260:	033a0420 	teqeq	sl, #32, 8	; 0x20000000
    1264:	04210000 	strteq	r0, [r1], #-0
    1268:	00000345 	andeq	r0, r0, r5, asr #6
    126c:	03500422 	cmpeq	r0, #570425344	; 0x22000000
    1270:	04230000 	strteq	r0, [r3], #-0
    1274:	0000035b 	andeq	r0, r0, fp, asr r3
    1278:	03660424 	cmneq	r6, #36, 8	; 0x24000000
    127c:	04250000 	strteq	r0, [r5], #-0
    1280:	00000371 	andeq	r0, r0, r1, ror r3
    1284:	037c0426 	cmneq	ip, #637534208	; 0x26000000
    1288:	04270000 	strteq	r0, [r7], #-0
    128c:	00000392 	muleq	r0, r2, r3
    1290:	02750428 	rsbseq	r0, r5, #40, 8	; 0x28000000
    1294:	04290000 	strteq	r0, [r9], #-0
    1298:	00000280 	andeq	r0, r0, r0, lsl #5
    129c:	0498042a 	ldreq	r0, [r8], #1066	; 0x42a
    12a0:	042b0000 	strteq	r0, [fp], #-0
    12a4:	000004a3 	andeq	r0, r0, r3, lsr #9
    12a8:	04ae042c 	strteq	r0, [lr], #1068	; 0x42c
    12ac:	042d0000 	strteq	r0, [sp], #-0
    12b0:	000004b9 			; <UNDEFINED> instruction: 0x000004b9
    12b4:	02b4042e 	adcseq	r0, r4, #771751936	; 0x2e000000
    12b8:	042f0000 	strteq	r0, [pc], #-0	; 12c0 <_start-0x6d40>
    12bc:	000004ce 	andeq	r0, r0, lr, asr #9
    12c0:	04d90430 	ldrbeq	r0, [r9], #1072	; 0x430
    12c4:	04310000 	ldrteq	r0, [r1], #-0
    12c8:	00000293 	muleq	r0, r3, r2
    12cc:	029e0432 	addseq	r0, lr, #838860800	; 0x32000000
    12d0:	04330000 	ldrteq	r0, [r3], #-0
    12d4:	000002a9 	andeq	r0, r0, r9, lsr #5
    12d8:	03870434 	orreq	r0, r7, #52, 8	; 0x34000000
    12dc:	04350000 	ldrteq	r0, [r5], #-0
    12e0:	000004e4 	andeq	r0, r0, r4, ror #9
    12e4:	04060035 	streq	r0, [r6], #-53	; 0x35
    12e8:	03300e04 	teqeq	r0, #4, 28	; 0x40
    12ec:	a2070000 	andge	r0, r7, #0
    12f0:	04000000 	streq	r0, [r0], #-0
    12f4:	0003300f 	andeq	r3, r3, pc
    12f8:	4d070000 	stcmi	0, cr0, [r7, #-0]
    12fc:	04000000 	streq	r0, [r0], #-0
    1300:	00033710 	andeq	r3, r3, r0, lsl r7
    1304:	08000400 	stmdaeq	r0, {sl}
    1308:	6e690504 	cdpvs	5, 6, cr0, cr9, cr4, {0}
    130c:	ab090074 	blge	2414e4 <__bss_end__+0x234ddc>
    1310:	46000001 	strmi	r0, [r0], -r1
    1314:	0a000003 	beq	1328 <_start-0x6cd8>
    1318:	00000346 	andeq	r0, r0, r6, asr #6
    131c:	07040b00 	streq	r0, [r4, -r0, lsl #22]
    1320:	00000022 	andeq	r0, r0, r2, lsr #32
    1324:	00011305 	andeq	r1, r1, r5, lsl #6
    1328:	0f110400 	svceq	0x00110400
    132c:	0c000003 	stceq	0, cr0, [r0], {3}
    1330:	00000000 	andeq	r0, r0, r0
    1334:	87f01a01 	ldrbhi	r1, [r0, r1, lsl #20]!
    1338:	04440000 	strbeq	r0, [r4], #-0
    133c:	9c010000 	stcls	0, cr0, [r1], {-0}
    1340:	00000600 	andeq	r0, r0, r0, lsl #12
    1344:	0006130d 	andeq	r1, r6, sp, lsl #6
    1348:	001a0100 	andseq	r0, sl, r0, lsl #2
    134c:	9b000006 	blls	136c <_start-0x6c94>
    1350:	0d000004 	stceq	0, cr0, [r0, #-16]
    1354:	00000661 	andeq	r0, r0, r1, ror #12
    1358:	03301a01 	teqeq	r0, #4096	; 0x1000
    135c:	04c70000 	strbeq	r0, [r7], #0
    1360:	6a0d0000 	bvs	341368 <__bss_end__+0x334c60>
    1364:	01000006 	tsteq	r0, r6
    1368:	0006001a 	andeq	r0, r6, sl, lsl r0
    136c:	0004e600 	andeq	lr, r4, r0, lsl #12
    1370:	06360d00 	ldrteq	r0, [r6], -r0, lsl #26
    1374:	1a010000 	bne	4137c <__bss_end__+0x34c74>
    1378:	00000330 	andeq	r0, r0, r0, lsr r3
    137c:	00000506 	andeq	r0, r0, r6, lsl #10
    1380:	0006480e 	andeq	r4, r6, lr, lsl #16
    1384:	301b0100 	andscc	r0, fp, r0, lsl #2
    1388:	25000003 	strcs	r0, [r0, #-3]
    138c:	0e000005 	cdpeq	0, 0, cr0, cr0, cr5, {0}
    1390:	000006b6 			; <UNDEFINED> instruction: 0x000006b6
    1394:	03301c01 	teqeq	r0, #256	; 0x100
    1398:	05440000 	strbeq	r0, [r4, #-0]
    139c:	3f0e0000 	svccc	0x000e0000
    13a0:	01000006 	tsteq	r0, r6
    13a4:	0003301e 	andeq	r3, r3, lr, lsl r0
    13a8:	00058800 	andeq	r8, r5, r0, lsl #16
    13ac:	06960e00 	ldreq	r0, [r6], r0, lsl #28
    13b0:	1f010000 	svcne	0x00010000
    13b4:	00000330 	andeq	r0, r0, r0, lsr r3
    13b8:	000005e2 	andeq	r0, r0, r2, ror #11
    13bc:	0006590e 	andeq	r5, r6, lr, lsl #18
    13c0:	30210100 	eorcc	r0, r1, r0, lsl #2
    13c4:	3c000003 	stccc	0, cr0, [r0], {3}
    13c8:	0e000006 	cdpeq	0, 0, cr0, cr0, cr6, {0}
    13cc:	000006d3 	ldrdeq	r0, [r0], -r3
    13d0:	03302201 	teqeq	r0, #268435456	; 0x10000000
    13d4:	06720000 	ldrbteq	r0, [r2], -r0
    13d8:	c70f0000 	strgt	r0, [pc, -r0]
    13dc:	01000006 	tsteq	r0, r6
    13e0:	00033024 	andeq	r3, r3, r4, lsr #32
    13e4:	740f3200 	strvc	r3, [pc], #-512	; 13ec <_start-0x6c14>
    13e8:	01000006 	tsteq	r0, r6
    13ec:	00033025 	andeq	r3, r3, r5, lsr #32
    13f0:	ae0e3200 	cdpge	2, 0, cr3, cr14, cr0, {0}
    13f4:	01000006 	tsteq	r0, r6
    13f8:	00033027 	andeq	r3, r3, r7, lsr #32
    13fc:	0006a800 	andeq	sl, r6, r0, lsl #16
    1400:	018c0e00 	orreq	r0, ip, r0, lsl #28
    1404:	29010000 	stmdbcs	r1, {}	; <UNPREDICTABLE>
    1408:	00000330 	andeq	r0, r0, r0, lsr r3
    140c:	000006d2 	ldrdeq	r0, [r0], -r2
    1410:	00062c0e 	andeq	r2, r6, lr, lsl #24
    1414:	302a0100 	eorcc	r0, sl, r0, lsl #2
    1418:	34000003 	strcc	r0, [r0], #-3
    141c:	0e000007 	cdpeq	0, 0, cr0, cr0, cr7, {0}
    1420:	00000622 	andeq	r0, r0, r2, lsr #12
    1424:	03302b01 	teqeq	r0, #1024	; 0x400
    1428:	077a0000 	ldrbeq	r0, [sl, -r0]!
    142c:	a40e0000 	strge	r0, [lr], #-0
    1430:	01000006 	tsteq	r0, r6
    1434:	0003302c 	andeq	r3, r3, ip, lsr #32
    1438:	00080600 	andeq	r0, r8, r0, lsl #12
    143c:	883c1000 	ldmdahi	ip!, {ip}
    1440:	03cc0000 	biceq	r0, ip, #0
    1444:	800e0000 	andhi	r0, lr, r0
    1448:	01000006 	tsteq	r0, r6
    144c:	000330b1 	strheq	r3, [r3], -r1
    1450:	00089200 	andeq	r9, r8, r0, lsl #4
    1454:	88601100 	stmdahi	r0!, {r8, ip}^
    1458:	00100000 	andseq	r0, r0, r0
    145c:	04b60000 	ldrteq	r0, [r6], #0
    1460:	39120000 	ldmdbcc	r2, {}	; <UNPREDICTABLE>
    1464:	01000008 	tsteq	r0, r8
    1468:	0003303c 	andeq	r3, r3, ip, lsr r0
    146c:	00049c00 	andeq	r9, r4, r0, lsl #24
    1470:	14001300 	strne	r1, [r0], #-768	; 0x300
    1474:	00008870 	andeq	r8, r0, r0, ror r8
    1478:	0000063f 	andeq	r0, r0, pc, lsr r6
    147c:	02510115 	subseq	r0, r1, #1073741829	; 0x40000005
    1480:	01150078 	tsteq	r5, r8, ror r0
    1484:	d8030550 	stmdale	r3, {r4, r6, r8, sl}
    1488:	000000c6 	andeq	r0, r0, r6, asr #1
    148c:	88801100 	stmhi	r0, {r8, ip}
    1490:	00180000 	andseq	r0, r8, r0
    1494:	04ef0000 	strbteq	r0, [pc], #0	; 149c <_start-0x6b64>
    1498:	39120000 	ldmdbcc	r2, {}	; <UNPREDICTABLE>
    149c:	01000008 	tsteq	r0, r8
    14a0:	0003303c 	andeq	r3, r3, ip, lsr r0
    14a4:	0004d400 	andeq	sp, r4, r0, lsl #8
    14a8:	14001300 	strne	r1, [r0], #-768	; 0x300
    14ac:	00008898 	muleq	r0, r8, r8
    14b0:	0000063f 	andeq	r0, r0, pc, lsr r6
    14b4:	03510115 	cmpeq	r1, #1073741829	; 0x40000005
    14b8:	1506007d 	strne	r0, [r6, #-125]	; 0x7d
    14bc:	03055001 	movweq	r5, #20481	; 0x5001
    14c0:	0000c6e4 	andeq	ip, r0, r4, ror #13
    14c4:	cc110000 	ldcgt	0, cr0, [r1], {-0}
    14c8:	7c000088 	stcvc	0, cr0, [r0], {136}	; 0x88
    14cc:	1b000000 	blne	14d4 <_start-0x6b2c>
    14d0:	0e000005 	cdpeq	0, 0, cr0, cr0, cr5, {0}
    14d4:	0000040a 	andeq	r0, r0, sl, lsl #8
    14d8:	03305b01 	teqeq	r0, #1024	; 0x400
    14dc:	08c80000 	stmiaeq	r8, {}^	; <UNPREDICTABLE>
    14e0:	d4140000 	ldrle	r0, [r4], #-0
    14e4:	50000088 	andpl	r0, r0, r8, lsl #1
    14e8:	15000006 	strne	r0, [r0, #-6]
    14ec:	30015001 	andcc	r5, r1, r1
    14f0:	94110000 	ldrls	r0, [r1], #-0
    14f4:	dc000089 	stcle	0, cr0, [r0], {137}	; 0x89
    14f8:	47000000 	strmi	r0, [r0, -r0]
    14fc:	0e000005 	cdpeq	0, 0, cr0, cr0, cr5, {0}
    1500:	0000061d 	andeq	r0, r0, sp, lsl r6
    1504:	03307b01 	teqeq	r0, #1024	; 0x400
    1508:	08e60000 	stmiaeq	r6!, {}^	; <UNPREDICTABLE>
    150c:	9c140000 	ldcls	0, cr0, [r4], {-0}
    1510:	50000089 	andpl	r0, r0, r9, lsl #1
    1514:	15000006 	strne	r0, [r0, #-6]
    1518:	31015001 	tstcc	r1, r1
    151c:	78110000 	ldmdavc	r1, {}	; <UNPREDICTABLE>
    1520:	dc00008a 	stcle	0, cr0, [r0], {138}	; 0x8a
    1524:	73000000 	movwvc	r0, #0
    1528:	0e000005 	cdpeq	0, 0, cr0, cr0, cr5, {0}
    152c:	0000069f 	muleq	r0, pc, r6	; <UNPREDICTABLE>
    1530:	03309701 	teqeq	r0, #262144	; 0x40000
    1534:	090f0000 	stmdbeq	pc, {}	; <UNPREDICTABLE>
    1538:	80140000 	andshi	r0, r4, r0
    153c:	5000008a 	andpl	r0, r0, sl, lsl #1
    1540:	15000006 	strne	r0, [r0, #-6]
    1544:	32015001 	andcc	r5, r1, #1
    1548:	4c160000 	ldcmi	0, cr0, [r6], {-0}
    154c:	6c000088 	stcvs	0, cr0, [r0], {136}	; 0x88
    1550:	86000006 	strhi	r0, [r0], -r6
    1554:	15000005 	strne	r0, [r0, #-5]
    1558:	40015001 	andmi	r5, r1, r1
    155c:	885c1600 	ldmdahi	ip, {r9, sl, ip}^
    1560:	066c0000 	strbteq	r0, [ip], -r0
    1564:	05990000 	ldreq	r0, [r9]
    1568:	01150000 	tsteq	r5, r0
    156c:	00440150 	subeq	r0, r4, r0, asr r1
    1570:	00887816 	addeq	r7, r8, r6, lsl r8
    1574:	00066c00 	andeq	r6, r6, r0, lsl #24
    1578:	0005ac00 	andeq	sl, r5, r0, lsl #24
    157c:	50011500 	andpl	r1, r1, r0, lsl #10
    1580:	16004501 	strne	r4, [r0], -r1, lsl #10
    1584:	0000896c 	andeq	r8, r0, ip, ror #18
    1588:	00000650 	andeq	r0, r0, r0, asr r6
    158c:	000005bf 			; <UNDEFINED> instruction: 0x000005bf
    1590:	01500115 	cmpeq	r0, r5, lsl r1
    1594:	08140033 	ldmdaeq	r4, {r0, r1, r4, r5}
    1598:	8100008c 	smlabbhi	r0, ip, r0, r0
    159c:	15000006 	strne	r0, [r0, #-6]
    15a0:	91045101 	tstls	r4, r1, lsl #2
    15a4:	15067fb8 	strne	r7, [r6, #-4024]	; 0xfb8
    15a8:	74295001 	strtvc	r5, [r9], #-1
    15ac:	07fc7400 	ldrbeq	r7, [ip, r0, lsl #8]!
    15b0:	2a300074 	bcs	c01788 <__bss_end__+0xbf5080>
    15b4:	16000128 	strne	r0, [r0], -r8, lsr #2
    15b8:	74032313 	strvc	r2, [r3], #-787	; 0x313
    15bc:	07fc7400 	ldrbeq	r7, [ip, r0, lsl #8]!
    15c0:	2a300074 	bcs	c01798 <__bss_end__+0xbf5090>
    15c4:	16000128 	strne	r0, [r0], -r8, lsr #2
    15c8:	30007413 	andcc	r7, r0, r3, lsl r4
    15cc:	0001282d 	andeq	r2, r1, sp, lsr #16
    15d0:	263a1316 			; <UNDEFINED> instruction: 0x263a1316
    15d4:	17000000 	strne	r0, [r0, -r0]
    15d8:	0001ab04 	andeq	sl, r1, r4, lsl #22
    15dc:	00131800 	andseq	r1, r3, r0, lsl #16
    15e0:	15040000 	strne	r0, [r4, #-0]
    15e4:	0000034d 	andeq	r0, r0, sp, asr #6
    15e8:	0000c318 	andeq	ip, r0, r8, lsl r3
    15ec:	4d380400 	cfldrsmi	mvf0, [r8, #-0]
    15f0:	18000003 	stmdane	r0, {r0, r1}
    15f4:	00000035 	andeq	r0, r0, r5, lsr r0
    15f8:	034d8f04 	movteq	r8, #57092	; 0xdf04
    15fc:	30190000 	andscc	r0, r9, r0
    1600:	04000000 	streq	r0, [r0], #-0
    1604:	034d016a 	movteq	r0, #53610	; 0xd16a
    1608:	63190000 	tstvs	r9, #0
    160c:	04000000 	streq	r0, [r0], #-0
    1610:	034d0243 	movteq	r0, #53827	; 0xd243
    1614:	39120000 	ldmdbcc	r2, {}	; <UNPREDICTABLE>
    1618:	01000008 	tsteq	r0, r8
    161c:	0003303c 	andeq	r3, r3, ip, lsr r0
    1620:	00065000 	andeq	r5, r6, r0
    1624:	1a001300 	bne	622c <_start-0x1dd4>
    1628:	00000402 	andeq	r0, r0, r2, lsl #8
    162c:	06650505 	strbteq	r0, [r5], -r5, lsl #10
    1630:	06650000 	strbteq	r0, [r5], -r0
    1634:	651b0000 	ldrvs	r0, [fp, #-0]
    1638:	00000006 	andeq	r0, r0, r6
    163c:	2207040b 	andcs	r0, r7, #184549376	; 0xb000000
    1640:	1a000007 	bne	1664 <_start-0x699c>
    1644:	000003e0 	andeq	r0, r0, r0, ror #7
    1648:	06656103 	strbteq	r6, [r5], -r3, lsl #2
    164c:	06810000 	streq	r0, [r1], r0
    1650:	651b0000 	ldrvs	r0, [fp, #-0]
    1654:	00000006 	andeq	r0, r0, r6
    1658:	00019e1c 	andeq	r9, r1, ip, lsl lr
    165c:	1b540200 	blne	1501e64 <__bss_end__+0x14f575c>
    1660:	00000330 	andeq	r0, r0, r0, lsr r3
    1664:	0003301b 	andeq	r3, r3, fp, lsl r0
    1668:	be000000 	cdplt	0, 0, cr0, cr0, cr0, {0}
    166c:	04000002 	streq	r0, [r0], #-2
    1670:	00094600 	andeq	r4, r9, r0, lsl #12
    1674:	ec010400 	cfstrs	mvf0, [r1], {-0}
    1678:	01000006 	tsteq	r0, r6
    167c:	000007c2 	andeq	r0, r0, r2, asr #15
    1680:	0030002e 	eorseq	r0, r0, lr, lsr #32
    1684:	00000000 	andeq	r0, r0, r0
    1688:	04b60000 	ldrteq	r0, [r6], #0
    168c:	08020000 	stmdaeq	r2, {}	; <UNPREDICTABLE>
    1690:	00071807 	andeq	r1, r7, r7, lsl #16
    1694:	07040200 	streq	r0, [r4, -r0, lsl #4]
    1698:	00000722 	andeq	r0, r0, r2, lsr #14
    169c:	4f020103 	svcmi	0x00020103
    16a0:	00000070 	andeq	r0, r0, r0, ror r0
    16a4:	0007c904 	andeq	ip, r7, r4, lsl #18
    16a8:	f8040000 			; <UNDEFINED> instruction: 0xf8040000
    16ac:	01000006 	tsteq	r0, r6
    16b0:	00070904 	andeq	r0, r7, r4, lsl #18
    16b4:	a9040400 	stmdbge	r4, {sl}
    16b8:	05000007 	streq	r0, [r0, #-7]
    16bc:	00072f04 	andeq	r2, r7, r4, lsl #30
    16c0:	3e040600 	cfmadd32cc	mvax0, mvfx0, mvfx4, mvfx0
    16c4:	07000007 	streq	r0, [r0, -r7]
    16c8:	00074d04 	andeq	r4, r7, r4, lsl #26
    16cc:	5c040300 	stcpl	3, cr0, [r4], {-0}
    16d0:	02000007 	andeq	r0, r0, #7
    16d4:	00077004 	andeq	r7, r7, r4
    16d8:	05000800 	streq	r0, [r0, #-2048]	; 0x800
    16dc:	000007b8 			; <UNDEFINED> instruction: 0x000007b8
    16e0:	8c642101 	stfhie	f2, [r4], #-4
    16e4:	00100000 	andseq	r0, r0, r0
    16e8:	9c010000 	stcls	0, cr0, [r1], {-0}
    16ec:	0007d906 	andeq	sp, r7, r6, lsl #18
    16f0:	74240100 	strtvc	r0, [r4], #-256	; 0x100
    16f4:	6400008c 	strvs	r0, [r0], #-140	; 0x8c
    16f8:	01000000 	mrseq	r0, (UNDEF: 0)
    16fc:	0000ea9c 	muleq	r0, ip, sl
    1700:	69700700 	ldmdbvs	r0!, {r8, r9, sl}^
    1704:	2401006e 	strcs	r0, [r1], #-110	; 0x6e
    1708:	0000002a 	andeq	r0, r0, sl, lsr #32
    170c:	92085001 	andls	r5, r8, #1
    1710:	01000007 	tsteq	r0, r7
    1714:	00002a24 	andeq	r2, r0, r4, lsr #20
    1718:	00093800 	andeq	r3, r9, r0, lsl #16
    171c:	076b0900 	strbeq	r0, [fp, -r0, lsl #18]!
    1720:	2c010000 	stccs	0, cr0, [r1], {-0}
    1724:	0000002a 	andeq	r0, r0, sl, lsr #32
    1728:	720a5c01 	andvc	r5, sl, #256	; 0x100
    172c:	01006765 	tsteq	r0, r5, ror #14
    1730:	0000ea2d 	andeq	lr, r0, sp, lsr #20
    1734:	0b5c0100 	bleq	1701b3c <__bss_end__+0x16f5434>
    1738:	01006172 	tsteq	r0, r2, ror r1
    173c:	00002a2e 	andeq	r2, r0, lr, lsr #20
    1740:	00095900 	andeq	r5, r9, r0, lsl #18
    1744:	06db0c00 	ldrbeq	r0, [fp], r0, lsl #24
    1748:	2f010000 	svccs	0x00010000
    174c:	0000002a 	andeq	r0, r0, sl, lsr #32
    1750:	00000982 	andeq	r0, r0, r2, lsl #19
    1754:	f0040d00 			; <UNDEFINED> instruction: 0xf0040d00
    1758:	0e000000 	cdpeq	0, 0, cr0, cr0, cr0, {0}
    175c:	0000002a 	andeq	r0, r0, sl, lsr #32
    1760:	0007970f 	andeq	r9, r7, pc, lsl #14
    1764:	2a360100 	bcs	d81b6c <__bss_end__+0xd75464>
    1768:	d8000000 	stmdale	r0, {}	; <UNPREDICTABLE>
    176c:	5800008c 	stmdapl	r0, {r2, r3, r7}
    1770:	01000000 	mrseq	r0, (UNDEF: 0)
    1774:	0001599c 	muleq	r1, ip, r9
    1778:	69701000 	ldmdbvs	r0!, {ip}^
    177c:	3601006e 	strcc	r0, [r1], -lr, rrx
    1780:	0000002a 	andeq	r0, r0, sl, lsr #32
    1784:	000009c4 	andeq	r0, r0, r4, asr #19
    1788:	00076b0c 	andeq	r6, r7, ip, lsl #22
    178c:	2a3b0100 	bcs	ec1b94 <__bss_end__+0xeb548c>
    1790:	fe000000 	cdp2	0, 0, cr0, cr0, cr0, {0}
    1794:	0b000009 	bleq	17c0 <_start-0x6840>
    1798:	00676572 	rsbeq	r6, r7, r2, ror r5
    179c:	00ea3c01 	rsceq	r3, sl, r1, lsl #24
    17a0:	09fe0000 	ldmibeq	lr!, {}^	; <UNPREDICTABLE>
    17a4:	720b0000 	andvc	r0, fp, #0
    17a8:	3d010061 	stccc	0, cr0, [r1, #-388]	; 0xfffffe7c
    17ac:	0000002a 	andeq	r0, r0, sl, lsr #32
    17b0:	00000a6c 	andeq	r0, r0, ip, ror #20
    17b4:	0006db0c 	andeq	sp, r6, ip, lsl #22
    17b8:	2a3e0100 	bcs	f81bc0 <__bss_end__+0xf754b8>
    17bc:	7f000000 	svcvc	0x00000000
    17c0:	0000000a 	andeq	r0, r0, sl
    17c4:	00039d06 	andeq	r9, r3, r6, lsl #26
    17c8:	30430100 	subcc	r0, r3, r0, lsl #2
    17cc:	1800008d 	stmdane	r0, {r0, r2, r3, r7}
    17d0:	01000000 	mrseq	r0, (UNDEF: 0)
    17d4:	0001949c 	muleq	r1, ip, r4
    17d8:	69701000 	ldmdbvs	r0!, {ip}^
    17dc:	4301006e 	movwmi	r0, #4206	; 0x106e
    17e0:	0000002a 	andeq	r0, r0, sl, lsr #32
    17e4:	00000a92 	muleq	r0, r2, sl
    17e8:	008d4411 	addeq	r4, sp, r1, lsl r4
    17ec:	00008100 	andeq	r8, r0, r0, lsl #2
    17f0:	51011200 	mrspl	r1, R9_usr
    17f4:	01123001 	tsteq	r2, r1
    17f8:	01f30350 	mvnseq	r0, r0, asr r3
    17fc:	06000050 			; <UNDEFINED> instruction: 0x06000050
    1800:	00000782 	andeq	r0, r0, r2, lsl #15
    1804:	8d484701 	stclhi	7, cr4, [r8, #-4]
    1808:	00180000 	andseq	r0, r8, r0
    180c:	9c010000 	stcls	0, cr0, [r1], {-0}
    1810:	000001cf 	andeq	r0, r0, pc, asr #3
    1814:	6e697010 	mcrvs	0, 3, r7, cr9, cr0, {0}
    1818:	2a470100 	bcs	11c1c20 <__bss_end__+0x11b5518>
    181c:	b3000000 	movwlt	r0, #0
    1820:	1100000a 	tstne	r0, sl
    1824:	00008d5c 	andeq	r8, r0, ip, asr sp
    1828:	00000081 	andeq	r0, r0, r1, lsl #1
    182c:	01510112 	cmpeq	r1, r2, lsl r1
    1830:	50011231 	andpl	r1, r1, r1, lsr r2
    1834:	5001f303 	andpl	pc, r1, r3, lsl #6
    1838:	e1060000 	mrs	r0, (UNDEF: 6)
    183c:	01000006 	tsteq	r0, r6
    1840:	008d604c 	addeq	r6, sp, ip, asr #32
    1844:	00006000 	andeq	r6, r0, r0
    1848:	609c0100 	addsvs	r0, ip, r0, lsl #2
    184c:	10000002 	andne	r0, r0, r2
    1850:	006e6970 	rsbeq	r6, lr, r0, ror r9
    1854:	002a4c01 	eoreq	r4, sl, r1, lsl #24
    1858:	0ad40000 	beq	ff501860 <__bss_end__+0xff4f5158>
    185c:	76070000 	strvc	r0, [r7], -r0
    1860:	01006c61 	tsteq	r0, r1, ror #24
    1864:	00002a4c 	andeq	r2, r0, ip, asr #20
    1868:	0c510100 	ldfeqe	f0, [r1], {-0}
    186c:	000006db 	ldrdeq	r0, [r0], -fp
    1870:	002a5101 	eoreq	r5, sl, r1, lsl #2
    1874:	0b0e0000 	bleq	38187c <__bss_end__+0x375174>
    1878:	80130000 	andshi	r0, r3, r0
    187c:	1800008d 	stmdane	r0, {r0, r2, r3, r7}
    1880:	3b000000 	blcc	1888 <_start-0x6778>
    1884:	0c000002 	stceq	0, cr0, [r0], {2}
    1888:	0000076b 	andeq	r0, r0, fp, ror #14
    188c:	002a5401 	eoreq	r5, sl, r1, lsl #8
    1890:	0b4c0000 	bleq	1301898 <__bss_end__+0x12f5190>
    1894:	720b0000 	andvc	r0, fp, #0
    1898:	01006765 	tsteq	r0, r5, ror #14
    189c:	0000ea55 	andeq	lr, r0, r5, asr sl
    18a0:	000b4c00 	andeq	r4, fp, r0, lsl #24
    18a4:	9c140000 	ldcls	0, cr0, [r4], {-0}
    18a8:	2400008d 	strcs	r0, [r0], #-141	; 0x8d
    18ac:	09000000 	stmdbeq	r0, {}	; <UNPREDICTABLE>
    18b0:	0000076b 	andeq	r0, r0, fp, ror #14
    18b4:	002a5801 	eoreq	r5, sl, r1, lsl #16
    18b8:	50010000 	andpl	r0, r1, r0
    18bc:	6765720a 	strbvs	r7, [r5, -sl, lsl #4]!
    18c0:	ea590100 	b	1641cc8 <__bss_end__+0x16355c0>
    18c4:	01000000 	mrseq	r0, (UNDEF: 0)
    18c8:	15000050 	strne	r0, [r0, #-80]	; 0x50
    18cc:	000003e0 	andeq	r0, r0, r0, ror #7
    18d0:	002a5e01 	eoreq	r5, sl, r1, lsl #28
    18d4:	8dc00000 	stclhi	0, cr0, [r0]
    18d8:	00480000 	subeq	r0, r8, r0
    18dc:	9c010000 	stcls	0, cr0, [r1], {-0}
    18e0:	6e697010 	mcrvs	0, 3, r7, cr9, cr0, {0}
    18e4:	2a5e0100 	bcs	1781cec <__bss_end__+0x17755e4>
    18e8:	5f000000 	svcpl	0x00000000
    18ec:	0c00000b 	stceq	0, cr0, [r0], {11}
    18f0:	0000076b 	andeq	r0, r0, fp, ror #14
    18f4:	002a6301 	eoreq	r6, sl, r1, lsl #6
    18f8:	0b990000 	bleq	fe641900 <__bss_end__+0xfe6351f8>
    18fc:	720b0000 	andvc	r0, fp, #0
    1900:	01006765 	tsteq	r0, r5, ror #14
    1904:	0000ea64 	andeq	lr, r0, r4, ror #20
    1908:	000b9900 	andeq	r9, fp, r0, lsl #18
    190c:	61760b00 	cmnvs	r6, r0, lsl #22
    1910:	6501006c 	strvs	r0, [r1, #-108]	; 0x6c
    1914:	0000002a 	andeq	r0, r0, sl, lsr #32
    1918:	00000bd9 	ldrdeq	r0, [r0], -r9
    191c:	0006db0c 	andeq	sp, r6, ip, lsl #22
    1920:	2a660100 	bcs	1981d28 <__bss_end__+0x1975620>
    1924:	ec000000 	stc	0, cr0, [r0], {-0}
    1928:	0000000b 	andeq	r0, r0, fp
    192c:	0005e800 	andeq	lr, r5, r0, lsl #16
    1930:	87000400 	strhi	r0, [r0, -r0, lsl #8]
    1934:	0400000a 	streq	r0, [r0], #-10
    1938:	0006ec01 	andeq	lr, r6, r1, lsl #24
    193c:	08740100 	ldmdaeq	r4!, {r8}^
    1940:	002e0000 	eoreq	r0, lr, r0
    1944:	00000100 	andeq	r0, r0, r0, lsl #2
    1948:	00000000 	andeq	r0, r0, r0
    194c:	00000587 	andeq	r0, r0, r7, lsl #11
    1950:	00087d02 	andeq	r7, r8, r2, lsl #26
    1954:	2e280200 	cdpcs	2, 2, cr0, cr8, cr0, {0}
    1958:	03000000 	movweq	r0, #0
    195c:	0000081a 	andeq	r0, r0, sl, lsl r8
    1960:	45000304 	strmi	r0, [r0, #-772]	; 0x304
    1964:	04000000 	streq	r0, [r0], #-0
    1968:	00000840 	andeq	r0, r0, r0, asr #16
    196c:	00000045 	andeq	r0, r0, r5, asr #32
    1970:	04050000 	streq	r0, [r5], #-0
    1974:	00081c02 	andeq	r1, r8, r2, lsl #24
    1978:	23620200 	cmncs	r2, #0, 4
    197c:	06000000 	streq	r0, [r0], -r0
    1980:	00000853 	andeq	r0, r0, r3, asr r8
    1984:	8e080f01 	cdphi	15, 0, cr0, cr8, cr1, {0}
    1988:	00140000 	andseq	r0, r4, r0
    198c:	9c010000 	stcls	0, cr0, [r1], {-0}
    1990:	00000071 	andeq	r0, r0, r1, ror r0
    1994:	008e1807 	addeq	r1, lr, r7, lsl #16
    1998:	0005d700 	andeq	sp, r5, r0, lsl #14
    199c:	fc080000 	stc2	0, cr0, [r8], {-0}
    19a0:	01000007 	tsteq	r0, r7
    19a4:	0000be16 	andeq	fp, r0, r6, lsl lr
    19a8:	008e1c00 	addeq	r1, lr, r0, lsl #24
    19ac:	00003800 	andeq	r3, r0, r0, lsl #16
    19b0:	be9c0100 	fmllte	f0, f4, f0
    19b4:	09000000 	stmdbeq	r0, {}	; <UNPREDICTABLE>
    19b8:	0000084e 	andeq	r0, r0, lr, asr #16
    19bc:	00be1601 	adcseq	r1, lr, r1, lsl #12
    19c0:	0c0f0000 	stceq	0, cr0, [pc], {-0}
    19c4:	700a0000 	andvc	r0, sl, r0
    19c8:	0100776f 	tsteq	r0, pc, ror #14
    19cc:	0000be16 	andeq	fp, r0, r6, lsl lr
    19d0:	0b510100 	bleq	1441dd8 <__bss_end__+0x14356d0>
    19d4:	00008e28 	andeq	r8, r0, r8, lsr #28
    19d8:	00000024 	andeq	r0, r0, r4, lsr #32
    19dc:	0100690c 	tsteq	r0, ip, lsl #18
    19e0:	0000be17 	andeq	fp, r0, r7, lsl lr
    19e4:	000c2d00 	andeq	r2, ip, r0, lsl #26
    19e8:	0d000000 	stceq	0, cr0, [r0, #-0]
    19ec:	6e690504 	cdpvs	5, 6, cr0, cr9, cr4, {0}
    19f0:	2d080074 	stccs	0, cr0, [r8, #-464]	; 0xfffffe30
    19f4:	01000008 	tsteq	r0, r8
    19f8:	0000be21 	andeq	fp, r0, r1, lsr #28
    19fc:	008e5400 	addeq	r5, lr, r0, lsl #8
    1a00:	0000c800 	andeq	ip, r0, r0, lsl #16
    1a04:	899c0100 	ldmibhi	ip, {r8}
    1a08:	0e000001 	cdpeq	0, 0, cr0, cr0, cr1, {0}
    1a0c:	00667562 	rsbeq	r7, r6, r2, ror #10
    1a10:	01892101 	orreq	r2, r9, r1, lsl #2
    1a14:	0c4c0000 	mareq	acc0, r0, ip
    1a18:	6e0e0000 	cdpvs	0, 0, cr0, cr14, cr0, {0}
    1a1c:	be210100 	suflts	f0, f1, f0
    1a20:	6a000000 	bvs	1a28 <_start-0x65d8>
    1a24:	0a00000c 	beq	1a5c <_start-0x65a4>
    1a28:	006c6176 	rsbeq	r6, ip, r6, ror r1
    1a2c:	01962101 	orrseq	r2, r6, r1, lsl #2
    1a30:	52010000 	andpl	r0, r1, #0
    1a34:	00080d09 	andeq	r0, r8, r9, lsl #26
    1a38:	be210100 	suflts	f0, f1, f0
    1a3c:	8a000000 	bhi	1a44 <_start-0x65bc>
    1a40:	0f00000c 	svceq	0x0000000c
    1a44:	0000086a 	andeq	r0, r0, sl, ror #16
    1a48:	00be2301 	adcseq	r2, lr, r1, lsl #6
    1a4c:	0cab0000 	stceq	0, cr0, [fp]
    1a50:	450f0000 	strmi	r0, [pc, #-0]	; 1a58 <_start-0x65a8>
    1a54:	01000008 	tsteq	r0, r8
    1a58:	0000be2b 	andeq	fp, r0, fp, lsr #28
    1a5c:	000cca00 	andeq	ip, ip, r0, lsl #20
    1a60:	089c0f00 	ldmeq	ip, {r8, r9, sl, fp}
    1a64:	31010000 	mrscc	r0, (UNDEF: 1)
    1a68:	000000be 	strheq	r0, [r0], -lr
    1a6c:	00000ced 	andeq	r0, r0, sp, ror #25
    1a70:	00007010 	andeq	r7, r0, r0, lsl r0
    1a74:	00015a00 	andeq	r5, r1, r0, lsl #20
    1a78:	00740c00 	rsbseq	r0, r4, r0, lsl #24
    1a7c:	01962601 	orrseq	r2, r6, r1, lsl #12
    1a80:	0d0c0000 	stceq	0, cr0, [ip, #-0]
    1a84:	10000000 	andne	r0, r0, r0
    1a88:	00000088 	andeq	r0, r0, r8, lsl #1
    1a8c:	00000171 	andeq	r0, r0, r1, ror r1
    1a90:	0100690c 	tsteq	r0, ip, lsl #18
    1a94:	0000be32 	andeq	fp, r0, r2, lsr lr
    1a98:	000d2a00 	andeq	r2, sp, r0, lsl #20
    1a9c:	c00b0000 	andgt	r0, fp, r0
    1aa0:	3800008e 	stmdacc	r0, {r1, r2, r3, r7}
    1aa4:	0c000000 	stceq	0, cr0, [r0], {-0}
    1aa8:	37010069 	strcc	r0, [r1, -r9, rrx]
    1aac:	000000be 	strheq	r0, [r0], -lr
    1ab0:	00000d49 	andeq	r0, r0, r9, asr #26
    1ab4:	04110000 	ldreq	r0, [r1], #-0
    1ab8:	0000018f 	andeq	r0, r0, pc, lsl #3
    1abc:	4c080112 	stfmis	f0, [r8], {18}
    1ac0:	12000005 	andne	r0, r0, #5
    1ac4:	07220704 	streq	r0, [r2, -r4, lsl #14]!
    1ac8:	a5080000 	strge	r0, [r8, #-0]
    1acc:	01000008 	tsteq	r0, r8
    1ad0:	0000be45 	andeq	fp, r0, r5, asr #28
    1ad4:	008f1c00 	addeq	r1, pc, r0, lsl #24
    1ad8:	0000d800 	andeq	sp, r0, r0, lsl #16
    1adc:	769c0100 	ldrvc	r0, [ip], r0, lsl #2
    1ae0:	0e000002 	cdpeq	0, 0, cr0, cr0, cr2, {0}
    1ae4:	00667562 	rsbeq	r7, r6, r2, ror #10
    1ae8:	01894501 	orreq	r4, r9, r1, lsl #10
    1aec:	0d670000 	stcleq	0, cr0, [r7, #-0]
    1af0:	6e0e0000 	cdpvs	0, 0, cr0, cr14, cr0, {0}
    1af4:	be450100 	dvflts	f0, f5, f0
    1af8:	85000000 	strhi	r0, [r0, #-0]
    1afc:	0a00000d 	beq	1b38 <_start-0x64c8>
    1b00:	006c6176 	rsbeq	r6, ip, r6, ror r1
    1b04:	01964501 	orrseq	r4, r6, r1, lsl #10
    1b08:	52010000 	andpl	r0, r1, #0
    1b0c:	00080d09 	andeq	r0, r8, r9, lsl #26
    1b10:	be450100 	dvflts	f0, f5, f0
    1b14:	a5000000 	strge	r0, [r0, #-0]
    1b18:	0f00000d 	svceq	0x0000000d
    1b1c:	0000086a 	andeq	r0, r0, sl, ror #16
    1b20:	00be4801 	adcseq	r4, lr, r1, lsl #16
    1b24:	0dc60000 	stcleq	0, cr0, [r6]
    1b28:	450f0000 	strmi	r0, [pc, #-0]	; 1b30 <_start-0x64d0>
    1b2c:	01000008 	tsteq	r0, r8
    1b30:	0000be4f 	andeq	fp, r0, pc, asr #28
    1b34:	000de500 	andeq	lr, sp, r0, lsl #10
    1b38:	089c0f00 	ldmeq	ip, {r8, r9, sl, fp}
    1b3c:	55010000 	strpl	r0, [r1, #-0]
    1b40:	000000be 	strheq	r0, [r0], -lr
    1b44:	00000e08 	andeq	r0, r0, r8, lsl #28
    1b48:	0000a010 	andeq	sl, r0, r0, lsl r0
    1b4c:	00023200 	andeq	r3, r2, r0, lsl #4
    1b50:	00740c00 	rsbseq	r0, r4, r0, lsl #24
    1b54:	01964a01 	orrseq	r4, r6, r1, lsl #20
    1b58:	0e270000 	cdpeq	0, 2, cr0, cr7, cr0, {0}
    1b5c:	10000000 	andne	r0, r0, r0
    1b60:	000000b8 	strheq	r0, [r0], -r8
    1b64:	00000249 	andeq	r0, r0, r9, asr #4
    1b68:	0100690c 	tsteq	r0, ip, lsl #18
    1b6c:	0000be56 	andeq	fp, r0, r6, asr lr
    1b70:	000e4500 	andeq	r4, lr, r0, lsl #10
    1b74:	880b0000 	stmdahi	fp, {}	; <UNPREDICTABLE>
    1b78:	4800008f 	stmdami	r0, {r0, r1, r2, r3, r7}
    1b7c:	0c000000 	stceq	0, cr0, [r0], {-0}
    1b80:	5b010069 	blpl	41d2c <__bss_end__+0x35624>
    1b84:	000000be 	strheq	r0, [r0], -lr
    1b88:	00000e64 	andeq	r0, r0, r4, ror #28
    1b8c:	0000d013 	andeq	sp, r0, r3, lsl r0
    1b90:	08960f00 	ldmeq	r6, {r8, r9, sl, fp}
    1b94:	5d010000 	stcpl	0, cr0, [r1, #-0]
    1b98:	000000be 	strheq	r0, [r0], -lr
    1b9c:	00000e82 	andeq	r0, r0, r2, lsl #29
    1ba0:	08000000 	stmdaeq	r0, {}	; <UNPREDICTABLE>
    1ba4:	00000824 	andeq	r0, r0, r4, lsr #16
    1ba8:	00be6f01 	adcseq	r6, lr, r1, lsl #30
    1bac:	8ff40000 	svchi	0x00f40000
    1bb0:	014c0000 	mrseq	r0, (UNDEF: 76)
    1bb4:	9c010000 	stcls	0, cr0, [r1], {-0}
    1bb8:	00000368 	andeq	r0, r0, r8, ror #6
    1bbc:	6675620e 	ldrbtvs	r6, [r5], -lr, lsl #4
    1bc0:	896f0100 	stmdbhi	pc!, {r8}^	; <UNPREDICTABLE>
    1bc4:	bb000001 	bllt	1bd0 <_start-0x6430>
    1bc8:	0e00000e 	cdpeq	0, 0, cr0, cr0, cr14, {0}
    1bcc:	6f01006e 	svcvs	0x0001006e
    1bd0:	000000be 	strheq	r0, [r0], -lr
    1bd4:	00000ee7 	andeq	r0, r0, r7, ror #29
    1bd8:	6c61760e 	stclvs	6, cr7, [r1], #-56	; 0xffffffc8
    1bdc:	be6f0100 	powlte	f0, f7, f0
    1be0:	12000000 	andne	r0, r0, #0
    1be4:	0900000f 	stmdbeq	r0, {r0, r1, r2, r3}
    1be8:	0000080d 	andeq	r0, r0, sp, lsl #16
    1bec:	00be6f01 	adcseq	r6, lr, r1, lsl #30
    1bf0:	0f300000 	svceq	0x00300000
    1bf4:	5f0f0000 	svcpl	0x000f0000
    1bf8:	01000008 	tsteq	r0, r8
    1bfc:	00018f70 	andeq	r8, r1, r0, ror pc
    1c00:	000f5100 	andeq	r5, pc, r0, lsl #2
    1c04:	086a0f00 	stmdaeq	sl!, {r8, r9, sl, fp}^
    1c08:	77010000 	strvc	r0, [r1, -r0]
    1c0c:	000000be 	strheq	r0, [r0], -lr
    1c10:	00000f78 	andeq	r0, r0, r8, ror pc
    1c14:	0008450f 	andeq	r4, r8, pc, lsl #10
    1c18:	be7d0100 	rpwlte	f0, f5, f0
    1c1c:	a1000000 	mrsge	r0, (UNDEF: 0)
    1c20:	0f00000f 	svceq	0x0000000f
    1c24:	0000089c 	muleq	r0, ip, r8
    1c28:	00be8301 	adcseq	r8, lr, r1, lsl #6
    1c2c:	0fc40000 	svceq	0x00c40000
    1c30:	e8100000 	ldmda	r0, {}	; <UNPREDICTABLE>
    1c34:	1c000000 	stcne	0, cr0, [r0], {-0}
    1c38:	0c000003 	stceq	0, cr0, [r0], {3}
    1c3c:	78010074 	stmdavc	r1, {r2, r4, r5, r6}
    1c40:	000000be 	strheq	r0, [r0], -lr
    1c44:	00000fee 	andeq	r0, r0, lr, ror #31
    1c48:	90881400 	addls	r1, r8, r0, lsl #8
    1c4c:	00280000 	eoreq	r0, r8, r0
    1c50:	03370000 	teqeq	r7, #0
    1c54:	690c0000 	stmdbvs	ip, {}	; <UNPREDICTABLE>
    1c58:	be8a0100 	rmflte	f0, f2, f0
    1c5c:	22000000 	andcs	r0, r0, #0
    1c60:	00000010 	andeq	r0, r0, r0, lsl r0
    1c64:	0090b40b 	addseq	fp, r0, fp, lsl #8
    1c68:	00005c00 	andeq	r5, r0, r0, lsl #24
    1c6c:	00690c00 	rsbeq	r0, r9, r0, lsl #24
    1c70:	00be9101 	adcseq	r9, lr, r1, lsl #2
    1c74:	10350000 	eorsne	r0, r5, r0
    1c78:	dc150000 	ldcle	0, cr0, [r5], {-0}
    1c7c:	71000090 	swpvc	r0, r0, [r0]	; <UNPREDICTABLE>
    1c80:	16000000 	strne	r0, [r0], -r0
    1c84:	7a055101 	bvc	156090 <__bss_end__+0x149988>
    1c88:	1c007500 	cfstr32ne	mvfx7, [r0], {-0}
    1c8c:	02500116 	subseq	r0, r0, #-2147483643	; 0x80000005
    1c90:	00000079 	andeq	r0, r0, r9, ror r0
    1c94:	08360800 	ldmdaeq	r6!, {fp}
    1c98:	9f010000 	svcls	0x00010000
    1c9c:	000000be 	strheq	r0, [r0], -lr
    1ca0:	00009140 	andeq	r9, r0, r0, asr #2
    1ca4:	000001e0 	andeq	r0, r0, r0, ror #3
    1ca8:	047e9c01 	ldrbteq	r9, [lr], #-3073	; 0xc01
    1cac:	620e0000 	andvs	r0, lr, #0
    1cb0:	01006675 	tsteq	r0, r5, ror r6
    1cb4:	0001899f 	muleq	r1, pc, r9	; <UNPREDICTABLE>
    1cb8:	00105400 	andseq	r5, r0, r0, lsl #8
    1cbc:	00a20900 	adceq	r0, r2, r0, lsl #18
    1cc0:	9f010000 	svcls	0x00010000
    1cc4:	000000be 	strheq	r0, [r0], -lr
    1cc8:	0000109e 	muleq	r0, lr, r0
    1ccc:	00081309 	andeq	r1, r8, r9, lsl #6
    1cd0:	7e9f0100 	fmlvce	f0, f7, f0
    1cd4:	c7000004 	strgt	r0, [r0, -r4]
    1cd8:	0e000010 	mcreq	0, 0, r0, cr0, cr0, {0}
    1cdc:	01007061 	tsteq	r0, r1, rrx
    1ce0:	0000479f 	muleq	r0, pc, r7	; <UNPREDICTABLE>
    1ce4:	0010f300 	andseq	pc, r0, r0, lsl #6
    1ce8:	089c0f00 	ldmeq	ip, {r8, r9, sl, fp}
    1cec:	a0010000 	andge	r0, r1, r0
    1cf0:	000000be 	strheq	r0, [r0], -lr
    1cf4:	00001127 	andeq	r1, r0, r7, lsr #2
    1cf8:	0007f50f 	andeq	pc, r7, pc, lsl #10
    1cfc:	7ea10100 	fdvvcs	f0, f1, f0
    1d00:	52000004 	andpl	r0, r0, #4
    1d04:	0c000011 	stceq	0, cr0, [r0], {17}
    1d08:	a2010063 	andge	r0, r1, #99	; 0x63
    1d0c:	0000018f 	andeq	r0, r0, pc, lsl #3
    1d10:	000011c8 	andeq	r1, r0, r8, asr #3
    1d14:	7274730c 	rsbsvc	r7, r4, #12, 6	; 0x30000000
    1d18:	89a20100 	stmibhi	r2!, {r8}
    1d1c:	7e000001 	cdpvc	0, 0, cr0, cr0, cr1, {0}
    1d20:	0f000012 	svceq	0x00000012
    1d24:	0000080d 	andeq	r0, r0, sp, lsl #16
    1d28:	00bea301 	adcseq	sl, lr, r1, lsl #6
    1d2c:	12910000 	addsne	r0, r1, #0
    1d30:	960f0000 	strls	r0, [pc], -r0
    1d34:	01000008 	tsteq	r0, r8
    1d38:	0000bea3 	andeq	fp, r0, r3, lsr #29
    1d3c:	0012fe00 	andseq	pc, r2, r0, lsl #28
    1d40:	00650c00 	rsbeq	r0, r5, r0, lsl #24
    1d44:	00bea401 	adcseq	sl, lr, r1, lsl #8
    1d48:	13110000 	tstne	r1, #0
    1d4c:	b0170000 	andslt	r0, r7, r0
    1d50:	76000092 			; <UNDEFINED> instruction: 0x76000092
    1d54:	41000002 	tstmi	r0, r2
    1d58:	16000004 	strne	r0, [r0], -r4
    1d5c:	78055101 	stmdavc	r5, {r0, r8, ip, lr}
    1d60:	1c007400 	cfstrsne	mvf7, [r0], {-0}
    1d64:	05500116 	ldrbeq	r0, [r0, #-278]	; 0x116
    1d68:	00740077 	rsbseq	r0, r4, r7, ror r0
    1d6c:	d0170022 	andsle	r0, r7, r2, lsr #32
    1d70:	9d000092 	stcls	0, cr0, [r0, #-584]	; 0xfffffdb8
    1d74:	61000001 	tstvs	r0, r1
    1d78:	16000004 	strne	r0, [r0], -r4
    1d7c:	78055101 	stmdavc	r5, {r0, r8, ip, lr}
    1d80:	1c007400 	cfstrsne	mvf7, [r0], {-0}
    1d84:	05500116 	ldrbeq	r0, [r0, #-278]	; 0x116
    1d88:	00740077 	rsbseq	r0, r4, r7, ror r0
    1d8c:	f0150022 			; <UNDEFINED> instruction: 0xf0150022
    1d90:	c5000092 	strgt	r0, [r0, #-146]	; 0x92
    1d94:	16000000 	strne	r0, [r0], -r0
    1d98:	78055101 	stmdavc	r5, {r0, r8, ip, lr}
    1d9c:	1c007400 	cfstrsne	mvf7, [r0], {-0}
    1da0:	05500116 	ldrbeq	r0, [r0, #-278]	; 0x116
    1da4:	00740077 	rsbseq	r0, r4, r7, ror r0
    1da8:	11000022 	tstne	r0, r2, lsr #32
    1dac:	00048404 	andeq	r8, r4, r4, lsl #8
    1db0:	018f1800 	orreq	r1, pc, r0, lsl #16
    1db4:	37190000 	ldrcc	r0, [r9, -r0]
    1db8:	01000008 	tsteq	r0, r8
    1dbc:	00be0101 	adcseq	r0, lr, r1, lsl #2
    1dc0:	93200000 	teqls	r0, #0
    1dc4:	002c0000 	eoreq	r0, ip, r0
    1dc8:	9c010000 	stcls	0, cr0, [r1], {-0}
    1dcc:	00000515 	andeq	r0, r0, r5, lsl r5
    1dd0:	6675621a 			; <UNDEFINED> instruction: 0x6675621a
    1dd4:	01010100 	mrseq	r0, (UNDEF: 17)
    1dd8:	00000189 	andeq	r0, r0, r9, lsl #3
    1ddc:	00001350 	andeq	r1, r0, r0, asr r3
    1de0:	0000a21b 	andeq	sl, r0, fp, lsl r2
    1de4:	01010100 	mrseq	r0, (UNDEF: 17)
    1de8:	000000be 	strheq	r0, [r0], -lr
    1dec:	00001371 	andeq	r1, r0, r1, ror r3
    1df0:	0008131c 	andeq	r1, r8, ip, lsl r3
    1df4:	01010100 	mrseq	r0, (UNDEF: 17)
    1df8:	0000047e 	andeq	r0, r0, lr, ror r4
    1dfc:	1d789102 	ldfnep	f1, [r8, #-8]!
    1e00:	0070611e 	rsbseq	r6, r0, lr, lsl r1
    1e04:	47010201 	strmi	r0, [r1, -r1, lsl #4]
    1e08:	02000000 	andeq	r0, r0, #0
    1e0c:	9c1f6491 	cfldrsls	mvf6, [pc], {145}	; 0x91
    1e10:	01000008 	tsteq	r0, r8
    1e14:	00be0104 	adcseq	r0, lr, r4, lsl #2
    1e18:	50010000 	andpl	r0, r1, r0
    1e1c:	00934415 	addseq	r4, r3, r5, lsl r4
    1e20:	00036800 	andeq	r6, r3, r0, lsl #16
    1e24:	53011600 	movwpl	r1, #5632	; 0x1600
    1e28:	167c9102 	ldrbtne	r9, [ip], -r2, lsl #2
    1e2c:	91035201 	tstls	r3, r1, lsl #4
    1e30:	01160678 	tsteq	r6, r8, ror r6
    1e34:	01f30351 	mvnseq	r0, r1, asr r3
    1e38:	50011651 	andpl	r1, r1, r1, asr r6
    1e3c:	5001f303 	andpl	pc, r1, r3, lsl #6
    1e40:	39190000 	ldmdbcc	r9, {}	; <UNPREDICTABLE>
    1e44:	01000008 	tsteq	r0, r8
    1e48:	00be0109 	adcseq	r0, lr, r9, lsl #2
    1e4c:	934c0000 	movtls	r0, #49152	; 0xc000
    1e50:	00680000 	rsbeq	r0, r8, r0
    1e54:	9c010000 	stcls	0, cr0, [r1], {-0}
    1e58:	000005bf 			; <UNDEFINED> instruction: 0x000005bf
    1e5c:	0008131c 	andeq	r1, r8, ip, lsl r3
    1e60:	01090100 	mrseq	r0, (UNDEF: 25)
    1e64:	0000047e 	andeq	r0, r0, lr, ror r4
    1e68:	1d709102 	ldfnep	f1, [r0, #-8]!
    1e6c:	6675621e 			; <UNDEFINED> instruction: 0x6675621e
    1e70:	010a0100 	mrseq	r0, (UNDEF: 26)
    1e74:	000005bf 			; <UNDEFINED> instruction: 0x000005bf
    1e78:	77d89103 	ldrbvc	r9, [r8, r3, lsl #2]
    1e7c:	01006320 	tsteq	r0, r0, lsr #6
    1e80:	018f010b 	orreq	r0, pc, fp, lsl #2
    1e84:	13920000 	orrsne	r0, r2, #0
    1e88:	70200000 	eorvc	r0, r0, r0
    1e8c:	01007274 	tsteq	r0, r4, ror r2
    1e90:	0189010b 	orreq	r0, r9, fp, lsl #2
    1e94:	13b20000 			; <UNDEFINED> instruction: 0x13b20000
    1e98:	611e0000 	tstvs	lr, r0
    1e9c:	0c010070 	stceq	0, cr0, [r1], {112}	; 0x70
    1ea0:	00004701 	andeq	r4, r0, r1, lsl #14
    1ea4:	d4910300 	ldrle	r0, [r1], #768	; 0x300
    1ea8:	089c2177 	ldmeq	ip, {r0, r1, r2, r4, r5, r6, r8, sp}
    1eac:	0e010000 	cdpeq	0, 0, cr0, cr1, cr0, {0}
    1eb0:	0000be01 	andeq	fp, r0, r1, lsl #28
    1eb4:	0013e900 	andseq	lr, r3, r0, lsl #18
    1eb8:	93801700 	orrls	r1, r0, #0, 14
    1ebc:	03680000 	cmneq	r8, #0
    1ec0:	05b50000 	ldreq	r0, [r5, #0]!
    1ec4:	01160000 	tsteq	r6, r0
    1ec8:	74910253 	ldrvc	r0, [r1], #595	; 0x253
    1ecc:	03520116 	cmpeq	r2, #-2147483643	; 0x80000005
    1ed0:	16067091 			; <UNDEFINED> instruction: 0x16067091
    1ed4:	0a035101 	beq	d62e0 <__bss_end__+0xc9bd8>
    1ed8:	01160400 	tsteq	r6, r0, lsl #8
    1edc:	d8910350 	ldmle	r1, {r4, r6, r8, r9}
    1ee0:	94070077 	strls	r0, [r7], #-119	; 0x77
    1ee4:	de000093 	mcrle	0, 0, r0, cr0, cr3, {4}
    1ee8:	00000005 	andeq	r0, r0, r5
    1eec:	00018f22 	andeq	r8, r1, r2, lsr #30
    1ef0:	0005d000 	andeq	sp, r5, r0
    1ef4:	05d02300 	ldrbeq	r2, [r0, #768]	; 0x300
    1ef8:	03ff0000 	mvnseq	r0, #0
    1efc:	07041200 	streq	r1, [r4, -r0, lsl #4]
    1f00:	00000022 	andeq	r0, r0, r2, lsr #32
    1f04:	0007eb24 	andeq	lr, r7, r4, lsr #22
    1f08:	250b0400 	strcs	r0, [fp, #-1024]	; 0x400
    1f0c:	0000088c 	andeq	r0, r0, ip, lsl #17
    1f10:	96260d04 	strtls	r0, [r6], -r4, lsl #26
    1f14:	00000001 	andeq	r0, r0, r1
    1f18:	0001ad00 	andeq	sl, r1, r0, lsl #26
    1f1c:	88000400 	stmdahi	r0, {sl}
    1f20:	0400000c 	streq	r0, [r0], #-12
    1f24:	0006ec01 	andeq	lr, r6, r1, lsl #24
    1f28:	08d60100 	ldmeq	r6, {r8}^
    1f2c:	002e0000 	eoreq	r0, lr, r0
    1f30:	00000148 	andeq	r0, r0, r8, asr #2
    1f34:	00000000 	andeq	r0, r0, r0
    1f38:	000007f9 	strdeq	r0, [r0], -r9
    1f3c:	0008c602 	andeq	ip, r8, r2, lsl #12
    1f40:	b4080100 	strlt	r0, [r8], #-256	; 0x100
    1f44:	10000093 	mulne	r0, r3, r0
    1f48:	01000000 	mrseq	r0, (UNDEF: 0)
    1f4c:	08ae039c 	stmiaeq	lr!, {r2, r3, r4, r7, r8, r9}
    1f50:	0a010000 	beq	41f58 <__bss_end__+0x35850>
    1f54:	0000005d 	andeq	r0, r0, sp, asr r0
    1f58:	000093c4 	andeq	r9, r0, r4, asr #7
    1f5c:	0000001c 	andeq	r0, r0, ip, lsl r0
    1f60:	005d9c01 	subseq	r9, sp, r1, lsl #24
    1f64:	ae040000 	cdpge	0, 0, cr0, cr4, cr0, {0}
    1f68:	01000006 	tsteq	r0, r6
    1f6c:	0000640b 	andeq	r6, r0, fp, lsl #8
    1f70:	00300400 	eorseq	r0, r0, r0, lsl #8
    1f74:	04050020 	streq	r0, [r5], #-32
    1f78:	00072207 	andeq	r2, r7, r7, lsl #4
    1f7c:	6a040600 	bvs	103784 <__bss_end__+0xf707c>
    1f80:	07000000 	streq	r0, [r0, -r0]
    1f84:	0000005d 	andeq	r0, r0, sp, asr r0
    1f88:	0001ae08 	andeq	sl, r1, r8, lsl #28
    1f8c:	e00f0100 	and	r0, pc, r0, lsl #2
    1f90:	2c000093 	stccs	0, cr0, [r0], {147}	; 0x93
    1f94:	01000000 	mrseq	r0, (UNDEF: 0)
    1f98:	0000cd9c 	muleq	r0, ip, sp
    1f9c:	73750900 	cmnvc	r5, #0, 18
    1fa0:	5d0f0100 	stfpls	f0, [pc, #-0]	; 1fa8 <_start-0x6058>
    1fa4:	07000000 	streq	r0, [r0, -r0]
    1fa8:	0a000014 	beq	2000 <_start-0x6000>
    1fac:	01006272 	tsteq	r0, r2, ror r2
    1fb0:	00005d10 	andeq	r5, r0, r0, lsl sp
    1fb4:	0b540100 	bleq	15023bc <__bss_end__+0x14f5cb4>
    1fb8:	000093f8 	strdeq	r9, [r0], -r8
    1fbc:	00000010 	andeq	r0, r0, r0, lsl r0
    1fc0:	000000c3 	andeq	r0, r0, r3, asr #1
    1fc4:	0061720c 	rsbeq	r7, r1, ip, lsl #4
    1fc8:	005d1201 	subseq	r1, sp, r1, lsl #4
    1fcc:	14250000 	strtne	r0, [r5], #-0
    1fd0:	fc0d0000 	stc2	0, cr0, [sp], {-0}
    1fd4:	34000093 	strcc	r0, [r0], #-147	; 0x93
    1fd8:	00000000 	andeq	r0, r0, r0
    1fdc:	0093f40d 	addseq	pc, r3, sp, lsl #8
    1fe0:	00003400 	andeq	r3, r0, r0, lsl #8
    1fe4:	f0080000 			; <UNDEFINED> instruction: 0xf0080000
    1fe8:	01000008 	tsteq	r0, r8
    1fec:	00940c19 	addseq	r0, r4, r9, lsl ip
    1ff0:	00003400 	andeq	r3, r0, r0, lsl #8
    1ff4:	0e9c0100 	fmleqe	f0, f4, f0
    1ff8:	09000001 	stmdbeq	r0, {r0}
    1ffc:	0100736d 	tsteq	r0, sp, ror #6
    2000:	00005d19 	andeq	r5, r0, r9, lsl sp
    2004:	00143800 	andseq	r3, r4, r0, lsl #16
    2008:	00690c00 	rsbeq	r0, r9, r0, lsl #24
    200c:	010e1a01 	tsteq	lr, r1, lsl #20
    2010:	14560000 	ldrbne	r0, [r6], #-0
    2014:	300e0000 	andcc	r0, lr, r0
    2018:	6f000094 	svcvs	0x00000094
    201c:	0f000000 	svceq	0x00000000
    2020:	76025001 	strvc	r5, [r2], -r1
    2024:	10000000 	andne	r0, r0, r0
    2028:	6e690504 	cdpvs	5, 6, cr0, cr9, cr4, {0}
    202c:	ea080074 	b	202204 <__bss_end__+0x1f5afc>
    2030:	01000008 	tsteq	r0, r8
    2034:	00944020 	addseq	r4, r4, r0, lsr #32
    2038:	00003400 	andeq	r3, r0, r0, lsl #8
    203c:	559c0100 	ldrpl	r0, [ip, #256]	; 0x100
    2040:	09000001 	stmdbeq	r0, {r0}
    2044:	20010073 	andcs	r0, r1, r3, ror r0
    2048:	0000005d 	andeq	r0, r0, sp, asr r0
    204c:	00001475 	andeq	r1, r0, r5, ror r4
    2050:	0100690c 	tsteq	r0, ip, lsl #18
    2054:	00010e21 	andeq	r0, r1, r1, lsr #28
    2058:	00149300 	andseq	r9, r4, r0, lsl #6
    205c:	94640e00 	strbtls	r0, [r4], #-3584	; 0xe00
    2060:	00cd0000 	sbceq	r0, sp, r0
    2064:	010f0000 	mrseq	r0, CPSR
    2068:	00760250 	rsbseq	r0, r6, r0, asr r2
    206c:	bd080000 	stclt	0, cr0, [r8, #-0]
    2070:	01000008 	tsteq	r0, r8
    2074:	00947427 	addseq	r7, r4, r7, lsr #8
    2078:	00002000 	andeq	r2, r0, r0
    207c:	9a9c0100 	bls	fe702484 <__bss_end__+0xfe6f5d7c>
    2080:	11000001 	tstne	r0, r1
    2084:	000008d1 	ldrdeq	r0, [r0], -r1
    2088:	005d2701 	subseq	r2, sp, r1, lsl #14
    208c:	14b20000 	ldrtne	r0, [r2], #0
    2090:	84120000 	ldrhi	r0, [r2], #-0
    2094:	0c000094 	stceq	0, cr0, [r0], {148}	; 0x94
    2098:	13000000 	movwne	r0, #0
    209c:	000008b8 			; <UNDEFINED> instruction: 0x000008b8
    20a0:	005d2901 	subseq	r2, sp, r1, lsl #18
    20a4:	50010000 	andpl	r0, r1, r0
    20a8:	0094880d 	addseq	r8, r4, sp, lsl #16
    20ac:	00003400 	andeq	r3, r0, r0, lsl #8
    20b0:	14000000 	strne	r0, [r0], #-0
    20b4:	000008de 	ldrdeq	r0, [r0], -lr
    20b8:	01ab0501 			; <UNDEFINED> instruction: 0x01ab0501
    20bc:	03050000 	movweq	r0, #20480	; 0x5000
    20c0:	0000c6f0 	strdeq	ip, [r0], -r0
    20c4:	00005d15 	andeq	r5, r0, r5, lsl sp
    20c8:	01de0000 	bicseq	r0, lr, r0
    20cc:	00040000 	andeq	r0, r4, r0
    20d0:	00000db8 			; <UNDEFINED> instruction: 0x00000db8
    20d4:	06ec0104 	strbteq	r0, [ip], r4, lsl #2
    20d8:	03010000 	movweq	r0, #4096	; 0x1000
    20dc:	2e000009 	cdpcs	0, 0, cr0, cr0, cr9, {0}
    20e0:	00018000 	andeq	r8, r1, r0
    20e4:	00000000 	andeq	r0, r0, r0
    20e8:	0008ad00 	andeq	sl, r8, r0, lsl #26
    20ec:	02010200 	andeq	r0, r1, #0, 4
    20f0:	0000624f 	andeq	r6, r0, pc, asr #4
    20f4:	07c90300 	strbeq	r0, [r9, r0, lsl #6]
    20f8:	03000000 	movweq	r0, #0
    20fc:	000006f8 	strdeq	r0, [r0], -r8
    2100:	07090301 	streq	r0, [r9, -r1, lsl #6]
    2104:	03040000 	movweq	r0, #16384	; 0x4000
    2108:	000007a9 	andeq	r0, r0, r9, lsr #15
    210c:	072f0305 	streq	r0, [pc, -r5, lsl #6]!
    2110:	03060000 	movweq	r0, #24576	; 0x6000
    2114:	0000073e 	andeq	r0, r0, lr, lsr r7
    2118:	074d0307 	strbeq	r0, [sp, -r7, lsl #6]
    211c:	03030000 	movweq	r0, #12288	; 0x3000
    2120:	0000075c 	andeq	r0, r0, ip, asr r7
    2124:	07700302 	ldrbeq	r0, [r0, -r2, lsl #6]!
    2128:	00080000 	andeq	r0, r8, r0
    212c:	00093604 	andeq	r3, r9, r4, lsl #12
    2130:	05012c00 	streq	r2, [r1, #-3072]	; 0xc00
    2134:	000000f3 	strdeq	r0, [r0], -r3
    2138:	0008fe05 	andeq	pc, r8, r5, lsl #28
    213c:	f3060100 	vrhadd.u8	d0, d6, d0
    2140:	00000000 	andeq	r0, r0, r0
    2144:	72656906 	rsbvc	r6, r5, #98304	; 0x18000
    2148:	f3070100 	vrhadd.u8	d0, d7, d0
    214c:	04000000 	streq	r0, [r0], #-0
    2150:	72696906 	rsbvc	r6, r9, #98304	; 0x18000
    2154:	f3080100 	vrhadd.u8	d0, d8, d0
    2158:	08000000 	stmdaeq	r0, {}	; <UNPREDICTABLE>
    215c:	72636c06 	rsbvc	r6, r3, #1536	; 0x600
    2160:	f3090100 	vrhadd.u8	d0, d9, d0
    2164:	0c000000 	stceq	0, cr0, [r0], {-0}
    2168:	72636d06 	rsbvc	r6, r3, #384	; 0x180
    216c:	f30a0100 	vrhadd.u8	d0, d10, d0
    2170:	10000000 	andne	r0, r0, r0
    2174:	72736c06 	rsbsvc	r6, r3, #1536	; 0x600
    2178:	f30b0100 	vrhadd.u8	d0, d11, d0
    217c:	14000000 	strne	r0, [r0], #-0
    2180:	72736d06 	rsbsvc	r6, r3, #384	; 0x180
    2184:	f30c0100 	vrhadd.u8	d0, d12, d0
    2188:	18000000 	stmdane	r0, {}	; <UNPREDICTABLE>
    218c:	00092905 	andeq	r2, r9, r5, lsl #18
    2190:	f30d0100 	vrhadd.u8	d0, d13, d0
    2194:	1c000000 	stcne	0, cr0, [r0], {-0}
    2198:	00092405 	andeq	r2, r9, r5, lsl #8
    219c:	f30e0100 	vrhadd.u8	d0, d14, d0
    21a0:	20000000 	andcs	r0, r0, r0
    21a4:	0008f905 	andeq	pc, r8, r5, lsl #18
    21a8:	f30f0100 	vrhadd.u8	d0, d15, d0
    21ac:	24000000 	strcs	r0, [r0], #-0
    21b0:	00091f05 	andeq	r1, r9, r5, lsl #30
    21b4:	f3100100 	vrhadd.u16	d0, d0, d0
    21b8:	28000000 	stmdacs	r0, {}	; <UNPREDICTABLE>
    21bc:	07040700 	streq	r0, [r4, -r0, lsl #14]
    21c0:	00000722 	andeq	r0, r0, r2, lsr #14
    21c4:	0007eb08 	andeq	lr, r7, r8, lsl #22
    21c8:	942a0100 	strtls	r0, [sl], #-256	; 0x100
    21cc:	68000094 	stmdavs	r0, {r2, r4, r7}
    21d0:	01000000 	mrseq	r0, (UNDEF: 0)
    21d4:	00014b9c 	muleq	r1, ip, fp
    21d8:	75610900 	strbvc	r0, [r1, #-2304]!	; 0x900
    21dc:	2b010078 	blcs	423c4 <__bss_end__+0x35cbc>
    21e0:	0000014b 	andeq	r0, r0, fp, asr #2
    21e4:	20215004 	eorcs	r5, r1, r4
    21e8:	0094e00a 	addseq	lr, r4, sl
    21ec:	0001cf00 	andeq	ip, r1, r0, lsl #30
    21f0:	00013600 	andeq	r3, r1, r0, lsl #12
    21f4:	51010b00 	tstpl	r1, r0, lsl #22
    21f8:	010b3201 	tsteq	fp, r1, lsl #4
    21fc:	003e0150 	eorseq	r0, lr, r0, asr r1
    2200:	0094ec0c 	addseq	lr, r4, ip, lsl #24
    2204:	0001cf00 	andeq	ip, r1, r0, lsl #30
    2208:	51010b00 	tstpl	r1, r0, lsl #22
    220c:	010b3201 	tsteq	fp, r1, lsl #4
    2210:	003f0150 	eorseq	r0, pc, r0, asr r1	; <UNPREDICTABLE>
    2214:	51040d00 	tstpl	r4, r0, lsl #26
    2218:	0e000001 	cdpeq	0, 0, cr0, cr0, cr1, {0}
    221c:	6e690504 	cdpvs	5, 6, cr0, cr9, cr4, {0}
    2220:	150f0074 	strne	r0, [pc, #-116]	; 21b4 <_start-0x5e4c>
    2224:	01000009 	tsteq	r0, r9
    2228:	00015141 	andeq	r5, r1, r1, asr #2
    222c:	0094fc00 	addseq	pc, r4, r0, lsl #24
    2230:	00003000 	andeq	r3, r0, r0
    2234:	089c0100 	ldmeq	ip, {r8}
    2238:	0000088c 	andeq	r0, r0, ip, lsl #17
    223c:	952c4601 	strls	r4, [ip, #-1537]!	; 0x601
    2240:	00400000 	subeq	r0, r0, r0
    2244:	9c010000 	stcls	0, cr0, [r1], {-0}
    2248:	0000019f 	muleq	r0, pc, r1	; <UNPREDICTABLE>
    224c:	01006310 	tsteq	r0, r0, lsl r3
    2250:	0000f346 	andeq	pc, r0, r6, asr #6
    2254:	0014d000 	andseq	sp, r4, r0
    2258:	954c0c00 	strbls	r0, [ip, #-3072]	; 0xc00
    225c:	016d0000 	cmneq	sp, r0
    2260:	010b0000 	mrseq	r0, (UNDEF: 11)
    2264:	003d0150 	eorseq	r0, sp, r0, asr r1
    2268:	090a1100 	stmdbeq	sl, {r8, ip}
    226c:	4e010000 	cdpmi	0, 0, cr0, cr1, cr0, {0}
    2270:	0000956c 	andeq	r9, r0, ip, ror #10
    2274:	00000024 	andeq	r0, r0, r4, lsr #32
    2278:	31129c01 	tstcc	r2, r1, lsl #24
    227c:	01000009 	tsteq	r0, r9
    2280:	0001bf28 	andeq	fp, r1, r8, lsr #30
    2284:	21504000 	cmpcs	r0, r0
    2288:	01c41320 	biceq	r1, r4, r0, lsr #6
    228c:	040d0000 	streq	r0, [sp], #-0
    2290:	000001ca 	andeq	r0, r0, sl, asr #3
    2294:	00006214 	andeq	r6, r0, r4, lsl r2
    2298:	07d91500 	ldrbeq	r1, [r9, r0, lsl #10]
    229c:	5a020000 	bpl	822a4 <__bss_end__+0x75b9c>
    22a0:	0000f316 	andeq	pc, r0, r6, lsl r3	; <UNPREDICTABLE>
    22a4:	00f31600 	rscseq	r1, r3, r0, lsl #12
    22a8:	00000000 	andeq	r0, r0, r0
    22ac:	0000016a 	andeq	r0, r0, sl, ror #2
    22b0:	0ef10004 	cdpeq	0, 15, cr0, cr1, cr4, {0}
    22b4:	01040000 	mrseq	r0, (UNDEF: 4)
    22b8:	000006ec 	andeq	r0, r0, ip, ror #13
    22bc:	00093b01 	andeq	r3, r9, r1, lsl #22
    22c0:	a8002e00 	stmdage	r0, {r9, sl, fp, sp}
    22c4:	00000001 	andeq	r0, r0, r1
    22c8:	4e000000 	cdpmi	0, 0, cr0, cr0, cr0, {0}
    22cc:	02000009 	andeq	r0, r0, #9
    22d0:	3e040201 	cdpcc	2, 0, cr0, cr4, cr1, {0}
    22d4:	03000000 	movweq	r0, #0
    22d8:	00000971 	andeq	r0, r0, r1, ror r9
    22dc:	095f0300 	ldmdbeq	pc, {r8, r9}^	; <UNPREDICTABLE>
    22e0:	03010000 	movweq	r0, #4096	; 0x1000
    22e4:	0000094f 	andeq	r0, r0, pc, asr #18
    22e8:	9c040002 	stcls	0, cr0, [r4], {2}
    22ec:	01000009 	tsteq	r0, r9
    22f0:	00959013 	addseq	r9, r5, r3, lsl r0
    22f4:	00006800 	andeq	r6, r0, r0, lsl #16
    22f8:	d89c0100 	ldmle	ip, {r8}
    22fc:	05000000 	streq	r0, [r0, #-0]
    2300:	006e6970 	rsbeq	r6, lr, r0, ror r9
    2304:	00d81301 	sbcseq	r1, r8, r1, lsl #6
    2308:	14ee0000 	strbtne	r0, [lr], #0
    230c:	70050000 	andvc	r0, r5, r0
    2310:	01006475 	tsteq	r0, r5, ror r4
    2314:	0000d813 	andeq	sp, r0, r3, lsl r8
    2318:	00151a00 	andseq	r1, r5, r0, lsl #20
    231c:	09470600 	stmdbeq	r7, {r9, sl}^
    2320:	17010000 	strne	r0, [r1, -r0]
    2324:	000000df 	ldrdeq	r0, [r0], -pc	; <UNPREDICTABLE>
    2328:	20200094 	mlacs	r0, r4, r0, r0
    232c:	00098206 	andeq	r8, r9, r6, lsl #4
    2330:	df1b0100 	svcle	0x001b0100
    2334:	98000000 	stmdals	r0, {}	; <UNPREDICTABLE>
    2338:	07202000 	streq	r2, [r0, -r0]!
    233c:	000095bc 			; <UNDEFINED> instruction: 0x000095bc
    2340:	00000160 	andeq	r0, r0, r0, ror #2
    2344:	000000a2 	andeq	r0, r0, r2, lsr #1
    2348:	01500108 	cmpeq	r0, r8, lsl #2
    234c:	d4070035 	strle	r0, [r7], #-53	; 0x35
    2350:	60000095 	mulvs	r0, r5, r0
    2354:	b5000001 	strlt	r0, [r0, #-1]
    2358:	08000000 	stmdaeq	r0, {}	; <UNPREDICTABLE>
    235c:	35015001 	strcc	r5, [r1, #-1]
    2360:	95e40700 	strbls	r0, [r4, #1792]!	; 0x700
    2364:	01600000 	cmneq	r0, r0
    2368:	00c80000 	sbceq	r0, r8, r0
    236c:	01080000 	mrseq	r0, (UNDEF: 8)
    2370:	00350150 	eorseq	r0, r5, r0, asr r1
    2374:	0095f009 	addseq	pc, r5, r9
    2378:	00016000 	andeq	r6, r1, r0
    237c:	50010800 	andpl	r0, r1, r0, lsl #16
    2380:	00003501 	andeq	r3, r0, r1, lsl #10
    2384:	2207040a 	andcs	r0, r7, #167772160	; 0xa000000
    2388:	0b000007 	bleq	23ac <_start-0x5c54>
    238c:	0000e504 	andeq	lr, r0, r4, lsl #10
    2390:	00d80c00 	sbcseq	r0, r8, r0, lsl #24
    2394:	0f040000 	svceq	0x00040000
    2398:	01000004 	tsteq	r0, r4
    239c:	0095f826 	addseq	pc, r5, r6, lsr #16
    23a0:	00002000 	andeq	r2, r0, r0
    23a4:	259c0100 	ldrcs	r0, [ip, #256]	; 0x100
    23a8:	05000001 	streq	r0, [r0, #-1]
    23ac:	006e6970 	rsbeq	r6, lr, r0, ror r9
    23b0:	00d82601 	sbcseq	r2, r8, r1, lsl #12
    23b4:	153b0000 	ldrne	r0, [fp, #-0]!
    23b8:	14090000 	strne	r0, [r9], #-0
    23bc:	3e000096 	mcrcc	0, 0, r0, cr0, cr6, {4}
    23c0:	08000000 	stmdaeq	r0, {}	; <UNPREDICTABLE>
    23c4:	32015101 	andcc	r5, r1, #1073741824	; 0x40000000
    23c8:	03500108 	cmpeq	r0, #8, 2
    23cc:	005001f3 	ldrsheq	r0, [r0], #-19	; 0xffffffed
    23d0:	098a0400 	stmibeq	sl, {sl}
    23d4:	2e010000 	cdpcs	0, 0, cr0, cr1, cr0, {0}
    23d8:	00009618 	andeq	r9, r0, r8, lsl r6
    23dc:	00000018 	andeq	r0, r0, r8, lsl r0
    23e0:	01609c01 	cmneq	r0, r1, lsl #24
    23e4:	70050000 	andvc	r0, r5, r0
    23e8:	01006e69 	tsteq	r0, r9, ror #28
    23ec:	0000d82e 	andeq	sp, r0, lr, lsr #16
    23f0:	00155c00 	andseq	r5, r5, r0, lsl #24
    23f4:	962c0900 	strtls	r0, [ip], -r0, lsl #18
    23f8:	003e0000 	eorseq	r0, lr, r0
    23fc:	01080000 	mrseq	r0, (UNDEF: 8)
    2400:	08310151 	ldmdaeq	r1!, {r0, r4, r6, r8}
    2404:	f3035001 	vhadd.u8	d5, d3, d1
    2408:	00005001 	andeq	r5, r0, r1
    240c:	0001ae0d 	andeq	sl, r1, sp, lsl #28
    2410:	0e0f0300 	cdpeq	3, 0, cr0, cr15, cr0, {0}
    2414:	000000d8 	ldrdeq	r0, [r0], -r8
    2418:	03500000 	cmpeq	r0, #0
    241c:	00040000 	andeq	r0, r4, r0
    2420:	00000faa 	andeq	r0, r0, sl, lsr #31
    2424:	06ec0104 	strbteq	r0, [ip], r4, lsl #2
    2428:	a9010000 	stmdbge	r1, {}	; <UNPREDICTABLE>
    242c:	2e000009 	cdpcs	0, 0, cr0, cr0, cr9, {0}
    2430:	0001c800 	andeq	ip, r1, r0, lsl #16
    2434:	00000000 	andeq	r0, r0, r0
    2438:	0009d800 	andeq	sp, r9, r0, lsl #16
    243c:	02010200 	andeq	r0, r1, #0, 4
    2440:	00017c12 	andeq	r7, r1, r2, lsl ip
    2444:	03ea0300 	mvneq	r0, #0, 6
    2448:	03000000 	movweq	r0, #0
    244c:	00000425 	andeq	r0, r0, r5, lsr #8
    2450:	042f0300 	strteq	r0, [pc], #-768	; 2458 <_start-0x5ba8>
    2454:	03010000 	movweq	r0, #4096	; 0x1000
    2458:	00000439 	andeq	r0, r0, r9, lsr r4
    245c:	046f0302 	strbteq	r0, [pc], #-770	; 2464 <_start-0x5b9c>
    2460:	03030000 	movweq	r0, #12288	; 0x3000
    2464:	00000451 	andeq	r0, r0, r1, asr r4
    2468:	045b0304 	ldrbeq	r0, [fp], #-772	; 0x304
    246c:	03050000 	movweq	r0, #20480	; 0x5000
    2470:	00000465 	andeq	r0, r0, r5, ror #8
    2474:	04c40306 	strbeq	r0, [r4], #774	; 0x306
    2478:	03070000 	movweq	r0, #28672	; 0x7000
    247c:	00000479 	andeq	r0, r0, r9, ror r4
    2480:	04830308 	streq	r0, [r3], #776	; 0x308
    2484:	03090000 	movweq	r0, #36864	; 0x9000
    2488:	000002cc 	andeq	r0, r0, ip, asr #5
    248c:	02d7030a 	sbcseq	r0, r7, #671088640	; 0x28000000
    2490:	030b0000 	movweq	r0, #45056	; 0xb000
    2494:	000002e2 	andeq	r0, r0, r2, ror #5
    2498:	02ed030c 	rsceq	r0, sp, #12, 6	; 0x30000000
    249c:	030d0000 	movweq	r0, #53248	; 0xd000
    24a0:	000002f8 	strdeq	r0, [r0], -r8
    24a4:	0303030e 	movweq	r0, #13070	; 0x330e
    24a8:	030f0000 	movweq	r0, #61440	; 0xf000
    24ac:	0000030e 	andeq	r0, r0, lr, lsl #6
    24b0:	03190310 	tsteq	r9, #16, 6	; 0x40000000
    24b4:	03110000 	tsteq	r1, #0
    24b8:	00000324 	andeq	r0, r0, r4, lsr #6
    24bc:	032f0312 	teqeq	pc, #1207959552	; 0x48000000
    24c0:	03130000 	tsteq	r3, #0
    24c4:	000004f9 	strdeq	r0, [r0], -r9
    24c8:	05040314 	streq	r0, [r4, #-788]	; 0x314
    24cc:	03150000 	tsteq	r5, #0
    24d0:	0000050f 	andeq	r0, r0, pc, lsl #10
    24d4:	051a0316 	ldreq	r0, [sl, #-790]	; 0x316
    24d8:	03170000 	tsteq	r7, #0
    24dc:	000003c3 	andeq	r0, r0, r3, asr #7
    24e0:	023e0318 	eorseq	r0, lr, #24, 6	; 0x60000000
    24e4:	03190000 	tsteq	r9, #0
    24e8:	00000254 	andeq	r0, r0, r4, asr r2
    24ec:	025f031a 	subseq	r0, pc, #1744830464	; 0x68000000
    24f0:	031b0000 	tsteq	fp, #0
    24f4:	0000026a 	andeq	r0, r0, sl, ror #4
    24f8:	048d031c 	streq	r0, [sp], #796	; 0x31c
    24fc:	031d0000 	tsteq	sp, #0
    2500:	00000525 	andeq	r0, r0, r5, lsr #10
    2504:	0233031e 	eorseq	r0, r3, #2013265920	; 0x78000000
    2508:	031f0000 	tsteq	pc, #0
    250c:	00000249 	andeq	r0, r0, r9, asr #4
    2510:	033a0320 	teqeq	sl, #32, 6	; 0x80000000
    2514:	03210000 	teqeq	r1, #0
    2518:	00000345 	andeq	r0, r0, r5, asr #6
    251c:	03500322 	cmpeq	r0, #-2013265920	; 0x88000000
    2520:	03230000 	teqeq	r3, #0
    2524:	0000035b 	andeq	r0, r0, fp, asr r3
    2528:	03660324 	cmneq	r6, #36, 6	; 0x90000000
    252c:	03250000 	teqeq	r5, #0
    2530:	00000371 	andeq	r0, r0, r1, ror r3
    2534:	037c0326 	cmneq	ip, #-1744830464	; 0x98000000
    2538:	03270000 	teqeq	r7, #0
    253c:	00000392 	muleq	r0, r2, r3
    2540:	02750328 	rsbseq	r0, r5, #40, 6	; 0xa0000000
    2544:	03290000 	teqeq	r9, #0
    2548:	00000280 	andeq	r0, r0, r0, lsl #5
    254c:	0498032a 	ldreq	r0, [r8], #810	; 0x32a
    2550:	032b0000 	teqeq	fp, #0
    2554:	000004a3 	andeq	r0, r0, r3, lsr #9
    2558:	04ae032c 	strteq	r0, [lr], #812	; 0x32c
    255c:	032d0000 	teqeq	sp, #0
    2560:	000004b9 			; <UNDEFINED> instruction: 0x000004b9
    2564:	02b4032e 	adcseq	r0, r4, #-1207959552	; 0xb8000000
    2568:	032f0000 	teqeq	pc, #0
    256c:	000004ce 	andeq	r0, r0, lr, asr #9
    2570:	04d90330 	ldrbeq	r0, [r9], #816	; 0x330
    2574:	03310000 	teqeq	r1, #0
    2578:	00000293 	muleq	r0, r3, r2
    257c:	029e0332 	addseq	r0, lr, #-939524096	; 0xc8000000
    2580:	03330000 	teqeq	r3, #0
    2584:	000002a9 	andeq	r0, r0, r9, lsr #5
    2588:	03870334 	orreq	r0, r7, #52, 6	; 0xd0000000
    258c:	03350000 	teqeq	r5, #0
    2590:	000004e4 	andeq	r0, r0, r4, ror #9
    2594:	01020035 	tsteq	r2, r5, lsr r0
    2598:	01bb4f02 			; <UNDEFINED> instruction: 0x01bb4f02
    259c:	c9030000 	stmdbgt	r3, {}	; <UNPREDICTABLE>
    25a0:	00000007 	andeq	r0, r0, r7
    25a4:	0006f803 	andeq	pc, r6, r3, lsl #16
    25a8:	09030100 	stmdbeq	r3, {r8}
    25ac:	04000007 	streq	r0, [r0], #-7
    25b0:	0007a903 	andeq	sl, r7, r3, lsl #18
    25b4:	2f030500 	svccs	0x00030500
    25b8:	06000007 	streq	r0, [r0], -r7
    25bc:	00073e03 	andeq	r3, r7, r3, lsl #28
    25c0:	4d030700 	stcmi	7, cr0, [r3, #-0]
    25c4:	03000007 	movweq	r0, #7
    25c8:	00075c03 	andeq	r5, r7, r3, lsl #24
    25cc:	70030200 	andvc	r0, r3, r0, lsl #4
    25d0:	08000007 	stmdaeq	r0, {r0, r1, r2}
    25d4:	70730400 	rsbsvc	r0, r3, r0, lsl #8
    25d8:	01180069 	tsteq	r8, r9, rrx
    25dc:	00020e04 	andeq	r0, r2, r4, lsl #28
    25e0:	73630500 	cmnvc	r3, #0, 10
    25e4:	0e050100 	adfeqs	f0, f5, f0
    25e8:	00000002 	andeq	r0, r0, r2
    25ec:	0009c006 	andeq	ip, r9, r6
    25f0:	0e060100 	adfeqs	f0, f6, f0
    25f4:	04000002 	streq	r0, [r0], #-2
    25f8:	6b6c6305 	blvs	1b1b214 <__bss_end__+0x1b0eb0c>
    25fc:	0e070100 	adfeqs	f0, f7, f0
    2600:	08000002 	stmdaeq	r0, {r1}
    2604:	0009bb06 	andeq	fp, r9, r6, lsl #22
    2608:	0e080100 	adfeqe	f0, f0, f0
    260c:	0c000002 	stceq	0, cr0, [r0], {2}
    2610:	0009c506 	andeq	ip, r9, r6, lsl #10
    2614:	0e090100 	adfeqe	f0, f1, f0
    2618:	10000002 	andne	r0, r0, r2
    261c:	00636405 	rsbeq	r6, r3, r5, lsl #8
    2620:	020e0a01 	andeq	r0, lr, #4096	; 0x1000
    2624:	00140000 	andseq	r0, r4, r0
    2628:	22070407 	andcs	r0, r7, #117440512	; 0x7000000
    262c:	08000007 	stmdaeq	r0, {r0, r1, r2}
    2630:	00000530 	andeq	r0, r0, r0, lsr r5
    2634:	96301601 	ldrtls	r1, [r0], -r1, lsl #12
    2638:	00bc0000 	adcseq	r0, ip, r0
    263c:	9c010000 	stcls	0, cr0, [r1], {-0}
    2640:	000002bd 			; <UNDEFINED> instruction: 0x000002bd
    2644:	0009af09 	andeq	sl, r9, r9, lsl #30
    2648:	0e160100 	mufeqs	f0, f6, f0
    264c:	7d000002 	stcvc	0, cr0, [r0, #-8]
    2650:	09000015 	stmdbeq	r0, {r0, r2, r4}
    2654:	000009ca 	andeq	r0, r0, sl, asr #19
    2658:	020e1601 	andeq	r1, lr, #1048576	; 0x100000
    265c:	159b0000 	ldrne	r0, [fp]
    2660:	500a0000 	andpl	r0, sl, r0
    2664:	41000096 	swpmi	r0, r6, [r0]	; <UNPREDICTABLE>
    2668:	60000003 	andvs	r0, r0, r3
    266c:	0b000002 	bleq	267c <_start-0x5984>
    2670:	34015101 	strcc	r5, [r1], #-257	; 0x101
    2674:	0150010b 	cmpeq	r0, fp, lsl #2
    2678:	5c0a0037 	stcpl	0, cr0, [sl], {55}	; 0x37
    267c:	41000096 	swpmi	r0, r6, [r0]	; <UNPREDICTABLE>
    2680:	78000003 	stmdavc	r0, {r0, r1}
    2684:	0b000002 	bleq	2694 <_start-0x596c>
    2688:	34015101 	strcc	r5, [r1], #-257	; 0x101
    268c:	0150010b 	cmpeq	r0, fp, lsl #2
    2690:	680a0038 	stmdavs	sl, {r3, r4, r5}
    2694:	41000096 	swpmi	r0, r6, [r0]	; <UNPREDICTABLE>
    2698:	90000003 	andls	r0, r0, r3
    269c:	0b000002 	bleq	26ac <_start-0x5954>
    26a0:	34015101 	strcc	r5, [r1], #-257	; 0x101
    26a4:	0150010b 	cmpeq	r0, fp, lsl #2
    26a8:	740a0039 	strvc	r0, [sl], #-57	; 0x39
    26ac:	41000096 	swpmi	r0, r6, [r0]	; <UNPREDICTABLE>
    26b0:	a8000003 	stmdage	r0, {r0, r1}
    26b4:	0b000002 	bleq	26c4 <_start-0x593c>
    26b8:	34015101 	strcc	r5, [r1], #-257	; 0x101
    26bc:	0150010b 	cmpeq	r0, fp, lsl #2
    26c0:	800c003a 	andhi	r0, ip, sl, lsr r0
    26c4:	41000096 	swpmi	r0, r6, [r0]	; <UNPREDICTABLE>
    26c8:	0b000003 	bleq	26dc <_start-0x5924>
    26cc:	34015101 	strcc	r5, [r1], #-257	; 0x101
    26d0:	0150010b 	cmpeq	r0, fp, lsl #2
    26d4:	0800003b 	stmdaeq	r0, {r0, r1, r3, r4, r5}
    26d8:	00000551 	andeq	r0, r0, r1, asr r5
    26dc:	96ec2901 	strbtls	r2, [ip], r1, lsl #18
    26e0:	00900000 	addseq	r0, r0, r0
    26e4:	9c010000 	stcls	0, cr0, [r1], {-0}
    26e8:	00000311 	andeq	r0, r0, r1, lsl r3
    26ec:	0078740d 	rsbseq	r7, r8, sp, lsl #8
    26f0:	03112901 	tsteq	r1, #16384	; 0x4000
    26f4:	50010000 	andpl	r0, r1, r0
    26f8:	0078720d 	rsbseq	r7, r8, sp, lsl #4
    26fc:	03112901 	tsteq	r1, #16384	; 0x4000
    2700:	51010000 	mrspl	r0, (UNDEF: 1)
    2704:	6e656c0e 	cdpvs	12, 6, cr6, cr5, cr14, {0}
    2708:	0e290100 	sufeqe	f0, f1, f0
    270c:	b9000002 	stmdblt	r0, {r1}
    2710:	0f000015 	svceq	0x00000015
    2714:	0000970c 	andeq	r9, r0, ip, lsl #14
    2718:	00000054 	andeq	r0, r0, r4, asr r0
    271c:	01006910 	tsteq	r0, r0, lsl r9
    2720:	00031e2c 	andeq	r1, r3, ip, lsr #28
    2724:	0015da00 	andseq	sp, r5, r0, lsl #20
    2728:	11000000 	mrsne	r0, (UNDEF: 0)
    272c:	00031704 	andeq	r1, r3, r4, lsl #14
    2730:	08010700 	stmdaeq	r1, {r8, r9, sl}
    2734:	00000543 	andeq	r0, r0, r3, asr #10
    2738:	69050412 	stmdbvs	r5, {r1, r4, sl}
    273c:	1300746e 	movwne	r7, #1134	; 0x46e
    2740:	00697073 	rsbeq	r7, r9, r3, ror r0
    2744:	03361401 	teqeq	r6, #16777216	; 0x1000000
    2748:	03050000 	movweq	r0, #20480	; 0x5000
    274c:	0000c6d4 	ldrdeq	ip, [r0], -r4
    2750:	033c0411 	teqeq	ip, #285212672	; 0x11000000
    2754:	bb140000 	bllt	50275c <__bss_end__+0x4f6054>
    2758:	15000001 	strne	r0, [r0, #-1]
    275c:	000007d9 	ldrdeq	r0, [r0], -r9
    2760:	0e165a02 	vnmlseq.f32	s10, s12, s4
    2764:	16000002 	strne	r0, [r0], -r2
    2768:	0000020e 	andeq	r0, r0, lr, lsl #4
    276c:	00a80000 	adceq	r0, r8, r0
    2770:	00020000 	andeq	r0, r2, r0
    2774:	000010d3 	ldrdeq	r1, [r0], -r3
    2778:	0a5f0104 	beq	17c2b90 <__bss_end__+0x17b6488>
    277c:	977c0000 	ldrbls	r0, [ip, -r0]!
    2780:	98900000 	ldmls	r0, {}	; <UNPREDICTABLE>
    2784:	2e2e0000 	cdpcs	0, 2, cr0, cr14, cr0, {0}
    2788:	2f2e2e2f 	svccs	0x002e2e2f
    278c:	672f2e2e 	strvs	r2, [pc, -lr, lsr #28]!
    2790:	342d6363 	strtcc	r6, [sp], #-867	; 0x363
    2794:	332e382e 	teqcc	lr, #3014656	; 0x2e0000
    2798:	62696c2f 	rsbvs	r6, r9, #12032	; 0x2f00
    279c:	2f636367 	svccs	0x00636367
    27a0:	666e6f63 	strbtvs	r6, [lr], -r3, ror #30
    27a4:	612f6769 	teqvs	pc, r9, ror #14
    27a8:	6c2f6d72 	stcvs	13, cr6, [pc], #-456	; 25e8 <_start-0x5a18>
    27ac:	66316269 	ldrtvs	r6, [r1], -r9, ror #4
    27b0:	73636e75 	cmnvc	r3, #1872	; 0x750
    27b4:	2f00532e 	svccs	0x0000532e
    27b8:	72657355 	rsbvc	r7, r5, #1409286145	; 0x54000001
    27bc:	62692f73 	rsbvs	r2, r9, #460	; 0x1cc
    27c0:	2f687375 	svccs	0x00687375
    27c4:	75636f44 	strbvc	r6, [r3, #-3908]!	; 0xf44
    27c8:	746e656d 	strbtvc	r6, [lr], #-1389	; 0x56d
    27cc:	74532f73 	ldrbvc	r2, [r3], #-3955	; 0xf73
    27d0:	6f666e61 	svcvs	0x00666e61
    27d4:	432f6472 	teqmi	pc, #1912602624	; 0x72000000
    27d8:	37303153 			; <UNDEFINED> instruction: 0x37303153
    27dc:	72632f45 	rsbvc	r2, r3, #276	; 0x114
    27e0:	5f73736f 	svcpl	0x0073736f
    27e4:	706d6f63 	rsbvc	r6, sp, r3, ror #30
    27e8:	72656c69 	rsbvc	r6, r5, #26880	; 0x6900
    27ec:	6975622f 	ldmdbvs	r5!, {r0, r1, r2, r3, r5, r9, sp, lr}^
    27f0:	672d646c 	strvs	r6, [sp, -ip, ror #8]!
    27f4:	612f6363 	teqvs	pc, r3, ror #6
    27f8:	6e2d6d72 	mcrvs	13, 1, r6, cr13, cr2, {3}
    27fc:	2d656e6f 	stclcs	14, cr6, [r5, #-444]!	; 0xfffffe44
    2800:	69626165 	stmdbvs	r2!, {r0, r2, r5, r6, r8, sp, lr}^
    2804:	62696c2f 	rsbvs	r6, r9, #12032	; 0x2f00
    2808:	00636367 	rsbeq	r6, r3, r7, ror #6
    280c:	20554e47 	subscs	r4, r5, r7, asr #28
    2810:	32205341 	eorcc	r5, r0, #67108865	; 0x4000001
    2814:	0034322e 	eorseq	r3, r4, lr, lsr #4
    2818:	00a88001 	adceq	r8, r8, r1
    281c:	00020000 	andeq	r0, r2, r0
    2820:	000010e7 	andeq	r1, r0, r7, ror #1
    2824:	0ae90104 	beq	ffa42c3c <__bss_end__+0xffa36534>
    2828:	98900000 	ldmls	r0, {}	; <UNPREDICTABLE>
    282c:	99d80000 	ldmibls	r8, {}^	; <UNPREDICTABLE>
    2830:	2e2e0000 	cdpcs	0, 2, cr0, cr14, cr0, {0}
    2834:	2f2e2e2f 	svccs	0x002e2e2f
    2838:	672f2e2e 	strvs	r2, [pc, -lr, lsr #28]!
    283c:	342d6363 	strtcc	r6, [sp], #-867	; 0x363
    2840:	332e382e 	teqcc	lr, #3014656	; 0x2e0000
    2844:	62696c2f 	rsbvs	r6, r9, #12032	; 0x2f00
    2848:	2f636367 	svccs	0x00636367
    284c:	666e6f63 	strbtvs	r6, [lr], -r3, ror #30
    2850:	612f6769 	teqvs	pc, r9, ror #14
    2854:	6c2f6d72 	stcvs	13, cr6, [pc], #-456	; 2694 <_start-0x596c>
    2858:	66316269 	ldrtvs	r6, [r1], -r9, ror #4
    285c:	73636e75 	cmnvc	r3, #1872	; 0x750
    2860:	2f00532e 	svccs	0x0000532e
    2864:	72657355 	rsbvc	r7, r5, #1409286145	; 0x54000001
    2868:	62692f73 	rsbvs	r2, r9, #460	; 0x1cc
    286c:	2f687375 	svccs	0x00687375
    2870:	75636f44 	strbvc	r6, [r3, #-3908]!	; 0xf44
    2874:	746e656d 	strbtvc	r6, [lr], #-1389	; 0x56d
    2878:	74532f73 	ldrbvc	r2, [r3], #-3955	; 0xf73
    287c:	6f666e61 	svcvs	0x00666e61
    2880:	432f6472 	teqmi	pc, #1912602624	; 0x72000000
    2884:	37303153 			; <UNDEFINED> instruction: 0x37303153
    2888:	72632f45 	rsbvc	r2, r3, #276	; 0x114
    288c:	5f73736f 	svcpl	0x0073736f
    2890:	706d6f63 	rsbvc	r6, sp, r3, ror #30
    2894:	72656c69 	rsbvc	r6, r5, #26880	; 0x6900
    2898:	6975622f 	ldmdbvs	r5!, {r0, r1, r2, r3, r5, r9, sp, lr}^
    289c:	672d646c 	strvs	r6, [sp, -ip, ror #8]!
    28a0:	612f6363 	teqvs	pc, r3, ror #6
    28a4:	6e2d6d72 	mcrvs	13, 1, r6, cr13, cr2, {3}
    28a8:	2d656e6f 	stclcs	14, cr6, [r5, #-444]!	; 0xfffffe44
    28ac:	69626165 	stmdbvs	r2!, {r0, r2, r5, r6, r8, sp, lr}^
    28b0:	62696c2f 	rsbvs	r6, r9, #12032	; 0x2f00
    28b4:	00636367 	rsbeq	r6, r3, r7, ror #6
    28b8:	20554e47 	subscs	r4, r5, r7, asr #28
    28bc:	32205341 	eorcc	r5, r0, #67108865	; 0x4000001
    28c0:	0034322e 	eorseq	r3, r4, lr, lsr #4
    28c4:	00a88001 	adceq	r8, r8, r1
    28c8:	00020000 	andeq	r0, r2, r0
    28cc:	000010fb 	strdeq	r1, [r0], -fp
    28d0:	0b7f0104 	bleq	1fc2ce8 <__bss_end__+0x1fb65e0>
    28d4:	99d80000 	ldmibls	r8, {}^	; <UNPREDICTABLE>
    28d8:	99dc0000 	ldmibls	ip, {}^	; <UNPREDICTABLE>
    28dc:	2e2e0000 	cdpcs	0, 2, cr0, cr14, cr0, {0}
    28e0:	2f2e2e2f 	svccs	0x002e2e2f
    28e4:	672f2e2e 	strvs	r2, [pc, -lr, lsr #28]!
    28e8:	342d6363 	strtcc	r6, [sp], #-867	; 0x363
    28ec:	332e382e 	teqcc	lr, #3014656	; 0x2e0000
    28f0:	62696c2f 	rsbvs	r6, r9, #12032	; 0x2f00
    28f4:	2f636367 	svccs	0x00636367
    28f8:	666e6f63 	strbtvs	r6, [lr], -r3, ror #30
    28fc:	612f6769 	teqvs	pc, r9, ror #14
    2900:	6c2f6d72 	stcvs	13, cr6, [pc], #-456	; 2740 <_start-0x58c0>
    2904:	66316269 	ldrtvs	r6, [r1], -r9, ror #4
    2908:	73636e75 	cmnvc	r3, #1872	; 0x750
    290c:	2f00532e 	svccs	0x0000532e
    2910:	72657355 	rsbvc	r7, r5, #1409286145	; 0x54000001
    2914:	62692f73 	rsbvs	r2, r9, #460	; 0x1cc
    2918:	2f687375 	svccs	0x00687375
    291c:	75636f44 	strbvc	r6, [r3, #-3908]!	; 0xf44
    2920:	746e656d 	strbtvc	r6, [lr], #-1389	; 0x56d
    2924:	74532f73 	ldrbvc	r2, [r3], #-3955	; 0xf73
    2928:	6f666e61 	svcvs	0x00666e61
    292c:	432f6472 	teqmi	pc, #1912602624	; 0x72000000
    2930:	37303153 			; <UNDEFINED> instruction: 0x37303153
    2934:	72632f45 	rsbvc	r2, r3, #276	; 0x114
    2938:	5f73736f 	svcpl	0x0073736f
    293c:	706d6f63 	rsbvc	r6, sp, r3, ror #30
    2940:	72656c69 	rsbvc	r6, r5, #26880	; 0x6900
    2944:	6975622f 	ldmdbvs	r5!, {r0, r1, r2, r3, r5, r9, sp, lr}^
    2948:	672d646c 	strvs	r6, [sp, -ip, ror #8]!
    294c:	612f6363 	teqvs	pc, r3, ror #6
    2950:	6e2d6d72 	mcrvs	13, 1, r6, cr13, cr2, {3}
    2954:	2d656e6f 	stclcs	14, cr6, [r5, #-444]!	; 0xfffffe44
    2958:	69626165 	stmdbvs	r2!, {r0, r2, r5, r6, r8, sp, lr}^
    295c:	62696c2f 	rsbvs	r6, r9, #12032	; 0x2f00
    2960:	00636367 	rsbeq	r6, r3, r7, ror #6
    2964:	20554e47 	subscs	r4, r5, r7, asr #28
    2968:	32205341 	eorcc	r5, r0, #67108865	; 0x4000001
    296c:	0034322e 	eorseq	r3, r4, lr, lsr #4
    2970:	00a98001 	adceq	r8, r9, r1
    2974:	00020000 	andeq	r0, r2, r0
    2978:	0000110f 	andeq	r1, r0, pc, lsl #2
    297c:	0be00104 	bleq	ff802d94 <__bss_end__+0xff7f668c>
    2980:	99dc0000 	ldmibls	ip, {}^	; <UNPREDICTABLE>
    2984:	9df80000 	ldclls	0, cr0, [r8]
    2988:	2e2e0000 	cdpcs	0, 2, cr0, cr14, cr0, {0}
    298c:	2f2e2e2f 	svccs	0x002e2e2f
    2990:	672f2e2e 	strvs	r2, [pc, -lr, lsr #28]!
    2994:	342d6363 	strtcc	r6, [sp], #-867	; 0x363
    2998:	332e382e 	teqcc	lr, #3014656	; 0x2e0000
    299c:	62696c2f 	rsbvs	r6, r9, #12032	; 0x2f00
    29a0:	2f636367 	svccs	0x00636367
    29a4:	666e6f63 	strbtvs	r6, [lr], -r3, ror #30
    29a8:	612f6769 	teqvs	pc, r9, ror #14
    29ac:	692f6d72 	stmdbvs	pc!, {r1, r4, r5, r6, r8, sl, fp, sp, lr}	; <UNPREDICTABLE>
    29b0:	37656565 	strbcc	r6, [r5, -r5, ror #10]!
    29b4:	642d3435 	strtvs	r3, [sp], #-1077	; 0x435
    29b8:	00532e66 	subseq	r2, r3, r6, ror #28
    29bc:	6573552f 	ldrbvs	r5, [r3, #-1327]!	; 0x52f
    29c0:	692f7372 	stmdbvs	pc!, {r1, r4, r5, r6, r8, r9, ip, sp, lr}	; <UNPREDICTABLE>
    29c4:	68737562 	ldmdavs	r3!, {r1, r5, r6, r8, sl, ip, sp, lr}^
    29c8:	636f442f 	cmnvs	pc, #788529152	; 0x2f000000
    29cc:	6e656d75 	mcrvs	13, 3, r6, cr5, cr5, {3}
    29d0:	532f7374 	teqpl	pc, #116, 6	; 0xd0000001
    29d4:	666e6174 			; <UNDEFINED> instruction: 0x666e6174
    29d8:	2f64726f 	svccs	0x0064726f
    29dc:	30315343 	eorscc	r5, r1, r3, asr #6
    29e0:	632f4537 	teqvs	pc, #230686720	; 0xdc00000
    29e4:	73736f72 	cmnvc	r3, #456	; 0x1c8
    29e8:	6d6f635f 	stclvs	3, cr6, [pc, #-380]!	; 2874 <_start-0x578c>
    29ec:	656c6970 	strbvs	r6, [ip, #-2416]!	; 0x970
    29f0:	75622f72 	strbvc	r2, [r2, #-3954]!	; 0xf72
    29f4:	2d646c69 	stclcs	12, cr6, [r4, #-420]!	; 0xfffffe5c
    29f8:	2f636367 	svccs	0x00636367
    29fc:	2d6d7261 	sfmcs	f7, 2, [sp, #-388]!	; 0xfffffe7c
    2a00:	656e6f6e 	strbvs	r6, [lr, #-3950]!	; 0xf6e
    2a04:	6261652d 	rsbvs	r6, r1, #188743680	; 0xb400000
    2a08:	696c2f69 	stmdbvs	ip!, {r0, r3, r5, r6, r8, r9, sl, fp, sp}^
    2a0c:	63636762 	cmnvs	r3, #25690112	; 0x1880000
    2a10:	554e4700 	strbpl	r4, [lr, #-1792]	; 0x700
    2a14:	20534120 	subscs	r4, r3, r0, lsr #2
    2a18:	34322e32 	ldrtcc	r2, [r2], #-3634	; 0xe32
    2a1c:	a9800100 	stmibge	r0, {r8}
    2a20:	02000000 	andeq	r0, r0, #0
    2a24:	00112300 	andseq	r2, r1, r0, lsl #6
    2a28:	44010400 	strmi	r0, [r1], #-1024	; 0x400
    2a2c:	f800000d 			; <UNDEFINED> instruction: 0xf800000d
    2a30:	9400009d 	strls	r0, [r0], #-157	; 0x9d
    2a34:	2e0000a2 	cdpcs	0, 0, cr0, cr0, cr2, {5}
    2a38:	2e2e2f2e 	cdpcs	15, 2, cr2, cr14, cr14, {1}
    2a3c:	2f2e2e2f 	svccs	0x002e2e2f
    2a40:	2d636367 	stclcs	3, cr6, [r3, #-412]!	; 0xfffffe64
    2a44:	2e382e34 	mrccs	14, 1, r2, cr8, cr4, {1}
    2a48:	696c2f33 	stmdbvs	ip!, {r0, r1, r4, r5, r8, r9, sl, fp, sp}^
    2a4c:	63636762 	cmnvs	r3, #25690112	; 0x1880000
    2a50:	6e6f632f 	cdpvs	3, 6, cr6, cr15, cr15, {1}
    2a54:	2f676966 	svccs	0x00676966
    2a58:	2f6d7261 	svccs	0x006d7261
    2a5c:	65656569 	strbvs	r6, [r5, #-1385]!	; 0x569
    2a60:	2d343537 	cfldr32cs	mvfx3, [r4, #-220]!	; 0xffffff24
    2a64:	532e6664 	teqpl	lr, #100, 12	; 0x6400000
    2a68:	73552f00 	cmpvc	r5, #0, 30
    2a6c:	2f737265 	svccs	0x00737265
    2a70:	73756269 	cmnvc	r5, #-1879048186	; 0x90000006
    2a74:	6f442f68 	svcvs	0x00442f68
    2a78:	656d7563 	strbvs	r7, [sp, #-1379]!	; 0x563
    2a7c:	2f73746e 	svccs	0x0073746e
    2a80:	6e617453 	mcrvs	4, 3, r7, cr1, cr3, {2}
    2a84:	64726f66 	ldrbtvs	r6, [r2], #-3942	; 0xf66
    2a88:	3153432f 	cmpcc	r3, pc, lsr #6
    2a8c:	2f453730 	svccs	0x00453730
    2a90:	736f7263 	cmnvc	pc, #805306374	; 0x30000006
    2a94:	6f635f73 	svcvs	0x00635f73
    2a98:	6c69706d 	stclvs	0, cr7, [r9], #-436	; 0xfffffe4c
    2a9c:	622f7265 	eorvs	r7, pc, #1342177286	; 0x50000006
    2aa0:	646c6975 	strbtvs	r6, [ip], #-2421	; 0x975
    2aa4:	6363672d 	cmnvs	r3, #11796480	; 0xb40000
    2aa8:	6d72612f 	ldfvse	f6, [r2, #-188]!	; 0xffffff44
    2aac:	6e6f6e2d 	cdpvs	14, 6, cr6, cr15, cr13, {1}
    2ab0:	61652d65 	cmnvs	r5, r5, ror #26
    2ab4:	6c2f6962 	stcvs	9, cr6, [pc], #-392	; 2934 <_start-0x56cc>
    2ab8:	63676269 	cmnvs	r7, #-1879048186	; 0x90000006
    2abc:	4e470063 	cdpmi	0, 4, cr0, cr7, cr3, {3}
    2ac0:	53412055 	movtpl	r2, #4181	; 0x1055
    2ac4:	322e3220 	eorcc	r3, lr, #32, 4
    2ac8:	80010034 	andhi	r0, r1, r4, lsr r0
    2acc:	000000a9 	andeq	r0, r0, r9, lsr #1
    2ad0:	11370002 	teqne	r7, r2
    2ad4:	01040000 	mrseq	r0, (UNDEF: 4)
    2ad8:	00000ec4 	andeq	r0, r0, r4, asr #29
    2adc:	0000a294 	muleq	r0, r4, r2
    2ae0:	0000a3d8 	ldrdeq	sl, [r0], -r8
    2ae4:	2e2f2e2e 	cdpcs	14, 2, cr2, cr15, cr14, {1}
    2ae8:	2e2e2f2e 	cdpcs	15, 2, cr2, cr14, cr14, {1}
    2aec:	6363672f 	cmnvs	r3, #12320768	; 0xbc0000
    2af0:	382e342d 	stmdacc	lr!, {r0, r2, r3, r5, sl, ip, sp}
    2af4:	6c2f332e 	stcvs	3, cr3, [pc], #-184	; 2a44 <_start-0x55bc>
    2af8:	63676269 	cmnvs	r7, #-1879048186	; 0x90000006
    2afc:	6f632f63 	svcvs	0x00632f63
    2b00:	6769666e 	strbvs	r6, [r9, -lr, ror #12]!
    2b04:	6d72612f 	ldfvse	f6, [r2, #-188]!	; 0xffffff44
    2b08:	6565692f 	strbvs	r6, [r5, #-2351]!	; 0x92f
    2b0c:	34353765 	ldrtcc	r3, [r5], #-1893	; 0x765
    2b10:	2e66642d 	cdpcs	4, 6, cr6, cr6, cr13, {1}
    2b14:	552f0053 	strpl	r0, [pc, #-83]!	; 2ac9 <_start-0x5537>
    2b18:	73726573 	cmnvc	r2, #482344960	; 0x1cc00000
    2b1c:	7562692f 	strbvc	r6, [r2, #-2351]!	; 0x92f
    2b20:	442f6873 	strtmi	r6, [pc], #-2163	; 2b28 <_start-0x54d8>
    2b24:	6d75636f 	ldclvs	3, cr6, [r5, #-444]!	; 0xfffffe44
    2b28:	73746e65 	cmnvc	r4, #1616	; 0x650
    2b2c:	6174532f 	cmnvs	r4, pc, lsr #6
    2b30:	726f666e 	rsbvc	r6, pc, #115343360	; 0x6e00000
    2b34:	53432f64 	movtpl	r2, #16228	; 0x3f64
    2b38:	45373031 	ldrmi	r3, [r7, #-49]!	; 0x31
    2b3c:	6f72632f 	svcvs	0x0072632f
    2b40:	635f7373 	cmpvs	pc, #-872415231	; 0xcc000001
    2b44:	69706d6f 	ldmdbvs	r0!, {r0, r1, r2, r3, r5, r6, r8, sl, fp, sp, lr}^
    2b48:	2f72656c 	svccs	0x0072656c
    2b4c:	6c697562 	cfstr64vs	mvdx7, [r9], #-392	; 0xfffffe78
    2b50:	63672d64 	cmnvs	r7, #100, 26	; 0x1900
    2b54:	72612f63 	rsbvc	r2, r1, #396	; 0x18c
    2b58:	6f6e2d6d 	svcvs	0x006e2d6d
    2b5c:	652d656e 	strvs	r6, [sp, #-1390]!	; 0x56e
    2b60:	2f696261 	svccs	0x00696261
    2b64:	6762696c 	strbvs	r6, [r2, -ip, ror #18]!
    2b68:	47006363 	strmi	r6, [r0, -r3, ror #6]
    2b6c:	4120554e 	teqmi	r0, lr, asr #10
    2b70:	2e322053 	mrccs	0, 1, r2, cr2, cr3, {2}
    2b74:	01003432 	tsteq	r0, r2, lsr r4
    2b78:	0000a980 	andeq	sl, r0, r0, lsl #19
    2b7c:	4b000200 	blmi	3384 <_start-0x4c7c>
    2b80:	04000011 	streq	r0, [r0], #-17
    2b84:	000f7201 	andeq	r7, pc, r1, lsl #4
    2b88:	00a3d800 	adceq	sp, r3, r0, lsl #16
    2b8c:	00a43400 	adceq	r3, r4, r0, lsl #8
    2b90:	2f2e2e00 	svccs	0x002e2e00
    2b94:	2e2f2e2e 	cdpcs	14, 2, cr2, cr15, cr14, {1}
    2b98:	63672f2e 	cmnvs	r7, #46, 30	; 0xb8
    2b9c:	2e342d63 	cdpcs	13, 3, cr2, cr4, cr3, {3}
    2ba0:	2f332e38 	svccs	0x00332e38
    2ba4:	6762696c 	strbvs	r6, [r2, -ip, ror #18]!
    2ba8:	632f6363 	teqvs	pc, #-1946157055	; 0x8c000001
    2bac:	69666e6f 	stmdbvs	r6!, {r0, r1, r2, r3, r5, r6, r9, sl, fp, sp, lr}^
    2bb0:	72612f67 	rsbvc	r2, r1, #412	; 0x19c
    2bb4:	65692f6d 	strbvs	r2, [r9, #-3949]!	; 0xf6d
    2bb8:	35376565 	ldrcc	r6, [r7, #-1381]!	; 0x565
    2bbc:	66642d34 			; <UNDEFINED> instruction: 0x66642d34
    2bc0:	2f00532e 	svccs	0x0000532e
    2bc4:	72657355 	rsbvc	r7, r5, #1409286145	; 0x54000001
    2bc8:	62692f73 	rsbvs	r2, r9, #460	; 0x1cc
    2bcc:	2f687375 	svccs	0x00687375
    2bd0:	75636f44 	strbvc	r6, [r3, #-3908]!	; 0xf44
    2bd4:	746e656d 	strbtvc	r6, [lr], #-1389	; 0x56d
    2bd8:	74532f73 	ldrbvc	r2, [r3], #-3955	; 0xf73
    2bdc:	6f666e61 	svcvs	0x00666e61
    2be0:	432f6472 	teqmi	pc, #1912602624	; 0x72000000
    2be4:	37303153 			; <UNDEFINED> instruction: 0x37303153
    2be8:	72632f45 	rsbvc	r2, r3, #276	; 0x114
    2bec:	5f73736f 	svcpl	0x0073736f
    2bf0:	706d6f63 	rsbvc	r6, sp, r3, ror #30
    2bf4:	72656c69 	rsbvc	r6, r5, #26880	; 0x6900
    2bf8:	6975622f 	ldmdbvs	r5!, {r0, r1, r2, r3, r5, r9, sp, lr}^
    2bfc:	672d646c 	strvs	r6, [sp, -ip, ror #8]!
    2c00:	612f6363 	teqvs	pc, r3, ror #6
    2c04:	6e2d6d72 	mcrvs	13, 1, r6, cr13, cr2, {3}
    2c08:	2d656e6f 	stclcs	14, cr6, [r5, #-444]!	; 0xfffffe44
    2c0c:	69626165 	stmdbvs	r2!, {r0, r2, r5, r6, r8, sp, lr}^
    2c10:	62696c2f 	rsbvs	r6, r9, #12032	; 0x2f00
    2c14:	00636367 	rsbeq	r6, r3, r7, ror #6
    2c18:	20554e47 	subscs	r4, r5, r7, asr #28
    2c1c:	32205341 	eorcc	r5, r0, #67108865	; 0x4000001
    2c20:	0034322e 	eorseq	r3, r4, lr, lsr #4
    2c24:	Address 0x0000000000002c24 is out of bounds.


Disassembly of section .debug_abbrev:

00000000 <.debug_abbrev>:
       0:	25011101 	strcs	r1, [r1, #-257]	; 0x101
       4:	030b130e 	movweq	r1, #45838	; 0xb30e
       8:	110e1b0e 	tstne	lr, lr, lsl #22
       c:	10061201 	andne	r1, r6, r1, lsl #4
      10:	02000017 	andeq	r0, r0, #23
      14:	0b0b0024 	bleq	2c00ac <__bss_end__+0x2b39a4>
      18:	08030b3e 	stmdaeq	r3, {r1, r2, r3, r4, r5, r8, r9, fp}
      1c:	24030000 	strcs	r0, [r3], #-0
      20:	3e0b0b00 	vmlacc.f64	d0, d11, d0
      24:	000e030b 	andeq	r0, lr, fp, lsl #6
      28:	01040400 	tsteq	r4, r0, lsl #8
      2c:	0b3a0b0b 	bleq	e82c60 <__bss_end__+0xe76558>
      30:	13010b3b 	movwne	r0, #6971	; 0x1b3b
      34:	28050000 	stmdacs	r5, {}	; <UNPREDICTABLE>
      38:	1c080300 	stcne	3, cr0, [r8], {-0}
      3c:	0600000d 	streq	r0, [r0], -sp
      40:	0e030028 	cdpeq	0, 0, cr0, cr3, cr8, {1}
      44:	00000d1c 	andeq	r0, r0, ip, lsl sp
      48:	03001607 	movweq	r1, #1543	; 0x607
      4c:	3b0b3a0e 	blcc	2ce88c <__bss_end__+0x2c2184>
      50:	0013490b 	andseq	r4, r3, fp, lsl #18
      54:	01130800 	tsteq	r3, r0, lsl #16
      58:	0b3a0b0b 	bleq	e82c8c <__bss_end__+0xe76584>
      5c:	13010b3b 	movwne	r0, #6971	; 0x1b3b
      60:	0d090000 	stceq	0, cr0, [r9, #-0]
      64:	3a0e0300 	bcc	380c6c <__bss_end__+0x374564>
      68:	490b3b0b 	stmdbmi	fp, {r0, r1, r3, r8, r9, fp, ip, sp}
      6c:	000b3813 	andeq	r3, fp, r3, lsl r8
      70:	01010a00 	tsteq	r1, r0, lsl #20
      74:	13011349 	movwne	r1, #4937	; 0x1349
      78:	210b0000 	mrscs	r0, (UNDEF: 11)
      7c:	00134900 	andseq	r4, r3, r0, lsl #18
      80:	012e0c00 	teqeq	lr, r0, lsl #24
      84:	0e03193f 	mcreq	9, 0, r1, cr3, cr15, {1}
      88:	0b3b0b3a 	bleq	ec2d78 <__bss_end__+0xeb6670>
      8c:	06120111 			; <UNDEFINED> instruction: 0x06120111
      90:	42971840 	addsmi	r1, r7, #64, 16	; 0x400000
      94:	00130119 	andseq	r0, r3, r9, lsl r1
      98:	82890d00 	addhi	r0, r9, #0, 26
      9c:	01110001 	tsteq	r1, r1
      a0:	00001331 	andeq	r1, r0, r1, lsr r3
      a4:	0182890e 	orreq	r8, r2, lr, lsl #18
      a8:	31011101 	tstcc	r1, r1, lsl #2
      ac:	0f000013 	svceq	0x00000013
      b0:	0001828a 	andeq	r8, r1, sl, lsl #5
      b4:	42911802 	addsmi	r1, r1, #131072	; 0x20000
      b8:	10000018 	andne	r0, r0, r8, lsl r0
      bc:	0e030034 	mcreq	0, 0, r0, cr3, cr4, {1}
      c0:	0b3b0b3a 	bleq	ec2db0 <__bss_end__+0xeb66a8>
      c4:	18021349 	stmdane	r2, {r0, r3, r6, r8, r9, ip}
      c8:	34110000 	ldrcc	r0, [r1], #-0
      cc:	3a0e0300 	bcc	380cd4 <__bss_end__+0x3745cc>
      d0:	490b3b0b 	stmdbmi	fp, {r0, r1, r3, r8, r9, fp, ip, sp}
      d4:	12000013 	andne	r0, r0, #19
      d8:	0e030034 	mcreq	0, 0, r0, cr3, cr4, {1}
      dc:	053b0b3a 	ldreq	r0, [fp, #-2874]!	; 0xb3a
      e0:	00001349 	andeq	r1, r0, r9, asr #6
      e4:	03003413 	movweq	r3, #1043	; 0x413
      e8:	3b0b3a0e 	blcc	2ce928 <__bss_end__+0x2c2220>
      ec:	02134905 	andseq	r4, r3, #81920	; 0x14000
      f0:	14000018 	strne	r0, [r0], #-24
      f4:	193f012e 	ldmdbne	pc!, {r1, r2, r3, r5, r8}	; <UNPREDICTABLE>
      f8:	0b3a0e03 	bleq	e8390c <__bss_end__+0xe77204>
      fc:	193c0b3b 	ldmdbne	ip!, {r0, r1, r3, r4, r5, r8, r9, fp}
     100:	00001301 	andeq	r1, r0, r1, lsl #6
     104:	00001815 	andeq	r1, r0, r5, lsl r8
     108:	012e1600 	teqeq	lr, r0, lsl #12
     10c:	0e03193f 	mcreq	9, 0, r1, cr3, cr15, {1}
     110:	0b3b0b3a 	bleq	ec2e00 <__bss_end__+0xeb66f8>
     114:	193c1927 	ldmdbne	ip!, {r0, r1, r2, r5, r8, fp, ip}
     118:	00001301 	andeq	r1, r0, r1, lsl #6
     11c:	49000517 	stmdbmi	r0, {r0, r1, r2, r4, r8, sl}
     120:	18000013 	stmdane	r0, {r0, r1, r4}
     124:	0b0b000f 	bleq	2c0168 <__bss_end__+0x2b3a60>
     128:	00001349 	andeq	r1, r0, r9, asr #6
     12c:	01110100 	tsteq	r1, r0, lsl #2
     130:	0b130e25 	bleq	4c39cc <__bss_end__+0x4b72c4>
     134:	0e1b0e03 	cdpeq	14, 1, cr0, cr11, cr3, {0}
     138:	06120111 			; <UNDEFINED> instruction: 0x06120111
     13c:	00001710 	andeq	r1, r0, r0, lsl r7
     140:	3f012e02 	svccc	0x00012e02
     144:	3a0e0319 	bcc	380db0 <__bss_end__+0x3746a8>
     148:	110b3b0b 	tstne	fp, fp, lsl #22
     14c:	40061201 	andmi	r1, r6, r1, lsl #4
     150:	19429718 	stmdbne	r2, {r3, r4, r8, r9, sl, ip, pc}^
     154:	00001301 	andeq	r1, r0, r1, lsl #6
     158:	03003403 	movweq	r3, #1027	; 0x403
     15c:	3b0b3a08 	blcc	2ce984 <__bss_end__+0x2c227c>
     160:	0213490b 	andseq	r4, r3, #180224	; 0x2c000
     164:	04000017 	streq	r0, [r0], #-23
     168:	0e030034 	mcreq	0, 0, r0, cr3, cr4, {1}
     16c:	0b3b0b3a 	bleq	ec2e5c <__bss_end__+0xeb6754>
     170:	00001349 	andeq	r1, r0, r9, asr #6
     174:	01828905 	orreq	r8, r2, r5, lsl #18
     178:	31011100 	mrscc	r1, (UNDEF: 17)
     17c:	06000013 			; <UNDEFINED> instruction: 0x06000013
     180:	0b0b000f 	bleq	2c01c4 <__bss_end__+0x2b3abc>
     184:	00001349 	andeq	r1, r0, r9, asr #6
     188:	0b002407 	bleq	91ac <vsnprintf+0x6c>
     18c:	030b3e0b 	movweq	r3, #48651	; 0xbe0b
     190:	08000008 	stmdaeq	r0, {r3}
     194:	0e030034 	mcreq	0, 0, r0, cr3, cr4, {1}
     198:	0b3b0b3a 	bleq	ec2e88 <__bss_end__+0xeb6780>
     19c:	193f1349 	ldmdbne	pc!, {r0, r3, r6, r8, r9, ip}	; <UNPREDICTABLE>
     1a0:	0000193c 	andeq	r1, r0, ip, lsr r9
     1a4:	3f012e09 	svccc	0x00012e09
     1a8:	3a0e0319 	bcc	380e14 <__bss_end__+0x37470c>
     1ac:	3c0b3b0b 	stccc	11, cr3, [fp], {11}
     1b0:	0a000019 	beq	21c <_start-0x7de4>
     1b4:	00000018 	andeq	r0, r0, r8, lsl r0
     1b8:	01110100 	tsteq	r1, r0, lsl #2
     1bc:	0b130e25 	bleq	4c3a58 <__bss_end__+0x4b7350>
     1c0:	0e1b0e03 	cdpeq	14, 1, cr0, cr11, cr3, {0}
     1c4:	06120111 			; <UNDEFINED> instruction: 0x06120111
     1c8:	00001710 	andeq	r1, r0, r0, lsl r7
     1cc:	3f012e02 	svccc	0x00012e02
     1d0:	3a0e0319 	bcc	380e3c <__bss_end__+0x374734>
     1d4:	270b3b0b 	strcs	r3, [fp, -fp, lsl #22]
     1d8:	11134919 	tstne	r3, r9, lsl r9
     1dc:	40061201 	andmi	r1, r6, r1, lsl #4
     1e0:	19429618 	stmdbne	r2, {r3, r4, r9, sl, ip, pc}^
     1e4:	00001301 	andeq	r1, r0, r1, lsl #6
     1e8:	03000503 	movweq	r0, #1283	; 0x503
     1ec:	3b0b3a0e 	blcc	2cea2c <__bss_end__+0x2c2324>
     1f0:	0213490b 	andseq	r4, r3, #180224	; 0x2c000
     1f4:	04000017 	streq	r0, [r0], #-23
     1f8:	0e030034 	mcreq	0, 0, r0, cr3, cr4, {1}
     1fc:	0b3b0b3a 	bleq	ec2eec <__bss_end__+0xeb67e4>
     200:	17021349 	strne	r1, [r2, -r9, asr #6]
     204:	24050000 	strcs	r0, [r5], #-0
     208:	3e0b0b00 	vmlacc.f64	d0, d11, d0
     20c:	000e030b 	andeq	r0, lr, fp, lsl #6
     210:	012e0600 	teqeq	lr, r0, lsl #12
     214:	0e03193f 	mcreq	9, 0, r1, cr3, cr15, {1}
     218:	0b3b0b3a 	bleq	ec2f08 <__bss_end__+0xeb6800>
     21c:	01111927 	tsteq	r1, r7, lsr #18
     220:	18400612 	stmdane	r0, {r1, r4, r9, sl}^
     224:	01194296 			; <UNDEFINED> instruction: 0x01194296
     228:	07000013 	smladeq	r0, r3, r0, r0
     22c:	08030005 	stmdaeq	r3, {r0, r2}
     230:	0b3b0b3a 	bleq	ec2f20 <__bss_end__+0xeb6818>
     234:	17021349 	strne	r1, [r2, -r9, asr #6]
     238:	0b080000 	bleq	200240 <__bss_end__+0x1f3b38>
     23c:	00175501 	andseq	r5, r7, r1, lsl #10
     240:	00240900 	eoreq	r0, r4, r0, lsl #18
     244:	0b3e0b0b 	bleq	f82e78 <__bss_end__+0xf76770>
     248:	00000803 	andeq	r0, r0, r3, lsl #16
     24c:	3f012e0a 	svccc	0x00012e0a
     250:	3a0e0319 	bcc	380ebc <__bss_end__+0x3747b4>
     254:	110b3b0b 	tstne	fp, fp, lsl #22
     258:	40061201 	andmi	r1, r6, r1, lsl #4
     25c:	19429718 	stmdbne	r2, {r3, r4, r8, r9, sl, ip, pc}^
     260:	00001301 	andeq	r1, r0, r1, lsl #6
     264:	0300340b 	movweq	r3, #1035	; 0x40b
     268:	3b0b3a08 	blcc	2cea90 <__bss_end__+0x2c2388>
     26c:	0013490b 	andseq	r4, r3, fp, lsl #18
     270:	82890c00 	addhi	r0, r9, #0, 24
     274:	01110101 	tsteq	r1, r1, lsl #2
     278:	13011331 	movwne	r1, #4913	; 0x1331
     27c:	8a0d0000 	bhi	340284 <__bss_end__+0x333b7c>
     280:	02000182 	andeq	r0, r0, #-2147483616	; 0x80000020
     284:	18429118 	stmdane	r2, {r3, r4, r8, ip, pc}^
     288:	890e0000 	stmdbhi	lr, {}	; <UNPREDICTABLE>
     28c:	11010182 	smlabbne	r1, r2, r1, r0
     290:	00133101 	andseq	r3, r3, r1, lsl #2
     294:	00340f00 	eorseq	r0, r4, r0, lsl #30
     298:	0b3a0e03 	bleq	e83aac <__bss_end__+0xe773a4>
     29c:	13490b3b 	movtne	r0, #39739	; 0x9b3b
     2a0:	1802193f 	stmdane	r2, {r0, r1, r2, r3, r4, r5, r8, fp, ip}
     2a4:	0f100000 	svceq	0x00100000
     2a8:	490b0b00 	stmdbmi	fp, {r8, r9, fp}
     2ac:	11000013 	tstne	r0, r3, lsl r0
     2b0:	13490035 	movtne	r0, #36917	; 0x9035
     2b4:	34120000 	ldrcc	r0, [r2], #-0
     2b8:	3a080300 	bcc	200ec0 <__bss_end__+0x1f47b8>
     2bc:	490b3b0b 	stmdbmi	fp, {r0, r1, r3, r8, r9, fp, ip, sp}
     2c0:	02193f13 	andseq	r3, r9, #19, 30	; 0x4c
     2c4:	13000018 	movwne	r0, #24
     2c8:	13490101 	movtne	r0, #37121	; 0x9101
     2cc:	00001301 	andeq	r1, r0, r1, lsl #6
     2d0:	49002114 	stmdbmi	r0, {r2, r4, r8, sp}
     2d4:	000b2f13 	andeq	r2, fp, r3, lsl pc
     2d8:	00211500 	eoreq	r1, r1, r0, lsl #10
     2dc:	052f1349 	streq	r1, [pc, #-841]!	; ffffff9b <__bss_end__+0xffff3893>
     2e0:	34160000 	ldrcc	r0, [r6], #-0
     2e4:	3a0e0300 	bcc	380eec <__bss_end__+0x3747e4>
     2e8:	49053b0b 	stmdbmi	r5, {r0, r1, r3, r8, r9, fp, ip, sp}
     2ec:	02193f13 	andseq	r3, r9, #19, 30	; 0x4c
     2f0:	17000018 	smladne	r0, r8, r0, r0
     2f4:	193f012e 	ldmdbne	pc!, {r1, r2, r3, r5, r8}	; <UNPREDICTABLE>
     2f8:	0b3a0e03 	bleq	e83b0c <__bss_end__+0xe77404>
     2fc:	19270b3b 	stmdbne	r7!, {r0, r1, r3, r4, r5, r8, r9, fp}
     300:	0000193c 	andeq	r1, r0, ip, lsr r9
     304:	49000518 	stmdbmi	r0, {r3, r4, r8, sl}
     308:	00000013 	andeq	r0, r0, r3, lsl r0
     30c:	25011101 	strcs	r1, [r1, #-257]	; 0x101
     310:	030b130e 	movweq	r1, #45838	; 0xb30e
     314:	110e1b0e 	tstne	lr, lr, lsl #22
     318:	10061201 	andne	r1, r6, r1, lsl #4
     31c:	02000017 	andeq	r0, r0, #23
     320:	0b0b0024 	bleq	2c03b8 <__bss_end__+0x2b3cb0>
     324:	08030b3e 	stmdaeq	r3, {r1, r2, r3, r4, r5, r8, r9, fp}
     328:	16030000 	strne	r0, [r3], -r0
     32c:	3a0e0300 	bcc	380f34 <__bss_end__+0x37482c>
     330:	490b3b0b 	stmdbmi	fp, {r0, r1, r3, r8, r9, fp, ip, sp}
     334:	04000013 	streq	r0, [r0], #-19
     338:	0b0b0024 	bleq	2c03d0 <__bss_end__+0x2b3cc8>
     33c:	0e030b3e 	vmoveq.16	d3[0], r0
     340:	2e050000 	cdpcs	0, 0, cr0, cr5, cr0, {0}
     344:	03193f01 	tsteq	r9, #1, 30
     348:	3b0b3a0e 	blcc	2ceb88 <__bss_end__+0x2c2480>
     34c:	4919270b 	ldmdbmi	r9, {r0, r1, r3, r8, r9, sl, sp}
     350:	12011113 	andne	r1, r1, #-1073741820	; 0xc0000004
     354:	97184006 	ldrls	r4, [r8, -r6]
     358:	13011942 	movwne	r1, #6466	; 0x1942
     35c:	05060000 	streq	r0, [r6, #-0]
     360:	3a080300 	bcc	200f68 <__bss_end__+0x1f4860>
     364:	490b3b0b 	stmdbmi	fp, {r0, r1, r3, r8, r9, fp, ip, sp}
     368:	00180213 	andseq	r0, r8, r3, lsl r2
     36c:	00340700 	eorseq	r0, r4, r0, lsl #14
     370:	0b3a0803 	bleq	e82384 <__bss_end__+0xe75c7c>
     374:	13490b3b 	movtne	r0, #39739	; 0x9b3b
     378:	00001802 	andeq	r1, r0, r2, lsl #16
     37c:	11010b08 	tstne	r1, r8, lsl #22
     380:	00061201 	andeq	r1, r6, r1, lsl #4
     384:	00340900 	eorseq	r0, r4, r0, lsl #18
     388:	0b3a0803 	bleq	e8239c <__bss_end__+0xe75c94>
     38c:	13490b3b 	movtne	r0, #39739	; 0x9b3b
     390:	00001702 	andeq	r1, r0, r2, lsl #14
     394:	0b000f0a 	bleq	3fc4 <_start-0x403c>
     398:	0b00000b 	bleq	3cc <_start-0x7c34>
     39c:	0b0b000f 	bleq	2c03e0 <__bss_end__+0x2b3cd8>
     3a0:	00001349 	andeq	r1, r0, r9, asr #6
     3a4:	0000260c 	andeq	r2, r0, ip, lsl #12
     3a8:	00260d00 	eoreq	r0, r6, r0, lsl #26
     3ac:	00001349 	andeq	r1, r0, r9, asr #6
     3b0:	01110100 	tsteq	r1, r0, lsl #2
     3b4:	0b130e25 	bleq	4c3c50 <__bss_end__+0x4b7548>
     3b8:	0e1b0e03 	cdpeq	14, 1, cr0, cr11, cr3, {0}
     3bc:	06120111 			; <UNDEFINED> instruction: 0x06120111
     3c0:	00001710 	andeq	r1, r0, r0, lsl r7
     3c4:	0b010402 	bleq	413d4 <__bss_end__+0x34ccc>
     3c8:	3b0b3a0b 	blcc	2cebfc <__bss_end__+0x2c24f4>
     3cc:	0013010b 	andseq	r0, r3, fp, lsl #2
     3d0:	00280300 	eoreq	r0, r8, r0, lsl #6
     3d4:	0d1c0e03 	ldceq	14, cr0, [ip, #-12]
     3d8:	2e040000 	cdpcs	0, 0, cr0, cr4, cr0, {0}
     3dc:	03193f01 	tsteq	r9, #1, 30
     3e0:	3b0b3a0e 	blcc	2cec20 <__bss_end__+0x2c2518>
     3e4:	1201110b 	andne	r1, r1, #-1073741822	; 0xc0000002
     3e8:	97184006 	ldrls	r4, [r8, -r6]
     3ec:	13011942 	movwne	r1, #6466	; 0x1942
     3f0:	2e050000 	cdpcs	0, 0, cr0, cr5, cr0, {0}
     3f4:	03193f01 	tsteq	r9, #1, 30
     3f8:	3b0b3a0e 	blcc	2cec38 <__bss_end__+0x2c2530>
     3fc:	3c13490b 	ldccc	9, cr4, [r3], {11}
     400:	00130119 	andseq	r0, r3, r9, lsl r1
     404:	00180600 	andseq	r0, r8, r0, lsl #12
     408:	89070000 	stmdbhi	r7, {}	; <UNPREDICTABLE>
     40c:	11000182 	smlabbne	r0, r2, r1, r0
     410:	00133101 	andseq	r3, r3, r1, lsl #2
     414:	82890800 	addhi	r0, r9, #0, 16
     418:	01110101 	tsteq	r1, r1, lsl #2
     41c:	13011331 	movwne	r1, #4913	; 0x1331
     420:	8a090000 	bhi	240428 <__bss_end__+0x233d20>
     424:	02000182 	andeq	r0, r0, #-2147483616	; 0x80000020
     428:	18429118 	stmdane	r2, {r3, r4, r8, ip, pc}^
     42c:	890a0000 	stmdbhi	sl, {}	; <UNPREDICTABLE>
     430:	11010182 	smlabbne	r1, r2, r1, r0
     434:	00133101 	andseq	r3, r3, r1, lsl #2
     438:	00240b00 	eoreq	r0, r4, r0, lsl #22
     43c:	0b3e0b0b 	bleq	f83070 <__bss_end__+0xf76968>
     440:	00000803 	andeq	r0, r0, r3, lsl #16
     444:	3f012e0c 	svccc	0x00012e0c
     448:	3a0e0319 	bcc	3810b4 <__bss_end__+0x3749ac>
     44c:	270b3b0b 	strcs	r3, [fp, -fp, lsl #22]
     450:	11134919 	tstne	r3, r9, lsl r9
     454:	40061201 	andmi	r1, r6, r1, lsl #4
     458:	19429718 	stmdbne	r2, {r3, r4, r8, r9, sl, ip, pc}^
     45c:	00001301 	andeq	r1, r0, r1, lsl #6
     460:	0300050d 	movweq	r0, #1293	; 0x50d
     464:	3b0b3a0e 	blcc	2ceca4 <__bss_end__+0x2c259c>
     468:	0213490b 	andseq	r4, r3, #180224	; 0x2c000
     46c:	0e000017 	mcreq	0, 0, r0, cr0, cr7, {0}
     470:	0b0b0024 	bleq	2c0508 <__bss_end__+0x2b3e00>
     474:	0e030b3e 	vmoveq.16	d3[0], r0
     478:	2e0f0000 	cdpcs	0, 0, cr0, cr15, cr0, {0}
     47c:	03193f01 	tsteq	r9, #1, 30
     480:	3b0b3a0e 	blcc	2cecc0 <__bss_end__+0x2c25b8>
     484:	1113490b 	tstne	r3, fp, lsl #18
     488:	40061201 	andmi	r1, r6, r1, lsl #4
     48c:	19429618 	stmdbne	r2, {r3, r4, r9, sl, ip, pc}^
     490:	00001301 	andeq	r1, r0, r1, lsl #6
     494:	03003410 	movweq	r3, #1040	; 0x410
     498:	3b0b3a0e 	blcc	2cecd8 <__bss_end__+0x2c25d0>
     49c:	0213490b 	andseq	r4, r3, #180224	; 0x2c000
     4a0:	11000018 	tstne	r0, r8, lsl r0
     4a4:	0e030034 	mcreq	0, 0, r0, cr3, cr4, {1}
     4a8:	0b3b0b3a 	bleq	ec3198 <__bss_end__+0xeb6a90>
     4ac:	17021349 	strne	r1, [r2, -r9, asr #6]
     4b0:	2e120000 	cdpcs	0, 1, cr0, cr2, cr0, {0}
     4b4:	03193f01 	tsteq	r9, #1, 30
     4b8:	3b0b3a0e 	blcc	2cecf8 <__bss_end__+0x2c25f0>
     4bc:	4919270b 	ldmdbmi	r9, {r0, r1, r3, r8, r9, sl, sp}
     4c0:	12011113 	andne	r1, r1, #-1073741820	; 0xc0000004
     4c4:	96184006 	ldrls	r4, [r8], -r6
     4c8:	13011942 	movwne	r1, #6466	; 0x1942
     4cc:	2e130000 	cdpcs	0, 1, cr0, cr3, cr0, {0}
     4d0:	03193f01 	tsteq	r9, #1, 30
     4d4:	3b0b3a0e 	blcc	2ced14 <__bss_end__+0x2c260c>
     4d8:	01193c0b 	tsteq	r9, fp, lsl #24
     4dc:	14000013 	strne	r0, [r0], #-19
     4e0:	193f012e 	ldmdbne	pc!, {r1, r2, r3, r5, r8}	; <UNPREDICTABLE>
     4e4:	0b3a0e03 	bleq	e83cf8 <__bss_end__+0xe775f0>
     4e8:	19270b3b 	stmdbne	r7!, {r0, r1, r3, r4, r5, r8, r9, fp}
     4ec:	1301193c 	movwne	r1, #6460	; 0x193c
     4f0:	05150000 	ldreq	r0, [r5, #-0]
     4f4:	00134900 	andseq	r4, r3, r0, lsl #18
     4f8:	012e1600 	teqeq	lr, r0, lsl #12
     4fc:	0e03193f 	mcreq	9, 0, r1, cr3, cr15, {1}
     500:	0b3b0b3a 	bleq	ec31f0 <__bss_end__+0xeb6ae8>
     504:	13491927 	movtne	r1, #39207	; 0x9927
     508:	1301193c 	movwne	r1, #6460	; 0x193c
     50c:	2e170000 	cdpcs	0, 1, cr0, cr7, cr0, {0}
     510:	03193f01 	tsteq	r9, #1, 30
     514:	3b0b3a0e 	blcc	2ced54 <__bss_end__+0x2c264c>
     518:	4919270b 	ldmdbmi	r9, {r0, r1, r3, r8, r9, sl, sp}
     51c:	00193c13 	andseq	r3, r9, r3, lsl ip
     520:	11010000 	mrsne	r0, (UNDEF: 1)
     524:	130e2501 	movwne	r2, #58625	; 0xe501
     528:	1b0e030b 	blne	38115c <__bss_end__+0x374a54>
     52c:	1201110e 	andne	r1, r1, #-2147483645	; 0x80000003
     530:	00171006 	andseq	r1, r7, r6
     534:	012e0200 	teqeq	lr, r0, lsl #4
     538:	0e03193f 	mcreq	9, 0, r1, cr3, cr15, {1}
     53c:	0b3b0b3a 	bleq	ec322c <__bss_end__+0xeb6b24>
     540:	06120111 			; <UNDEFINED> instruction: 0x06120111
     544:	42971840 	addsmi	r1, r7, #64, 16	; 0x400000
     548:	00130119 	andseq	r0, r3, r9, lsl r1
     54c:	82890300 	addhi	r0, r9, #0, 6
     550:	01110101 	tsteq	r1, r1, lsl #2
     554:	00001331 	andeq	r1, r0, r1, lsr r3
     558:	01828a04 	orreq	r8, r2, r4, lsl #20
     55c:	91180200 	tstls	r8, r0, lsl #4
     560:	00001842 	andeq	r1, r0, r2, asr #16
     564:	3f012e05 	svccc	0x00012e05
     568:	3a0e0319 	bcc	3811d4 <__bss_end__+0x374acc>
     56c:	270b3b0b 	strcs	r3, [fp, -fp, lsl #22]
     570:	11134919 	tstne	r3, r9, lsl r9
     574:	40061201 	andmi	r1, r6, r1, lsl #4
     578:	19429718 	stmdbne	r2, {r3, r4, r8, r9, sl, ip, pc}^
     57c:	00001301 	andeq	r1, r0, r1, lsl #6
     580:	03000506 	movweq	r0, #1286	; 0x506
     584:	3b0b3a0e 	blcc	2cedc4 <__bss_end__+0x2c26bc>
     588:	0213490b 	andseq	r4, r3, #180224	; 0x2c000
     58c:	07000017 	smladeq	r0, r7, r0, r0
     590:	08030034 	stmdaeq	r3, {r2, r4, r5}
     594:	0b3b0b3a 	bleq	ec3284 <__bss_end__+0xeb6b7c>
     598:	18021349 	stmdane	r2, {r0, r3, r6, r8, r9, ip}
     59c:	24080000 	strcs	r0, [r8], #-0
     5a0:	3e0b0b00 	vmlacc.f64	d0, d11, d0
     5a4:	000e030b 	andeq	r0, lr, fp, lsl #6
     5a8:	01010900 	tsteq	r1, r0, lsl #18
     5ac:	13011349 	movwne	r1, #4937	; 0x1349
     5b0:	210a0000 	mrscs	r0, (UNDEF: 10)
     5b4:	2f134900 	svccs	0x00134900
     5b8:	0b00000b 	bleq	5ec <_start-0x7a14>
     5bc:	193f012e 	ldmdbne	pc!, {r1, r2, r3, r5, r8}	; <UNPREDICTABLE>
     5c0:	0b3a0e03 	bleq	e83dd4 <__bss_end__+0xe776cc>
     5c4:	19270b3b 	stmdbne	r7!, {r0, r1, r3, r4, r5, r8, r9, fp}
     5c8:	1301193c 	movwne	r1, #6460	; 0x193c
     5cc:	050c0000 	streq	r0, [ip, #-0]
     5d0:	00134900 	andseq	r4, r3, r0, lsl #18
     5d4:	000f0d00 	andeq	r0, pc, r0, lsl #26
     5d8:	13490b0b 	movtne	r0, #39691	; 0x9b0b
     5dc:	01000000 	mrseq	r0, (UNDEF: 0)
     5e0:	0e250111 	mcreq	1, 1, r0, cr5, cr1, {0}
     5e4:	0e030b13 	vmoveq.32	d3[0], r0
     5e8:	01110e1b 	tsteq	r1, fp, lsl lr
     5ec:	17100612 			; <UNDEFINED> instruction: 0x17100612
     5f0:	24020000 	strcs	r0, [r2], #-0
     5f4:	3e0b0b00 	vmlacc.f64	d0, d11, d0
     5f8:	000e030b 	andeq	r0, lr, fp, lsl #6
     5fc:	012e0300 	teqeq	lr, r0, lsl #6
     600:	0e03193f 	mcreq	9, 0, r1, cr3, cr15, {1}
     604:	0b3b0b3a 	bleq	ec32f4 <__bss_end__+0xeb6bec>
     608:	13491927 	movtne	r1, #39207	; 0x9927
     60c:	06120111 			; <UNDEFINED> instruction: 0x06120111
     610:	42961840 	addsmi	r1, r6, #64, 16	; 0x400000
     614:	00130119 	andseq	r0, r3, r9, lsl r1
     618:	00050400 	andeq	r0, r5, r0, lsl #8
     61c:	0b3a0803 	bleq	e82630 <__bss_end__+0xe75f28>
     620:	13490b3b 	movtne	r0, #39739	; 0x9b3b
     624:	00001702 	andeq	r1, r0, r2, lsl #14
     628:	03000505 	movweq	r0, #1285	; 0x505
     62c:	3b0b3a0e 	blcc	2cee6c <__bss_end__+0x2c2764>
     630:	0213490b 	andseq	r4, r3, #180224	; 0x2c000
     634:	06000017 			; <UNDEFINED> instruction: 0x06000017
     638:	0e030034 	mcreq	0, 0, r0, cr3, cr4, {1}
     63c:	0b3b0b3a 	bleq	ec332c <__bss_end__+0xeb6c24>
     640:	17021349 	strne	r1, [r2, -r9, asr #6]
     644:	0b070000 	bleq	1c064c <__bss_end__+0x1b3f44>
     648:	00175501 	andseq	r5, r7, r1, lsl #10
     64c:	00340800 	eorseq	r0, r4, r0, lsl #16
     650:	0b3a0803 	bleq	e82664 <__bss_end__+0xe75f5c>
     654:	13490b3b 	movtne	r0, #39739	; 0x9b3b
     658:	00001702 	andeq	r1, r0, r2, lsl #14
     65c:	0b002409 	bleq	9688 <spi_init+0x58>
     660:	030b3e0b 	movweq	r3, #48651	; 0xbe0b
     664:	0a000008 	beq	68c <_start-0x7974>
     668:	01018289 	smlabbeq	r1, r9, r2, r8
     66c:	13310111 	teqne	r1, #1073741828	; 0x40000004
     670:	00001301 	andeq	r1, r0, r1, lsl #6
     674:	01828a0b 	orreq	r8, r2, fp, lsl #20
     678:	91180200 	tstls	r8, r0, lsl #4
     67c:	00001842 	andeq	r1, r0, r2, asr #16
     680:	0182890c 	orreq	r8, r2, ip, lsl #18
     684:	31011100 	mrscc	r1, (UNDEF: 17)
     688:	0d000013 	stceq	0, cr0, [r0, #-76]	; 0xffffffb4
     68c:	0e030034 	mcreq	0, 0, r0, cr3, cr4, {1}
     690:	0b3b0b3a 	bleq	ec3380 <__bss_end__+0xeb6c78>
     694:	0a1c1349 	beq	7053c0 <__bss_end__+0x6f8cb8>
     698:	260e0000 	strcs	r0, [lr], -r0
     69c:	00134900 	andseq	r4, r3, r0, lsl #18
     6a0:	11010000 	mrsne	r0, (UNDEF: 1)
     6a4:	130e2501 	movwne	r2, #58625	; 0xe501
     6a8:	1b0e030b 	blne	3812dc <__bss_end__+0x374bd4>
     6ac:	1201110e 	andne	r1, r1, #-2147483645	; 0x80000003
     6b0:	00171006 	andseq	r1, r7, r6
     6b4:	01040200 	mrseq	r0, R12_usr
     6b8:	0b3a0b0b 	bleq	e832ec <__bss_end__+0xe76be4>
     6bc:	13010b3b 	movwne	r0, #6971	; 0x1b3b
     6c0:	28030000 	stmdacs	r3, {}	; <UNPREDICTABLE>
     6c4:	1c080300 	stcne	3, cr0, [r8], {-0}
     6c8:	0400000d 	streq	r0, [r0], #-13
     6cc:	0e030028 	cdpeq	0, 0, cr0, cr3, cr8, {1}
     6d0:	00000d1c 	andeq	r0, r0, ip, lsl sp
     6d4:	03001605 	movweq	r1, #1541	; 0x605
     6d8:	3b0b3a0e 	blcc	2cef18 <__bss_end__+0x2c2810>
     6dc:	0013490b 	andseq	r4, r3, fp, lsl #18
     6e0:	01130600 	tsteq	r3, r0, lsl #12
     6e4:	0b3a0b0b 	bleq	e83318 <__bss_end__+0xe76c10>
     6e8:	13010b3b 	movwne	r0, #6971	; 0x1b3b
     6ec:	0d070000 	stceq	0, cr0, [r7, #-0]
     6f0:	3a0e0300 	bcc	3812f8 <__bss_end__+0x374bf0>
     6f4:	490b3b0b 	stmdbmi	fp, {r0, r1, r3, r8, r9, fp, ip, sp}
     6f8:	000b3813 	andeq	r3, fp, r3, lsl r8
     6fc:	00240800 	eoreq	r0, r4, r0, lsl #16
     700:	0b3e0b0b 	bleq	f83334 <__bss_end__+0xf76c2c>
     704:	00000803 	andeq	r0, r0, r3, lsl #16
     708:	49010109 	stmdbmi	r1, {r0, r3, r8}
     70c:	00130113 	andseq	r0, r3, r3, lsl r1
     710:	00210a00 	eoreq	r0, r1, r0, lsl #20
     714:	00001349 	andeq	r1, r0, r9, asr #6
     718:	0b00240b 	bleq	974c <spi_transfer+0x60>
     71c:	030b3e0b 	movweq	r3, #48651	; 0xbe0b
     720:	0c00000e 	stceq	0, cr0, [r0], {14}
     724:	193f012e 	ldmdbne	pc!, {r1, r2, r3, r5, r8}	; <UNPREDICTABLE>
     728:	0b3a0e03 	bleq	e83f3c <__bss_end__+0xe77834>
     72c:	19270b3b 	stmdbne	r7!, {r0, r1, r3, r4, r5, r8, r9, fp}
     730:	06120111 			; <UNDEFINED> instruction: 0x06120111
     734:	42971840 	addsmi	r1, r7, #64, 16	; 0x400000
     738:	00130119 	andseq	r0, r3, r9, lsl r1
     73c:	00050d00 	andeq	r0, r5, r0, lsl #26
     740:	0b3a0e03 	bleq	e83f54 <__bss_end__+0xe7784c>
     744:	13490b3b 	movtne	r0, #39739	; 0x9b3b
     748:	00001802 	andeq	r1, r0, r2, lsl #16
     74c:	11010b0e 	tstne	r1, lr, lsl #22
     750:	00061201 	andeq	r1, r6, r1, lsl #4
     754:	00340f00 	eorseq	r0, r4, r0, lsl #30
     758:	0b3a0803 	bleq	e8276c <__bss_end__+0xe76064>
     75c:	13490b3b 	movtne	r0, #39739	; 0x9b3b
     760:	00001702 	andeq	r1, r0, r2, lsl #14
     764:	0b000f10 	bleq	43ac <_start-0x3c54>
     768:	0013490b 	andseq	r4, r3, fp, lsl #18
     76c:	00341100 	eorseq	r1, r4, r0, lsl #2
     770:	0b3a0e03 	bleq	e83f84 <__bss_end__+0xe7787c>
     774:	13490b3b 	movtne	r0, #39739	; 0x9b3b
     778:	34120000 	ldrcc	r0, [r2], #-0
     77c:	3a0e0300 	bcc	381384 <__bss_end__+0x374c7c>
     780:	49053b0b 	stmdbmi	r5, {r0, r1, r3, r8, r9, fp, ip, sp}
     784:	00000013 	andeq	r0, r0, r3, lsl r0
     788:	25011101 	strcs	r1, [r1, #-257]	; 0x101
     78c:	030b130e 	movweq	r1, #45838	; 0xb30e
     790:	110e1b0e 	tstne	lr, lr, lsl #22
     794:	10061201 	andne	r1, r6, r1, lsl #4
     798:	02000017 	andeq	r0, r0, #23
     79c:	0b0b0024 	bleq	2c0834 <__bss_end__+0x2b412c>
     7a0:	0e030b3e 	vmoveq.16	d3[0], r0
     7a4:	2e030000 	cdpcs	0, 0, cr0, cr3, cr0, {0}
     7a8:	03193f01 	tsteq	r9, #1, 30
     7ac:	3b0b3a0e 	blcc	2cefec <__bss_end__+0x2c28e4>
     7b0:	4919270b 	ldmdbmi	r9, {r0, r1, r3, r8, r9, sl, sp}
     7b4:	12011113 	andne	r1, r1, #-1073741820	; 0xc0000004
     7b8:	96184006 	ldrls	r4, [r8], -r6
     7bc:	13011942 	movwne	r1, #6466	; 0x1942
     7c0:	05040000 	streq	r0, [r4, #-0]
     7c4:	3a080300 	bcc	2013cc <__bss_end__+0x1f4cc4>
     7c8:	490b3b0b 	stmdbmi	fp, {r0, r1, r3, r8, r9, fp, ip, sp}
     7cc:	00170213 	andseq	r0, r7, r3, lsl r2
     7d0:	00240500 	eoreq	r0, r4, r0, lsl #10
     7d4:	0b3e0b0b 	bleq	f83408 <__bss_end__+0xf76d00>
     7d8:	00000803 	andeq	r0, r0, r3, lsl #16
     7dc:	01110100 	tsteq	r1, r0, lsl #2
     7e0:	0b130e25 	bleq	4c407c <__bss_end__+0x4b7974>
     7e4:	0e1b0e03 	cdpeq	14, 1, cr0, cr11, cr3, {0}
     7e8:	06120111 			; <UNDEFINED> instruction: 0x06120111
     7ec:	00001710 	andeq	r1, r0, r0, lsl r7
     7f0:	0b010402 	bleq	41800 <__bss_end__+0x350f8>
     7f4:	3b0b3a0b 	blcc	2cf028 <__bss_end__+0x2c2920>
     7f8:	0013010b 	andseq	r0, r3, fp, lsl #2
     7fc:	00280300 	eoreq	r0, r8, r0, lsl #6
     800:	0d1c0803 	ldceq	8, cr0, [ip, #-12]
     804:	28040000 	stmdacs	r4, {}	; <UNPREDICTABLE>
     808:	1c0e0300 	stcne	3, cr0, [lr], {-0}
     80c:	0500000d 	streq	r0, [r0, #-13]
     810:	0e030016 	mcreq	0, 0, r0, cr3, cr6, {0}
     814:	0b3b0b3a 	bleq	ec3504 <__bss_end__+0xeb6dfc>
     818:	00001349 	andeq	r1, r0, r9, asr #6
     81c:	0b011306 	bleq	4543c <__bss_end__+0x38d34>
     820:	3b0b3a0b 	blcc	2cf054 <__bss_end__+0x2c294c>
     824:	0013010b 	andseq	r0, r3, fp, lsl #2
     828:	000d0700 	andeq	r0, sp, r0, lsl #14
     82c:	0b3a0e03 	bleq	e84040 <__bss_end__+0xe77938>
     830:	13490b3b 	movtne	r0, #39739	; 0x9b3b
     834:	00000b38 	andeq	r0, r0, r8, lsr fp
     838:	0b002408 	bleq	9860 <__aeabi_uidiv+0xe4>
     83c:	030b3e0b 	movweq	r3, #48651	; 0xbe0b
     840:	09000008 	stmdbeq	r0, {r3}
     844:	13490101 	movtne	r0, #37121	; 0x9101
     848:	00001301 	andeq	r1, r0, r1, lsl #6
     84c:	4900210a 	stmdbmi	r0, {r1, r3, r8, sp}
     850:	0b000013 	bleq	8a4 <_start-0x775c>
     854:	0b0b0024 	bleq	2c08ec <__bss_end__+0x2b41e4>
     858:	0e030b3e 	vmoveq.16	d3[0], r0
     85c:	2e0c0000 	cdpcs	0, 0, cr0, cr12, cr0, {0}
     860:	03193f01 	tsteq	r9, #1, 30
     864:	3b0b3a0e 	blcc	2cf0a4 <__bss_end__+0x2c299c>
     868:	1119270b 	tstne	r9, fp, lsl #14
     86c:	40061201 	andmi	r1, r6, r1, lsl #4
     870:	19429618 	stmdbne	r2, {r3, r4, r9, sl, ip, pc}^
     874:	00001301 	andeq	r1, r0, r1, lsl #6
     878:	0300050d 	movweq	r0, #1293	; 0x50d
     87c:	3b0b3a0e 	blcc	2cf0bc <__bss_end__+0x2c29b4>
     880:	0213490b 	andseq	r4, r3, #180224	; 0x2c000
     884:	0e000017 	mcreq	0, 0, r0, cr0, cr7, {0}
     888:	0e030034 	mcreq	0, 0, r0, cr3, cr4, {1}
     88c:	0b3b0b3a 	bleq	ec357c <__bss_end__+0xeb6e74>
     890:	17021349 	strne	r1, [r2, -r9, asr #6]
     894:	340f0000 	strcc	r0, [pc], #-0	; 89c <_start-0x7764>
     898:	3a0e0300 	bcc	3814a0 <__bss_end__+0x374d98>
     89c:	490b3b0b 	stmdbmi	fp, {r0, r1, r3, r8, r9, fp, ip, sp}
     8a0:	000b1c13 	andeq	r1, fp, r3, lsl ip
     8a4:	010b1000 	mrseq	r1, (UNDEF: 11)
     8a8:	06120111 			; <UNDEFINED> instruction: 0x06120111
     8ac:	0b110000 	bleq	4408b4 <__bss_end__+0x4341ac>
     8b0:	12011101 	andne	r1, r1, #1073741824	; 0x40000000
     8b4:	00130106 	andseq	r0, r3, r6, lsl #2
     8b8:	012e1200 	teqeq	lr, r0, lsl #4
     8bc:	0e03193f 	mcreq	9, 0, r1, cr3, cr15, {1}
     8c0:	0b3b0b3a 	bleq	ec35b0 <__bss_end__+0xeb6ea8>
     8c4:	193c1349 	ldmdbne	ip!, {r0, r3, r6, r8, r9, ip}
     8c8:	00001301 	andeq	r1, r0, r1, lsl #6
     8cc:	00001813 	andeq	r1, r0, r3, lsl r8
     8d0:	82891400 	addhi	r1, r9, #0, 8
     8d4:	01110101 	tsteq	r1, r1, lsl #2
     8d8:	00001331 	andeq	r1, r0, r1, lsr r3
     8dc:	01828a15 	orreq	r8, r2, r5, lsl sl
     8e0:	91180200 	tstls	r8, r0, lsl #4
     8e4:	00001842 	andeq	r1, r0, r2, asr #16
     8e8:	01828916 	orreq	r8, r2, r6, lsl r9
     8ec:	31011101 	tstcc	r1, r1, lsl #2
     8f0:	00130113 	andseq	r0, r3, r3, lsl r1
     8f4:	000f1700 	andeq	r1, pc, r0, lsl #14
     8f8:	13490b0b 	movtne	r0, #39691	; 0x9b0b
     8fc:	34180000 	ldrcc	r0, [r8], #-0
     900:	3a0e0300 	bcc	381508 <__bss_end__+0x374e00>
     904:	490b3b0b 	stmdbmi	fp, {r0, r1, r3, r8, r9, fp, ip, sp}
     908:	19000013 	stmdbne	r0, {r0, r1, r4}
     90c:	0e030034 	mcreq	0, 0, r0, cr3, cr4, {1}
     910:	053b0b3a 	ldreq	r0, [fp, #-2874]!	; 0xb3a
     914:	00001349 	andeq	r1, r0, r9, asr #6
     918:	3f012e1a 	svccc	0x00012e1a
     91c:	3a0e0319 	bcc	381588 <__bss_end__+0x374e80>
     920:	270b3b0b 	strcs	r3, [fp, -fp, lsl #22]
     924:	3c134919 	ldccc	9, cr4, [r3], {25}
     928:	00130119 	andseq	r0, r3, r9, lsl r1
     92c:	00051b00 	andeq	r1, r5, r0, lsl #22
     930:	00001349 	andeq	r1, r0, r9, asr #6
     934:	3f012e1c 	svccc	0x00012e1c
     938:	3a0e0319 	bcc	3815a4 <__bss_end__+0x374e9c>
     93c:	270b3b0b 	strcs	r3, [fp, -fp, lsl #22]
     940:	00193c19 	andseq	r3, r9, r9, lsl ip
     944:	11010000 	mrsne	r0, (UNDEF: 1)
     948:	130e2501 	movwne	r2, #58625	; 0xe501
     94c:	1b0e030b 	blne	381580 <__bss_end__+0x374e78>
     950:	11175508 	tstne	r7, r8, lsl #10
     954:	00171001 	andseq	r1, r7, r1
     958:	00240200 	eoreq	r0, r4, r0, lsl #4
     95c:	0b3e0b0b 	bleq	f83590 <__bss_end__+0xf76e88>
     960:	00000e03 	andeq	r0, r0, r3, lsl #28
     964:	0b010403 	bleq	41978 <__bss_end__+0x35270>
     968:	3b0b3a0b 	blcc	2cf19c <__bss_end__+0x2c2a94>
     96c:	0013010b 	andseq	r0, r3, fp, lsl #2
     970:	00280400 	eoreq	r0, r8, r0, lsl #8
     974:	0d1c0e03 	ldceq	14, cr0, [ip, #-12]
     978:	2e050000 	cdpcs	0, 0, cr0, cr5, cr0, {0}
     97c:	03193f00 	tsteq	r9, #0, 30
     980:	3b0b3a0e 	blcc	2cf1c0 <__bss_end__+0x2c2ab8>
     984:	1119270b 	tstne	r9, fp, lsl #14
     988:	40061201 	andmi	r1, r6, r1, lsl #4
     98c:	19429718 	stmdbne	r2, {r3, r4, r8, r9, sl, ip, pc}^
     990:	2e060000 	cdpcs	0, 0, cr0, cr6, cr0, {0}
     994:	03193f01 	tsteq	r9, #1, 30
     998:	3b0b3a0e 	blcc	2cf1d8 <__bss_end__+0x2c2ad0>
     99c:	1119270b 	tstne	r9, fp, lsl #14
     9a0:	40061201 	andmi	r1, r6, r1, lsl #4
     9a4:	19429718 	stmdbne	r2, {r3, r4, r8, r9, sl, ip, pc}^
     9a8:	00001301 	andeq	r1, r0, r1, lsl #6
     9ac:	03000507 	movweq	r0, #1287	; 0x507
     9b0:	3b0b3a08 	blcc	2cf1d8 <__bss_end__+0x2c2ad0>
     9b4:	0213490b 	andseq	r4, r3, #180224	; 0x2c000
     9b8:	08000018 	stmdaeq	r0, {r3, r4}
     9bc:	0e030005 	cdpeq	0, 0, cr0, cr3, cr5, {0}
     9c0:	0b3b0b3a 	bleq	ec36b0 <__bss_end__+0xeb6fa8>
     9c4:	17021349 	strne	r1, [r2, -r9, asr #6]
     9c8:	34090000 	strcc	r0, [r9], #-0
     9cc:	3a0e0300 	bcc	3815d4 <__bss_end__+0x374ecc>
     9d0:	490b3b0b 	stmdbmi	fp, {r0, r1, r3, r8, r9, fp, ip, sp}
     9d4:	00180213 	andseq	r0, r8, r3, lsl r2
     9d8:	00340a00 	eorseq	r0, r4, r0, lsl #20
     9dc:	0b3a0803 	bleq	e829f0 <__bss_end__+0xe762e8>
     9e0:	13490b3b 	movtne	r0, #39739	; 0x9b3b
     9e4:	00001802 	andeq	r1, r0, r2, lsl #16
     9e8:	0300340b 	movweq	r3, #1035	; 0x40b
     9ec:	3b0b3a08 	blcc	2cf214 <__bss_end__+0x2c2b0c>
     9f0:	0213490b 	andseq	r4, r3, #180224	; 0x2c000
     9f4:	0c000017 	stceq	0, cr0, [r0], {23}
     9f8:	0e030034 	mcreq	0, 0, r0, cr3, cr4, {1}
     9fc:	0b3b0b3a 	bleq	ec36ec <__bss_end__+0xeb6fe4>
     a00:	17021349 	strne	r1, [r2, -r9, asr #6]
     a04:	0f0d0000 	svceq	0x000d0000
     a08:	490b0b00 	stmdbmi	fp, {r8, r9, fp}
     a0c:	0e000013 	mcreq	0, 0, r0, cr0, cr3, {0}
     a10:	13490035 	movtne	r0, #36917	; 0x9035
     a14:	2e0f0000 	cdpcs	0, 0, cr0, cr15, cr0, {0}
     a18:	03193f01 	tsteq	r9, #1, 30
     a1c:	3b0b3a0e 	blcc	2cf25c <__bss_end__+0x2c2b54>
     a20:	4919270b 	ldmdbmi	r9, {r0, r1, r3, r8, r9, sl, sp}
     a24:	12011113 	andne	r1, r1, #-1073741820	; 0xc0000004
     a28:	97184006 	ldrls	r4, [r8, -r6]
     a2c:	13011942 	movwne	r1, #6466	; 0x1942
     a30:	05100000 	ldreq	r0, [r0, #-0]
     a34:	3a080300 	bcc	20163c <__bss_end__+0x1f4f34>
     a38:	490b3b0b 	stmdbmi	fp, {r0, r1, r3, r8, r9, fp, ip, sp}
     a3c:	00170213 	andseq	r0, r7, r3, lsl r2
     a40:	82891100 	addhi	r1, r9, #0, 2
     a44:	01110101 	tsteq	r1, r1, lsl #2
     a48:	00001331 	andeq	r1, r0, r1, lsr r3
     a4c:	01828a12 	orreq	r8, r2, r2, lsl sl
     a50:	91180200 	tstls	r8, r0, lsl #4
     a54:	00001842 	andeq	r1, r0, r2, asr #16
     a58:	11010b13 	tstne	r1, r3, lsl fp
     a5c:	01061201 	tsteq	r6, r1, lsl #4
     a60:	14000013 	strne	r0, [r0], #-19
     a64:	0111010b 	tsteq	r1, fp, lsl #2
     a68:	00000612 	andeq	r0, r0, r2, lsl r6
     a6c:	3f012e15 	svccc	0x00012e15
     a70:	3a0e0319 	bcc	3816dc <__bss_end__+0x374fd4>
     a74:	270b3b0b 	strcs	r3, [fp, -fp, lsl #22]
     a78:	11134919 	tstne	r3, r9, lsl r9
     a7c:	40061201 	andmi	r1, r6, r1, lsl #4
     a80:	19429718 	stmdbne	r2, {r3, r4, r8, r9, sl, ip, pc}^
     a84:	01000000 	mrseq	r0, (UNDEF: 0)
     a88:	0e250111 	mcreq	1, 1, r0, cr5, cr1, {0}
     a8c:	0e030b13 	vmoveq.32	d3[0], r0
     a90:	1755081b 	smmlane	r5, fp, r8, r0
     a94:	17100111 			; <UNDEFINED> instruction: 0x17100111
     a98:	16020000 	strne	r0, [r2], -r0
     a9c:	3a0e0300 	bcc	3816a4 <__bss_end__+0x374f9c>
     aa0:	490b3b0b 	stmdbmi	fp, {r0, r1, r3, r8, r9, fp, ip, sp}
     aa4:	03000013 	movweq	r0, #19
     aa8:	0e030113 	mcreq	1, 0, r0, cr3, cr3, {0}
     aac:	0b3a0b0b 	bleq	e836e0 <__bss_end__+0xe76fd8>
     ab0:	13010b3b 	movwne	r0, #6971	; 0x1b3b
     ab4:	0d040000 	stceq	0, cr0, [r4, #-0]
     ab8:	490e0300 	stmdbmi	lr, {r8, r9}
     abc:	340b3813 	strcc	r3, [fp], #-2067	; 0x813
     ac0:	05000019 	streq	r0, [r0, #-25]
     ac4:	0b0b000f 	bleq	2c0b08 <__bss_end__+0x2b4400>
     ac8:	2e060000 	cdpcs	0, 0, cr0, cr6, cr0, {0}
     acc:	03193f01 	tsteq	r9, #1, 30
     ad0:	3b0b3a0e 	blcc	2cf310 <__bss_end__+0x2c2c08>
     ad4:	1201110b 	andne	r1, r1, #-1073741822	; 0xc0000002
     ad8:	97184006 	ldrls	r4, [r8, -r6]
     adc:	13011942 	movwne	r1, #6466	; 0x1942
     ae0:	89070000 	stmdbhi	r7, {}	; <UNPREDICTABLE>
     ae4:	11000182 	smlabbne	r0, r2, r1, r0
     ae8:	00133101 	andseq	r3, r3, r1, lsl #2
     aec:	012e0800 	teqeq	lr, r0, lsl #16
     af0:	0e03193f 	mcreq	9, 0, r1, cr3, cr15, {1}
     af4:	0b3b0b3a 	bleq	ec37e4 <__bss_end__+0xeb70dc>
     af8:	13491927 	movtne	r1, #39207	; 0x9927
     afc:	06120111 			; <UNDEFINED> instruction: 0x06120111
     b00:	42971840 	addsmi	r1, r7, #64, 16	; 0x400000
     b04:	00130119 	andseq	r0, r3, r9, lsl r1
     b08:	00050900 	andeq	r0, r5, r0, lsl #18
     b0c:	0b3a0e03 	bleq	e84320 <__bss_end__+0xe77c18>
     b10:	13490b3b 	movtne	r0, #39739	; 0x9b3b
     b14:	00001702 	andeq	r1, r0, r2, lsl #14
     b18:	0300050a 	movweq	r0, #1290	; 0x50a
     b1c:	3b0b3a08 	blcc	2cf344 <__bss_end__+0x2c2c3c>
     b20:	0213490b 	andseq	r4, r3, #180224	; 0x2c000
     b24:	0b000018 	bleq	b8c <_start-0x7474>
     b28:	0111010b 	tsteq	r1, fp, lsl #2
     b2c:	00000612 	andeq	r0, r0, r2, lsl r6
     b30:	0300340c 	movweq	r3, #1036	; 0x40c
     b34:	3b0b3a08 	blcc	2cf35c <__bss_end__+0x2c2c54>
     b38:	0213490b 	andseq	r4, r3, #180224	; 0x2c000
     b3c:	0d000017 	stceq	0, cr0, [r0, #-92]	; 0xffffffa4
     b40:	0b0b0024 	bleq	2c0bd8 <__bss_end__+0x2b44d0>
     b44:	08030b3e 	stmdaeq	r3, {r1, r2, r3, r4, r5, r8, r9, fp}
     b48:	050e0000 	streq	r0, [lr, #-0]
     b4c:	3a080300 	bcc	201754 <__bss_end__+0x1f504c>
     b50:	490b3b0b 	stmdbmi	fp, {r0, r1, r3, r8, r9, fp, ip, sp}
     b54:	00170213 	andseq	r0, r7, r3, lsl r2
     b58:	00340f00 	eorseq	r0, r4, r0, lsl #30
     b5c:	0b3a0e03 	bleq	e84370 <__bss_end__+0xe77c68>
     b60:	13490b3b 	movtne	r0, #39739	; 0x9b3b
     b64:	00001702 	andeq	r1, r0, r2, lsl #14
     b68:	55010b10 	strpl	r0, [r1, #-2832]	; 0xb10
     b6c:	00130117 	andseq	r0, r3, r7, lsl r1
     b70:	000f1100 	andeq	r1, pc, r0, lsl #2
     b74:	13490b0b 	movtne	r0, #39691	; 0x9b0b
     b78:	24120000 	ldrcs	r0, [r2], #-0
     b7c:	3e0b0b00 	vmlacc.f64	d0, d11, d0
     b80:	000e030b 	andeq	r0, lr, fp, lsl #6
     b84:	010b1300 	mrseq	r1, (UNDEF: 59)
     b88:	00001755 	andeq	r1, r0, r5, asr r7
     b8c:	11010b14 	tstne	r1, r4, lsl fp
     b90:	01061201 	tsteq	r6, r1, lsl #4
     b94:	15000013 	strne	r0, [r0, #-19]
     b98:	01018289 	smlabbeq	r1, r9, r2, r8
     b9c:	13310111 	teqne	r1, #1073741828	; 0x40000004
     ba0:	8a160000 	bhi	580ba8 <__bss_end__+0x5744a0>
     ba4:	02000182 	andeq	r0, r0, #-2147483616	; 0x80000020
     ba8:	18429118 	stmdane	r2, {r3, r4, r8, ip, pc}^
     bac:	89170000 	ldmdbhi	r7, {}	; <UNPREDICTABLE>
     bb0:	11010182 	smlabbne	r1, r2, r1, r0
     bb4:	01133101 	tsteq	r3, r1, lsl #2
     bb8:	18000013 	stmdane	r0, {r0, r1, r4}
     bbc:	13490026 	movtne	r0, #36902	; 0x9026
     bc0:	2e190000 	cdpcs	0, 1, cr0, cr9, cr0, {0}
     bc4:	03193f01 	tsteq	r9, #1, 30
     bc8:	3b0b3a0e 	blcc	2cf408 <__bss_end__+0x2c2d00>
     bcc:	49192705 	ldmdbmi	r9, {r0, r2, r8, r9, sl, sp}
     bd0:	12011113 	andne	r1, r1, #-1073741820	; 0xc0000004
     bd4:	97184006 	ldrls	r4, [r8, -r6]
     bd8:	13011942 	movwne	r1, #6466	; 0x1942
     bdc:	051a0000 	ldreq	r0, [sl, #-0]
     be0:	3a080300 	bcc	2017e8 <__bss_end__+0x1f50e0>
     be4:	49053b0b 	stmdbmi	r5, {r0, r1, r3, r8, r9, fp, ip, sp}
     be8:	00170213 	andseq	r0, r7, r3, lsl r2
     bec:	00051b00 	andeq	r1, r5, r0, lsl #22
     bf0:	0b3a0e03 	bleq	e84404 <__bss_end__+0xe77cfc>
     bf4:	1349053b 	movtne	r0, #38203	; 0x953b
     bf8:	00001702 	andeq	r1, r0, r2, lsl #14
     bfc:	0300051c 	movweq	r0, #1308	; 0x51c
     c00:	3b0b3a0e 	blcc	2cf440 <__bss_end__+0x2c2d38>
     c04:	02134905 	andseq	r4, r3, #81920	; 0x14000
     c08:	1d000018 	stcne	0, cr0, [r0, #-96]	; 0xffffffa0
     c0c:	00000018 	andeq	r0, r0, r8, lsl r0
     c10:	0300341e 	movweq	r3, #1054	; 0x41e
     c14:	3b0b3a08 	blcc	2cf43c <__bss_end__+0x2c2d34>
     c18:	02134905 	andseq	r4, r3, #81920	; 0x14000
     c1c:	1f000018 	svcne	0x00000018
     c20:	0e030034 	mcreq	0, 0, r0, cr3, cr4, {1}
     c24:	053b0b3a 	ldreq	r0, [fp, #-2874]!	; 0xb3a
     c28:	18021349 	stmdane	r2, {r0, r3, r6, r8, r9, ip}
     c2c:	34200000 	strtcc	r0, [r0], #-0
     c30:	3a080300 	bcc	201838 <__bss_end__+0x1f5130>
     c34:	49053b0b 	stmdbmi	r5, {r0, r1, r3, r8, r9, fp, ip, sp}
     c38:	00170213 	andseq	r0, r7, r3, lsl r2
     c3c:	00342100 	eorseq	r2, r4, r0, lsl #2
     c40:	0b3a0e03 	bleq	e84454 <__bss_end__+0xe77d4c>
     c44:	1349053b 	movtne	r0, #38203	; 0x953b
     c48:	00001702 	andeq	r1, r0, r2, lsl #14
     c4c:	49010122 	stmdbmi	r1, {r1, r5, r8}
     c50:	00130113 	andseq	r0, r3, r3, lsl r1
     c54:	00212300 	eoreq	r2, r1, r0, lsl #6
     c58:	052f1349 	streq	r1, [pc, #-841]!	; 917 <_start-0x76e9>
     c5c:	2e240000 	cdpcs	0, 2, cr0, cr4, cr0, {0}
     c60:	03193f00 	tsteq	r9, #0, 30
     c64:	3b0b3a0e 	blcc	2cf4a4 <__bss_end__+0x2c2d9c>
     c68:	3c19270b 	ldccc	7, cr2, [r9], {11}
     c6c:	25000019 	strcs	r0, [r0, #-25]
     c70:	193f012e 	ldmdbne	pc!, {r1, r2, r3, r5, r8}	; <UNPREDICTABLE>
     c74:	0b3a0e03 	bleq	e84488 <__bss_end__+0xe77d80>
     c78:	19270b3b 	stmdbne	r7!, {r0, r1, r3, r4, r5, r8, r9, fp}
     c7c:	0000193c 	andeq	r1, r0, ip, lsr r9
     c80:	49000526 	stmdbmi	r0, {r1, r2, r5, r8, sl}
     c84:	00000013 	andeq	r0, r0, r3, lsl r0
     c88:	25011101 	strcs	r1, [r1, #-257]	; 0x101
     c8c:	030b130e 	movweq	r1, #45838	; 0xb30e
     c90:	55081b0e 	strpl	r1, [r8, #-2830]	; 0xb0e
     c94:	10011117 	andne	r1, r1, r7, lsl r1
     c98:	02000017 	andeq	r0, r0, #23
     c9c:	193f002e 	ldmdbne	pc!, {r1, r2, r3, r5}	; <UNPREDICTABLE>
     ca0:	0b3a0e03 	bleq	e844b4 <__bss_end__+0xe77dac>
     ca4:	19270b3b 	stmdbne	r7!, {r0, r1, r3, r4, r5, r8, r9, fp}
     ca8:	06120111 			; <UNDEFINED> instruction: 0x06120111
     cac:	42971840 	addsmi	r1, r7, #64, 16	; 0x400000
     cb0:	03000019 	movweq	r0, #25
     cb4:	193f012e 	ldmdbne	pc!, {r1, r2, r3, r5, r8}	; <UNPREDICTABLE>
     cb8:	0b3a0e03 	bleq	e844cc <__bss_end__+0xe77dc4>
     cbc:	19270b3b 	stmdbne	r7!, {r0, r1, r3, r4, r5, r8, r9, fp}
     cc0:	01111349 	tsteq	r1, r9, asr #6
     cc4:	18400612 	stmdane	r0, {r1, r4, r9, sl}^
     cc8:	01194297 			; <UNDEFINED> instruction: 0x01194297
     ccc:	04000013 	streq	r0, [r0], #-19
     cd0:	0e030034 	mcreq	0, 0, r0, cr3, cr4, {1}
     cd4:	0b3b0b3a 	bleq	ec39c4 <__bss_end__+0xeb72bc>
     cd8:	061c1349 	ldreq	r1, [ip], -r9, asr #6
     cdc:	24050000 	strcs	r0, [r5], #-0
     ce0:	3e0b0b00 	vmlacc.f64	d0, d11, d0
     ce4:	000e030b 	andeq	r0, lr, fp, lsl #6
     ce8:	000f0600 	andeq	r0, pc, r0, lsl #12
     cec:	13490b0b 	movtne	r0, #39691	; 0x9b0b
     cf0:	35070000 	strcc	r0, [r7, #-0]
     cf4:	00134900 	andseq	r4, r3, r0, lsl #18
     cf8:	012e0800 	teqeq	lr, r0, lsl #16
     cfc:	0e03193f 	mcreq	9, 0, r1, cr3, cr15, {1}
     d00:	0b3b0b3a 	bleq	ec39f0 <__bss_end__+0xeb72e8>
     d04:	01111927 	tsteq	r1, r7, lsr #18
     d08:	18400612 	stmdane	r0, {r1, r4, r9, sl}^
     d0c:	01194297 			; <UNDEFINED> instruction: 0x01194297
     d10:	09000013 	stmdbeq	r0, {r0, r1, r4}
     d14:	08030005 	stmdaeq	r3, {r0, r2}
     d18:	0b3b0b3a 	bleq	ec3a08 <__bss_end__+0xeb7300>
     d1c:	17021349 	strne	r1, [r2, -r9, asr #6]
     d20:	340a0000 	strcc	r0, [sl], #-0
     d24:	3a080300 	bcc	20192c <__bss_end__+0x1f5224>
     d28:	490b3b0b 	stmdbmi	fp, {r0, r1, r3, r8, r9, fp, ip, sp}
     d2c:	00180213 	andseq	r0, r8, r3, lsl r2
     d30:	010b0b00 	tsteq	fp, r0, lsl #22
     d34:	06120111 			; <UNDEFINED> instruction: 0x06120111
     d38:	00001301 	andeq	r1, r0, r1, lsl #6
     d3c:	0300340c 	movweq	r3, #1036	; 0x40c
     d40:	3b0b3a08 	blcc	2cf568 <__bss_end__+0x2c2e60>
     d44:	0213490b 	andseq	r4, r3, #180224	; 0x2c000
     d48:	0d000017 	stceq	0, cr0, [r0, #-92]	; 0xffffffa4
     d4c:	00018289 	andeq	r8, r1, r9, lsl #5
     d50:	13310111 	teqne	r1, #1073741828	; 0x40000004
     d54:	890e0000 	stmdbhi	lr, {}	; <UNPREDICTABLE>
     d58:	11010182 	smlabbne	r1, r2, r1, r0
     d5c:	00133101 	andseq	r3, r3, r1, lsl #2
     d60:	828a0f00 	addhi	r0, sl, #0, 30
     d64:	18020001 	stmdane	r2, {r0}
     d68:	00184291 	mulseq	r8, r1, r2
     d6c:	00241000 	eoreq	r1, r4, r0
     d70:	0b3e0b0b 	bleq	f839a4 <__bss_end__+0xf7729c>
     d74:	00000803 	andeq	r0, r0, r3, lsl #16
     d78:	03000511 	movweq	r0, #1297	; 0x511
     d7c:	3b0b3a0e 	blcc	2cf5bc <__bss_end__+0x2c2eb4>
     d80:	0213490b 	andseq	r4, r3, #180224	; 0x2c000
     d84:	12000017 	andne	r0, r0, #23
     d88:	0111010b 	tsteq	r1, fp, lsl #2
     d8c:	00000612 	andeq	r0, r0, r2, lsl r6
     d90:	03003413 	movweq	r3, #1043	; 0x413
     d94:	3b0b3a0e 	blcc	2cf5d4 <__bss_end__+0x2c2ecc>
     d98:	0213490b 	andseq	r4, r3, #180224	; 0x2c000
     d9c:	14000018 	strne	r0, [r0], #-24
     da0:	0e030034 	mcreq	0, 0, r0, cr3, cr4, {1}
     da4:	0b3b0b3a 	bleq	ec3a94 <__bss_end__+0xeb738c>
     da8:	193f1349 	ldmdbne	pc!, {r0, r3, r6, r8, r9, ip}	; <UNPREDICTABLE>
     dac:	00001802 	andeq	r1, r0, r2, lsl #16
     db0:	49002615 	stmdbmi	r0, {r0, r2, r4, r9, sl, sp}
     db4:	00000013 	andeq	r0, r0, r3, lsl r0
     db8:	25011101 	strcs	r1, [r1, #-257]	; 0x101
     dbc:	030b130e 	movweq	r1, #45838	; 0xb30e
     dc0:	55081b0e 	strpl	r1, [r8, #-2830]	; 0xb0e
     dc4:	10011117 	andne	r1, r1, r7, lsl r1
     dc8:	02000017 	andeq	r0, r0, #23
     dcc:	0b0b0104 	bleq	2c11e4 <__bss_end__+0x2b4adc>
     dd0:	0b3b0b3a 	bleq	ec3ac0 <__bss_end__+0xeb73b8>
     dd4:	00001301 	andeq	r1, r0, r1, lsl #6
     dd8:	03002803 	movweq	r2, #2051	; 0x803
     ddc:	000d1c0e 	andeq	r1, sp, lr, lsl #24
     de0:	01130400 	tsteq	r3, r0, lsl #8
     de4:	0b0b0e03 	bleq	2c45f8 <__bss_end__+0x2b7ef0>
     de8:	0b3b0b3a 	bleq	ec3ad8 <__bss_end__+0xeb73d0>
     dec:	00001301 	andeq	r1, r0, r1, lsl #6
     df0:	03000d05 	movweq	r0, #3333	; 0xd05
     df4:	3b0b3a0e 	blcc	2cf634 <__bss_end__+0x2c2f2c>
     df8:	3813490b 	ldmdacc	r3, {r0, r1, r3, r8, fp, lr}
     dfc:	0600000b 	streq	r0, [r0], -fp
     e00:	0803000d 	stmdaeq	r3, {r0, r2, r3}
     e04:	0b3b0b3a 	bleq	ec3af4 <__bss_end__+0xeb73ec>
     e08:	0b381349 	bleq	e05b34 <__bss_end__+0xdf942c>
     e0c:	24070000 	strcs	r0, [r7], #-0
     e10:	3e0b0b00 	vmlacc.f64	d0, d11, d0
     e14:	000e030b 	andeq	r0, lr, fp, lsl #6
     e18:	012e0800 	teqeq	lr, r0, lsl #16
     e1c:	0e03193f 	mcreq	9, 0, r1, cr3, cr15, {1}
     e20:	0b3b0b3a 	bleq	ec3b10 <__bss_end__+0xeb7408>
     e24:	01111927 	tsteq	r1, r7, lsr #18
     e28:	18400612 	stmdane	r0, {r1, r4, r9, sl}^
     e2c:	01194297 			; <UNDEFINED> instruction: 0x01194297
     e30:	09000013 	stmdbeq	r0, {r0, r1, r4}
     e34:	08030034 	stmdaeq	r3, {r2, r4, r5}
     e38:	0b3b0b3a 	bleq	ec3b28 <__bss_end__+0xeb7420>
     e3c:	061c1349 	ldreq	r1, [ip], -r9, asr #6
     e40:	890a0000 	stmdbhi	sl, {}	; <UNPREDICTABLE>
     e44:	11010182 	smlabbne	r1, r2, r1, r0
     e48:	01133101 	tsteq	r3, r1, lsl #2
     e4c:	0b000013 	bleq	ea0 <_start-0x7160>
     e50:	0001828a 	andeq	r8, r1, sl, lsl #5
     e54:	42911802 	addsmi	r1, r1, #131072	; 0x20000
     e58:	0c000018 	stceq	0, cr0, [r0], {24}
     e5c:	01018289 	smlabbeq	r1, r9, r2, r8
     e60:	13310111 	teqne	r1, #1073741828	; 0x40000004
     e64:	0f0d0000 	svceq	0x000d0000
     e68:	490b0b00 	stmdbmi	fp, {r8, r9, fp}
     e6c:	0e000013 	mcreq	0, 0, r0, cr0, cr3, {0}
     e70:	0b0b0024 	bleq	2c0f08 <__bss_end__+0x2b4800>
     e74:	08030b3e 	stmdaeq	r3, {r1, r2, r3, r4, r5, r8, r9, fp}
     e78:	2e0f0000 	cdpcs	0, 0, cr0, cr15, cr0, {0}
     e7c:	03193f00 	tsteq	r9, #0, 30
     e80:	3b0b3a0e 	blcc	2cf6c0 <__bss_end__+0x2c2fb8>
     e84:	4919270b 	ldmdbmi	r9, {r0, r1, r3, r8, r9, sl, sp}
     e88:	12011113 	andne	r1, r1, #-1073741820	; 0xc0000004
     e8c:	97184006 	ldrls	r4, [r8, -r6]
     e90:	00001942 	andeq	r1, r0, r2, asr #18
     e94:	03000510 	movweq	r0, #1296	; 0x510
     e98:	3b0b3a08 	blcc	2cf6c0 <__bss_end__+0x2c2fb8>
     e9c:	0213490b 	andseq	r4, r3, #180224	; 0x2c000
     ea0:	11000017 	tstne	r0, r7, lsl r0
     ea4:	193f002e 	ldmdbne	pc!, {r1, r2, r3, r5}	; <UNPREDICTABLE>
     ea8:	0b3a0e03 	bleq	e846bc <__bss_end__+0xe77fb4>
     eac:	19270b3b 	stmdbne	r7!, {r0, r1, r3, r4, r5, r8, r9, fp}
     eb0:	06120111 			; <UNDEFINED> instruction: 0x06120111
     eb4:	42971840 	addsmi	r1, r7, #64, 16	; 0x400000
     eb8:	12000019 	andne	r0, r0, #25
     ebc:	0e030034 	mcreq	0, 0, r0, cr3, cr4, {1}
     ec0:	0b3b0b3a 	bleq	ec3bb0 <__bss_end__+0xeb74a8>
     ec4:	061c1349 	ldreq	r1, [ip], -r9, asr #6
     ec8:	26130000 	ldrcs	r0, [r3], -r0
     ecc:	00134900 	andseq	r4, r3, r0, lsl #18
     ed0:	00351400 	eorseq	r1, r5, r0, lsl #8
     ed4:	00001349 	andeq	r1, r0, r9, asr #6
     ed8:	3f012e15 	svccc	0x00012e15
     edc:	3a0e0319 	bcc	381b48 <__bss_end__+0x375440>
     ee0:	270b3b0b 	strcs	r3, [fp, -fp, lsl #22]
     ee4:	00193c19 	andseq	r3, r9, r9, lsl ip
     ee8:	00051600 	andeq	r1, r5, r0, lsl #12
     eec:	00001349 	andeq	r1, r0, r9, asr #6
     ef0:	01110100 	tsteq	r1, r0, lsl #2
     ef4:	0b130e25 	bleq	4c4790 <__bss_end__+0x4b8088>
     ef8:	081b0e03 	ldmdaeq	fp, {r0, r1, r9, sl, fp}
     efc:	01111755 	tsteq	r1, r5, asr r7
     f00:	00001710 	andeq	r1, r0, r0, lsl r7
     f04:	0b010402 	bleq	41f14 <__bss_end__+0x3580c>
     f08:	3b0b3a0b 	blcc	2cf73c <__bss_end__+0x2c3034>
     f0c:	0013010b 	andseq	r0, r3, fp, lsl #2
     f10:	00280300 	eoreq	r0, r8, r0, lsl #6
     f14:	0d1c0e03 	ldceq	14, cr0, [ip, #-12]
     f18:	2e040000 	cdpcs	0, 0, cr0, cr4, cr0, {0}
     f1c:	03193f01 	tsteq	r9, #1, 30
     f20:	3b0b3a0e 	blcc	2cf760 <__bss_end__+0x2c3058>
     f24:	1119270b 	tstne	r9, fp, lsl #14
     f28:	40061201 	andmi	r1, r6, r1, lsl #4
     f2c:	19429718 	stmdbne	r2, {r3, r4, r8, r9, sl, ip, pc}^
     f30:	00001301 	andeq	r1, r0, r1, lsl #6
     f34:	03000505 	movweq	r0, #1285	; 0x505
     f38:	3b0b3a08 	blcc	2cf760 <__bss_end__+0x2c3058>
     f3c:	0213490b 	andseq	r4, r3, #180224	; 0x2c000
     f40:	06000017 			; <UNDEFINED> instruction: 0x06000017
     f44:	0e030034 	mcreq	0, 0, r0, cr3, cr4, {1}
     f48:	0b3b0b3a 	bleq	ec3c38 <__bss_end__+0xeb7530>
     f4c:	061c1349 	ldreq	r1, [ip], -r9, asr #6
     f50:	89070000 	stmdbhi	r7, {}	; <UNPREDICTABLE>
     f54:	11010182 	smlabbne	r1, r2, r1, r0
     f58:	01133101 	tsteq	r3, r1, lsl #2
     f5c:	08000013 	stmdaeq	r0, {r0, r1, r4}
     f60:	0001828a 	andeq	r8, r1, sl, lsl #5
     f64:	42911802 	addsmi	r1, r1, #131072	; 0x20000
     f68:	09000018 	stmdbeq	r0, {r3, r4}
     f6c:	01018289 	smlabbeq	r1, r9, r2, r8
     f70:	13310111 	teqne	r1, #1073741828	; 0x40000004
     f74:	240a0000 	strcs	r0, [sl], #-0
     f78:	3e0b0b00 	vmlacc.f64	d0, d11, d0
     f7c:	000e030b 	andeq	r0, lr, fp, lsl #6
     f80:	000f0b00 	andeq	r0, pc, r0, lsl #22
     f84:	13490b0b 	movtne	r0, #39691	; 0x9b0b
     f88:	350c0000 	strcc	r0, [ip, #-0]
     f8c:	00134900 	andseq	r4, r3, r0, lsl #18
     f90:	012e0d00 	teqeq	lr, r0, lsl #26
     f94:	0e03193f 	mcreq	9, 0, r1, cr3, cr15, {1}
     f98:	0b3b0b3a 	bleq	ec3c88 <__bss_end__+0xeb7580>
     f9c:	193c1927 	ldmdbne	ip!, {r0, r1, r2, r5, r8, fp, ip}
     fa0:	050e0000 	streq	r0, [lr, #-0]
     fa4:	00134900 	andseq	r4, r3, r0, lsl #18
     fa8:	11010000 	mrsne	r0, (UNDEF: 1)
     fac:	130e2501 	movwne	r2, #58625	; 0xe501
     fb0:	1b0e030b 	blne	381be4 <__bss_end__+0x3754dc>
     fb4:	11175508 	tstne	r7, r8, lsl #10
     fb8:	00171001 	andseq	r1, r7, r1
     fbc:	01040200 	mrseq	r0, R12_usr
     fc0:	0b3a0b0b 	bleq	e83bf4 <__bss_end__+0xe774ec>
     fc4:	13010b3b 	movwne	r0, #6971	; 0x1b3b
     fc8:	28030000 	stmdacs	r3, {}	; <UNPREDICTABLE>
     fcc:	1c0e0300 	stcne	3, cr0, [lr], {-0}
     fd0:	0400000d 	streq	r0, [r0], #-13
     fd4:	08030113 	stmdaeq	r3, {r0, r1, r4, r8}
     fd8:	0b3a0b0b 	bleq	e83c0c <__bss_end__+0xe77504>
     fdc:	13010b3b 	movwne	r0, #6971	; 0x1b3b
     fe0:	0d050000 	stceq	0, cr0, [r5, #-0]
     fe4:	3a080300 	bcc	201bec <__bss_end__+0x1f54e4>
     fe8:	490b3b0b 	stmdbmi	fp, {r0, r1, r3, r8, r9, fp, ip, sp}
     fec:	000b3813 	andeq	r3, fp, r3, lsl r8
     ff0:	000d0600 	andeq	r0, sp, r0, lsl #12
     ff4:	0b3a0e03 	bleq	e84808 <__bss_end__+0xe78100>
     ff8:	13490b3b 	movtne	r0, #39739	; 0x9b3b
     ffc:	00000b38 	andeq	r0, r0, r8, lsr fp
    1000:	0b002407 	bleq	a024 <__aeabi_dmul+0x22c>
    1004:	030b3e0b 	movweq	r3, #48651	; 0xbe0b
    1008:	0800000e 	stmdaeq	r0, {r1, r2, r3}
    100c:	193f012e 	ldmdbne	pc!, {r1, r2, r3, r5, r8}	; <UNPREDICTABLE>
    1010:	0b3a0e03 	bleq	e84824 <__bss_end__+0xe7811c>
    1014:	19270b3b 	stmdbne	r7!, {r0, r1, r3, r4, r5, r8, r9, fp}
    1018:	06120111 			; <UNDEFINED> instruction: 0x06120111
    101c:	42971840 	addsmi	r1, r7, #64, 16	; 0x400000
    1020:	00130119 	andseq	r0, r3, r9, lsl r1
    1024:	00050900 	andeq	r0, r5, r0, lsl #18
    1028:	0b3a0e03 	bleq	e8483c <__bss_end__+0xe78134>
    102c:	13490b3b 	movtne	r0, #39739	; 0x9b3b
    1030:	00001702 	andeq	r1, r0, r2, lsl #14
    1034:	0182890a 	orreq	r8, r2, sl, lsl #18
    1038:	31011101 	tstcc	r1, r1, lsl #2
    103c:	00130113 	andseq	r0, r3, r3, lsl r1
    1040:	828a0b00 	addhi	r0, sl, #0, 22
    1044:	18020001 	stmdane	r2, {r0}
    1048:	00184291 	mulseq	r8, r1, r2
    104c:	82890c00 	addhi	r0, r9, #0, 24
    1050:	01110101 	tsteq	r1, r1, lsl #2
    1054:	00001331 	andeq	r1, r0, r1, lsr r3
    1058:	0300050d 	movweq	r0, #1293	; 0x50d
    105c:	3b0b3a08 	blcc	2cf884 <__bss_end__+0x2c317c>
    1060:	0213490b 	andseq	r4, r3, #180224	; 0x2c000
    1064:	0e000018 	mcreq	0, 0, r0, cr0, cr8, {0}
    1068:	08030005 	stmdaeq	r3, {r0, r2}
    106c:	0b3b0b3a 	bleq	ec3d5c <__bss_end__+0xeb7654>
    1070:	17021349 	strne	r1, [r2, -r9, asr #6]
    1074:	0b0f0000 	bleq	3c107c <__bss_end__+0x3b4974>
    1078:	12011101 	andne	r1, r1, #1073741824	; 0x40000000
    107c:	10000006 	andne	r0, r0, r6
    1080:	08030034 	stmdaeq	r3, {r2, r4, r5}
    1084:	0b3b0b3a 	bleq	ec3d74 <__bss_end__+0xeb766c>
    1088:	17021349 	strne	r1, [r2, -r9, asr #6]
    108c:	0f110000 	svceq	0x00110000
    1090:	490b0b00 	stmdbmi	fp, {r8, r9, fp}
    1094:	12000013 	andne	r0, r0, #19
    1098:	0b0b0024 	bleq	2c1130 <__bss_end__+0x2b4a28>
    109c:	08030b3e 	stmdaeq	r3, {r1, r2, r3, r4, r5, r8, r9, fp}
    10a0:	34130000 	ldrcc	r0, [r3], #-0
    10a4:	3a080300 	bcc	201cac <__bss_end__+0x1f55a4>
    10a8:	490b3b0b 	stmdbmi	fp, {r0, r1, r3, r8, r9, fp, ip, sp}
    10ac:	02193f13 	andseq	r3, r9, #19, 30	; 0x4c
    10b0:	14000018 	strne	r0, [r0], #-24
    10b4:	13490035 	movtne	r0, #36917	; 0x9035
    10b8:	2e150000 	cdpcs	0, 1, cr0, cr5, cr0, {0}
    10bc:	03193f01 	tsteq	r9, #1, 30
    10c0:	3b0b3a0e 	blcc	2cf900 <__bss_end__+0x2c31f8>
    10c4:	3c19270b 	ldccc	7, cr2, [r9], {11}
    10c8:	16000019 			; <UNDEFINED> instruction: 0x16000019
    10cc:	13490005 	movtne	r0, #36869	; 0x9005
    10d0:	01000000 	mrseq	r0, (UNDEF: 0)
    10d4:	06100011 			; <UNDEFINED> instruction: 0x06100011
    10d8:	01120111 	tsteq	r2, r1, lsl r1
    10dc:	081b0803 	ldmdaeq	fp, {r0, r1, fp}
    10e0:	05130825 	ldreq	r0, [r3, #-2085]	; 0x825
    10e4:	01000000 	mrseq	r0, (UNDEF: 0)
    10e8:	06100011 			; <UNDEFINED> instruction: 0x06100011
    10ec:	01120111 	tsteq	r2, r1, lsl r1
    10f0:	081b0803 	ldmdaeq	fp, {r0, r1, fp}
    10f4:	05130825 	ldreq	r0, [r3, #-2085]	; 0x825
    10f8:	01000000 	mrseq	r0, (UNDEF: 0)
    10fc:	06100011 			; <UNDEFINED> instruction: 0x06100011
    1100:	01120111 	tsteq	r2, r1, lsl r1
    1104:	081b0803 	ldmdaeq	fp, {r0, r1, fp}
    1108:	05130825 	ldreq	r0, [r3, #-2085]	; 0x825
    110c:	01000000 	mrseq	r0, (UNDEF: 0)
    1110:	06100011 			; <UNDEFINED> instruction: 0x06100011
    1114:	01120111 	tsteq	r2, r1, lsl r1
    1118:	081b0803 	ldmdaeq	fp, {r0, r1, fp}
    111c:	05130825 	ldreq	r0, [r3, #-2085]	; 0x825
    1120:	01000000 	mrseq	r0, (UNDEF: 0)
    1124:	06100011 			; <UNDEFINED> instruction: 0x06100011
    1128:	01120111 	tsteq	r2, r1, lsl r1
    112c:	081b0803 	ldmdaeq	fp, {r0, r1, fp}
    1130:	05130825 	ldreq	r0, [r3, #-2085]	; 0x825
    1134:	01000000 	mrseq	r0, (UNDEF: 0)
    1138:	06100011 			; <UNDEFINED> instruction: 0x06100011
    113c:	01120111 	tsteq	r2, r1, lsl r1
    1140:	081b0803 	ldmdaeq	fp, {r0, r1, fp}
    1144:	05130825 	ldreq	r0, [r3, #-2085]	; 0x825
    1148:	01000000 	mrseq	r0, (UNDEF: 0)
    114c:	06100011 			; <UNDEFINED> instruction: 0x06100011
    1150:	01120111 	tsteq	r2, r1, lsl r1
    1154:	081b0803 	ldmdaeq	fp, {r0, r1, fp}
    1158:	05130825 	ldreq	r0, [r3, #-2085]	; 0x825
    115c:	Address 0x000000000000115c is out of bounds.


Disassembly of section .debug_aranges:

00000000 <.debug_aranges>:
   0:	0000001c 	andeq	r0, r0, ip, lsl r0
   4:	00000002 	andeq	r0, r0, r2
   8:	00040000 	andeq	r0, r4, r0
   c:	00000000 	andeq	r0, r0, r0
  10:	00008010 	andeq	r8, r0, r0, lsl r0
  14:	00000030 	andeq	r0, r0, r0, lsr r0
	...
  20:	0000001c 	andeq	r0, r0, ip, lsl r0
  24:	02d00002 	sbcseq	r0, r0, #2
  28:	00040000 	andeq	r0, r4, r0
  2c:	00000000 	andeq	r0, r0, r0
  30:	00008040 	andeq	r8, r0, r0, asr #32
  34:	00000038 	andeq	r0, r0, r8, lsr r0
	...
  40:	0000001c 	andeq	r0, r0, ip, lsl r0
  44:	035b0002 	cmpeq	fp, #2
  48:	00040000 	andeq	r0, r4, r0
  4c:	00000000 	andeq	r0, r0, r0
  50:	00008078 	andeq	r8, r0, r8, ror r0
  54:	00000270 	andeq	r0, r0, r0, ror r2
	...
  60:	0000001c 	andeq	r0, r0, ip, lsl r0
  64:	058f0002 	streq	r0, [pc, #2]	; 6e <_start-0x7f92>
  68:	00040000 	andeq	r0, r4, r0
  6c:	00000000 	andeq	r0, r0, r0
  70:	000082e8 	andeq	r8, r0, r8, ror #5
  74:	00000020 	andeq	r0, r0, r0, lsr #32
	...
  80:	0000001c 	andeq	r0, r0, ip, lsl r0
  84:	065b0002 	ldrbeq	r0, [fp], -r2
  88:	00040000 	andeq	r0, r4, r0
  8c:	00000000 	andeq	r0, r0, r0
  90:	00008308 	andeq	r8, r0, r8, lsl #6
  94:	00000158 	andeq	r0, r0, r8, asr r1
	...
  a0:	0000001c 	andeq	r0, r0, ip, lsl r0
  a4:	09f10002 	ldmibeq	r1!, {r1}^
  a8:	00040000 	andeq	r0, r4, r0
  ac:	00000000 	andeq	r0, r0, r0
  b0:	00008460 	andeq	r8, r0, r0, ror #8
  b4:	0000006c 	andeq	r0, r0, ip, rrx
	...
  c0:	0000001c 	andeq	r0, r0, ip, lsl r0
  c4:	0afd0002 	beq	fff400d4 <__bss_end__+0xfff339cc>
  c8:	00040000 	andeq	r0, r4, r0
  cc:	00000000 	andeq	r0, r0, r0
  d0:	000084d0 	ldrdeq	r8, [r0], -r0
  d4:	000002a0 	andeq	r0, r0, r0, lsr #5
	...
  e0:	0000001c 	andeq	r0, r0, ip, lsl r0
  e4:	0cf40002 	ldcleq	0, cr0, [r4], #8
  e8:	00040000 	andeq	r0, r4, r0
  ec:	00000000 	andeq	r0, r0, r0
  f0:	00008770 	andeq	r8, r0, r0, ror r7
  f4:	00000018 	andeq	r0, r0, r8, lsl r0
	...
 100:	0000001c 	andeq	r0, r0, ip, lsl r0
 104:	0f7a0002 	svceq	0x007a0002
 108:	00040000 	andeq	r0, r4, r0
 10c:	00000000 	andeq	r0, r0, r0
 110:	00008788 	andeq	r8, r0, r8, lsl #15
 114:	00000068 	andeq	r0, r0, r8, rrx
	...
 120:	0000001c 	andeq	r0, r0, ip, lsl r0
 124:	0fd70002 	svceq	0x00d70002
 128:	00040000 	andeq	r0, r4, r0
 12c:	00000000 	andeq	r0, r0, r0
 130:	000087f0 	strdeq	r8, [r0], -r0
 134:	00000444 	andeq	r0, r0, r4, asr #8
	...
 140:	0000004c 	andeq	r0, r0, ip, asr #32
 144:	166b0002 	strbtne	r0, [fp], -r2
 148:	00040000 	andeq	r0, r4, r0
 14c:	00000000 	andeq	r0, r0, r0
 150:	00008c64 	andeq	r8, r0, r4, ror #24
 154:	00000010 	andeq	r0, r0, r0, lsl r0
 158:	00008c74 	andeq	r8, r0, r4, ror ip
 15c:	00000064 	andeq	r0, r0, r4, rrx
 160:	00008cd8 	ldrdeq	r8, [r0], -r8	; <UNPREDICTABLE>
 164:	00000058 	andeq	r0, r0, r8, asr r0
 168:	00008d30 	andeq	r8, r0, r0, lsr sp
 16c:	00000018 	andeq	r0, r0, r8, lsl r0
 170:	00008d48 	andeq	r8, r0, r8, asr #26
 174:	00000018 	andeq	r0, r0, r8, lsl r0
 178:	00008d60 	andeq	r8, r0, r0, ror #26
 17c:	00000060 	andeq	r0, r0, r0, rrx
 180:	00008dc0 	andeq	r8, r0, r0, asr #27
 184:	00000048 	andeq	r0, r0, r8, asr #32
	...
 190:	00000054 	andeq	r0, r0, r4, asr r0
 194:	192d0002 	stmfdne	sp!, {r1}
 198:	00040000 	andeq	r0, r4, r0
 19c:	00000000 	andeq	r0, r0, r0
 1a0:	00008e08 	andeq	r8, r0, r8, lsl #28
 1a4:	00000014 	andeq	r0, r0, r4, lsl r0
 1a8:	00008e1c 	andeq	r8, r0, ip, lsl lr
 1ac:	00000038 	andeq	r0, r0, r8, lsr r0
 1b0:	00008e54 	andeq	r8, r0, r4, asr lr
 1b4:	000000c8 	andeq	r0, r0, r8, asr #1
 1b8:	00008f1c 	andeq	r8, r0, ip, lsl pc
 1bc:	000000d8 	ldrdeq	r0, [r0], -r8
 1c0:	00008ff4 	strdeq	r8, [r0], -r4
 1c4:	0000014c 	andeq	r0, r0, ip, asr #2
 1c8:	00009140 	andeq	r9, r0, r0, asr #2
 1cc:	000001e0 	andeq	r0, r0, r0, ror #3
 1d0:	00009320 	andeq	r9, r0, r0, lsr #6
 1d4:	0000002c 	andeq	r0, r0, ip, lsr #32
 1d8:	0000934c 	andeq	r9, r0, ip, asr #6
 1dc:	00000068 	andeq	r0, r0, r8, rrx
	...
 1e8:	00000044 	andeq	r0, r0, r4, asr #32
 1ec:	1f190002 	svcne	0x00190002
 1f0:	00040000 	andeq	r0, r4, r0
 1f4:	00000000 	andeq	r0, r0, r0
 1f8:	000093b4 			; <UNDEFINED> instruction: 0x000093b4
 1fc:	00000010 	andeq	r0, r0, r0, lsl r0
 200:	000093c4 	andeq	r9, r0, r4, asr #7
 204:	0000001c 	andeq	r0, r0, ip, lsl r0
 208:	000093e0 	andeq	r9, r0, r0, ror #7
 20c:	0000002c 	andeq	r0, r0, ip, lsr #32
 210:	0000940c 	andeq	r9, r0, ip, lsl #8
 214:	00000034 	andeq	r0, r0, r4, lsr r0
 218:	00009440 	andeq	r9, r0, r0, asr #8
 21c:	00000034 	andeq	r0, r0, r4, lsr r0
 220:	00009474 	andeq	r9, r0, r4, ror r4
 224:	00000020 	andeq	r0, r0, r0, lsr #32
	...
 230:	00000034 	andeq	r0, r0, r4, lsr r0
 234:	20ca0002 	sbccs	r0, sl, r2
 238:	00040000 	andeq	r0, r4, r0
 23c:	00000000 	andeq	r0, r0, r0
 240:	00009494 	muleq	r0, r4, r4
 244:	00000068 	andeq	r0, r0, r8, rrx
 248:	000094fc 	strdeq	r9, [r0], -ip
 24c:	00000030 	andeq	r0, r0, r0, lsr r0
 250:	0000952c 	andeq	r9, r0, ip, lsr #10
 254:	00000040 	andeq	r0, r0, r0, asr #32
 258:	0000956c 	andeq	r9, r0, ip, ror #10
 25c:	00000024 	andeq	r0, r0, r4, lsr #32
	...
 268:	0000002c 	andeq	r0, r0, ip, lsr #32
 26c:	22ac0002 	adccs	r0, ip, #2
 270:	00040000 	andeq	r0, r4, r0
 274:	00000000 	andeq	r0, r0, r0
 278:	00009590 	muleq	r0, r0, r5
 27c:	00000068 	andeq	r0, r0, r8, rrx
 280:	000095f8 	strdeq	r9, [r0], -r8
 284:	00000020 	andeq	r0, r0, r0, lsr #32
 288:	00009618 	andeq	r9, r0, r8, lsl r6
 28c:	00000018 	andeq	r0, r0, r8, lsl r0
	...
 298:	00000024 	andeq	r0, r0, r4, lsr #32
 29c:	241a0002 	ldrcs	r0, [sl], #-2
 2a0:	00040000 	andeq	r0, r4, r0
 2a4:	00000000 	andeq	r0, r0, r0
 2a8:	00009630 	andeq	r9, r0, r0, lsr r6
 2ac:	000000bc 	strheq	r0, [r0], -ip
 2b0:	000096ec 	andeq	r9, r0, ip, ror #13
 2b4:	00000090 	muleq	r0, r0, r0
	...
 2c0:	0000001c 	andeq	r0, r0, ip, lsl r0
 2c4:	276e0002 	strbcs	r0, [lr, -r2]!
 2c8:	00040000 	andeq	r0, r4, r0
 2cc:	00000000 	andeq	r0, r0, r0
 2d0:	0000977c 	andeq	r9, r0, ip, ror r7
 2d4:	00000114 	andeq	r0, r0, r4, lsl r1
	...
 2e0:	0000001c 	andeq	r0, r0, ip, lsl r0
 2e4:	281a0002 	ldmdacs	sl, {r1}
 2e8:	00040000 	andeq	r0, r4, r0
 2ec:	00000000 	andeq	r0, r0, r0
 2f0:	00009890 	muleq	r0, r0, r8
 2f4:	00000148 	andeq	r0, r0, r8, asr #2
	...
 300:	0000001c 	andeq	r0, r0, ip, lsl r0
 304:	28c60002 	stmiacs	r6, {r1}^
 308:	00040000 	andeq	r0, r4, r0
 30c:	00000000 	andeq	r0, r0, r0
 310:	000099d8 	ldrdeq	r9, [r0], -r8
 314:	00000004 	andeq	r0, r0, r4
	...
 320:	0000001c 	andeq	r0, r0, ip, lsl r0
 324:	29720002 	ldmdbcs	r2!, {r1}^
 328:	00040000 	andeq	r0, r4, r0
 32c:	00000000 	andeq	r0, r0, r0
 330:	000099dc 	ldrdeq	r9, [r0], -ip
 334:	0000041c 	andeq	r0, r0, ip, lsl r4
	...
 340:	0000001c 	andeq	r0, r0, ip, lsl r0
 344:	2a1f0002 	bcs	7c0354 <__bss_end__+0x7b3c4c>
 348:	00040000 	andeq	r0, r4, r0
 34c:	00000000 	andeq	r0, r0, r0
 350:	00009df8 	strdeq	r9, [r0], -r8
 354:	0000049c 	muleq	r0, ip, r4
	...
 360:	0000001c 	andeq	r0, r0, ip, lsl r0
 364:	2acc0002 	bcs	ff300374 <__bss_end__+0xff2f3c6c>
 368:	00040000 	andeq	r0, r4, r0
 36c:	00000000 	andeq	r0, r0, r0
 370:	0000a294 	muleq	r0, r4, r2
 374:	00000144 	andeq	r0, r0, r4, asr #2
	...
 380:	0000001c 	andeq	r0, r0, ip, lsl r0
 384:	2b790002 	blcs	1e40394 <__bss_end__+0x1e33c8c>
 388:	00040000 	andeq	r0, r4, r0
 38c:	00000000 	andeq	r0, r0, r0
 390:	0000a3d8 	ldrdeq	sl, [r0], -r8
 394:	0000005c 	andeq	r0, r0, ip, asr r0
	...

Disassembly of section .debug_line:

00000000 <.debug_line>:
   0:	00000073 	andeq	r0, r0, r3, ror r0
   4:	00560002 	subseq	r0, r6, r2
   8:	01020000 	mrseq	r0, (UNDEF: 2)
   c:	000d0efb 	strdeq	r0, [sp], -fp
  10:	01010101 	tsteq	r1, r1, lsl #2
  14:	01000000 	mrseq	r0, (UNDEF: 0)
  18:	00010000 	andeq	r0, r1, r0
  1c:	2d6d7770 	stclcs	7, cr7, [sp, #-448]!	; 0xfffffe40
  20:	656e6973 	strbvs	r6, [lr, #-2419]!	; 0x973
  24:	0000632e 	andeq	r6, r0, lr, lsr #6
  28:	75610000 	strbvc	r0, [r1, #-0]!
  2c:	2e6f6964 	cdpcs	9, 6, cr6, cr15, cr4, {3}
  30:	00000068 	andeq	r0, r0, r8, rrx
  34:	6e6f7300 	cdpvs	3, 6, cr7, cr15, cr0, {0}
  38:	00682e67 	rsbeq	r2, r8, r7, ror #28
  3c:	70000000 	andvc	r0, r0, r0
  40:	70697265 	rsbvc	r7, r9, r5, ror #4
  44:	61726568 	cmnvs	r2, r8, ror #10
  48:	682e736c 	stmdavs	lr!, {r2, r3, r5, r6, r8, r9, ip, sp, lr}
  4c:	00000000 	andeq	r0, r0, r0
  50:	6e727574 	mrcvs	5, 3, r7, cr2, cr4, {3}
  54:	6c626174 	stfvse	f6, [r2], #-464	; 0xfffffe30
  58:	00682e65 	rsbeq	r2, r8, r5, ror #28
  5c:	00000000 	andeq	r0, r0, r0
  60:	10020500 	andne	r0, r2, r0, lsl #10
  64:	03000080 	movweq	r0, #128	; 0x80
  68:	302f010b 	eorcc	r0, pc, fp, lsl #2
  6c:	032e1703 	teqeq	lr, #786432	; 0xc0000
  70:	0602ba1f 			; <UNDEFINED> instruction: 0x0602ba1f
  74:	3e010100 	adfccs	f0, f1, f0
  78:	02000000 	andeq	r0, r0, #0
  7c:	00001f00 	andeq	r1, r0, r0, lsl #30
  80:	fb010200 	blx	4088a <__bss_end__+0x34182>
  84:	01000d0e 	tsteq	r0, lr, lsl #26
  88:	00010101 	andeq	r0, r1, r1, lsl #2
  8c:	00010000 	andeq	r0, r1, r0
  90:	63000100 	movwvs	r0, #256	; 0x100
  94:	72617473 	rsbvc	r7, r1, #1929379840	; 0x73000000
  98:	00632e74 	rsbeq	r2, r3, r4, ror lr
  9c:	00000000 	andeq	r0, r0, r0
  a0:	40020500 	andmi	r0, r2, r0, lsl #10
  a4:	17000080 	strne	r0, [r0, -r0, lsl #1]
  a8:	2d2f312f 	stfcss	f3, [pc, #-188]!	; fffffff4 <__bss_end__+0xffff38ec>
  ac:	0402002f 	streq	r0, [r2], #-47	; 0x2f
  b0:	2f4d4901 	svccs	0x004d4901
  b4:	01000802 	tsteq	r0, r2, lsl #16
  b8:	00007801 	andeq	r7, r0, r1, lsl #16
  bc:	29000200 	stmdbcs	r0, {r9}
  c0:	02000000 	andeq	r0, r0, #0
  c4:	0d0efb01 	vstreq	d15, [lr, #-4]
  c8:	01010100 	mrseq	r0, (UNDEF: 17)
  cc:	00000001 	andeq	r0, r0, r1
  d0:	01000001 	tsteq	r0, r1
  d4:	64756100 	ldrbtvs	r6, [r5], #-256	; 0x100
  d8:	632e6f69 	teqvs	lr, #420	; 0x1a4
  dc:	00000000 	andeq	r0, r0, r0
  e0:	656d6974 	strbvs	r6, [sp, #-2420]!	; 0x974
  e4:	00682e72 	rsbeq	r2, r8, r2, ror lr
  e8:	00000000 	andeq	r0, r0, r0
  ec:	78020500 	stmdavc	r2, {r8, sl}
  f0:	03000080 	movweq	r0, #128	; 0x80
  f4:	2f0100db 	svccs	0x000100db
  f8:	6a4b8336 	bvs	12e0dd8 <__bss_end__+0x12d46d0>
  fc:	67844d83 	strvs	r4, [r4, r3, lsl #27]
 100:	0c03684c 	stceq	8, cr6, [r3], {76}	; 0x4c
 104:	590868ba 	stmdbpl	r8, {r1, r3, r4, r5, r7, fp, sp, lr}
 108:	2f2a3131 	svccs	0x002a3131
 10c:	f3bb4b4c 	vtbx.8	d4, {d11-d14}, d12
 110:	31f49108 	mvnscc	r9, r8, lsl #2
 114:	004c2fd8 	ldrdeq	r2, [ip], #-248	; 0xffffff08
 118:	03010402 	movweq	r0, #5122	; 0x1402
 11c:	13032e6f 	movwne	r2, #15983	; 0x3e6f
 120:	303f084a 	eorscc	r0, pc, sl, asr #16
 124:	864c679f 			; <UNDEFINED> instruction: 0x864c679f
 128:	4e684d87 	cdpmi	13, 6, cr4, cr8, cr7, {4}
 12c:	4c513167 	ldfmie	f3, [r1], {103}	; 0x67
 130:	01000c02 	tsteq	r0, r2, lsl #24
 134:	0000a401 	andeq	sl, r0, r1, lsl #8
 138:	7c000200 	sfmvc	f0, 4, [r0], {-0}
 13c:	02000000 	andeq	r0, r0, #0
 140:	0d0efb01 	vstreq	d15, [lr, #-4]
 144:	01010100 	mrseq	r0, (UNDEF: 17)
 148:	00000001 	andeq	r0, r0, r1
 14c:	01000001 	tsteq	r0, r1
 150:	7273752f 	rsbsvc	r7, r3, #197132288	; 0xbc00000
 154:	636f6c2f 	cmnvs	pc, #12032	; 0x2f00
 158:	432f6c61 	teqmi	pc, #24832	; 0x6100
 15c:	616c6c65 	cmnvs	ip, r5, ror #24
 160:	72612f72 	rsbvc	r2, r1, #456	; 0x1c8
 164:	6f6e2d6d 	svcvs	0x006e2d6d
 168:	652d656e 	strvs	r6, [sp, #-1390]!	; 0x56e
 16c:	2f696261 	svccs	0x00696261
 170:	2e382e34 	mrccs	14, 1, r2, cr8, cr4, {1}
 174:	73632d33 	cmnvc	r3, #3264	; 0xcc0
 178:	65303731 	ldrvs	r3, [r0, #-1841]!	; 0x731
 17c:	62696c2f 	rsbvs	r6, r9, #12032	; 0x2f00
 180:	6363672f 	cmnvs	r3, #12320768	; 0xbc0000
 184:	6d72612f 	ldfvse	f6, [r2, #-188]!	; 0xffffff44
 188:	6e6f6e2d 	cdpvs	14, 6, cr6, cr15, cr13, {1}
 18c:	61652d65 	cmnvs	r5, r5, ror #26
 190:	342f6962 	strtcc	r6, [pc], #-2402	; 198 <_start-0x7e68>
 194:	332e382e 	teqcc	lr, #3014656	; 0x2e0000
 198:	636e692f 	cmnvs	lr, #770048	; 0xbc000
 19c:	6564756c 	strbvs	r7, [r4, #-1388]!	; 0x56c
 1a0:	656d0000 	strbvs	r0, [sp, #-0]!
 1a4:	7970636d 	ldmdbvc	r0!, {r0, r2, r3, r5, r6, r8, r9, sp, lr}^
 1a8:	0000632e 	andeq	r6, r0, lr, lsr #6
 1ac:	74730000 	ldrbtvc	r0, [r3], #-0
 1b0:	66656464 	strbtvs	r6, [r5], -r4, ror #8
 1b4:	0100682e 	tsteq	r0, lr, lsr #16
 1b8:	00000000 	andeq	r0, r0, r0
 1bc:	82e80205 	rschi	r0, r8, #1342177280	; 0x50000000
 1c0:	0a030000 	beq	c01c8 <__bss_end__+0xb3ac0>
 1c4:	02001501 	andeq	r1, r0, #4194304	; 0x400000
 1c8:	004b0204 	subeq	r0, fp, r4, lsl #4
 1cc:	49020402 	stmdbmi	r2, {r1, sl}
 1d0:	01040200 	mrseq	r0, R12_usr
 1d4:	4e062e06 	cdpmi	14, 0, cr2, cr6, cr6, {0}
 1d8:	01000202 	tsteq	r0, r2, lsl #4
 1dc:	00009601 	andeq	r9, r0, r1, lsl #12
 1e0:	5d000200 	sfmpl	f0, 4, [r0, #-0]
 1e4:	02000000 	andeq	r0, r0, #0
 1e8:	0d0efb01 	vstreq	d15, [lr, #-4]
 1ec:	01010100 	mrseq	r0, (UNDEF: 17)
 1f0:	00000001 	andeq	r0, r0, r1
 1f4:	01000001 	tsteq	r0, r1
 1f8:	632f2e2e 	teqvs	pc, #736	; 0x2e0
 1fc:	37303173 			; <UNDEFINED> instruction: 0x37303173
 200:	69672e65 	stmdbvs	r7!, {r0, r2, r5, r6, r9, sl, fp, sp}^
 204:	62756874 	rsbsvs	r6, r5, #116, 16	; 0x740000
 208:	2f6f692e 	svccs	0x006f692e
 20c:	7062696c 	rsbvc	r6, r2, ip, ror #18
 210:	6e692f69 	cdpvs	15, 6, cr2, cr9, cr9, {3}
 214:	64756c63 	ldrbtvs	r6, [r5], #-3171	; 0xc63
 218:	70000065 	andvc	r0, r0, r5, rrx
 21c:	70697265 	rsbvc	r7, r9, r5, ror #4
 220:	61726568 	cmnvs	r2, r8, ror #10
 224:	632e736c 	teqvs	lr, #108, 6	; 0xb0000001
 228:	00000000 	andeq	r0, r0, r0
 22c:	6f697067 	svcvs	0x00697067
 230:	0100682e 	tsteq	r0, lr, lsr #16
 234:	636d0000 	cmnvs	sp, #0
 238:	30303370 	eorscc	r3, r0, r0, ror r3
 23c:	00682e38 	rsbeq	r2, r8, r8, lsr lr
 240:	00000000 	andeq	r0, r0, r0
 244:	08020500 	stmdaeq	r2, {r8, sl}
 248:	03000083 	movweq	r0, #131	; 0x83
 24c:	302f0110 	eorcc	r0, pc, r0, lsl r1	; <UNPREDICTABLE>
 250:	4c4b4c4b 	mcrrmi	12, 4, r4, fp, cr11
 254:	2f4c4d4b 	svccs	0x004c4d4b
 258:	082f4e30 	stmdaeq	pc!, {r4, r5, r9, sl, fp, lr}	; <UNPREDICTABLE>
 25c:	6730843f 			; <UNDEFINED> instruction: 0x6730843f
 260:	4c4c4cd8 	mcrrmi	12, 13, r4, ip, cr8
 264:	78034b4c 	stmdavc	r3, {r2, r3, r6, r8, r9, fp, lr}
 268:	4c4c4c4a 	mcrrmi	12, 4, r4, ip, cr10
 26c:	3084304e 	addcc	r3, r4, lr, asr #32
 270:	0a02db4b 	beq	b6fa4 <__bss_end__+0xaa89c>
 274:	45010100 	strmi	r0, [r1, #-256]	; 0x100
 278:	02000000 	andeq	r0, r0, #0
 27c:	00002900 	andeq	r2, r0, r0, lsl #18
 280:	fb010200 	blx	40a8a <__bss_end__+0x34382>
 284:	01000d0e 	tsteq	r0, lr, lsl #26
 288:	00010101 	andeq	r0, r1, r1, lsl #2
 28c:	00010000 	andeq	r0, r1, r0
 290:	6d000100 	stfvss	f0, [r0, #-0]
 294:	30337063 	eorscc	r7, r3, r3, rrx
 298:	632e3830 	teqvs	lr, #48, 16	; 0x300000
 29c:	00000000 	andeq	r0, r0, r0
 2a0:	2e697073 	mcrcs	0, 3, r7, cr9, cr3, {3}
 2a4:	00000068 	andeq	r0, r0, r8, rrx
 2a8:	05000000 	streq	r0, [r0, #-0]
 2ac:	00846002 	addeq	r6, r4, r2
 2b0:	672f1500 	strvs	r1, [pc, -r0, lsl #10]!
 2b4:	834c4f4c 	movthi	r4, #53068	; 0xcf4c
 2b8:	0267834c 	rsbeq	r8, r7, #76, 6	; 0x30000001
 2bc:	01010008 	tsteq	r1, r8
 2c0:	00000062 	andeq	r0, r0, r2, rrx
 2c4:	001d0002 	andseq	r0, sp, r2
 2c8:	01020000 	mrseq	r0, (UNDEF: 2)
 2cc:	000d0efb 	strdeq	r0, [sp], -fp
 2d0:	01010101 	tsteq	r1, r1, lsl #2
 2d4:	01000000 	mrseq	r0, (UNDEF: 0)
 2d8:	00010000 	andeq	r0, r1, r0
 2dc:	656e6973 	strbvs	r6, [lr, #-2419]!	; 0x973
 2e0:	0000632e 	andeq	r6, r0, lr, lsr #6
 2e4:	00000000 	andeq	r0, r0, r0
 2e8:	84d00205 	ldrbhi	r0, [r0], #517	; 0x205
 2ec:	11030000 	mrsne	r0, (UNDEF: 3)
 2f0:	4b2da001 	blmi	b682fc <__bss_end__+0xb5bbf4>
 2f4:	02040200 	andeq	r0, r4, #0, 4
 2f8:	0402002f 	streq	r0, [r2], #-47	; 0x2f
 2fc:	0200d502 	andeq	sp, r0, #8388608	; 0x800000
 300:	2e060104 	adfcss	f0, f6, f4
 304:	0f03da06 	svceq	0x0003da06
 308:	4b4c9f9e 	blmi	1328188 <__bss_end__+0x131ba80>
 30c:	59087608 	stmdbpl	r8, {r3, r9, sl, ip, sp, lr}
 310:	2f826c03 	svccs	0x00826c03
 314:	089108a1 	ldmeq	r1, {r0, r5, r7, fp}
 318:	08c90891 	stmiaeq	r9, {r0, r4, r7, fp}^
 31c:	08c90891 	stmiaeq	r9, {r0, r4, r7, fp}^
 320:	0022025a 	eoreq	r0, r2, sl, asr r2
 324:	00550101 	subseq	r0, r5, r1, lsl #2
 328:	00020000 	andeq	r0, r2, r0
 32c:	00000032 	andeq	r0, r0, r2, lsr r0
 330:	0efb0102 	cdpeq	1, 15, cr0, cr11, cr2, {0}
 334:	0101000d 	tsteq	r1, sp
 338:	00000101 	andeq	r0, r0, r1, lsl #2
 33c:	00000100 	andeq	r0, r0, r0, lsl #2
 340:	6f730001 	svcvs	0x00730001
 344:	632e676e 	teqvs	lr, #28835840	; 0x1b80000
 348:	00000000 	andeq	r0, r0, r0
 34c:	69647561 	stmdbvs	r4!, {r0, r5, r6, r8, sl, ip, sp, lr}^
 350:	00682e6f 	rsbeq	r2, r8, pc, ror #28
 354:	73000000 	movwvc	r0, #0
 358:	2e676e6f 	cdpcs	14, 6, cr6, cr7, cr15, {3}
 35c:	00000068 	andeq	r0, r0, r8, rrx
 360:	05000000 	streq	r0, [r0, #-0]
 364:	00877002 	addeq	r7, r7, r2
 368:	010d0300 	mrseq	r0, SP_mon
 36c:	04020013 	streq	r0, [r2], #-19
 370:	004a0602 	subeq	r0, sl, r2, lsl #12
 374:	2e010402 	cdpcs	4, 0, cr0, cr1, cr2, {0}
 378:	02024d06 	andeq	r4, r2, #384	; 0x180
 37c:	37010100 	strcc	r0, [r1, -r0, lsl #2]
 380:	02000000 	andeq	r0, r0, #0
 384:	00001e00 	andeq	r1, r0, r0, lsl #28
 388:	fb010200 	blx	40b92 <__bss_end__+0x3448a>
 38c:	01000d0e 	tsteq	r0, lr, lsl #26
 390:	00010101 	andeq	r0, r1, r1, lsl #2
 394:	00010000 	andeq	r0, r1, r0
 398:	72000100 	andvc	r0, r0, #0, 2
 39c:	646e756f 	strbtvs	r7, [lr], #-1391	; 0x56f
 3a0:	0000632e 	andeq	r6, r0, lr, lsr #6
 3a4:	00000000 	andeq	r0, r0, r0
 3a8:	87880205 	strhi	r0, [r8, r5, lsl #4]
 3ac:	0a030000 	beq	c03b4 <__bss_end__+0xb3cac>
 3b0:	59086701 	stmdbpl	r8, {r0, r8, r9, sl, sp, lr}
 3b4:	000a02d8 	ldrdeq	r0, [sl], -r8
 3b8:	00f80101 	rscseq	r0, r8, r1, lsl #2
 3bc:	00020000 	andeq	r0, r2, r0
 3c0:	00000070 	andeq	r0, r0, r0, ror r0
 3c4:	0efb0102 	cdpeq	1, 15, cr0, cr11, cr2, {0}
 3c8:	0101000d 	tsteq	r1, sp
 3cc:	00000101 	andeq	r0, r0, r1, lsl #2
 3d0:	00000100 	andeq	r0, r0, r0, lsl #2
 3d4:	2f2e2e01 	svccs	0x002e2e01
 3d8:	30317363 	eorscc	r7, r1, r3, ror #6
 3dc:	672e6537 			; <UNDEFINED> instruction: 0x672e6537
 3e0:	75687469 	strbvc	r7, [r8, #-1129]!	; 0x469
 3e4:	6f692e62 	svcvs	0x00692e62
 3e8:	62696c2f 	rsbvs	r6, r9, #12032	; 0x2f00
 3ec:	692f6970 	stmdbvs	pc!, {r4, r5, r6, r8, fp, sp, lr}	; <UNPREDICTABLE>
 3f0:	756c636e 	strbvc	r6, [ip, #-878]!	; 0x36e
 3f4:	00006564 	andeq	r6, r0, r4, ror #10
 3f8:	6e727574 	mrcvs	5, 3, r7, cr2, cr4, {3}
 3fc:	6c626174 	stfvse	f6, [r2], #-464	; 0xfffffe30
 400:	00632e65 	rsbeq	r2, r3, r5, ror #28
 404:	61000000 	mrsvs	r0, (UNDEF: 0)
 408:	6f696475 	svcvs	0x00696475
 40c:	0000682e 	andeq	r6, r0, lr, lsr #16
 410:	70670000 	rsbvc	r0, r7, r0
 414:	682e6f69 	stmdavs	lr!, {r0, r3, r5, r6, r8, r9, sl, fp, sp, lr}
 418:	00000100 	andeq	r0, r0, r0, lsl #2
 41c:	676e6f73 			; <UNDEFINED> instruction: 0x676e6f73
 420:	0000682e 	andeq	r6, r0, lr, lsr #16
 424:	636d0000 	cmnvs	sp, #0
 428:	30303370 	eorscc	r3, r0, r0, ror r3
 42c:	00682e38 	rsbeq	r2, r8, r8, lsr lr
 430:	00000000 	andeq	r0, r0, r0
 434:	f0020500 			; <UNDEFINED> instruction: 0xf0020500
 438:	03000087 	movweq	r0, #135	; 0x87
 43c:	12030119 	andne	r0, r3, #1073741830	; 0x40000006
 440:	2d2d49ba 	stccs	9, cr4, [sp, #-744]!	; 0xfffffd18
 444:	2c2d292c 	stccs	9, cr2, [sp], #-176	; 0xffffff50
 448:	03492c2d 	movteq	r2, #39981	; 0x9c2d
 44c:	864b2e1a 			; <UNDEFINED> instruction: 0x864b2e1a
 450:	83682f67 	cmnhi	r8, #412	; 0x19c
 454:	66150367 	ldrvs	r0, [r5], -r7, ror #6
 458:	4c3e086a 	ldcmi	8, cr0, [lr], #-424	; 0xfffffe58
 45c:	68684c4c 	stmdavs	r8!, {r2, r3, r6, sl, fp, lr}^
 460:	6678034b 	ldrbtvs	r0, [r8], -fp, asr #6
 464:	6a686868 	bvs	1a1a60c <__bss_end__+0x1a0df04>
 468:	694c4b50 	stmdbvs	ip, {r4, r6, r8, r9, fp, lr}^
 46c:	4c51689a 	mrrcmi	8, 9, r6, r1, cr10
 470:	684c4c4b 	stmdavs	ip, {r0, r1, r3, r6, sl, fp, lr}^
 474:	4c686868 	stclmi	8, cr6, [r8], #-416	; 0xfffffe60
 478:	70036768 	andvc	r6, r3, r8, ror #14
 47c:	68686866 	stmdavs	r8!, {r1, r2, r5, r6, fp, sp, lr}^
 480:	68686868 	stmdavs	r8!, {r3, r5, r6, fp, sp, lr}^
 484:	4b4b516a 	blmi	12d4a34 <__bss_end__+0x12c832c>
 488:	68684c4c 	stmdavs	r8!, {r2, r3, r6, sl, fp, lr}^
 48c:	684c6868 	stmdavs	ip, {r3, r5, r6, fp, sp, lr}^
 490:	66700367 	ldrbtvs	r0, [r0], -r7, ror #6
 494:	68686868 	stmdavs	r8!, {r3, r5, r6, fp, sp, lr}^
 498:	6a686868 	bvs	1a1a640 <__bss_end__+0x1a0df38>
 49c:	844b324e 	strbhi	r3, [fp], #-590	; 0x24e
 4a0:	0383684b 	orreq	r6, r3, #4915200	; 0x4b0000
 4a4:	0c034a77 	stceq	10, cr4, [r3], {119}	; 0x77
 4a8:	4bbb672e 	blmi	feeda168 <__bss_end__+0xfeecda60>
 4ac:	d7318368 	ldrle	r8, [r1, -r8, ror #6]!
 4b0:	00140230 	andseq	r0, r4, r0, lsr r2
 4b4:	00cd0101 	sbceq	r0, sp, r1, lsl #2
 4b8:	00020000 	andeq	r0, r2, r0
 4bc:	00000032 	andeq	r0, r0, r2, lsr r0
 4c0:	0efb0102 	cdpeq	1, 15, cr0, cr11, cr2, {0}
 4c4:	0101000d 	tsteq	r1, sp
 4c8:	00000101 	andeq	r0, r0, r1, lsl #2
 4cc:	00000100 	andeq	r0, r0, r0, lsl #2
 4d0:	2f2e2e01 	svccs	0x002e2e01
 4d4:	6c636e69 	stclvs	14, cr6, [r3], #-420	; 0xfffffe5c
 4d8:	00656475 	rsbeq	r6, r5, r5, ror r4
 4dc:	69706700 	ldmdbvs	r0!, {r8, r9, sl, sp, lr}^
 4e0:	00632e6f 	rsbeq	r2, r3, pc, ror #28
 4e4:	67000000 	strvs	r0, [r0, -r0]
 4e8:	2e6f6970 	mcrcs	9, 3, r6, cr15, cr0, {3}
 4ec:	00010068 	andeq	r0, r1, r8, rrx
 4f0:	05000000 	streq	r0, [r0, #-0]
 4f4:	008c6402 	addeq	r6, ip, r2, lsl #8
 4f8:	01200300 	teqeq	r0, r0, lsl #6
 4fc:	01000802 	tsteq	r0, r2, lsl #16
 500:	02050001 	andeq	r0, r5, #1
 504:	00008c74 	andeq	r8, r0, r4, ror ip
 508:	01012303 	tsteq	r1, r3, lsl #6
 50c:	bc4e4d67 	mcrrlt	13, 6, r4, lr, cr7
 510:	4b4b842f 	blmi	12e15d4 <__bss_end__+0x12d4ecc>
 514:	01000602 	tsteq	r0, r2, lsl #12
 518:	02050001 	andeq	r0, r5, #1
 51c:	00008cd8 	ldrdeq	r8, [r0], -r8	; <UNPREDICTABLE>
 520:	67013503 	strvs	r3, [r1, -r3, lsl #10]
 524:	842fbc4e 	strthi	fp, [pc], #-3150	; 52c <_start-0x7ad4>
 528:	03667803 	cmneq	r6, #196608	; 0x30000
 52c:	04022e09 	streq	r2, [r2], #-3593	; 0xe09
 530:	00010100 	andeq	r0, r1, r0, lsl #2
 534:	8d300205 	lfmhi	f0, 4, [r0, #-20]!	; 0xffffffec
 538:	c2030000 	andgt	r0, r3, #0
 53c:	02670100 	rsbeq	r0, r7, #0, 2
 540:	01010006 	tsteq	r1, r6
 544:	48020500 	stmdami	r2, {r8, sl}
 548:	0300008d 	movweq	r0, #141	; 0x8d
 54c:	670100c6 	strvs	r0, [r1, -r6, asr #1]
 550:	01000602 	tsteq	r0, r2, lsl #12
 554:	02050001 	andeq	r0, r5, #1
 558:	00008d60 	andeq	r8, r0, r0, ror #26
 55c:	0100cb03 	tsteq	r0, r3, lsl #22
 560:	4b304e67 	blmi	c13f04 <__bss_end__+0xc077fc>
 564:	02688468 	rsbeq	r8, r8, #104, 8	; 0x68000000
 568:	0101000c 	tsteq	r1, ip
 56c:	c0020500 	andgt	r0, r2, r0, lsl #10
 570:	0300008d 	movweq	r0, #141	; 0x8d
 574:	670100dd 			; <UNDEFINED> instruction: 0x670100dd
 578:	302f684e 	eorcc	r6, pc, lr, asr #16
 57c:	039e7803 	orrseq	r7, lr, #196608	; 0x30000
 580:	04022e09 	streq	r2, [r2], #-3593	; 0xe09
 584:	6e010100 	adfvss	f0, f1, f0
 588:	02000002 	andeq	r0, r0, #2
 58c:	00009f00 	andeq	r9, r0, r0, lsl #30
 590:	fb010200 	blx	40d9a <__bss_end__+0x34692>
 594:	01000d0e 	tsteq	r0, lr, lsl #26
 598:	00010101 	andeq	r0, r1, r1, lsl #2
 59c:	00010000 	andeq	r0, r1, r0
 5a0:	752f0100 	strvc	r0, [pc, #-256]!	; 4a8 <_start-0x7b58>
 5a4:	6c2f7273 	sfmvs	f7, 4, [pc], #-460	; 3e0 <_start-0x7c20>
 5a8:	6c61636f 	stclvs	3, cr6, [r1], #-444	; 0xfffffe44
 5ac:	6c65432f 	stclvs	3, cr4, [r5], #-188	; 0xffffff44
 5b0:	2f72616c 	svccs	0x0072616c
 5b4:	2d6d7261 	sfmcs	f7, 2, [sp, #-388]!	; 0xfffffe7c
 5b8:	656e6f6e 	strbvs	r6, [lr, #-3950]!	; 0xf6e
 5bc:	6261652d 	rsbvs	r6, r1, #188743680	; 0xb400000
 5c0:	2e342f69 	cdpcs	15, 3, cr2, cr4, cr9, {3}
 5c4:	2d332e38 	ldccs	14, cr2, [r3, #-224]!	; 0xffffff20
 5c8:	37317363 	ldrcc	r7, [r1, -r3, ror #6]!
 5cc:	6c2f6530 	cfstr32vs	mvfx6, [pc], #-192	; 514 <_start-0x7aec>
 5d0:	672f6269 	strvs	r6, [pc, -r9, ror #4]!
 5d4:	612f6363 	teqvs	pc, r3, ror #6
 5d8:	6e2d6d72 	mcrvs	13, 1, r6, cr13, cr2, {3}
 5dc:	2d656e6f 	stclcs	14, cr6, [r5, #-444]!	; 0xfffffe44
 5e0:	69626165 	stmdbvs	r2!, {r0, r2, r5, r6, r8, sp, lr}^
 5e4:	382e342f 	stmdacc	lr!, {r0, r1, r2, r3, r5, sl, ip, sp}
 5e8:	692f332e 	stmdbvs	pc!, {r1, r2, r3, r5, r8, r9, ip, sp}	; <UNPREDICTABLE>
 5ec:	756c636e 	strbvc	r6, [ip, #-878]!	; 0x36e
 5f0:	2e006564 	cfsh32cs	mvfx6, mvfx0, #52
 5f4:	6e692f2e 	cdpvs	15, 6, cr2, cr9, cr14, {1}
 5f8:	64756c63 	ldrbtvs	r6, [r5], #-3171	; 0xc63
 5fc:	70000065 	andvc	r0, r0, r5, rrx
 600:	746e6972 	strbtvc	r6, [lr], #-2418	; 0x972
 604:	00632e66 	rsbeq	r2, r3, r6, ror #28
 608:	73000000 	movwvc	r0, #0
 60c:	72616474 	rsbvc	r6, r1, #116, 8	; 0x74000000
 610:	00682e67 	rsbeq	r2, r8, r7, ror #28
 614:	3c000001 	stccc	0, cr0, [r0], {1}
 618:	6c697562 	cfstr64vs	mvdx7, [r9], #-392	; 0xfffffe78
 61c:	6e692d74 	mcrvs	13, 3, r2, cr9, cr4, {3}
 620:	0000003e 	andeq	r0, r0, lr, lsr r0
 624:	72617500 	rsbvc	r7, r1, #0, 10
 628:	00682e74 	rsbeq	r2, r8, r4, ror lr
 62c:	00000002 	andeq	r0, r0, r2
 630:	08020500 	stmdaeq	r2, {r8, sl}
 634:	0300008e 	movweq	r0, #142	; 0x8e
 638:	0267010e 	rsbeq	r0, r7, #-2147483645	; 0x80000003
 63c:	01010004 	tsteq	r1, r4
 640:	1c020500 	cfstr32ne	mvfx0, [r2], {-0}
 644:	0300008e 	movweq	r0, #142	; 0x8e
 648:	2f670115 	svccs	0x00670115
 64c:	0402002d 	streq	r0, [r2], #-45	; 0x2d
 650:	02002f02 	andeq	r2, r0, #2, 30
 654:	00650204 	rsbeq	r0, r5, r4, lsl #4
 658:	06010402 	streq	r0, [r1], -r2, lsl #8
 65c:	024e062e 	subeq	r0, lr, #48234496	; 0x2e00000
 660:	01010004 	tsteq	r1, r4
 664:	54020500 	strpl	r0, [r2], #-1280	; 0x500
 668:	0300008e 	movweq	r0, #142	; 0x8e
 66c:	2b870120 	blcs	fe1c0af4 <__bss_end__+0xfe1b43ec>
 670:	04020031 	streq	r0, [r2], #-49	; 0x31
 674:	002e0602 	eoreq	r0, lr, r2, lsl #12
 678:	4a010402 	bmi	41688 <__bss_end__+0x34f80>
 67c:	322f4b06 	eorcc	r4, pc, #6144	; 0x1800
 680:	302d332f 	eorcc	r3, sp, pc, lsr #6
 684:	2f2f2c2f 	svccs	0x002f2c2f
 688:	0402002c 	streq	r0, [r2], #-44	; 0x2c
 68c:	064a0601 	strbeq	r0, [sl], -r1, lsl #12
 690:	4b492f6c 	blmi	124c448 <__bss_end__+0x123fd40>
 694:	0402009c 	streq	r0, [r2], #-156	; 0x9c
 698:	064a0601 	strbeq	r0, [sl], -r1, lsl #12
 69c:	6a684b4f 	bvs	1a133e0 <__bss_end__+0x1a06cd8>
 6a0:	01000202 	tsteq	r0, r2, lsl #4
 6a4:	02050001 	andeq	r0, r5, #1
 6a8:	00008f1c 	andeq	r8, r0, ip, lsl pc
 6ac:	0100c403 	tsteq	r0, r3, lsl #8
 6b0:	00302c87 	eorseq	r2, r0, r7, lsl #25
 6b4:	06020402 	streq	r0, [r2], -r2, lsl #8
 6b8:	0402002e 	streq	r0, [r2], #-46	; 0x2e
 6bc:	4b064a01 	blmi	192ec8 <__bss_end__+0x1867c0>
 6c0:	332f322f 	teqcc	pc, #-268435454	; 0xf0000002
 6c4:	2c2f302d 	stccs	0, cr3, [pc], #-180	; 618 <_start-0x79e8>
 6c8:	002c2f2f 	eoreq	r2, ip, pc, lsr #30
 6cc:	06010402 	streq	r0, [r1], -r2, lsl #8
 6d0:	2f6c064a 	svccs	0x006c064a
 6d4:	2f834b49 	svccs	0x00834b49
 6d8:	4a7a034c 	bmi	1e81410 <__bss_end__+0x1e74d08>
 6dc:	01040200 	mrseq	r0, R12_usr
 6e0:	03064a06 	movweq	r4, #27142	; 0x6a06
 6e4:	684b4a0b 	stmdavs	fp, {r0, r1, r3, r9, fp, lr}^
 6e8:	0002026a 	andeq	r0, r2, sl, ror #4
 6ec:	05000101 	streq	r0, [r0, #-257]	; 0x101
 6f0:	008ff402 	addeq	pc, pc, r2, lsl #8
 6f4:	00ee0300 	rsceq	r0, lr, r0, lsl #6
 6f8:	342fd801 	strtcc	sp, [pc], #-2049	; 700 <_start-0x7900>
 6fc:	02002f2d 	andeq	r2, r0, #45, 30	; 0xb4
 700:	4a060204 	bmi	180f18 <__bss_end__+0x174810>
 704:	01040200 	mrseq	r0, R12_usr
 708:	2f4b0682 	svccs	0x004b0682
 70c:	4b332f32 	blmi	ccc3dc <__bss_end__+0xcbfcd4>
 710:	4f454c83 	svcmi	0x00454c83
 714:	01040200 	mrseq	r0, R12_usr
 718:	04020029 	streq	r0, [r2], #-41	; 0x29
 71c:	02003601 	andeq	r3, r0, #1048576	; 0x100000
 720:	494b0104 	stmdbmi	fp, {r2, r8}^
 724:	02002c2f 	andeq	r2, r0, #12032	; 0x2f00
 728:	4a060104 	bmi	180b40 <__bss_end__+0x174438>
 72c:	2f2f5006 	svccs	0x002f5006
 730:	4b2f2c4b 	blmi	bcb864 <__bss_end__+0xbbf15c>
 734:	02007208 	andeq	r7, r0, #8, 4	; 0x80000000
 738:	4a060104 	bmi	180b50 <__bss_end__+0x174448>
 73c:	4c4b5006 	mcrrmi	0, 0, r5, fp, cr6
 740:	00080285 	andeq	r0, r8, r5, lsl #5
 744:	05000101 	streq	r0, [r0, #-257]	; 0x101
 748:	00914002 	addseq	r4, r1, r2
 74c:	019e0300 	orrseq	r0, lr, r0, lsl #6
 750:	4b4bc101 	blmi	12f0b5c <__bss_end__+0x12e4454>
 754:	02002f6b 	andeq	r2, r0, #428	; 0x1ac
 758:	39030104 	stmdbcc	r3, {r2, r8}
 75c:	04020066 	streq	r0, [r2], #-102	; 0x66
 760:	46033301 	strmi	r3, [r3], -r1, lsl #6
 764:	302f4b4a 	eorcc	r4, pc, sl, asr #22
 768:	77032f31 	smladxvc	r3, r1, pc, r2	; <UNPREDICTABLE>
 76c:	2e0b032e 	cdpcs	3, 0, cr0, cr11, cr14, {1}
 770:	2f4b4b30 	svccs	0x004b4b30
 774:	032f2f30 	teqeq	pc, #48, 30	; 0xc0
 778:	09032e79 	stmdbeq	r3, {r0, r3, r4, r5, r6, r9, sl, fp, sp}
 77c:	4b68322e 	blmi	1a0d03c <__bss_end__+0x1a00934>
 780:	034b2f85 	movteq	r2, #49029	; 0xbf85
 784:	03352e7a 	teqeq	r5, #1952	; 0x7a0
 788:	034d2e76 	movteq	r2, #56950	; 0xde76
 78c:	674b2e0a 	strbvs	r2, [fp, -sl, lsl #28]
 790:	02002c2f 	andeq	r2, r0, #12032	; 0x2f00
 794:	4a060104 	bmi	180bac <__bss_end__+0x1744a4>
 798:	02040200 	andeq	r0, r4, #0, 4
 79c:	2f6a064a 	svccs	0x006a064a
 7a0:	4b4b5030 	blmi	12d4868 <__bss_end__+0x12c8160>
 7a4:	2f2f302f 	svccs	0x002f302f
 7a8:	bb4b4c30 	bllt	12d3870 <__bss_end__+0x12c7168>
 7ac:	004bbb4b 	subeq	fp, fp, fp, asr #22
 7b0:	03010402 	movweq	r0, #5122	; 0x1402
 7b4:	03d67fbc 	bicseq	r7, r6, #188, 30	; 0x2f0
 7b8:	038200c7 	orreq	r0, r2, #199	; 0xc7
 7bc:	034a7fb2 	movteq	r7, #44978	; 0xafb2
 7c0:	022e00cf 	eoreq	r0, lr, #207	; 0xcf
 7c4:	01010002 	tsteq	r1, r2
 7c8:	20020500 	andcs	r0, r2, r0, lsl #10
 7cc:	03000093 	movweq	r0, #147	; 0x93
 7d0:	a0010280 	andge	r0, r1, r0, lsl #5
 7d4:	04024d4b 	streq	r4, [r2], #-3403	; 0xd4b
 7d8:	00010100 	andeq	r0, r1, r0, lsl #2
 7dc:	934c0205 	movtls	r0, #49669	; 0xc205
 7e0:	88030000 	stmdahi	r3, {}	; <UNPREDICTABLE>
 7e4:	4bbe0102 	blmi	fef80bf4 <__bss_end__+0xfef744ec>
 7e8:	2d2f4fb7 	stccs	15, cr4, [pc, #-732]!	; 514 <_start-0x7aec>
 7ec:	01040200 	mrseq	r0, R12_usr
 7f0:	87062e06 	strhi	r2, [r6, -r6, lsl #28]
 7f4:	01000602 	tsteq	r0, r2, lsl #12
 7f8:	0000b001 	andeq	fp, r0, r1
 7fc:	1e000200 	cdpne	2, 0, cr0, cr0, cr0, {0}
 800:	02000000 	andeq	r0, r0, #0
 804:	0d0efb01 	vstreq	d15, [lr, #-4]
 808:	01010100 	mrseq	r0, (UNDEF: 17)
 80c:	00000001 	andeq	r0, r0, r1
 810:	01000001 	tsteq	r0, r1
 814:	6d697400 	cfstrdvs	mvd7, [r9, #-0]
 818:	632e7265 	teqvs	lr, #1342177286	; 0x50000006
 81c:	00000000 	andeq	r0, r0, r0
 820:	02050000 	andeq	r0, r5, #0
 824:	000093b4 			; <UNDEFINED> instruction: 0x000093b4
 828:	00080219 	andeq	r0, r8, r9, lsl r2
 82c:	05000101 	streq	r0, [r0, #-257]	; 0x101
 830:	0093c402 	addseq	ip, r3, r2, lsl #8
 834:	01090300 	mrseq	r0, (UNDEF: 57)
 838:	024b6801 	subeq	r6, fp, #65536	; 0x10000
 83c:	01010004 	tsteq	r1, r4
 840:	e0020500 	and	r0, r2, r0, lsl #10
 844:	03000093 	movweq	r0, #147	; 0x93
 848:	4c83010e 	stfmis	f0, [r3], {14}
 84c:	02026a2f 	andeq	r6, r2, #192512	; 0x2f000
 850:	00010100 	andeq	r0, r1, r0, lsl #2
 854:	940c0205 	strls	r0, [ip], #-517	; 0x205
 858:	18030000 	stmdane	r3, {}	; <UNPREDICTABLE>
 85c:	2d2f8401 	cfstrscs	mvf8, [pc, #-4]!	; 860 <_start-0x77a0>
 860:	02040200 	andeq	r0, r4, #0, 4
 864:	0402002f 	streq	r0, [r2], #-47	; 0x2f
 868:	02004902 	andeq	r4, r0, #32768	; 0x8000
 86c:	2e060104 	adfcss	f0, f6, f4
 870:	02024d06 	andeq	r4, r2, #384	; 0x180
 874:	00010100 	andeq	r0, r1, r0, lsl #2
 878:	94400205 	strbls	r0, [r0], #-517	; 0x205
 87c:	1f030000 	svcne	0x00030000
 880:	2d2f8401 	cfstrscs	mvf8, [pc, #-4]!	; 884 <_start-0x777c>
 884:	02040200 	andeq	r0, r4, #0, 4
 888:	0402002f 	streq	r0, [r2], #-47	; 0x2f
 88c:	02004902 	andeq	r4, r0, #32768	; 0x8000
 890:	2e060104 	adfcss	f0, f6, f4
 894:	02024d06 	andeq	r4, r2, #384	; 0x180
 898:	00010100 	andeq	r0, r1, r0, lsl #2
 89c:	94740205 	ldrbtls	r0, [r4], #-517	; 0x205
 8a0:	26030000 	strcs	r0, [r3], -r0
 8a4:	4e2f8401 	cdpmi	4, 2, cr8, cr15, cr1, {0}
 8a8:	01000202 	tsteq	r0, r2, lsl #4
 8ac:	00009d01 	andeq	r9, r0, r1, lsl #26
 8b0:	32000200 	andcc	r0, r0, #0, 4
 8b4:	02000000 	andeq	r0, r0, #0
 8b8:	0d0efb01 	vstreq	d15, [lr, #-4]
 8bc:	01010100 	mrseq	r0, (UNDEF: 17)
 8c0:	00000001 	andeq	r0, r0, r1
 8c4:	01000001 	tsteq	r0, r1
 8c8:	692f2e2e 	stmdbvs	pc!, {r1, r2, r3, r5, r9, sl, fp, sp}	; <UNPREDICTABLE>
 8cc:	756c636e 	strbvc	r6, [ip, #-878]!	; 0x36e
 8d0:	00006564 	andeq	r6, r0, r4, ror #10
 8d4:	74726175 	ldrbtvc	r6, [r2], #-373	; 0x175
 8d8:	0000632e 	andeq	r6, r0, lr, lsr #6
 8dc:	70670000 	rsbvc	r0, r7, r0
 8e0:	682e6f69 	stmdavs	lr!, {r0, r3, r5, r6, r8, r9, sl, fp, sp, lr}
 8e4:	00000100 	andeq	r0, r0, r0, lsl #2
 8e8:	02050000 	andeq	r0, r5, #0
 8ec:	00009494 	muleq	r0, r4, r4
 8f0:	69012903 	stmdbvs	r1, {r0, r1, r8, fp, sp}
 8f4:	4b2f4b68 	blmi	bd369c <__bss_end__+0xbc6f94>
 8f8:	4c4f2f2f 	mcrrmi	15, 2, r2, pc, cr15
 8fc:	0802684b 	stmdaeq	r2, {r0, r1, r3, r6, fp, sp, lr}
 900:	00010100 	andeq	r0, r1, r0, lsl #2
 904:	94fc0205 	ldrbtls	r0, [ip], #517	; 0x205
 908:	c0030000 	andgt	r0, r3, r0
 90c:	00670100 	rsbeq	r0, r7, r0, lsl #2
 910:	06010402 	streq	r0, [r1], -r2, lsl #8
 914:	4b67062e 	blmi	19c21d4 <__bss_end__+0x19b5acc>
 918:	01000602 	tsteq	r0, r2, lsl #12
 91c:	02050001 	andeq	r0, r5, #1
 920:	0000952c 	andeq	r9, r0, ip, lsr #10
 924:	0100c503 	tsteq	r0, r3, lsl #10
 928:	02004b83 	andeq	r4, r0, #134144	; 0x20c00
 92c:	834c0104 	movthi	r0, #49412	; 0xc104
 930:	01000802 	tsteq	r0, r2, lsl #16
 934:	02050001 	andeq	r0, r5, #1
 938:	0000956c 	andeq	r9, r0, ip, ror #10
 93c:	0100cd03 	tsteq	r0, r3, lsl #26
 940:	04020067 	streq	r0, [r2], #-103	; 0x67
 944:	062e0601 	strteq	r0, [lr], -r1, lsl #12
 948:	00040267 	andeq	r0, r4, r7, ror #4
 94c:	00860101 	addeq	r0, r6, r1, lsl #2
 950:	00020000 	andeq	r0, r2, r0
 954:	00000047 	andeq	r0, r0, r7, asr #32
 958:	0efb0102 	cdpeq	1, 15, cr0, cr11, cr2, {0}
 95c:	0101000d 	tsteq	r1, sp
 960:	00000101 	andeq	r0, r0, r1, lsl #2
 964:	00000100 	andeq	r0, r0, r0, lsl #2
 968:	2f2e2e01 	svccs	0x002e2e01
 96c:	6c636e69 	stclvs	14, cr6, [r3], #-420	; 0xfffffe5c
 970:	00656475 	rsbeq	r6, r5, r5, ror r4
 974:	69706700 	ldmdbvs	r0!, {r8, r9, sl, sp, lr}^
 978:	7478656f 	ldrbtvc	r6, [r8], #-1391	; 0x56f
 97c:	632e6172 	teqvs	lr, #-2147483620	; 0x8000001c
 980:	00000000 	andeq	r0, r0, r0
 984:	6f697067 	svcvs	0x00697067
 988:	72747865 	rsbsvc	r7, r4, #6619136	; 0x650000
 98c:	00682e61 	rsbeq	r2, r8, r1, ror #28
 990:	74000001 	strvc	r0, [r0], #-1
 994:	72656d69 	rsbvc	r6, r5, #6720	; 0x1a40
 998:	0100682e 	tsteq	r0, lr, lsr #16
 99c:	00000000 	andeq	r0, r0, r0
 9a0:	95900205 	ldrls	r0, [r0, #517]	; 0x205
 9a4:	12030000 	andne	r0, r3, #0
 9a8:	674e8301 	strbvs	r8, [lr, -r1, lsl #6]
 9ac:	4b4c834d 	blmi	13216e8 <__bss_end__+0x1314fe0>
 9b0:	08022f4c 	stmdaeq	r2, {r2, r3, r6, r8, r9, sl, fp, sp}
 9b4:	00010100 	andeq	r0, r1, r0, lsl #2
 9b8:	95f80205 	ldrbls	r0, [r8, #517]!	; 0x205
 9bc:	25030000 	strcs	r0, [r3, #-0]
 9c0:	024e6701 	subeq	r6, lr, #262144	; 0x40000
 9c4:	01010006 	tsteq	r1, r6
 9c8:	18020500 	stmdane	r2, {r8, sl}
 9cc:	03000096 	movweq	r0, #150	; 0x96
 9d0:	0267012d 	rsbeq	r0, r7, #1073741835	; 0x4000000b
 9d4:	01010006 	tsteq	r1, r6
 9d8:	00000083 	andeq	r0, r0, r3, lsl #1
 9dc:	00310002 	eorseq	r0, r1, r2
 9e0:	01020000 	mrseq	r0, (UNDEF: 2)
 9e4:	000d0efb 	strdeq	r0, [sp], -fp
 9e8:	01010101 	tsteq	r1, r1, lsl #2
 9ec:	01000000 	mrseq	r0, (UNDEF: 0)
 9f0:	2e010000 	cdpcs	0, 0, cr0, cr1, cr0, {0}
 9f4:	6e692f2e 	cdpvs	15, 6, cr2, cr9, cr14, {1}
 9f8:	64756c63 	ldrbtvs	r6, [r5], #-3171	; 0xc63
 9fc:	73000065 	movwvc	r0, #101	; 0x65
 a00:	632e6970 	teqvs	lr, #112, 18	; 0x1c0000
 a04:	00000000 	andeq	r0, r0, r0
 a08:	6f697067 	svcvs	0x00697067
 a0c:	0100682e 	tsteq	r0, lr, lsr #16
 a10:	00000000 	andeq	r0, r0, r0
 a14:	96300205 	ldrtls	r0, [r0], -r5, lsl #4
 a18:	15030000 	strne	r0, [r3, #-0]
 a1c:	67679f01 	strbvs	r9, [r7, -r1, lsl #30]!
 a20:	83686767 	cmnhi	r8, #27000832	; 0x19c0000
 a24:	4b9f4b84 	blmi	fe7d383c <__bss_end__+0xfe7c7134>
 a28:	000a02a1 	andeq	r0, sl, r1, lsr #5
 a2c:	05000101 	streq	r0, [r0, #-257]	; 0x101
 a30:	0096ec02 	addseq	lr, r6, r2, lsl #24
 a34:	01280300 	teqeq	r8, r0, lsl #6
 a38:	2d2fa067 	stccs	0, cr10, [pc, #-412]!	; 8a4 <_start-0x775c>
 a3c:	01040200 	mrseq	r0, R12_usr
 a40:	0200832f 	andeq	r8, r0, #-1140850688	; 0xbc000000
 a44:	004c0104 	subeq	r0, ip, r4, lsl #2
 a48:	67010402 	strvs	r0, [r1, -r2, lsl #8]
 a4c:	4a7a0367 	bmi	1e817f0 <__bss_end__+0x1e750e8>
 a50:	01040200 	mrseq	r0, R12_usr
 a54:	03062e06 	movweq	r2, #28166	; 0x6e06
 a58:	0e026609 	cfmadd32eq	mvax0, mvfx6, mvfx2, mvfx9
 a5c:	86010100 	strhi	r0, [r1], -r0, lsl #2
 a60:	02000000 	andeq	r0, r0, #0
 a64:	00004700 	andeq	r4, r0, r0, lsl #14
 a68:	fb010200 	blx	41272 <__bss_end__+0x34b6a>
 a6c:	01000d0e 	tsteq	r0, lr, lsl #26
 a70:	00010101 	andeq	r0, r1, r1, lsl #2
 a74:	00010000 	andeq	r0, r1, r0
 a78:	2e2e0100 	sufcse	f0, f6, f0
 a7c:	2f2e2e2f 	svccs	0x002e2e2f
 a80:	672f2e2e 	strvs	r2, [pc, -lr, lsr #28]!
 a84:	342d6363 	strtcc	r6, [sp], #-867	; 0x363
 a88:	332e382e 	teqcc	lr, #3014656	; 0x2e0000
 a8c:	62696c2f 	rsbvs	r6, r9, #12032	; 0x2f00
 a90:	2f636367 	svccs	0x00636367
 a94:	666e6f63 	strbtvs	r6, [lr], -r3, ror #30
 a98:	612f6769 	teqvs	pc, r9, ror #14
 a9c:	00006d72 	andeq	r6, r0, r2, ror sp
 aa0:	3162696c 	cmncc	r2, ip, ror #18
 aa4:	636e7566 	cmnvs	lr, #427819008	; 0x19800000
 aa8:	00532e73 	subseq	r2, r3, r3, ror lr
 aac:	00000001 	andeq	r0, r0, r1
 ab0:	7c020500 	cfstr32vc	mvfx0, [r2], {-0}
 ab4:	03000097 	movweq	r0, #151	; 0x97
 ab8:	300107cf 	andcc	r0, r1, pc, asr #15
 abc:	2f2f2f2f 	svccs	0x002f2f2f
 ac0:	7cfe032f 	ldclvc	3, cr0, [lr], #188	; 0xbc
 ac4:	0386032e 	orreq	r0, r6, #-1207959552	; 0xb8000000
 ac8:	2f013e02 	svccs	0x00013e02
 acc:	032f2f31 	teqeq	pc, #49, 30	; 0xc4
 ad0:	032e7db7 	teqeq	lr, #11712	; 0x2dc0
 ad4:	900802cd 	andls	r0, r8, sp, asr #5
 ad8:	1603322f 	strne	r3, [r3], -pc, lsr #4
 adc:	2f2f2f66 	svccs	0x002f2f66
 ae0:	2f2f2f2f 	svccs	0x002f2f2f
 ae4:	01000202 	tsteq	r0, r2, lsl #4
 ae8:	00009201 	andeq	r9, r0, r1, lsl #4
 aec:	47000200 	strmi	r0, [r0, -r0, lsl #4]
 af0:	02000000 	andeq	r0, r0, #0
 af4:	0d0efb01 	vstreq	d15, [lr, #-4]
 af8:	01010100 	mrseq	r0, (UNDEF: 17)
 afc:	00000001 	andeq	r0, r0, r1
 b00:	01000001 	tsteq	r0, r1
 b04:	2e2f2e2e 	cdpcs	14, 2, cr2, cr15, cr14, {1}
 b08:	2e2e2f2e 	cdpcs	15, 2, cr2, cr14, cr14, {1}
 b0c:	6363672f 	cmnvs	r3, #12320768	; 0xbc0000
 b10:	382e342d 	stmdacc	lr!, {r0, r2, r3, r5, sl, ip, sp}
 b14:	6c2f332e 	stcvs	3, cr3, [pc], #-184	; a64 <_start-0x759c>
 b18:	63676269 	cmnvs	r7, #-1879048186	; 0x90000006
 b1c:	6f632f63 	svcvs	0x00632f63
 b20:	6769666e 	strbvs	r6, [r9, -lr, ror #12]!
 b24:	6d72612f 	ldfvse	f6, [r2, #-188]!	; 0xffffff44
 b28:	696c0000 	stmdbvs	ip!, {}^	; <UNPREDICTABLE>
 b2c:	75663162 	strbvc	r3, [r6, #-354]!	; 0x162
 b30:	2e73636e 	cdpcs	3, 7, cr6, cr3, cr14, {3}
 b34:	00010053 	andeq	r0, r1, r3, asr r0
 b38:	05000000 	streq	r0, [r0, #-0]
 b3c:	00989002 	addseq	r9, r8, r2
 b40:	08f60300 	ldmeq	r6!, {r8, r9}^
 b44:	30302f01 	eorscc	r2, r0, r1, lsl #30
 b48:	302f2f2f 	eorcc	r2, pc, pc, lsr #30
 b4c:	2f2f2f2f 	svccs	0x002f2f2f
 b50:	2e7bd003 	cdpcs	0, 7, cr13, cr11, cr3, {0}
 b54:	0204b403 	andeq	fp, r4, #50331648	; 0x3000000
 b58:	2f30013e 	svccs	0x0030013e
 b5c:	312f3030 	teqcc	pc, r0, lsr r0	; <UNPREDICTABLE>
 b60:	032f2f30 	teqeq	pc, #48, 30	; 0xc0
 b64:	032e7c80 	teqeq	lr, #128, 24	; 0x8000
 b68:	90080484 	andls	r0, r8, r4, lsl #9
 b6c:	322f302f 	eorcc	r3, pc, #47	; 0x2f
 b70:	2f821603 	svccs	0x00821603
 b74:	2f2f2f2f 	svccs	0x002f2f2f
 b78:	02022f2f 	andeq	r2, r2, #47, 30	; 0xbc
 b7c:	5d010100 	stfpls	f0, [r1, #-0]
 b80:	02000000 	andeq	r0, r0, #0
 b84:	00004700 	andeq	r4, r0, r0, lsl #14
 b88:	fb010200 	blx	41392 <__bss_end__+0x34c8a>
 b8c:	01000d0e 	tsteq	r0, lr, lsl #26
 b90:	00010101 	andeq	r0, r1, r1, lsl #2
 b94:	00010000 	andeq	r0, r1, r0
 b98:	2e2e0100 	sufcse	f0, f6, f0
 b9c:	2f2e2e2f 	svccs	0x002e2e2f
 ba0:	672f2e2e 	strvs	r2, [pc, -lr, lsr #28]!
 ba4:	342d6363 	strtcc	r6, [sp], #-867	; 0x363
 ba8:	332e382e 	teqcc	lr, #3014656	; 0x2e0000
 bac:	62696c2f 	rsbvs	r6, r9, #12032	; 0x2f00
 bb0:	2f636367 	svccs	0x00636367
 bb4:	666e6f63 	strbtvs	r6, [lr], -r3, ror #30
 bb8:	612f6769 	teqvs	pc, r9, ror #14
 bbc:	00006d72 	andeq	r6, r0, r2, ror sp
 bc0:	3162696c 	cmncc	r2, ip, ror #18
 bc4:	636e7566 	cmnvs	lr, #427819008	; 0x19800000
 bc8:	00532e73 	subseq	r2, r3, r3, ror lr
 bcc:	00000001 	andeq	r0, r0, r1
 bd0:	d8020500 	stmdale	r2, {r8, sl}
 bd4:	03000099 	movweq	r0, #153	; 0x99
 bd8:	02010a96 	andeq	r0, r1, #614400	; 0x96000
 bdc:	01010002 	tsteq	r1, r2
 be0:	00000160 	andeq	r0, r0, r0, ror #2
 be4:	00480002 	subeq	r0, r8, r2
 be8:	01020000 	mrseq	r0, (UNDEF: 2)
 bec:	000d0efb 	strdeq	r0, [sp], -fp
 bf0:	01010101 	tsteq	r1, r1, lsl #2
 bf4:	01000000 	mrseq	r0, (UNDEF: 0)
 bf8:	2e010000 	cdpcs	0, 0, cr0, cr1, cr0, {0}
 bfc:	2e2e2f2e 	cdpcs	15, 2, cr2, cr14, cr14, {1}
 c00:	2f2e2e2f 	svccs	0x002e2e2f
 c04:	2d636367 	stclcs	3, cr6, [r3, #-412]!	; 0xfffffe64
 c08:	2e382e34 	mrccs	14, 1, r2, cr8, cr4, {1}
 c0c:	696c2f33 	stmdbvs	ip!, {r0, r1, r4, r5, r8, r9, sl, fp, sp}^
 c10:	63636762 	cmnvs	r3, #25690112	; 0x1880000
 c14:	6e6f632f 	cdpvs	3, 6, cr6, cr15, cr15, {1}
 c18:	2f676966 	svccs	0x00676966
 c1c:	006d7261 	rsbeq	r7, sp, r1, ror #4
 c20:	65656900 	strbvs	r6, [r5, #-2304]!	; 0x900
 c24:	34353765 	ldrtcc	r3, [r5], #-1893	; 0x765
 c28:	2e66642d 	cdpcs	4, 6, cr6, cr6, cr13, {1}
 c2c:	00010053 	andeq	r0, r1, r3, asr r0
 c30:	05000000 	streq	r0, [r0, #-0]
 c34:	0099dc02 	addseq	sp, r9, r2, lsl #24
 c38:	00c50300 	sbceq	r0, r5, r0, lsl #6
 c3c:	36332f01 	ldrtcc	r2, [r3], -r1, lsl #30
 c40:	302f2f31 	eorcc	r2, pc, r1, lsr pc	; <UNPREDICTABLE>
 c44:	2f2f2f30 	svccs	0x002f2f30
 c48:	302f322f 	eorcc	r3, pc, pc, lsr #4
 c4c:	2f2f2f2f 	svccs	0x002f2f2f
 c50:	2f2f2f2f 	svccs	0x002f2f2f
 c54:	2f4d3033 	svccs	0x004d3033
 c58:	332f2f2f 	teqcc	pc, #47, 30	; 0xbc
 c5c:	2f2f312f 	svccs	0x002f312f
 c60:	332f332f 	teqcc	pc, #-1140850688	; 0xbc000000
 c64:	2f31322f 	svccs	0x0031322f
 c68:	2f2f2f2f 	svccs	0x002f2f2f
 c6c:	2f2f2f2f 	svccs	0x002f2f2f
 c70:	2f302f2f 	svccs	0x00302f2f
 c74:	352f322f 	strcc	r3, [pc, #-559]!	; a4d <_start-0x75b3>
 c78:	2f332f2f 	svccs	0x00332f2f
 c7c:	2f312f2f 	svccs	0x00312f2f
 c80:	2f312f2f 	svccs	0x00312f2f
 c84:	2f30352f 	svccs	0x0030352f
 c88:	4e2f2f2f 	cdpmi	15, 2, cr2, cr15, cr15, {1}
 c8c:	2f2f2f2f 	svccs	0x002f2f2f
 c90:	2f2f352f 	svccs	0x002f352f
 c94:	2f2f2f2f 	svccs	0x002f2f2f
 c98:	2f2f2f2f 	svccs	0x002f2f2f
 c9c:	2f2f2f2f 	svccs	0x002f2f2f
 ca0:	2f2f2f2f 	svccs	0x002f2f2f
 ca4:	2f2e1003 	svccs	0x002e1003
 ca8:	2f322f2f 	svccs	0x00322f2f
 cac:	322f2f2f 	eorcc	r2, pc, #47, 30	; 0xbc
 cb0:	2f352f30 	svccs	0x00352f30
 cb4:	2f2f3032 	svccs	0x002f3032
 cb8:	2f2f2f4e 	svccs	0x002f2f4e
 cbc:	2f2f312f 	svccs	0x002f312f
 cc0:	4e2f2f2f 	cdpmi	15, 2, cr2, cr15, cr15, {1}
 cc4:	2f2f2f2f 	svccs	0x002f2f2f
 cc8:	2f2f4e2f 	svccs	0x002f4e2f
 ccc:	2f302f4f 	svccs	0x00302f4f
 cd0:	30322f2f 	eorscc	r2, r2, pc, lsr #30
 cd4:	2f30302f 	svccs	0x0030302f
 cd8:	2f2f3031 	svccs	0x002f3031
 cdc:	2f2f324c 	svccs	0x002f324c
 ce0:	2f2f2f4d 	svccs	0x002f2f4d
 ce4:	304b2f30 	subcc	r2, fp, r0, lsr pc
 ce8:	2f324b2f 	svccs	0x00324b2f
 cec:	09032f2f 	stmdbeq	r3, {r0, r1, r2, r3, r5, r8, r9, sl, fp, sp}
 cf0:	2f2f304a 	svccs	0x002f304a
 cf4:	302f2f30 	eorcc	r2, pc, r0, lsr pc	; <UNPREDICTABLE>
 cf8:	032f2f2f 	teqeq	pc, #47, 30	; 0xbc
 cfc:	2f304a0a 	svccs	0x00304a0a
 d00:	2f2f2f2f 	svccs	0x002f2f2f
 d04:	30362f32 	eorscc	r2, r6, r2, lsr pc
 d08:	2f2f2f2f 	svccs	0x002f2f2f
 d0c:	2f32302f 	svccs	0x0032302f
 d10:	2f2f2f36 	svccs	0x002f2f36
 d14:	2f2f2f30 	svccs	0x002f2f30
 d18:	312f3030 	teqcc	pc, r0, lsr r0	; <UNPREDICTABLE>
 d1c:	2f2f2f2f 	svccs	0x002f2f2f
 d20:	30303036 	eorscc	r3, r0, r6, lsr r0
 d24:	3030332f 	eorscc	r3, r0, pc, lsr #6
 d28:	2f332f30 	svccs	0x00332f30
 d2c:	09032f31 	stmdbeq	r3, {r0, r4, r5, r8, r9, sl, fp, sp}
 d30:	2f312f2e 	svccs	0x00312f2e
 d34:	2f302f30 	svccs	0x00302f30
 d38:	2f2f2f30 	svccs	0x002f2f30
 d3c:	022f2f2f 	eoreq	r2, pc, #47, 30	; 0xbc
 d40:	01010002 	tsteq	r1, r2
 d44:	0000017c 	andeq	r0, r0, ip, ror r1
 d48:	00480002 	subeq	r0, r8, r2
 d4c:	01020000 	mrseq	r0, (UNDEF: 2)
 d50:	000d0efb 	strdeq	r0, [sp], -fp
 d54:	01010101 	tsteq	r1, r1, lsl #2
 d58:	01000000 	mrseq	r0, (UNDEF: 0)
 d5c:	2e010000 	cdpcs	0, 0, cr0, cr1, cr0, {0}
 d60:	2e2e2f2e 	cdpcs	15, 2, cr2, cr14, cr14, {1}
 d64:	2f2e2e2f 	svccs	0x002e2e2f
 d68:	2d636367 	stclcs	3, cr6, [r3, #-412]!	; 0xfffffe64
 d6c:	2e382e34 	mrccs	14, 1, r2, cr8, cr4, {1}
 d70:	696c2f33 	stmdbvs	ip!, {r0, r1, r4, r5, r8, r9, sl, fp, sp}^
 d74:	63636762 	cmnvs	r3, #25690112	; 0x1880000
 d78:	6e6f632f 	cdpvs	3, 6, cr6, cr15, cr15, {1}
 d7c:	2f676966 	svccs	0x00676966
 d80:	006d7261 	rsbeq	r7, sp, r1, ror #4
 d84:	65656900 	strbvs	r6, [r5, #-2304]!	; 0x900
 d88:	34353765 	ldrtcc	r3, [r5], #-1893	; 0x765
 d8c:	2e66642d 	cdpcs	4, 6, cr6, cr6, cr13, {1}
 d90:	00010053 	andeq	r0, r1, r3, asr r0
 d94:	05000000 	streq	r0, [r0, #-0]
 d98:	009df802 	addseq	pc, sp, r2, lsl #16
 d9c:	04b30300 	ldrteq	r0, [r3], #768	; 0x300
 da0:	2f2f3101 	svccs	0x002f3101
 da4:	2f2f2f30 	svccs	0x002f2f30
 da8:	2f323131 	svccs	0x00323131
 dac:	2f2f302f 	svccs	0x002f302f
 db0:	00c1032f 	sbceq	r0, r1, pc, lsr #6
 db4:	2f2f2f2e 	svccs	0x002f2f2e
 db8:	342f2f2f 	strtcc	r2, [pc], #-3887	; dc0 <_start-0x7240>
 dbc:	2f2f3130 	svccs	0x002f3130
 dc0:	2f2f2f2f 	svccs	0x002f2f2f
 dc4:	2f2f2f31 	svccs	0x002f2f31
 dc8:	2f30312f 	svccs	0x0030312f
 dcc:	2f2f3031 	svccs	0x002f3031
 dd0:	2f2f4e2f 	svccs	0x002f4e2f
 dd4:	2f302f2f 	svccs	0x00302f2f
 dd8:	2f2f4d2f 	svccs	0x002f4d2f
 ddc:	2f303132 	svccs	0x00303132
 de0:	2f2f4d2f 	svccs	0x002f4d2f
 de4:	2f312f2f 	svccs	0x00312f2f
 de8:	2f2f2f2f 	svccs	0x002f2f2f
 dec:	2f2f2f2f 	svccs	0x002f2f2f
 df0:	2f4e2f30 	svccs	0x004e2f30
 df4:	2f2f2f2f 	svccs	0x002f2f2f
 df8:	302f2f2f 	eorcc	r2, pc, pc, lsr #30
 dfc:	2f2f4e2f 	svccs	0x002f4e2f
 e00:	2f2f2f2f 	svccs	0x002f2f2f
 e04:	2f302f2f 	svccs	0x00302f2f
 e08:	2f2f2f4f 	svccs	0x002f2f4f
 e0c:	2f302f2f 	svccs	0x00302f2f
 e10:	2f302f2f 	svccs	0x00302f2f
 e14:	302f2f2f 	eorcc	r2, pc, pc, lsr #30
 e18:	322f2f2f 	eorcc	r2, pc, #47, 30	; 0xbc
 e1c:	312f302f 	teqcc	pc, pc, lsr #32
 e20:	2f322f30 	svccs	0x00322f30
 e24:	304d2f2f 	subcc	r2, sp, pc, lsr #30
 e28:	2f2f2f2f 	svccs	0x002f2f2f
 e2c:	2f2f2f2f 	svccs	0x002f2f2f
 e30:	2f302f2f 	svccs	0x00302f2f
 e34:	2f32322f 	svccs	0x0032322f
 e38:	4e2f2f2f 	cdpmi	15, 2, cr2, cr15, cr15, {1}
 e3c:	31522f2f 	cmpcc	r2, pc, lsr #30
 e40:	2f302f2f 	svccs	0x00302f2f
 e44:	31312f2f 	teqcc	r1, pc, lsr #30
 e48:	2f2f2f32 	svccs	0x002f2f32
 e4c:	2f2f2f2f 	svccs	0x002f2f2f
 e50:	312f2f2f 	teqcc	pc, pc, lsr #30
 e54:	2f2f3032 	svccs	0x002f3032
 e58:	312f2f2f 	teqcc	pc, pc, lsr #30
 e5c:	2f2f2f2f 	svccs	0x002f2f2f
 e60:	302f312f 	eorcc	r3, pc, pc, lsr #2
 e64:	2f2f2f2f 	svccs	0x002f2f2f
 e68:	2f302f2f 	svccs	0x00302f2f
 e6c:	2f2f2f2f 	svccs	0x002f2f2f
 e70:	2f2f302f 	svccs	0x002f302f
 e74:	2f2f2f2f 	svccs	0x002f2f2f
 e78:	302f2f30 	eorcc	r2, pc, r0, lsr pc	; <UNPREDICTABLE>
 e7c:	2f2f2f2f 	svccs	0x002f2f2f
 e80:	2f2f2f2f 	svccs	0x002f2f2f
 e84:	2f2f322f 	svccs	0x002f322f
 e88:	312f2f2f 	teqcc	pc, pc, lsr #30
 e8c:	30312f30 	eorscc	r2, r1, r0, lsr pc
 e90:	2f30312f 	svccs	0x0030312f
 e94:	4e2f2f2f 	cdpmi	15, 2, cr2, cr15, cr15, {1}
 e98:	2f302f2f 	svccs	0x00302f2f
 e9c:	2f2f4c2f 	svccs	0x002f4c2f
 ea0:	322f332f 	eorcc	r3, pc, #-1140850688	; 0xbc000000
 ea4:	2f2f302f 	svccs	0x002f302f
 ea8:	2f2f2f2f 	svccs	0x002f2f2f
 eac:	2f2f2f2f 	svccs	0x002f2f2f
 eb0:	2f2f2f2f 	svccs	0x002f2f2f
 eb4:	302f2f2f 	eorcc	r2, pc, pc, lsr #30
 eb8:	2f302f30 	svccs	0x00302f30
 ebc:	022f2f2f 	eoreq	r2, pc, #47, 30	; 0xbc
 ec0:	01010002 	tsteq	r1, r2
 ec4:	000000aa 	andeq	r0, r0, sl, lsr #1
 ec8:	00480002 	subeq	r0, r8, r2
 ecc:	01020000 	mrseq	r0, (UNDEF: 2)
 ed0:	000d0efb 	strdeq	r0, [sp], -fp
 ed4:	01010101 	tsteq	r1, r1, lsl #2
 ed8:	01000000 	mrseq	r0, (UNDEF: 0)
 edc:	2e010000 	cdpcs	0, 0, cr0, cr1, cr0, {0}
 ee0:	2e2e2f2e 	cdpcs	15, 2, cr2, cr14, cr14, {1}
 ee4:	2f2e2e2f 	svccs	0x002e2e2f
 ee8:	2d636367 	stclcs	3, cr6, [r3, #-412]!	; 0xfffffe64
 eec:	2e382e34 	mrccs	14, 1, r2, cr8, cr4, {1}
 ef0:	696c2f33 	stmdbvs	ip!, {r0, r1, r4, r5, r8, r9, sl, fp, sp}^
 ef4:	63636762 	cmnvs	r3, #25690112	; 0x1880000
 ef8:	6e6f632f 	cdpvs	3, 6, cr6, cr15, cr15, {1}
 efc:	2f676966 	svccs	0x00676966
 f00:	006d7261 	rsbeq	r7, sp, r1, ror #4
 f04:	65656900 	strbvs	r6, [r5, #-2304]!	; 0x900
 f08:	34353765 	ldrtcc	r3, [r5], #-1893	; 0x765
 f0c:	2e66642d 	cdpcs	4, 6, cr6, cr6, cr13, {1}
 f10:	00010053 	andeq	r0, r1, r3, asr r0
 f14:	05000000 	streq	r0, [r0, #-0]
 f18:	00a29402 	adceq	r9, r2, r2, lsl #8
 f1c:	08a90300 	stmiaeq	r9!, {r8, r9}
 f20:	2f322f01 	svccs	0x00322f01
 f24:	2f313033 	svccs	0x00313033
 f28:	322f302f 	eorcc	r3, pc, #47	; 0x2f
 f2c:	302f302f 	eorcc	r3, pc, pc, lsr #32
 f30:	31312f2f 	teqcc	r1, pc, lsr #30
 f34:	2f323032 	svccs	0x00323032
 f38:	2f312f2f 	svccs	0x00312f2f
 f3c:	2f2f2f2f 	svccs	0x002f2f2f
 f40:	2f2f2f2f 	svccs	0x002f2f2f
 f44:	0c032f2f 	stceq	15, cr2, [r3], {47}	; 0x2f
 f48:	2f2f2f2e 	svccs	0x002f2f2e
 f4c:	352f2f2f 	strcc	r2, [pc, #-3887]!	; 25 <_start-0x7fdb>
 f50:	2f32302f 	svccs	0x0032302f
 f54:	2f302f52 	svccs	0x00302f52
 f58:	302f502f 	eorcc	r5, pc, pc, lsr #32
 f5c:	2f502f2f 	svccs	0x00502f2f
 f60:	502f2f30 	eorpl	r2, pc, r0, lsr pc	; <UNPREDICTABLE>
 f64:	2f2f302f 	svccs	0x002f302f
 f68:	2f302f50 	svccs	0x00302f50
 f6c:	00040230 	andeq	r0, r4, r0, lsr r2
 f70:	00740101 	rsbseq	r0, r4, r1, lsl #2
 f74:	00020000 	andeq	r0, r2, r0
 f78:	00000048 	andeq	r0, r0, r8, asr #32
 f7c:	0efb0102 	cdpeq	1, 15, cr0, cr11, cr2, {0}
 f80:	0101000d 	tsteq	r1, sp
 f84:	00000101 	andeq	r0, r0, r1, lsl #2
 f88:	00000100 	andeq	r0, r0, r0, lsl #2
 f8c:	2f2e2e01 	svccs	0x002e2e01
 f90:	2e2f2e2e 	cdpcs	14, 2, cr2, cr15, cr14, {1}
 f94:	63672f2e 	cmnvs	r7, #46, 30	; 0xb8
 f98:	2e342d63 	cdpcs	13, 3, cr2, cr4, cr3, {3}
 f9c:	2f332e38 	svccs	0x00332e38
 fa0:	6762696c 	strbvs	r6, [r2, -ip, ror #18]!
 fa4:	632f6363 	teqvs	pc, #-1946157055	; 0x8c000001
 fa8:	69666e6f 	stmdbvs	r6!, {r0, r1, r2, r3, r5, r6, r9, sl, fp, sp, lr}^
 fac:	72612f67 	rsbvc	r2, r1, #412	; 0x19c
 fb0:	6900006d 	stmdbvs	r0, {r0, r2, r3, r5, r6}
 fb4:	37656565 	strbcc	r6, [r5, -r5, ror #10]!
 fb8:	642d3435 	strtvs	r3, [sp], #-1077	; 0x435
 fbc:	00532e66 	subseq	r2, r3, r6, ror #28
 fc0:	00000001 	andeq	r0, r0, r1
 fc4:	d8020500 	stmdale	r2, {r8, sl}
 fc8:	030000a3 	movweq	r0, #163	; 0xa3
 fcc:	2f0109ec 	svccs	0x000109ec
 fd0:	2f2f2f2f 	svccs	0x002f2f2f
 fd4:	2f2f312f 	svccs	0x002f312f
 fd8:	2f302f2f 	svccs	0x00302f2f
 fdc:	2f302f30 	svccs	0x00302f30
 fe0:	302f302f 	eorcc	r3, pc, pc, lsr #32
 fe4:	0002022f 	andeq	r0, r2, pc, lsr #4
 fe8:	Address 0x0000000000000fe8 is out of bounds.


Disassembly of section .debug_str:

00000000 <.debug_str>:
   0:	6e727574 	mrcvs	5, 3, r7, cr2, cr4, {3}
   4:	6c626174 	stfvse	f6, [r2], #-464	; 0xfffffe30
   8:	75725f65 	ldrbvc	r5, [r2, #-3941]!	; 0xf65
   c:	5453006e 	ldrbpl	r0, [r3], #-110	; 0x6e
  10:	48004341 	stmdami	r0, {r0, r6, r8, r9, lr}
  14:	435f544f 	cmpmi	pc, #1325400064	; 0x4f000000
  18:	53534f52 	cmppl	r3, #328	; 0x148
  1c:	4e55425f 	mrcmi	2, 2, r4, cr5, cr15, {2}
  20:	69730053 	ldmdbvs	r3!, {r0, r1, r4, r6}^
  24:	7974657a 	ldmdbvc	r4!, {r1, r3, r4, r5, r6, r8, sl, sp, lr}^
  28:	6d006570 	cfstr32vs	mvfx6, [r0, #-448]	; 0xfffffe40
  2c:	006e6961 	rsbeq	r6, lr, r1, ror #18
  30:	59415453 	stmdbpl	r1, {r0, r1, r4, r6, sl, ip, lr}^
  34:	52454800 	subpl	r4, r5, #0, 16
  38:	4f435f45 	svcmi	0x00435f45
  3c:	5f53454d 	svcpl	0x0053454d
  40:	5f454854 	svcpl	0x00454854
  44:	004e5553 	subeq	r5, lr, r3, asr r5
  48:	464c4148 	strbmi	r4, [ip], -r8, asr #2
  4c:	746f6e00 	strbtvc	r6, [pc], #-3584	; 54 <_start-0x7fac>
  50:	70007365 	andvc	r7, r0, r5, ror #6
  54:	732d6d77 	teqvc	sp, #7616	; 0x1dc0
  58:	2e656e69 	cdpcs	14, 6, cr6, cr5, cr9, {3}
  5c:	45520063 	ldrbmi	r0, [r2, #-99]	; 0x63
  60:	53005453 	movwpl	r5, #1107	; 0x453
  64:	454c4143 	strbmi	r4, [ip, #-323]	; 0x143
  68:	554e4700 	strbpl	r4, [lr, #-1792]	; 0x700
  6c:	34204320 	strtcc	r4, [r0], #-800	; 0x320
  70:	332e382e 	teqcc	lr, #3014656	; 0x2e0000
  74:	20672d20 	rsbcs	r2, r7, r0, lsr #26
  78:	20674f2d 	rsbcs	r4, r7, sp, lsr #30
  7c:	6474732d 	ldrbtvs	r7, [r4], #-813	; 0x32d
  80:	3939633d 	ldmdbcc	r9!, {r0, r2, r3, r4, r5, r8, r9, sp, lr}
  84:	66662d20 	strbtvs	r2, [r6], -r0, lsr #26
  88:	73656572 	cmnvc	r5, #478150656	; 0x1c800000
  8c:	646e6174 	strbtvs	r6, [lr], #-372	; 0x174
  90:	00676e69 	rsbeq	r6, r7, r9, ror #28
  94:	4c4f4857 	mcrrmi	8, 5, r4, pc, cr7
  98:	69740045 	ldmdbvs	r4!, {r0, r2, r6}^
  9c:	5f73656d 	svcpl	0x0073656d
  a0:	69730074 	ldmdbvs	r3!, {r2, r4, r5, r6}^
  a4:	7000657a 	andvc	r6, r0, sl, ror r5
  a8:	70697265 	rsbvc	r7, r9, r5, ror #4
  ac:	61726568 	cmnvs	r2, r8, ror #10
  b0:	695f736c 	ldmdbvs	pc, {r2, r3, r5, r6, r8, r9, ip, sp, lr}^	; <UNPREDICTABLE>
  b4:	0074696e 	rsbseq	r6, r4, lr, ror #18
  b8:	69647561 	stmdbvs	r4!, {r0, r5, r6, r8, sl, ip, sp, lr}^
  bc:	6e695f6f 	cdpvs	15, 6, cr5, cr9, cr15, {3}
  c0:	54007469 	strpl	r7, [r0], #-1129	; 0x469
  c4:	4b4e4957 	blmi	1392628 <__bss_end__+0x1385f20>
  c8:	545f454c 	ldrbpl	r4, [pc], #-1356	; d0 <_start-0x7f30>
  cc:	4b4e4957 	blmi	1392630 <__bss_end__+0x1385f28>
  d0:	6e00454c 	cfsh32vs	mvfx4, mvfx0, #44
  d4:	7365746f 	cmnvc	r5, #1862270976	; 0x6f000000
  d8:	2f00745f 	svccs	0x0000745f
  dc:	72657355 	rsbvc	r7, r5, #1409286145	; 0x54000001
  e0:	64412f73 	strbvs	r2, [r1], #-3955	; 0xf73
  e4:	6f685a61 	svcvs	0x00685a61
  e8:	65442f75 	strbvs	r2, [r4, #-3957]	; 0xf75
  ec:	6f746b73 	svcvs	0x00746b73
  f0:	53432f70 	movtpl	r2, #16240	; 0x3f70
  f4:	45373031 	ldrmi	r3, [r7, #-49]!	; 0x31
  f8:	7361682f 	cmnvc	r1, #3080192	; 0x2f0000
  fc:	6f726268 	svcvs	0x00726268
 100:	64612d6e 	strbtvs	r2, [r1], #-3438	; 0xd6e
 104:	687a2d61 	ldmdavs	sl!, {r0, r5, r6, r8, sl, fp, sp}^
 108:	702d756f 	eorvc	r7, sp, pc, ror #10
 10c:	656a6f72 	strbvs	r6, [sl, #-3954]!	; 0xf72
 110:	73007463 	movwvc	r7, #1123	; 0x463
 114:	73676e6f 	cmnvc	r7, #1776	; 0x6f0
 118:	7400745f 	strvc	r7, [r0], #-1119	; 0x45f
 11c:	73656e6f 	cmnvc	r5, #1776	; 0x6f0
 120:	5f00745f 	svcpl	0x0000745f
 124:	7373625f 	cmnvc	r3, #-268435451	; 0xf0000005
 128:	646e655f 	strbtvs	r6, [lr], #-1375	; 0x55f
 12c:	62005f5f 	andvs	r5, r0, #380	; 0x17c
 130:	655f7373 	ldrbvs	r7, [pc, #-883]	; fffffdc5 <__bss_end__+0xffff36bd>
 134:	6300646e 	movwvs	r6, #1134	; 0x46e
 138:	72617473 	rsbvc	r7, r1, #1929379840	; 0x73000000
 13c:	00632e74 	rsbeq	r2, r3, r4, ror lr
 140:	7473635f 	ldrbtvc	r6, [r3], #-863	; 0x35f
 144:	00747261 	rsbseq	r7, r4, r1, ror #4
 148:	73625f5f 	cmnvc	r2, #380	; 0x17c
 14c:	74735f73 	ldrbtvc	r5, [r3], #-3955	; 0xf73
 150:	5f747261 	svcpl	0x00747261
 154:	6e69005f 	mcrvs	0, 3, r0, cr9, cr15, {2}
 158:	6d657263 	sfmvs	f7, 2, [r5, #-396]!	; 0xfffffe74
 15c:	5f746e65 	svcpl	0x00746e65
 160:	61746f74 	cmnvs	r4, r4, ror pc
 164:	6e69006c 	cdpvs	0, 6, cr0, cr9, cr12, {3}
 168:	6d657263 	sfmvs	f7, 2, [r5, #-396]!	; 0xfffffe74
 16c:	00746e65 	rsbseq	r6, r4, r5, ror #28
 170:	65766177 	ldrbvs	r6, [r6, #-375]!	; 0x177
 174:	6d726f66 	ldclvs	15, cr6, [r2, #-408]!	; 0xfffffe68
 178:	6e69735f 	mcrvs	3, 3, r7, cr9, cr15, {2}
 17c:	75635f65 	strbvc	r5, [r3, #-3941]!	; 0xf65
 180:	6d6f7473 	cfstrdvs	mvd7, [pc, #-460]!	; ffffffbc <__bss_end__+0xffff38b4>
 184:	756f6400 	strbvc	r6, [pc, #-1024]!	; fffffd8c <__bss_end__+0xffff3684>
 188:	00656c62 	rsbeq	r6, r5, r2, ror #24
 18c:	756c6f76 	strbvc	r6, [ip, #-3958]!	; 0xf76
 190:	7400656d 	strvc	r6, [r0], #-1389	; 0x56d
 194:	72656d69 	rsbvc	r6, r5, #6720	; 0x1a40
 198:	69706700 	ldmdbvs	r0!, {r8, r9, sl, sp, lr}^
 19c:	7561006f 	strbvc	r0, [r1, #-111]!	; 0x6f
 1a0:	5f6f6964 	svcpl	0x006f6964
 1a4:	646e6573 	strbtvs	r6, [lr], #-1395	; 0x573
 1a8:	6e6f745f 	mcrvs	4, 3, r7, cr15, cr15, {2}
 1ac:	65640065 	strbvs	r0, [r4, #-101]!	; 0x65
 1b0:	5f79616c 	svcpl	0x0079616c
 1b4:	66007375 			; <UNDEFINED> instruction: 0x66007375
 1b8:	75716572 	ldrbvc	r6, [r1, #-1394]!	; 0x572
 1bc:	79636e65 	stmdbvc	r3!, {r0, r2, r5, r6, r9, sl, fp, sp, lr}^
 1c0:	76617700 	strbtvc	r7, [r1], -r0, lsl #14
 1c4:	726f6665 	rsbvc	r6, pc, #105906176	; 0x6500000
 1c8:	69735f6d 	ldmdbvs	r3!, {r0, r2, r3, r5, r6, r8, r9, sl, fp, ip, lr}^
 1cc:	635f656e 	cmpvs	pc, #461373440	; 0x1b800000
 1d0:	6f747375 	svcvs	0x00747375
 1d4:	34365f6d 	ldrtcc	r5, [r6], #-3949	; 0xf6d
 1d8:	76617700 	strbtvc	r7, [r1], -r0, lsl #14
 1dc:	726f6665 	rsbvc	r6, pc, #105906176	; 0x6500000
 1e0:	69735f6d 	ldmdbvs	r3!, {r0, r2, r3, r5, r6, r8, r9, sl, fp, ip, lr}^
 1e4:	6600656e 	strvs	r6, [r0], -lr, ror #10
 1e8:	74636172 	strbtvc	r6, [r3], #-370	; 0x172
 1ec:	616e6f69 	cmnvs	lr, r9, ror #30
 1f0:	61705f6c 	cmnvs	r0, ip, ror #30
 1f4:	61007472 	tstvs	r0, r2, ror r4
 1f8:	6f696475 	svcvs	0x00696475
 1fc:	6900632e 	stmdbvs	r0, {r1, r2, r3, r5, r8, r9, sp, lr}
 200:	6765746e 	strbvs	r7, [r5, -lr, ror #8]!
 204:	705f7265 	subsvc	r7, pc, r5, ror #4
 208:	00747261 	rsbseq	r7, r4, r1, ror #4
 20c:	69647561 	stmdbvs	r4!, {r0, r5, r6, r8, sl, ip, sp, lr}^
 210:	65735f6f 	ldrbvs	r5, [r3, #-3951]!	; 0xf6f
 214:	6c635f74 	stclvs	15, cr5, [r3], #-464	; 0xfffffe30
 218:	006b636f 	rsbeq	r6, fp, pc, ror #6
 21c:	657a6973 	ldrbvs	r6, [sl, #-2419]!	; 0x973
 220:	6d00745f 	cfstrsvs	mvf7, [r0, #-380]	; 0xfffffe84
 224:	70636d65 	rsbvc	r6, r3, r5, ror #26
 228:	656d0079 	strbvs	r0, [sp, #-121]!	; 0x79
 22c:	7970636d 	ldmdbvc	r0!, {r0, r2, r3, r5, r6, r8, r9, sp, lr}^
 230:	4700632e 	strmi	r6, [r0, -lr, lsr #6]
 234:	5f4f4950 	svcpl	0x004f4950
 238:	334e4950 	movtcc	r4, #59728	; 0xe950
 23c:	50470031 	subpl	r0, r7, r1, lsr r0
 240:	505f4f49 	subspl	r4, pc, r9, asr #30
 244:	35324e49 	ldrcc	r4, [r2, #-3657]!	; 0xe49
 248:	49504700 	ldmdbmi	r0, {r8, r9, sl, lr}^
 24c:	49505f4f 	ldmdbmi	r0, {r0, r1, r2, r3, r6, r8, r9, sl, fp, ip, lr}^
 250:	0032334e 	eorseq	r3, r2, lr, asr #6
 254:	4f495047 	svcmi	0x00495047
 258:	4e49505f 	mcrmi	0, 2, r5, cr9, cr15, {2}
 25c:	47003632 	smladxmi	r0, r2, r6, r3
 260:	5f4f4950 	svcpl	0x004f4950
 264:	324e4950 	subcc	r4, lr, #80, 18	; 0x140000
 268:	50470037 	subpl	r0, r7, r7, lsr r0
 26c:	505f4f49 	subspl	r4, pc, r9, asr #30
 270:	38324e49 	ldmdacc	r2!, {r0, r3, r6, r9, sl, fp, lr}
 274:	49504700 	ldmdbmi	r0, {r8, r9, sl, lr}^
 278:	49505f4f 	ldmdbmi	r0, {r0, r1, r2, r3, r6, r8, r9, sl, fp, ip, lr}^
 27c:	0031344e 	eorseq	r3, r1, lr, asr #8
 280:	4f495047 	svcmi	0x00495047
 284:	4e49505f 	mcrmi	0, 2, r5, cr9, cr15, {2}
 288:	63003234 	movwvs	r3, #564	; 0x234
 28c:	6e6e6168 	powvsez	f6, f6, #0.0
 290:	47006c65 	strmi	r6, [r0, -r5, ror #24]
 294:	5f4f4950 	svcpl	0x004f4950
 298:	354e4950 	strbcc	r4, [lr, #-2384]	; 0x950
 29c:	50470030 	subpl	r0, r7, r0, lsr r0
 2a0:	505f4f49 	subspl	r4, pc, r9, asr #30
 2a4:	31354e49 	teqcc	r5, r9, asr #28
 2a8:	49504700 	ldmdbmi	r0, {r8, r9, sl, lr}^
 2ac:	49505f4f 	ldmdbmi	r0, {r0, r1, r2, r3, r6, r8, r9, sl, fp, ip, lr}^
 2b0:	0032354e 	eorseq	r3, r2, lr, asr #10
 2b4:	4f495047 	svcmi	0x00495047
 2b8:	4e49505f 	mcrmi	0, 2, r5, cr9, cr15, {2}
 2bc:	6d003734 	stcvs	7, cr3, [r0, #-208]	; 0xffffff30
 2c0:	30337063 	eorscc	r7, r3, r3, rrx
 2c4:	695f3830 	ldmdbvs	pc, {r4, r5, fp, ip, sp}^	; <UNPREDICTABLE>
 2c8:	0074696e 	rsbseq	r6, r4, lr, ror #18
 2cc:	4f495047 	svcmi	0x00495047
 2d0:	4e49505f 	mcrmi	0, 2, r5, cr9, cr15, {2}
 2d4:	47003031 	smladxmi	r0, r1, r0, r3
 2d8:	5f4f4950 	svcpl	0x004f4950
 2dc:	314e4950 	cmpcc	lr, r0, asr r9
 2e0:	50470031 	subpl	r0, r7, r1, lsr r0
 2e4:	505f4f49 	subspl	r4, pc, r9, asr #30
 2e8:	32314e49 	eorscc	r4, r1, #1168	; 0x490
 2ec:	49504700 	ldmdbmi	r0, {r8, r9, sl, lr}^
 2f0:	49505f4f 	ldmdbmi	r0, {r0, r1, r2, r3, r6, r8, r9, sl, fp, ip, lr}^
 2f4:	0033314e 	eorseq	r3, r3, lr, asr #2
 2f8:	4f495047 	svcmi	0x00495047
 2fc:	4e49505f 	mcrmi	0, 2, r5, cr9, cr15, {2}
 300:	47003431 	smladxmi	r0, r1, r4, r3
 304:	5f4f4950 	svcpl	0x004f4950
 308:	314e4950 	cmpcc	lr, r0, asr r9
 30c:	50470035 	subpl	r0, r7, r5, lsr r0
 310:	505f4f49 	subspl	r4, pc, r9, asr #30
 314:	36314e49 	ldrtcc	r4, [r1], -r9, asr #28
 318:	49504700 	ldmdbmi	r0, {r8, r9, sl, lr}^
 31c:	49505f4f 	ldmdbmi	r0, {r0, r1, r2, r3, r6, r8, r9, sl, fp, ip, lr}^
 320:	0037314e 	eorseq	r3, r7, lr, asr #2
 324:	4f495047 	svcmi	0x00495047
 328:	4e49505f 	mcrmi	0, 2, r5, cr9, cr15, {2}
 32c:	47003831 	smladxmi	r0, r1, r8, r3
 330:	5f4f4950 	svcpl	0x004f4950
 334:	314e4950 	cmpcc	lr, r0, asr r9
 338:	50470039 	subpl	r0, r7, r9, lsr r0
 33c:	505f4f49 	subspl	r4, pc, r9, asr #30
 340:	33334e49 	teqcc	r3, #1168	; 0x490
 344:	49504700 	ldmdbmi	r0, {r8, r9, sl, lr}^
 348:	49505f4f 	ldmdbmi	r0, {r0, r1, r2, r3, r6, r8, r9, sl, fp, ip, lr}^
 34c:	0034334e 	eorseq	r3, r4, lr, asr #6
 350:	4f495047 	svcmi	0x00495047
 354:	4e49505f 	mcrmi	0, 2, r5, cr9, cr15, {2}
 358:	47003533 	smladxmi	r0, r3, r5, r3
 35c:	5f4f4950 	svcpl	0x004f4950
 360:	334e4950 	movtcc	r4, #59728	; 0xe950
 364:	50470036 	subpl	r0, r7, r6, lsr r0
 368:	505f4f49 	subspl	r4, pc, r9, asr #30
 36c:	37334e49 	ldrcc	r4, [r3, -r9, asr #28]!
 370:	49504700 	ldmdbmi	r0, {r8, r9, sl, lr}^
 374:	49505f4f 	ldmdbmi	r0, {r0, r1, r2, r3, r6, r8, r9, sl, fp, ip, lr}^
 378:	0038334e 	eorseq	r3, r8, lr, asr #6
 37c:	4f495047 	svcmi	0x00495047
 380:	4e49505f 	mcrmi	0, 2, r5, cr9, cr15, {2}
 384:	47003933 	smladxmi	r0, r3, r9, r3
 388:	5f4f4950 	svcpl	0x004f4950
 38c:	354e4950 	strbcc	r4, [lr, #-2384]	; 0x950
 390:	50470033 	subpl	r0, r7, r3, lsr r0
 394:	505f4f49 	subspl	r4, pc, r9, asr #30
 398:	30344e49 	eorscc	r4, r4, r9, asr #28
 39c:	69706700 	ldmdbvs	r0!, {r8, r9, sl, sp, lr}^
 3a0:	65735f6f 	ldrbvs	r5, [r3, #-3951]!	; 0xf6f
 3a4:	6e695f74 	mcrvs	15, 3, r5, cr9, cr4, {3}
 3a8:	00747570 	rsbseq	r7, r4, r0, ror r5
 3ac:	74747562 	ldrbtvc	r7, [r4], #-1378	; 0x562
 3b0:	72506e6f 	subsvc	r6, r0, #1776	; 0x6f0
 3b4:	65737365 	ldrbvs	r7, [r3, #-869]!	; 0x365
 3b8:	65670064 	strbvs	r0, [r7, #-100]!	; 0x64
 3bc:	65705374 	ldrbvs	r5, [r0, #-884]!	; 0x374
 3c0:	47006465 	strmi	r6, [r0, -r5, ror #8]
 3c4:	5f4f4950 	svcpl	0x004f4950
 3c8:	324e4950 	subcc	r4, lr, #80, 18	; 0x140000
 3cc:	65670034 	strbvs	r0, [r7, #-52]!	; 0x34
 3d0:	6c6f5674 	stclvs	6, cr5, [pc], #-464	; 208 <_start-0x7df8>
 3d4:	00656d75 	rsbeq	r6, r5, r5, ror sp
 3d8:	46746567 	ldrbtmi	r6, [r4], -r7, ror #10
 3dc:	00656461 	rsbeq	r6, r5, r1, ror #8
 3e0:	6f697067 	svcvs	0x00697067
 3e4:	6165725f 	cmnvs	r5, pc, asr r2
 3e8:	50470064 	subpl	r0, r7, r4, rrx
 3ec:	505f4f49 	subspl	r4, pc, r9, asr #30
 3f0:	465f4e49 	ldrbmi	r4, [pc], -r9, asr #28
 3f4:	54535249 	ldrbpl	r5, [r3], #-585	; 0x249
 3f8:	6a646100 	bvs	1918800 <__bss_end__+0x190c0f8>
 3fc:	65747375 	ldrbvs	r7, [r4, #-885]!	; 0x375
 400:	636d0064 	cmnvs	sp, #100	; 0x64
 404:	30303370 	eorscc	r3, r0, r0, ror r3
 408:	65725f38 	ldrbvs	r5, [r2, #-3896]!	; 0xf38
 40c:	67006461 	strvs	r6, [r0, -r1, ror #8]
 410:	5f6f6970 	svcpl	0x006f6970
 414:	5f746573 	svcpl	0x00746573
 418:	6c6c7570 	cfstr64vs	mvdx7, [ip], #-448	; 0xfffffe40
 41c:	73007075 	movwvc	r7, #117	; 0x75
 420:	64656570 	strbtvs	r6, [r5], #-1392	; 0x570
 424:	49504700 	ldmdbmi	r0, {r8, r9, sl, lr}^
 428:	49505f4f 	ldmdbmi	r0, {r0, r1, r2, r3, r6, r8, r9, sl, fp, ip, lr}^
 42c:	4700304e 	strmi	r3, [r0, -lr, asr #32]
 430:	5f4f4950 	svcpl	0x004f4950
 434:	314e4950 	cmpcc	lr, r0, asr r9
 438:	49504700 	ldmdbmi	r0, {r8, r9, sl, lr}^
 43c:	49505f4f 	ldmdbmi	r0, {r0, r1, r2, r3, r6, r8, r9, sl, fp, ip, lr}^
 440:	7000324e 	andvc	r3, r0, lr, asr #4
 444:	70697265 	rsbvc	r7, r9, r5, ror #4
 448:	61726568 	cmnvs	r2, r8, ror #10
 44c:	632e736c 	teqvs	lr, #108, 6	; 0xb0000001
 450:	49504700 	ldmdbmi	r0, {r8, r9, sl, lr}^
 454:	49505f4f 	ldmdbmi	r0, {r0, r1, r2, r3, r6, r8, r9, sl, fp, ip, lr}^
 458:	4700344e 	strmi	r3, [r0, -lr, asr #8]
 45c:	5f4f4950 	svcpl	0x004f4950
 460:	354e4950 	strbcc	r4, [lr, #-2384]	; 0x950
 464:	49504700 	ldmdbmi	r0, {r8, r9, sl, lr}^
 468:	49505f4f 	ldmdbmi	r0, {r0, r1, r2, r3, r6, r8, r9, sl, fp, ip, lr}^
 46c:	4700364e 	strmi	r3, [r0, -lr, asr #12]
 470:	5f4f4950 	svcpl	0x004f4950
 474:	334e4950 	movtcc	r4, #59728	; 0xe950
 478:	49504700 	ldmdbmi	r0, {r8, r9, sl, lr}^
 47c:	49505f4f 	ldmdbmi	r0, {r0, r1, r2, r3, r6, r8, r9, sl, fp, ip, lr}^
 480:	4700384e 	strmi	r3, [r0, -lr, asr #16]
 484:	5f4f4950 	svcpl	0x004f4950
 488:	394e4950 	stmdbcc	lr, {r4, r6, r8, fp, lr}^
 48c:	49504700 	ldmdbmi	r0, {r8, r9, sl, lr}^
 490:	49505f4f 	ldmdbmi	r0, {r0, r1, r2, r3, r6, r8, r9, sl, fp, ip, lr}^
 494:	0039324e 	eorseq	r3, r9, lr, asr #4
 498:	4f495047 	svcmi	0x00495047
 49c:	4e49505f 	mcrmi	0, 2, r5, cr9, cr15, {2}
 4a0:	47003334 	smladxmi	r0, r4, r3, r3
 4a4:	5f4f4950 	svcpl	0x004f4950
 4a8:	344e4950 	strbcc	r4, [lr], #-2384	; 0x950
 4ac:	50470034 	subpl	r0, r7, r4, lsr r0
 4b0:	505f4f49 	subspl	r4, pc, r9, asr #30
 4b4:	35344e49 	ldrcc	r4, [r4, #-3657]!	; 0xe49
 4b8:	49504700 	ldmdbmi	r0, {r8, r9, sl, lr}^
 4bc:	49505f4f 	ldmdbmi	r0, {r0, r1, r2, r3, r6, r8, r9, sl, fp, ip, lr}^
 4c0:	0036344e 	eorseq	r3, r6, lr, asr #8
 4c4:	4f495047 	svcmi	0x00495047
 4c8:	4e49505f 	mcrmi	0, 2, r5, cr9, cr15, {2}
 4cc:	50470037 	subpl	r0, r7, r7, lsr r0
 4d0:	505f4f49 	subspl	r4, pc, r9, asr #30
 4d4:	38344e49 	ldmdacc	r4!, {r0, r3, r6, r9, sl, fp, lr}
 4d8:	49504700 	ldmdbmi	r0, {r8, r9, sl, lr}^
 4dc:	49505f4f 	ldmdbmi	r0, {r0, r1, r2, r3, r6, r8, r9, sl, fp, ip, lr}^
 4e0:	0039344e 	eorseq	r3, r9, lr, asr #8
 4e4:	4f495047 	svcmi	0x00495047
 4e8:	4e49505f 	mcrmi	0, 2, r5, cr9, cr15, {2}
 4ec:	53414c5f 	movtpl	r4, #7263	; 0x1c5f
 4f0:	75620054 	strbvc	r0, [r2, #-84]!	; 0x54
 4f4:	6e6f7474 	mcrvs	4, 3, r7, cr15, cr4, {3}
 4f8:	49504700 	ldmdbmi	r0, {r8, r9, sl, lr}^
 4fc:	49505f4f 	ldmdbmi	r0, {r0, r1, r2, r3, r6, r8, r9, sl, fp, ip, lr}^
 500:	0030324e 	eorseq	r3, r0, lr, asr #4
 504:	4f495047 	svcmi	0x00495047
 508:	4e49505f 	mcrmi	0, 2, r5, cr9, cr15, {2}
 50c:	47003132 	smladxmi	r0, r2, r1, r3
 510:	5f4f4950 	svcpl	0x004f4950
 514:	324e4950 	subcc	r4, lr, #80, 18	; 0x140000
 518:	50470032 	subpl	r0, r7, r2, lsr r0
 51c:	505f4f49 	subspl	r4, pc, r9, asr #30
 520:	33324e49 	teqcc	r2, #1168	; 0x490
 524:	49504700 	ldmdbmi	r0, {r8, r9, sl, lr}^
 528:	49505f4f 	ldmdbmi	r0, {r0, r1, r2, r3, r6, r8, r9, sl, fp, ip, lr}^
 52c:	0030334e 	eorseq	r3, r0, lr, asr #6
 530:	5f697073 	svcpl	0x00697073
 534:	74696e69 	strbtvc	r6, [r9], #-3689	; 0xe69
 538:	70636d00 	rsbvc	r6, r3, r0, lsl #26
 53c:	38303033 	ldmdacc	r0!, {r0, r1, r4, r5, ip, sp}
 540:	7500632e 	strvc	r6, [r0, #-814]	; 0x32e
 544:	6769736e 	strbvs	r7, [r9, -lr, ror #6]!
 548:	2064656e 	rsbcs	r6, r4, lr, ror #10
 54c:	72616863 	rsbvc	r6, r1, #6488064	; 0x630000
 550:	69707300 	ldmdbvs	r0!, {r8, r9, ip, sp, lr}^
 554:	6172745f 	cmnvs	r2, pc, asr r4
 558:	6566736e 	strbvs	r7, [r6, #-878]!	; 0x36e
 55c:	696e0072 	stmdbvs	lr!, {r1, r4, r5, r6}^
 560:	665f656e 	ldrbvs	r6, [pc], -lr, ror #10
 564:	6f746361 	svcvs	0x00746361
 568:	6c616972 	stclvs	9, cr6, [r1], #-456	; 0xfffffe38
 56c:	70786500 	rsbsvc	r6, r8, r0, lsl #10
 570:	6e656e6f 	cdpvs	14, 6, cr6, cr5, cr15, {3}
 574:	756e0074 	strbvc	r0, [lr, #-116]!	; 0x74
 578:	69745f6d 	ldmdbvs	r4!, {r0, r2, r3, r5, r6, r8, r9, sl, fp, ip, lr}^
 57c:	0073656d 	rsbseq	r6, r3, sp, ror #10
 580:	76656c65 	strbtvc	r6, [r5], -r5, ror #24
 584:	665f6e65 	ldrbvs	r6, [pc], -r5, ror #28
 588:	6f746361 	svcvs	0x00746361
 58c:	6c616972 	stclvs	9, cr6, [r1], #-456	; 0xfffffe38
 590:	76657300 	strbtvc	r7, [r5], -r0, lsl #6
 594:	665f6e65 	ldrbvs	r6, [pc], -r5, ror #28
 598:	6f746361 	svcvs	0x00746361
 59c:	6c616972 	stclvs	9, cr6, [r1], #-456	; 0xfffffe38
 5a0:	73657200 	cmnvc	r5, #0, 4
 5a4:	00746c75 	rsbseq	r6, r4, r5, ror ip
 5a8:	65766966 	ldrbvs	r6, [r6, #-2406]!	; 0x966
 5ac:	6361665f 	cmnvs	r1, #99614720	; 0x5f00000
 5b0:	69726f74 	ldmdbvs	r2!, {r2, r4, r5, r6, r8, r9, sl, fp, sp, lr}^
 5b4:	66006c61 	strvs	r6, [r0], -r1, ror #24
 5b8:	74616f6c 	strbtvc	r6, [r1], #-3948	; 0xf6c
 5bc:	646f6d5f 	strbtvs	r6, [pc], #-3423	; 5c4 <_start-0x7a3c>
 5c0:	72687400 	rsbvc	r7, r8, #0, 8
 5c4:	665f6565 	ldrbvs	r6, [pc], -r5, ror #10
 5c8:	6f746361 	svcvs	0x00746361
 5cc:	6c616972 	stclvs	9, cr6, [r1], #-456	; 0xfffffe38
 5d0:	776f7000 	strbvc	r7, [pc, -r0]!
 5d4:	6d007265 	sfmvs	f7, 4, [r0, #-404]	; 0xfffffe6c
 5d8:	785f646f 	ldmdavc	pc, {r0, r1, r2, r3, r5, r6, sl, sp, lr}^	; <UNPREDICTABLE>
 5dc:	69687400 	stmdbvs	r8!, {sl, ip, sp, lr}^
 5e0:	65657472 	strbvs	r7, [r5, #-1138]!	; 0x472
 5e4:	61665f6e 	cmnvs	r6, lr, ror #30
 5e8:	726f7463 	rsbvc	r7, pc, #1660944384	; 0x63000000
 5ec:	006c6169 	rsbeq	r6, ip, r9, ror #2
 5f0:	79616c70 	stmdbvc	r1!, {r4, r5, r6, sl, fp, sp, lr}^
 5f4:	6e6f735f 	mcrvs	3, 3, r7, cr15, cr15, {2}
 5f8:	6f730067 	svcvs	0x00730067
 5fc:	632e676e 	teqvs	lr, #28835840	; 0x1b80000
 600:	756f7200 	strbvc	r7, [pc, #-512]!	; 408 <_start-0x7bf8>
 604:	632e646e 	teqvs	lr, #1845493760	; 0x6e000000
 608:	756f7200 	strbvc	r7, [pc, #-512]!	; 410 <_start-0x7bf0>
 60c:	695f646e 	ldmdbvs	pc, {r1, r2, r3, r5, r6, sl, sp, lr}^	; <UNPREDICTABLE>
 610:	7400746e 	strvc	r7, [r0], #-1134	; 0x46e
 614:	6b636172 	blvs	18d8be4 <__bss_end__+0x18cc4dc>
 618:	656e6f5f 	strbvs	r6, [lr, #-3935]!	; 0xf5f
 61c:	61657200 	cmnvs	r5, r0, lsl #4
 620:	70735f64 	rsbsvc	r5, r3, r4, ror #30
 624:	5f646565 	svcpl	0x00646565
 628:	00656e6f 	rsbeq	r6, r5, pc, ror #28
 62c:	736f7263 	cmnvc	pc, #805306374	; 0x30000006
 630:	64616673 	strbtvs	r6, [r1], #-1651	; 0x673
 634:	69730065 	ldmdbvs	r3!, {r0, r2, r5, r6}^
 638:	745f657a 	ldrbvc	r6, [pc], #-1402	; 640 <_start-0x79c0>
 63c:	6f006f77 	svcvs	0x00006f77
 640:	6e5f656e 	cdpvs	5, 5, cr6, cr15, cr14, {3}
 644:	0065746f 	rsbeq	r7, r5, pc, ror #8
 648:	63617274 	cmnvs	r1, #116, 4	; 0x40000007
 64c:	6e6f5f6b 	cdpvs	15, 6, cr5, cr15, cr11, {3}
 650:	74735f65 	ldrbtvc	r5, [r3], #-3941	; 0xf65
 654:	73757461 	cmnvc	r5, #1627389952	; 0x61000000
 658:	656e6f00 	strbvs	r6, [lr, #-3840]!	; 0xf00
 65c:	736f705f 	cmnvc	pc, #95	; 0x5f
 660:	7a697300 	bvc	1a5d268 <__bss_end__+0x1a50b60>
 664:	6e6f5f65 	cdpvs	15, 6, cr5, cr15, cr5, {3}
 668:	72740065 	rsbsvc	r0, r4, #101	; 0x65
 66c:	5f6b6361 	svcpl	0x006b6361
 670:	006f7774 	rsbeq	r7, pc, r4, ror r7	; <UNPREDICTABLE>
 674:	5f6f7774 	svcpl	0x006f7774
 678:	73657270 	cmnvc	r5, #112, 4
 67c:	00646573 	rsbeq	r6, r4, r3, ror r5
 680:	79616c70 	stmdbvc	r1!, {r4, r5, r6, sl, fp, sp, lr}^
 684:	746f6e5f 	strbtvc	r6, [pc], #-3679	; 68c <_start-0x7974>
 688:	75740065 	ldrbvc	r0, [r4, #-101]!	; 0x65
 68c:	61746e72 	cmnvs	r4, r2, ror lr
 690:	2e656c62 	cdpcs	12, 6, cr6, cr5, cr2, {3}
 694:	77740063 	ldrbvc	r0, [r4, -r3, rrx]!
 698:	6f6e5f6f 	svcvs	0x006e5f6f
 69c:	72006574 	andvc	r6, r0, #116, 10	; 0x1d000000
 6a0:	5f646165 	svcpl	0x00646165
 6a4:	65657073 	strbvs	r7, [r5, #-115]!	; 0x73
 6a8:	77745f64 	ldrbvc	r5, [r4, -r4, ror #30]!
 6ac:	6f63006f 	svcvs	0x0063006f
 6b0:	65746e75 	ldrbvs	r6, [r4, #-3701]!	; 0xe75
 6b4:	72740072 	rsbsvc	r0, r4, #114	; 0x72
 6b8:	5f6b6361 	svcpl	0x006b6361
 6bc:	5f6f7774 	svcpl	0x006f7774
 6c0:	74617473 	strbtvc	r7, [r1], #-1139	; 0x473
 6c4:	6f007375 	svcvs	0x00007375
 6c8:	705f656e 	subsvc	r6, pc, lr, ror #10
 6cc:	73736572 	cmnvc	r3, #478150656	; 0x1c800000
 6d0:	74006465 	strvc	r6, [r0], #-1125	; 0x465
 6d4:	705f6f77 	subsvc	r6, pc, r7, ror pc	; <UNPREDICTABLE>
 6d8:	7300736f 	movwvc	r7, #879	; 0x36f
 6dc:	74666968 	strbtvc	r6, [r6], #-2408	; 0x968
 6e0:	69706700 	ldmdbvs	r0!, {r8, r9, sl, sp, lr}^
 6e4:	72775f6f 	rsbsvc	r5, r7, #444	; 0x1bc
 6e8:	00657469 	rsbeq	r7, r5, r9, ror #8
 6ec:	20554e47 	subscs	r4, r5, r7, asr #28
 6f0:	2e342043 	cdpcs	0, 3, cr2, cr4, cr3, {2}
 6f4:	00332e38 	eorseq	r2, r3, r8, lsr lr
 6f8:	4f495047 	svcmi	0x00495047
 6fc:	4e55465f 	mrcmi	6, 2, r4, cr5, cr15, {2}
 700:	554f5f43 	strbpl	r5, [pc, #-3907]	; fffff7c5 <__bss_end__+0xffff30bd>
 704:	54555054 	ldrbpl	r5, [r5], #-84	; 0x54
 708:	49504700 	ldmdbmi	r0, {r8, r9, sl, lr}^
 70c:	55465f4f 	strbpl	r5, [r6, #-3919]	; 0xf4f
 710:	415f434e 	cmpmi	pc, lr, asr #6
 714:	0030544c 	eorseq	r5, r0, ip, asr #8
 718:	676e6f6c 	strbvs	r6, [lr, -ip, ror #30]!
 71c:	6e6f6c20 	cdpvs	12, 6, cr6, cr15, cr0, {1}
 720:	6e752067 	cdpvs	0, 7, cr2, cr5, cr7, {3}
 724:	6e676973 	mcrvs	9, 3, r6, cr7, cr3, {3}
 728:	69206465 	stmdbvs	r0!, {r0, r2, r5, r6, sl, sp, lr}
 72c:	4700746e 	strmi	r7, [r0, -lr, ror #8]
 730:	5f4f4950 	svcpl	0x004f4950
 734:	434e5546 	movtmi	r5, #58694	; 0xe546
 738:	544c415f 	strbpl	r4, [ip], #-351	; 0x15f
 73c:	50470032 	subpl	r0, r7, r2, lsr r0
 740:	465f4f49 	ldrbmi	r4, [pc], -r9, asr #30
 744:	5f434e55 	svcpl	0x00434e55
 748:	33544c41 	cmpcc	r4, #16640	; 0x4100
 74c:	49504700 	ldmdbmi	r0, {r8, r9, sl, lr}^
 750:	55465f4f 	strbpl	r5, [r6, #-3919]	; 0xf4f
 754:	415f434e 	cmpmi	pc, lr, asr #6
 758:	0034544c 	eorseq	r5, r4, ip, asr #8
 75c:	4f495047 	svcmi	0x00495047
 760:	4e55465f 	mrcmi	6, 2, r4, cr5, cr15, {2}
 764:	4c415f43 	mcrrmi	15, 4, r5, r1, cr3
 768:	61003554 	tstvs	r0, r4, asr r5
 76c:	00726464 	rsbseq	r6, r2, r4, ror #8
 770:	4f495047 	svcmi	0x00495047
 774:	4e55465f 	mrcmi	6, 2, r4, cr5, cr15, {2}
 778:	4e495f43 	cdpmi	15, 4, cr5, cr9, cr3, {2}
 77c:	494c4156 	stmdbmi	ip, {r1, r2, r4, r6, r8, lr}^
 780:	70670044 	rsbvc	r0, r7, r4, asr #32
 784:	735f6f69 	cmpvc	pc, #420	; 0x1a4
 788:	6f5f7465 	svcvs	0x005f7465
 78c:	75707475 	ldrbvc	r7, [r0, #-1141]!	; 0x475
 790:	75660074 	strbvc	r0, [r6, #-116]!	; 0x74
 794:	6700636e 	strvs	r6, [r0, -lr, ror #6]
 798:	5f6f6970 	svcpl	0x006f6970
 79c:	5f746567 	svcpl	0x00746567
 7a0:	636e7566 	cmnvs	lr, #427819008	; 0x19800000
 7a4:	6e6f6974 	mcrvs	9, 3, r6, cr15, cr4, {3}
 7a8:	49504700 	ldmdbmi	r0, {r8, r9, sl, lr}^
 7ac:	55465f4f 	strbpl	r5, [r6, #-3919]	; 0xf4f
 7b0:	415f434e 	cmpmi	pc, lr, asr #6
 7b4:	0031544c 	eorseq	r5, r1, ip, asr #8
 7b8:	6f697067 	svcvs	0x00697067
 7bc:	696e695f 	stmdbvs	lr!, {r0, r1, r2, r3, r4, r6, r8, fp, sp, lr}^
 7c0:	70670074 	rsbvc	r0, r7, r4, ror r0
 7c4:	632e6f69 	teqvs	lr, #420	; 0x1a4
 7c8:	49504700 	ldmdbmi	r0, {r8, r9, sl, lr}^
 7cc:	55465f4f 	strbpl	r5, [r6, #-3919]	; 0xf4f
 7d0:	495f434e 	ldmdbmi	pc, {r1, r2, r3, r6, r8, r9, lr}^	; <UNPREDICTABLE>
 7d4:	5455504e 	ldrbpl	r5, [r5], #-78	; 0x4e
 7d8:	69706700 	ldmdbvs	r0!, {r8, r9, sl, sp, lr}^
 7dc:	65735f6f 	ldrbvs	r5, [r3, #-3951]!	; 0xf6f
 7e0:	75665f74 	strbvc	r5, [r6, #-3956]!	; 0xf74
 7e4:	6974636e 	ldmdbvs	r4!, {r1, r2, r3, r5, r6, r8, r9, sp, lr}^
 7e8:	75006e6f 	strvc	r6, [r0, #-3695]	; 0xe6f
 7ec:	5f747261 	svcpl	0x00747261
 7f0:	74696e69 	strbtvc	r6, [r9], #-3689	; 0xe69
 7f4:	6c617700 	stclvs	7, cr7, [r1], #-0
 7f8:	0072656b 	rsbseq	r6, r2, fp, ror #10
 7fc:	75646572 	strbvc	r6, [r4, #-1394]!	; 0x572
 800:	79426563 	stmdbvc	r2, {r0, r1, r5, r6, r8, sl, sp, lr}^
 804:	506e6554 	rsbpl	r6, lr, r4, asr r5
 808:	7265776f 	rsbvc	r7, r5, #29097984	; 0x1bc0000
 80c:	64697700 	strbtvs	r7, [r9], #-1792	; 0x700
 810:	66006874 			; <UNDEFINED> instruction: 0x66006874
 814:	616d726f 	cmnvs	sp, pc, ror #4
 818:	5f5f0074 	svcpl	0x005f0074
 81c:	6c5f6176 	ldfvse	f6, [pc], {118}	; 0x76
 820:	00747369 	rsbseq	r7, r4, r9, ror #6
 824:	74746e69 	ldrbtvc	r6, [r4], #-3689	; 0xe69
 828:	6365646f 	cmnvs	r5, #1862270976	; 0x6f000000
 82c:	746e6900 	strbtvc	r6, [lr], #-2304	; 0x900
 830:	69626f74 	stmdbvs	r2!, {r2, r4, r5, r6, r8, r9, sl, fp, sp, lr}^
 834:	7376006e 	cmnvc	r6, #110	; 0x6e
 838:	6972706e 	ldmdbvs	r2!, {r1, r2, r3, r5, r6, ip, sp, lr}^
 83c:	0066746e 	rsbeq	r7, r6, lr, ror #8
 840:	70615f5f 	rsbvc	r5, r1, pc, asr pc
 844:	64617000 	strbtvs	r7, [r1], #-0
 848:	6e756f43 	cdpvs	15, 7, cr6, cr5, cr3, {2}
 84c:	726f0074 	rsbvc	r0, pc, #116	; 0x74
 850:	70006769 	andvc	r6, r0, r9, ror #14
 854:	746e6972 	strbtvc	r6, [lr], #-2418	; 0x972
 858:	6e695f66 	cdpvs	15, 6, cr5, cr9, cr6, {3}
 85c:	69007469 	stmdbvs	r0, {r0, r3, r5, r6, sl, ip, sp, lr}
 860:	67654e73 			; <UNDEFINED> instruction: 0x67654e73
 864:	76697461 	strbtvc	r7, [r9], -r1, ror #8
 868:	72740065 	rsbsvc	r0, r4, #101	; 0x65
 86c:	69576575 	ldmdbvs	r7, {r0, r2, r4, r5, r6, r8, sl, sp, lr}^
 870:	00687464 	rsbeq	r7, r8, r4, ror #8
 874:	6e697270 	mcrvs	2, 3, r7, cr9, cr0, {3}
 878:	632e6674 	teqvs	lr, #116, 12	; 0x7400000
 87c:	675f5f00 	ldrbvs	r5, [pc, -r0, lsl #30]
 880:	5f63756e 	svcpl	0x0063756e
 884:	6c5f6176 	ldfvse	f6, [pc], {118}	; 0x76
 888:	00747369 	rsbseq	r7, r4, r9, ror #6
 88c:	74726175 	ldrbtvc	r6, [r2], #-373	; 0x175
 890:	7475705f 	ldrbtvc	r7, [r5], #-95	; 0x5f
 894:	69640063 	stmdbvs	r4!, {r0, r1, r5, r6}^
 898:	00746967 	rsbseq	r6, r4, r7, ror #18
 89c:	4974756f 	ldmdbmi	r4!, {r0, r1, r2, r3, r5, r6, r8, sl, ip, sp, lr}^
 8a0:	7865646e 	stmdavc	r5!, {r1, r2, r3, r5, r6, sl, sp, lr}^
 8a4:	746e6900 	strbtvc	r6, [lr], #-2304	; 0x900
 8a8:	65686f74 	strbvs	r6, [r8, #-3956]!	; 0xf74
 8ac:	69740078 	ldmdbvs	r4!, {r3, r4, r5, r6}^
 8b0:	5f72656d 	svcpl	0x0072656d
 8b4:	5f746567 	svcpl	0x00746567
 8b8:	656d6974 	strbvs	r6, [sp, #-2420]!	; 0x974
 8bc:	746e7500 	strbtvc	r7, [lr], #-1280	; 0x500
 8c0:	755f6c69 	ldrbvc	r6, [pc, #-3177]	; fffffc5f <__bss_end__+0xffff3557>
 8c4:	69740073 	ldmdbvs	r4!, {r0, r1, r4, r5, r6}^
 8c8:	5f72656d 	svcpl	0x0072656d
 8cc:	74696e69 	strbtvc	r6, [r9], #-3689	; 0xe69
 8d0:	65737500 	ldrbvs	r7, [r3, #-1280]!	; 0x500
 8d4:	69740063 	ldmdbvs	r4!, {r0, r1, r5, r6}^
 8d8:	2e72656d 	cdpcs	5, 7, cr6, cr2, cr13, {3}
 8dc:	59530063 	ldmdbpl	r3, {r0, r1, r5, r6}^
 8e0:	4d495453 	cfstrdmi	mvd5, [r9, #-332]	; 0xfffffeb4
 8e4:	4c435245 	sfmmi	f5, 2, [r3], {69}	; 0x45
 8e8:	6564004f 	strbvs	r0, [r4, #-79]!	; 0x4f
 8ec:	0079616c 	rsbseq	r6, r9, ip, ror #2
 8f0:	616c6564 	cmnvs	ip, r4, ror #10
 8f4:	736d5f79 	cmnvc	sp, #484	; 0x1e4
 8f8:	61747300 	cmnvs	r4, r0, lsl #6
 8fc:	61640074 	smcvs	16388	; 0x4004
 900:	75006174 	strvc	r6, [r0, #-372]	; 0x174
 904:	2e747261 	cdpcs	2, 7, cr7, cr4, cr1, {3}
 908:	61750063 	cmnvs	r5, r3, rrx
 90c:	665f7472 			; <UNDEFINED> instruction: 0x665f7472
 910:	6873756c 	ldmdavs	r3!, {r2, r3, r5, r6, r8, sl, ip, sp, lr}^
 914:	72617500 	rsbvc	r7, r1, #0, 10
 918:	65675f74 	strbvs	r5, [r7, #-3956]!	; 0xf74
 91c:	62006374 	andvs	r6, r0, #116, 6	; 0xd0000001
 920:	00647561 	rsbeq	r7, r4, r1, ror #10
 924:	6c746e63 	ldclvs	14, cr6, [r4], #-396	; 0xfffffe74
 928:	72637300 	rsbvc	r7, r3, #0, 6
 92c:	68637461 	stmdavs	r3!, {r0, r5, r6, sl, ip, sp, lr}^
 930:	72617500 	rsbvc	r7, r1, #0, 10
 934:	41550074 	cmpmi	r5, r4, ror r0
 938:	67005452 	smlsdvs	r0, r2, r4, r5
 93c:	656f6970 	strbvs	r6, [pc, #-2416]!	; ffffffd4 <__bss_end__+0xffff38cc>
 940:	61727478 	cmnvs	r2, r8, ror r4
 944:	7200632e 	andvc	r6, r0, #-1207959552	; 0xb8000000
 948:	705f6765 	subsvc	r6, pc, r5, ror #14
 94c:	47006475 	smlsdxmi	r0, r5, r4, r6
 950:	5f4f4950 	svcpl	0x004f4950
 954:	5f445550 	svcpl	0x00445550
 958:	4c4c5550 	cfstr64mi	mvdx5, [ip], {80}	; 0x50
 95c:	47005055 	smlsdmi	r0, r5, r0, r5
 960:	5f4f4950 	svcpl	0x004f4950
 964:	5f445550 	svcpl	0x00445550
 968:	4c4c5550 	cfstr64mi	mvdx5, [ip], {80}	; 0x50
 96c:	4e574f44 	cdpmi	15, 5, cr4, cr7, cr4, {2}
 970:	49504700 	ldmdbmi	r0, {r8, r9, sl, lr}^
 974:	55505f4f 	ldrbpl	r5, [r0, #-3919]	; 0xf4f
 978:	49445f44 	stmdbmi	r4, {r2, r6, r8, r9, sl, fp, ip, lr}^
 97c:	4c424153 	stfmie	f4, [r2], {83}	; 0x53
 980:	65720045 	ldrbvs	r0, [r2, #-69]!	; 0x45
 984:	6c635f67 	stclvs	15, cr5, [r3], #-412	; 0xfffffe64
 988:	7067006b 	rsbvc	r0, r7, fp, rrx
 98c:	735f6f69 	cmpvc	pc, #420	; 0x1a4
 990:	705f7465 	subsvc	r7, pc, r5, ror #8
 994:	646c6c75 	strbtvs	r6, [ip], #-3189	; 0xc75
 998:	006e776f 	rsbeq	r7, lr, pc, ror #14
 99c:	6f697067 	svcvs	0x00697067
 9a0:	7465735f 	strbtvc	r7, [r5], #-863	; 0x35f
 9a4:	6475705f 	ldrbtvs	r7, [r5], #-95	; 0x5f
 9a8:	69707300 	ldmdbvs	r0!, {r8, r9, ip, sp, lr}^
 9ac:	6300632e 	movwvs	r6, #814	; 0x32e
 9b0:	5f706968 	svcpl	0x00706968
 9b4:	656c6573 	strbvs	r6, [ip, #-1395]!	; 0x573
 9b8:	64007463 	strvs	r7, [r0], #-1123	; 0x463
 9bc:	006e656c 	rsbeq	r6, lr, ip, ror #10
 9c0:	6f666966 	svcvs	0x00666966
 9c4:	6f746c00 	svcvs	0x00746c00
 9c8:	6c630068 	stclvs	0, cr0, [r3], #-416	; 0xfffffe60
 9cc:	5f6b636f 	svcpl	0x006b636f
 9d0:	69766964 	ldmdbvs	r6!, {r2, r5, r6, r8, fp, sp, lr}^
 9d4:	00726564 	rsbseq	r6, r2, r4, ror #10

Disassembly of section .comment:

00000000 <.comment>:
   0:	3a434347 	bcc	10d0d24 <__bss_end__+0x10c461c>
   4:	4e472820 	cdpmi	8, 4, cr2, cr7, cr0, {1}
   8:	34202955 	strtcc	r2, [r0], #-2389	; 0x955
   c:	332e382e 	teqcc	lr, #3014656	; 0x2e0000
	...

Disassembly of section .ARM.attributes:

00000000 <.ARM.attributes>:
   0:	00002841 	andeq	r2, r0, r1, asr #16
   4:	61656100 	cmnvs	r5, r0, lsl #2
   8:	01006962 	tsteq	r0, r2, ror #18
   c:	0000001e 	andeq	r0, r0, lr, lsl r0
  10:	06003605 	streq	r3, [r0], -r5, lsl #12
  14:	09010806 	stmdbeq	r1, {r1, r2, fp}
  18:	14041201 	strne	r1, [r4], #-513	; 0x201
  1c:	17011501 	strne	r1, [r1, -r1, lsl #10]
  20:	1a011803 	bne	46034 <__bss_end__+0x3992c>
  24:	22011e01 	andcs	r1, r1, #1, 28
  28:	Address 0x0000000000000028 is out of bounds.


Disassembly of section .debug_frame:

00000000 <.debug_frame>:
   0:	0000000c 	andeq	r0, r0, ip
   4:	ffffffff 			; <UNDEFINED> instruction: 0xffffffff
   8:	7c020001 	stcvc	0, cr0, [r2], {1}
   c:	000d0c0e 	andeq	r0, sp, lr, lsl #24
  10:	00000014 	andeq	r0, r0, r4, lsl r0
  14:	00000000 	andeq	r0, r0, r0
  18:	00008010 	andeq	r8, r0, r0, lsl r0
  1c:	00000030 	andeq	r0, r0, r0, lsr r0
  20:	83080e42 	movwhi	r0, #36418	; 0x8e42
  24:	00018e02 	andeq	r8, r1, r2, lsl #28
  28:	0000000c 	andeq	r0, r0, ip
  2c:	ffffffff 			; <UNDEFINED> instruction: 0xffffffff
  30:	7c020001 	stcvc	0, cr0, [r2], {1}
  34:	000d0c0e 	andeq	r0, sp, lr, lsl #24
  38:	00000014 	andeq	r0, r0, r4, lsl r0
  3c:	00000028 	andeq	r0, r0, r8, lsr #32
  40:	00008040 	andeq	r8, r0, r0, asr #32
  44:	00000038 	andeq	r0, r0, r8, lsr r0
  48:	83080e42 	movwhi	r0, #36418	; 0x8e42
  4c:	00018e02 	andeq	r8, r1, r2, lsl #28
  50:	0000000c 	andeq	r0, r0, ip
  54:	ffffffff 			; <UNDEFINED> instruction: 0xffffffff
  58:	7c020001 	stcvc	0, cr0, [r2], {1}
  5c:	000d0c0e 	andeq	r0, sp, lr, lsl #24
  60:	00000018 	andeq	r0, r0, r8, lsl r0
  64:	00000050 	andeq	r0, r0, r0, asr r0
  68:	00008078 	andeq	r8, r0, r8, ror r0
  6c:	0000008c 	andeq	r0, r0, ip, lsl #1
  70:	83100e42 	tsthi	r0, #1056	; 0x420
  74:	85038404 	strhi	r8, [r3, #-1028]	; 0x404
  78:	00018e02 	andeq	r8, r1, r2, lsl #28
  7c:	00000024 	andeq	r0, r0, r4, lsr #32
  80:	00000050 	andeq	r0, r0, r0, asr r0
  84:	00008104 	andeq	r8, r0, r4, lsl #2
  88:	00000144 	andeq	r0, r0, r4, asr #2
  8c:	84240e42 	strthi	r0, [r4], #-3650	; 0xe42
  90:	86088509 	strhi	r8, [r8], -r9, lsl #10
  94:	88068707 	stmdahi	r6, {r0, r1, r2, r8, r9, sl, pc}
  98:	8a048905 	bhi	1224b4 <__bss_end__+0x115dac>
  9c:	8e028b03 	vmlahi.f64	d8, d2, d3
  a0:	380e4201 	stmdacc	lr, {r0, r9, lr}
  a4:	00000014 	andeq	r0, r0, r4, lsl r0
  a8:	00000050 	andeq	r0, r0, r0, asr r0
  ac:	00008248 	andeq	r8, r0, r8, asr #4
  b0:	000000a0 	andeq	r0, r0, r0, lsr #1
  b4:	84080e42 	strhi	r0, [r8], #-3650	; 0xe42
  b8:	00018e02 	andeq	r8, r1, r2, lsl #28
  bc:	0000000c 	andeq	r0, r0, ip
  c0:	ffffffff 			; <UNDEFINED> instruction: 0xffffffff
  c4:	7c020001 	stcvc	0, cr0, [r2], {1}
  c8:	000d0c0e 	andeq	r0, sp, lr, lsl #24
  cc:	0000000c 	andeq	r0, r0, ip
  d0:	000000bc 	strheq	r0, [r0], -ip
  d4:	000082e8 	andeq	r8, r0, r8, ror #5
  d8:	00000020 	andeq	r0, r0, r0, lsr #32
  dc:	0000000c 	andeq	r0, r0, ip
  e0:	ffffffff 			; <UNDEFINED> instruction: 0xffffffff
  e4:	7c020001 	stcvc	0, cr0, [r2], {1}
  e8:	000d0c0e 	andeq	r0, sp, lr, lsl #24
  ec:	00000014 	andeq	r0, r0, r4, lsl r0
  f0:	000000dc 	ldrdeq	r0, [r0], -ip
  f4:	00008308 	andeq	r8, r0, r8, lsl #6
  f8:	00000040 	andeq	r0, r0, r0, asr #32
  fc:	83080e42 	movwhi	r0, #36418	; 0x8e42
 100:	00018e02 	andeq	r8, r1, r2, lsl #28
 104:	00000014 	andeq	r0, r0, r4, lsl r0
 108:	000000dc 	ldrdeq	r0, [r0], -ip
 10c:	00008348 	andeq	r8, r0, r8, asr #6
 110:	00000010 	andeq	r0, r0, r0, lsl r0
 114:	83080e42 	movwhi	r0, #36418	; 0x8e42
 118:	00018e02 	andeq	r8, r1, r2, lsl #28
 11c:	00000014 	andeq	r0, r0, r4, lsl r0
 120:	000000dc 	ldrdeq	r0, [r0], -ip
 124:	00008358 	andeq	r8, r0, r8, asr r3
 128:	0000003c 	andeq	r0, r0, ip, lsr r0
 12c:	83080e42 	movwhi	r0, #36418	; 0x8e42
 130:	00018e02 	andeq	r8, r1, r2, lsl #28
 134:	00000014 	andeq	r0, r0, r4, lsl r0
 138:	000000dc 	ldrdeq	r0, [r0], -ip
 13c:	00008394 	muleq	r0, r4, r3
 140:	00000090 	muleq	r0, r0, r0
 144:	83080e42 	movwhi	r0, #36418	; 0x8e42
 148:	00018e02 	andeq	r8, r1, r2, lsl #28
 14c:	00000014 	andeq	r0, r0, r4, lsl r0
 150:	000000dc 	ldrdeq	r0, [r0], -ip
 154:	00008424 	andeq	r8, r0, r4, lsr #8
 158:	0000003c 	andeq	r0, r0, ip, lsr r0
 15c:	83080e42 	movwhi	r0, #36418	; 0x8e42
 160:	00018e02 	andeq	r8, r1, r2, lsl #28
 164:	0000000c 	andeq	r0, r0, ip
 168:	ffffffff 			; <UNDEFINED> instruction: 0xffffffff
 16c:	7c020001 	stcvc	0, cr0, [r2], {1}
 170:	000d0c0e 	andeq	r0, sp, lr, lsl #24
 174:	00000014 	andeq	r0, r0, r4, lsl r0
 178:	00000164 	andeq	r0, r0, r4, ror #2
 17c:	00008460 	andeq	r8, r0, r0, ror #8
 180:	00000018 	andeq	r0, r0, r8, lsl r0
 184:	83080e42 	movwhi	r0, #36418	; 0x8e42
 188:	00018e02 	andeq	r8, r1, r2, lsl #28
 18c:	00000014 	andeq	r0, r0, r4, lsl r0
 190:	00000164 	andeq	r0, r0, r4, ror #2
 194:	00008478 	andeq	r8, r0, r8, ror r4
 198:	00000054 	andeq	r0, r0, r4, asr r0
 19c:	8e040e42 	cdphi	14, 0, cr0, cr4, cr2, {2}
 1a0:	100e4201 	andne	r4, lr, r1, lsl #4
 1a4:	0000000c 	andeq	r0, r0, ip
 1a8:	ffffffff 			; <UNDEFINED> instruction: 0xffffffff
 1ac:	7c020001 	stcvc	0, cr0, [r2], {1}
 1b0:	000d0c0e 	andeq	r0, sp, lr, lsl #24
 1b4:	00000020 	andeq	r0, r0, r0, lsr #32
 1b8:	000001a4 	andeq	r0, r0, r4, lsr #3
 1bc:	000084d0 	ldrdeq	r8, [r0], -r0
 1c0:	00000074 	andeq	r0, r0, r4, ror r0
 1c4:	84200e42 	strthi	r0, [r0], #-3650	; 0xe42
 1c8:	86078508 	strhi	r8, [r7], -r8, lsl #10
 1cc:	88058706 	stmdahi	r5, {r1, r2, r8, r9, sl, pc}
 1d0:	8a038904 	bhi	e25e8 <__bss_end__+0xd5ee0>
 1d4:	00018e02 	andeq	r8, r1, r2, lsl #28
 1d8:	0000001c 	andeq	r0, r0, ip, lsl r0
 1dc:	000001a4 	andeq	r0, r0, r4, lsr #3
 1e0:	00008544 	andeq	r8, r0, r4, asr #10
 1e4:	00000090 	muleq	r0, r0, r0
 1e8:	83180e42 	tsthi	r8, #1056	; 0x420
 1ec:	85058406 	strhi	r8, [r5, #-1030]	; 0x406
 1f0:	87038604 	strhi	r8, [r3, -r4, lsl #12]
 1f4:	00018e02 	andeq	r8, r1, r2, lsl #28
 1f8:	0000001c 	andeq	r0, r0, ip, lsl r0
 1fc:	000001a4 	andeq	r0, r0, r4, lsr #3
 200:	000085d4 	ldrdeq	r8, [r0], -r4
 204:	0000019c 	muleq	r0, ip, r1
 208:	83180e42 	tsthi	r8, #1056	; 0x420
 20c:	85058406 	strhi	r8, [r5, #-1030]	; 0x406
 210:	87038604 	strhi	r8, [r3, -r4, lsl #12]
 214:	00018e02 	andeq	r8, r1, r2, lsl #28
 218:	0000000c 	andeq	r0, r0, ip
 21c:	ffffffff 			; <UNDEFINED> instruction: 0xffffffff
 220:	7c020001 	stcvc	0, cr0, [r2], {1}
 224:	000d0c0e 	andeq	r0, sp, lr, lsl #24
 228:	0000000c 	andeq	r0, r0, ip
 22c:	00000218 	andeq	r0, r0, r8, lsl r2
 230:	00008770 	andeq	r8, r0, r0, ror r7
 234:	00000018 	andeq	r0, r0, r8, lsl r0
 238:	0000000c 	andeq	r0, r0, ip
 23c:	ffffffff 			; <UNDEFINED> instruction: 0xffffffff
 240:	7c020001 	stcvc	0, cr0, [r2], {1}
 244:	000d0c0e 	andeq	r0, sp, lr, lsl #24
 248:	00000018 	andeq	r0, r0, r8, lsl r0
 24c:	00000238 	andeq	r0, r0, r8, lsr r2
 250:	00008788 	andeq	r8, r0, r8, lsl #15
 254:	00000068 	andeq	r0, r0, r8, rrx
 258:	84100e42 	ldrhi	r0, [r0], #-3650	; 0xe42
 25c:	86038504 	strhi	r8, [r3], -r4, lsl #10
 260:	00018e02 	andeq	r8, r1, r2, lsl #28
 264:	0000000c 	andeq	r0, r0, ip
 268:	ffffffff 			; <UNDEFINED> instruction: 0xffffffff
 26c:	7c020001 	stcvc	0, cr0, [r2], {1}
 270:	000d0c0e 	andeq	r0, sp, lr, lsl #24
 274:	00000024 	andeq	r0, r0, r4, lsr #32
 278:	00000264 	andeq	r0, r0, r4, ror #4
 27c:	000087f0 	strdeq	r8, [r0], -r0
 280:	00000444 	andeq	r0, r0, r4, asr #8
 284:	84240e42 	strthi	r0, [r4], #-3650	; 0xe42
 288:	86088509 	strhi	r8, [r8], -r9, lsl #10
 28c:	88068707 	stmdahi	r6, {r0, r1, r2, r8, r9, sl, pc}
 290:	8a048905 	bhi	1226ac <__bss_end__+0x115fa4>
 294:	8e028b03 	vmlahi.f64	d8, d2, d3
 298:	480e4201 	stmdami	lr, {r0, r9, lr}
 29c:	0000000c 	andeq	r0, r0, ip
 2a0:	ffffffff 			; <UNDEFINED> instruction: 0xffffffff
 2a4:	7c020001 	stcvc	0, cr0, [r2], {1}
 2a8:	000d0c0e 	andeq	r0, sp, lr, lsl #24
 2ac:	0000001c 	andeq	r0, r0, ip, lsl r0
 2b0:	0000029c 	muleq	r0, ip, r2
 2b4:	00008c64 	andeq	r8, r0, r4, ror #24
 2b8:	00000010 	andeq	r0, r0, r0, lsl r0
 2bc:	420c0d42 	andmi	r0, ip, #4224	; 0x1080
 2c0:	038d048b 	orreq	r0, sp, #-1962934272	; 0x8b000000
 2c4:	0c42028e 	sfmeq	f0, 2, [r2], {142}	; 0x8e
 2c8:	0000040b 	andeq	r0, r0, fp, lsl #8
 2cc:	0000001c 	andeq	r0, r0, ip, lsl r0
 2d0:	0000029c 	muleq	r0, ip, r2
 2d4:	00008c74 	andeq	r8, r0, r4, ror ip
 2d8:	00000064 	andeq	r0, r0, r4, rrx
 2dc:	420c0d42 	andmi	r0, ip, #4224	; 0x1080
 2e0:	048b0584 	streq	r0, [fp], #1412	; 0x584
 2e4:	028e038d 	addeq	r0, lr, #872415234	; 0x34000002
 2e8:	040b0c42 	streq	r0, [fp], #-3138	; 0xc42
 2ec:	0000001c 	andeq	r0, r0, ip, lsl r0
 2f0:	0000029c 	muleq	r0, ip, r2
 2f4:	00008cd8 	ldrdeq	r8, [r0], -r8	; <UNPREDICTABLE>
 2f8:	00000058 	andeq	r0, r0, r8, asr r0
 2fc:	420c0d42 	andmi	r0, ip, #4224	; 0x1080
 300:	038d048b 	orreq	r0, sp, #-1962934272	; 0x8b000000
 304:	0c42028e 	sfmeq	f0, 2, [r2], {142}	; 0x8e
 308:	0000040b 	andeq	r0, r0, fp, lsl #8
 30c:	0000001c 	andeq	r0, r0, ip, lsl r0
 310:	0000029c 	muleq	r0, ip, r2
 314:	00008d30 	andeq	r8, r0, r0, lsr sp
 318:	00000018 	andeq	r0, r0, r8, lsl r0
 31c:	420c0d42 	andmi	r0, ip, #4224	; 0x1080
 320:	038d048b 	orreq	r0, sp, #-1962934272	; 0x8b000000
 324:	0c42028e 	sfmeq	f0, 2, [r2], {142}	; 0x8e
 328:	0000040b 	andeq	r0, r0, fp, lsl #8
 32c:	0000001c 	andeq	r0, r0, ip, lsl r0
 330:	0000029c 	muleq	r0, ip, r2
 334:	00008d48 	andeq	r8, r0, r8, asr #26
 338:	00000018 	andeq	r0, r0, r8, lsl r0
 33c:	420c0d42 	andmi	r0, ip, #4224	; 0x1080
 340:	038d048b 	orreq	r0, sp, #-1962934272	; 0x8b000000
 344:	0c42028e 	sfmeq	f0, 2, [r2], {142}	; 0x8e
 348:	0000040b 	andeq	r0, r0, fp, lsl #8
 34c:	0000001c 	andeq	r0, r0, ip, lsl r0
 350:	0000029c 	muleq	r0, ip, r2
 354:	00008d60 	andeq	r8, r0, r0, ror #26
 358:	00000060 	andeq	r0, r0, r0, rrx
 35c:	420c0d42 	andmi	r0, ip, #4224	; 0x1080
 360:	038d048b 	orreq	r0, sp, #-1962934272	; 0x8b000000
 364:	0c42028e 	sfmeq	f0, 2, [r2], {142}	; 0x8e
 368:	0000040b 	andeq	r0, r0, fp, lsl #8
 36c:	0000001c 	andeq	r0, r0, ip, lsl r0
 370:	0000029c 	muleq	r0, ip, r2
 374:	00008dc0 	andeq	r8, r0, r0, asr #27
 378:	00000048 	andeq	r0, r0, r8, asr #32
 37c:	420c0d42 	andmi	r0, ip, #4224	; 0x1080
 380:	038d048b 	orreq	r0, sp, #-1962934272	; 0x8b000000
 384:	0c42028e 	sfmeq	f0, 2, [r2], {142}	; 0x8e
 388:	0000040b 	andeq	r0, r0, fp, lsl #8
 38c:	0000000c 	andeq	r0, r0, ip
 390:	ffffffff 			; <UNDEFINED> instruction: 0xffffffff
 394:	7c020001 	stcvc	0, cr0, [r2], {1}
 398:	000d0c0e 	andeq	r0, sp, lr, lsl #24
 39c:	0000001c 	andeq	r0, r0, ip, lsl r0
 3a0:	0000038c 	andeq	r0, r0, ip, lsl #7
 3a4:	00008e08 	andeq	r8, r0, r8, lsl #28
 3a8:	00000014 	andeq	r0, r0, r4, lsl r0
 3ac:	420c0d42 	andmi	r0, ip, #4224	; 0x1080
 3b0:	038d048b 	orreq	r0, sp, #-1962934272	; 0x8b000000
 3b4:	0c42028e 	sfmeq	f0, 2, [r2], {142}	; 0x8e
 3b8:	0000040b 	andeq	r0, r0, fp, lsl #8
 3bc:	0000001c 	andeq	r0, r0, ip, lsl r0
 3c0:	0000038c 	andeq	r0, r0, ip, lsl #7
 3c4:	00008e1c 	andeq	r8, r0, ip, lsl lr
 3c8:	00000038 	andeq	r0, r0, r8, lsr r0
 3cc:	420c0d42 	andmi	r0, ip, #4224	; 0x1080
 3d0:	048b0584 	streq	r0, [fp], #1412	; 0x584
 3d4:	028e038d 	addeq	r0, lr, #872415234	; 0x34000002
 3d8:	040b0c42 	streq	r0, [fp], #-3138	; 0xc42
 3dc:	00000024 	andeq	r0, r0, r4, lsr #32
 3e0:	0000038c 	andeq	r0, r0, ip, lsl #7
 3e4:	00008e54 	andeq	r8, r0, r4, asr lr
 3e8:	000000c8 	andeq	r0, r0, r8, asr #1
 3ec:	420c0d42 	andmi	r0, ip, #4224	; 0x1080
 3f0:	07850884 	streq	r0, [r5, r4, lsl #17]
 3f4:	05870686 	streq	r0, [r7, #1670]	; 0x686
 3f8:	038d048b 	orreq	r0, sp, #-1962934272	; 0x8b000000
 3fc:	0c42028e 	sfmeq	f0, 2, [r2], {142}	; 0x8e
 400:	0000040b 	andeq	r0, r0, fp, lsl #8
 404:	00000024 	andeq	r0, r0, r4, lsr #32
 408:	0000038c 	andeq	r0, r0, ip, lsl #7
 40c:	00008f1c 	andeq	r8, r0, ip, lsl pc
 410:	000000d8 	ldrdeq	r0, [r0], -r8
 414:	420c0d42 	andmi	r0, ip, #4224	; 0x1080
 418:	07850884 	streq	r0, [r5, r4, lsl #17]
 41c:	05870686 	streq	r0, [r7, #1670]	; 0x686
 420:	038d048b 	orreq	r0, sp, #-1962934272	; 0x8b000000
 424:	0c42028e 	sfmeq	f0, 2, [r2], {142}	; 0x8e
 428:	0000040b 	andeq	r0, r0, fp, lsl #8
 42c:	00000028 	andeq	r0, r0, r8, lsr #32
 430:	0000038c 	andeq	r0, r0, ip, lsl #7
 434:	00008ff4 	strdeq	r8, [r0], -r4
 438:	0000014c 	andeq	r0, r0, ip, asr #2
 43c:	420c0d42 	andmi	r0, ip, #4224	; 0x1080
 440:	0a850b84 	beq	fe143258 <__bss_end__+0xfe136b50>
 444:	08870986 	stmeq	r7, {r1, r2, r7, r8, fp}
 448:	06890788 	streq	r0, [r9], r8, lsl #15
 44c:	048b058a 	streq	r0, [fp], #1418	; 0x58a
 450:	028e038d 	addeq	r0, lr, #872415234	; 0x34000002
 454:	040b0c42 	streq	r0, [fp], #-3138	; 0xc42
 458:	0000002c 	andeq	r0, r0, ip, lsr #32
 45c:	0000038c 	andeq	r0, r0, ip, lsl #7
 460:	00009140 	andeq	r9, r0, r0, asr #2
 464:	000001e0 	andeq	r0, r0, r0, ror #3
 468:	420c0d42 	andmi	r0, ip, #4224	; 0x1080
 46c:	0b840c83 	bleq	fe103680 <__bss_end__+0xfe0f6f78>
 470:	09860a85 	stmibeq	r6, {r0, r2, r7, r9, fp}
 474:	07880887 	streq	r0, [r8, r7, lsl #17]
 478:	058a0689 	streq	r0, [sl, #1673]	; 0x689
 47c:	038d048b 	orreq	r0, sp, #-1962934272	; 0x8b000000
 480:	0c42028e 	sfmeq	f0, 2, [r2], {142}	; 0x8e
 484:	0000040b 	andeq	r0, r0, fp, lsl #8
 488:	00000020 	andeq	r0, r0, r0, lsr #32
 48c:	0000038c 	andeq	r0, r0, ip, lsl #7
 490:	00009320 	andeq	r9, r0, r0, lsr #6
 494:	0000002c 	andeq	r0, r0, ip, lsr #32
 498:	440c0d42 	strmi	r0, [ip], #-3394	; 0xd42
 49c:	01830282 	orreq	r0, r3, r2, lsl #5
 4a0:	058d068b 	streq	r0, [sp, #1675]	; 0x68b
 4a4:	0c42048e 	cfstrdeq	mvd0, [r2], {142}	; 0x8e
 4a8:	00000c0b 	andeq	r0, r0, fp, lsl #24
 4ac:	00000028 	andeq	r0, r0, r8, lsr #32
 4b0:	0000038c 	andeq	r0, r0, ip, lsl #7
 4b4:	0000934c 	andeq	r9, r0, ip, asr #6
 4b8:	00000068 	andeq	r0, r0, r8, rrx
 4bc:	440c0d42 	strmi	r0, [ip], #-3394	; 0xd42
 4c0:	03810480 	orreq	r0, r1, #128, 8	; 0x80000000
 4c4:	01830282 	orreq	r0, r3, r2, lsl #5
 4c8:	09850a84 	stmibeq	r5, {r2, r7, r9, fp}
 4cc:	078d088b 	streq	r0, [sp, fp, lsl #17]
 4d0:	0c42068e 	mcrreq	6, 8, r0, r2, cr14
 4d4:	0000140b 	andeq	r1, r0, fp, lsl #8
 4d8:	0000000c 	andeq	r0, r0, ip
 4dc:	ffffffff 			; <UNDEFINED> instruction: 0xffffffff
 4e0:	7c020001 	stcvc	0, cr0, [r2], {1}
 4e4:	000d0c0e 	andeq	r0, sp, lr, lsl #24
 4e8:	0000001c 	andeq	r0, r0, ip, lsl r0
 4ec:	000004d8 	ldrdeq	r0, [r0], -r8
 4f0:	000093b4 			; <UNDEFINED> instruction: 0x000093b4
 4f4:	00000010 	andeq	r0, r0, r0, lsl r0
 4f8:	420c0d42 	andmi	r0, ip, #4224	; 0x1080
 4fc:	038d048b 	orreq	r0, sp, #-1962934272	; 0x8b000000
 500:	0c42028e 	sfmeq	f0, 2, [r2], {142}	; 0x8e
 504:	0000040b 	andeq	r0, r0, fp, lsl #8
 508:	0000001c 	andeq	r0, r0, ip, lsl r0
 50c:	000004d8 	ldrdeq	r0, [r0], -r8
 510:	000093c4 	andeq	r9, r0, r4, asr #7
 514:	0000001c 	andeq	r0, r0, ip, lsl r0
 518:	420c0d42 	andmi	r0, ip, #4224	; 0x1080
 51c:	038d048b 	orreq	r0, sp, #-1962934272	; 0x8b000000
 520:	0c42028e 	sfmeq	f0, 2, [r2], {142}	; 0x8e
 524:	0000040b 	andeq	r0, r0, fp, lsl #8
 528:	00000020 	andeq	r0, r0, r0, lsr #32
 52c:	000004d8 	ldrdeq	r0, [r0], -r8
 530:	000093e0 	andeq	r9, r0, r0, ror #7
 534:	0000002c 	andeq	r0, r0, ip, lsr #32
 538:	420c0d42 	andmi	r0, ip, #4224	; 0x1080
 53c:	05850684 	streq	r0, [r5, #1668]	; 0x684
 540:	038d048b 	orreq	r0, sp, #-1962934272	; 0x8b000000
 544:	0c42028e 	sfmeq	f0, 2, [r2], {142}	; 0x8e
 548:	0000040b 	andeq	r0, r0, fp, lsl #8
 54c:	00000024 	andeq	r0, r0, r4, lsr #32
 550:	000004d8 	ldrdeq	r0, [r0], -r8
 554:	0000940c 	andeq	r9, r0, ip, lsl #8
 558:	00000034 	andeq	r0, r0, r4, lsr r0
 55c:	420c0d42 	andmi	r0, ip, #4224	; 0x1080
 560:	07840883 	streq	r0, [r4, r3, lsl #17]
 564:	05860685 	streq	r0, [r6, #1669]	; 0x685
 568:	038d048b 	orreq	r0, sp, #-1962934272	; 0x8b000000
 56c:	0c42028e 	sfmeq	f0, 2, [r2], {142}	; 0x8e
 570:	0000040b 	andeq	r0, r0, fp, lsl #8
 574:	00000024 	andeq	r0, r0, r4, lsr #32
 578:	000004d8 	ldrdeq	r0, [r0], -r8
 57c:	00009440 	andeq	r9, r0, r0, asr #8
 580:	00000034 	andeq	r0, r0, r4, lsr r0
 584:	420c0d42 	andmi	r0, ip, #4224	; 0x1080
 588:	07840883 	streq	r0, [r4, r3, lsl #17]
 58c:	05860685 	streq	r0, [r6, #1669]	; 0x685
 590:	038d048b 	orreq	r0, sp, #-1962934272	; 0x8b000000
 594:	0c42028e 	sfmeq	f0, 2, [r2], {142}	; 0x8e
 598:	0000040b 	andeq	r0, r0, fp, lsl #8
 59c:	00000020 	andeq	r0, r0, r0, lsr #32
 5a0:	000004d8 	ldrdeq	r0, [r0], -r8
 5a4:	00009474 	andeq	r9, r0, r4, ror r4
 5a8:	00000020 	andeq	r0, r0, r0, lsr #32
 5ac:	420c0d42 	andmi	r0, ip, #4224	; 0x1080
 5b0:	05840683 	streq	r0, [r4, #1667]	; 0x683
 5b4:	038d048b 	orreq	r0, sp, #-1962934272	; 0x8b000000
 5b8:	0c42028e 	sfmeq	f0, 2, [r2], {142}	; 0x8e
 5bc:	0000040b 	andeq	r0, r0, fp, lsl #8
 5c0:	0000000c 	andeq	r0, r0, ip
 5c4:	ffffffff 			; <UNDEFINED> instruction: 0xffffffff
 5c8:	7c020001 	stcvc	0, cr0, [r2], {1}
 5cc:	000d0c0e 	andeq	r0, sp, lr, lsl #24
 5d0:	00000020 	andeq	r0, r0, r0, lsr #32
 5d4:	000005c0 	andeq	r0, r0, r0, asr #11
 5d8:	00009494 	muleq	r0, r4, r4
 5dc:	00000068 	andeq	r0, r0, r8, rrx
 5e0:	420c0d42 	andmi	r0, ip, #4224	; 0x1080
 5e4:	05850684 	streq	r0, [r5, #1668]	; 0x684
 5e8:	038d048b 	orreq	r0, sp, #-1962934272	; 0x8b000000
 5ec:	0c42028e 	sfmeq	f0, 2, [r2], {142}	; 0x8e
 5f0:	0000040b 	andeq	r0, r0, fp, lsl #8
 5f4:	0000001c 	andeq	r0, r0, ip, lsl r0
 5f8:	000005c0 	andeq	r0, r0, r0, asr #11
 5fc:	000094fc 	strdeq	r9, [r0], -ip
 600:	00000030 	andeq	r0, r0, r0, lsr r0
 604:	420c0d42 	andmi	r0, ip, #4224	; 0x1080
 608:	038d048b 	orreq	r0, sp, #-1962934272	; 0x8b000000
 60c:	0c42028e 	sfmeq	f0, 2, [r2], {142}	; 0x8e
 610:	0000040b 	andeq	r0, r0, fp, lsl #8
 614:	00000020 	andeq	r0, r0, r0, lsr #32
 618:	000005c0 	andeq	r0, r0, r0, asr #11
 61c:	0000952c 	andeq	r9, r0, ip, lsr #10
 620:	00000040 	andeq	r0, r0, r0, asr #32
 624:	420c0d42 	andmi	r0, ip, #4224	; 0x1080
 628:	05840683 	streq	r0, [r4, #1667]	; 0x683
 62c:	038d048b 	orreq	r0, sp, #-1962934272	; 0x8b000000
 630:	0c42028e 	sfmeq	f0, 2, [r2], {142}	; 0x8e
 634:	0000040b 	andeq	r0, r0, fp, lsl #8
 638:	0000001c 	andeq	r0, r0, ip, lsl r0
 63c:	000005c0 	andeq	r0, r0, r0, asr #11
 640:	0000956c 	andeq	r9, r0, ip, ror #10
 644:	00000024 	andeq	r0, r0, r4, lsr #32
 648:	420c0d42 	andmi	r0, ip, #4224	; 0x1080
 64c:	038d048b 	orreq	r0, sp, #-1962934272	; 0x8b000000
 650:	0c42028e 	sfmeq	f0, 2, [r2], {142}	; 0x8e
 654:	0000040b 	andeq	r0, r0, fp, lsl #8
 658:	0000000c 	andeq	r0, r0, ip
 65c:	ffffffff 			; <UNDEFINED> instruction: 0xffffffff
 660:	7c020001 	stcvc	0, cr0, [r2], {1}
 664:	000d0c0e 	andeq	r0, sp, lr, lsl #24
 668:	00000020 	andeq	r0, r0, r0, lsr #32
 66c:	00000658 	andeq	r0, r0, r8, asr r6
 670:	00009590 	muleq	r0, r0, r5
 674:	00000068 	andeq	r0, r0, r8, rrx
 678:	420c0d42 	andmi	r0, ip, #4224	; 0x1080
 67c:	05850684 	streq	r0, [r5, #1668]	; 0x684
 680:	038d048b 	orreq	r0, sp, #-1962934272	; 0x8b000000
 684:	0c42028e 	sfmeq	f0, 2, [r2], {142}	; 0x8e
 688:	0000040b 	andeq	r0, r0, fp, lsl #8
 68c:	0000001c 	andeq	r0, r0, ip, lsl r0
 690:	00000658 	andeq	r0, r0, r8, asr r6
 694:	000095f8 	strdeq	r9, [r0], -r8
 698:	00000020 	andeq	r0, r0, r0, lsr #32
 69c:	420c0d42 	andmi	r0, ip, #4224	; 0x1080
 6a0:	038d048b 	orreq	r0, sp, #-1962934272	; 0x8b000000
 6a4:	0c42028e 	sfmeq	f0, 2, [r2], {142}	; 0x8e
 6a8:	0000040b 	andeq	r0, r0, fp, lsl #8
 6ac:	0000001c 	andeq	r0, r0, ip, lsl r0
 6b0:	00000658 	andeq	r0, r0, r8, asr r6
 6b4:	00009618 	andeq	r9, r0, r8, lsl r6
 6b8:	00000018 	andeq	r0, r0, r8, lsl r0
 6bc:	420c0d42 	andmi	r0, ip, #4224	; 0x1080
 6c0:	038d048b 	orreq	r0, sp, #-1962934272	; 0x8b000000
 6c4:	0c42028e 	sfmeq	f0, 2, [r2], {142}	; 0x8e
 6c8:	0000040b 	andeq	r0, r0, fp, lsl #8
 6cc:	0000000c 	andeq	r0, r0, ip
 6d0:	ffffffff 			; <UNDEFINED> instruction: 0xffffffff
 6d4:	7c020001 	stcvc	0, cr0, [r2], {1}
 6d8:	000d0c0e 	andeq	r0, sp, lr, lsl #24
 6dc:	00000020 	andeq	r0, r0, r0, lsr #32
 6e0:	000006cc 	andeq	r0, r0, ip, asr #13
 6e4:	00009630 	andeq	r9, r0, r0, lsr r6
 6e8:	000000bc 	strheq	r0, [r0], -ip
 6ec:	420c0d42 	andmi	r0, ip, #4224	; 0x1080
 6f0:	05850684 	streq	r0, [r5, #1668]	; 0x684
 6f4:	038d048b 	orreq	r0, sp, #-1962934272	; 0x8b000000
 6f8:	0c42028e 	sfmeq	f0, 2, [r2], {142}	; 0x8e
 6fc:	0000040b 	andeq	r0, r0, fp, lsl #8
 700:	00000020 	andeq	r0, r0, r0, lsr #32
 704:	000006cc 	andeq	r0, r0, ip, asr #13
 708:	000096ec 	andeq	r9, r0, ip, ror #13
 70c:	00000090 	muleq	r0, r0, r0
 710:	420c0d42 	andmi	r0, ip, #4224	; 0x1080
 714:	06850784 	streq	r0, [r5], r4, lsl #15
 718:	048b0586 	streq	r0, [fp], #1414	; 0x586
 71c:	028e038d 	addeq	r0, lr, #872415234	; 0x34000002
 720:	040b0c42 	streq	r0, [fp], #-3138	; 0xc42
 724:	0000000c 	andeq	r0, r0, ip
 728:	ffffffff 			; <UNDEFINED> instruction: 0xffffffff
 72c:	7c010001 	stcvc	0, cr0, [r1], {1}
 730:	000d0c0e 	andeq	r0, sp, lr, lsl #24
 734:	0000000c 	andeq	r0, r0, ip
 738:	00000724 	andeq	r0, r0, r4, lsr #14
 73c:	0000977c 	andeq	r9, r0, ip, ror r7
 740:	000000f4 	strdeq	r0, [r0], -r4
 744:	0000000c 	andeq	r0, r0, ip
 748:	ffffffff 			; <UNDEFINED> instruction: 0xffffffff
 74c:	7c010001 	stcvc	0, cr0, [r1], {1}
 750:	000d0c0e 	andeq	r0, sp, lr, lsl #24
 754:	0000000c 	andeq	r0, r0, ip
 758:	00000744 	andeq	r0, r0, r4, asr #14
 75c:	00009890 	muleq	r0, r0, r8
 760:	00000128 	andeq	r0, r0, r8, lsr #2

Disassembly of section .debug_loc:

00000000 <.debug_loc>:
       0:	00000014 	andeq	r0, r0, r4, lsl r0
       4:	0000001c 	andeq	r0, r0, ip, lsl r0
       8:	04730003 	ldrbteq	r0, [r3], #-3
       c:	00001c9f 	muleq	r0, pc, ip	; <UNPREDICTABLE>
      10:	00002700 	andeq	r2, r0, r0, lsl #14
      14:	53000100 	movwpl	r0, #256	; 0x100
	...
      24:	00000008 	andeq	r0, r0, r8
      28:	08500001 	ldmdaeq	r0, {r0}^
      2c:	78000000 	stmdavc	r0, {}	; <UNPREDICTABLE>
      30:	01000000 	mrseq	r0, (UNDEF: 0)
      34:	00785400 	rsbseq	r5, r8, r0, lsl #8
      38:	008c0000 	addeq	r0, ip, r0
      3c:	00060000 	andeq	r0, r6, r0
      40:	3c5001f3 	ldfcce	f0, [r0], {243}	; 0xf3
      44:	00009f24 	andeq	r9, r0, r4, lsr #30
      48:	00000000 	andeq	r0, r0, r0
      4c:	00180000 	andseq	r0, r8, r0
      50:	001c0000 	andseq	r0, ip, r0
      54:	00010000 	andeq	r0, r1, r0
      58:	00001c50 	andeq	r1, r0, r0, asr ip
      5c:	00007800 	andeq	r7, r0, r0, lsl #16
      60:	55000100 	strpl	r0, [r0, #-256]	; 0x100
	...
      6c:	00000020 	andeq	r0, r0, r0, lsr #32
      70:	00000024 	andeq	r0, r0, r4, lsr #32
      74:	80700005 	rsbshi	r0, r0, r5
      78:	249f03f0 	ldrcs	r0, [pc], #1008	; 80 <_start-0x7f80>
      7c:	2b000000 	blcs	84 <_start-0x7f7c>
      80:	01000000 	mrseq	r0, (UNDEF: 0)
      84:	002b5000 	eoreq	r5, fp, r0
      88:	002c0000 	eoreq	r0, ip, r0
      8c:	000c0000 	andeq	r0, ip, r0
      90:	24f8000c 	ldrbtcs	r0, [r8], #12
      94:	74007501 	strvc	r7, [r0], #-1281	; 0x501
      98:	9f1c1e00 	svcls	0x001c1e00
      9c:	0000002c 	andeq	r0, r0, ip, lsr #32
      a0:	00000058 	andeq	r0, r0, r8, asr r0
      a4:	68500001 	ldmdavs	r0, {r0}^
      a8:	6c000000 	stcvs	0, cr0, [r0], {-0}
      ac:	01000000 	mrseq	r0, (UNDEF: 0)
      b0:	00705000 	rsbseq	r5, r0, r0
      b4:	00740000 	rsbseq	r0, r4, r0
      b8:	00010000 	andeq	r0, r1, r0
      bc:	00000050 	andeq	r0, r0, r0, asr r0
      c0:	00000000 	andeq	r0, r0, r0
      c4:	00008c00 	andeq	r8, r0, r0, lsl #24
      c8:	00009b00 	andeq	r9, r0, r0, lsl #22
      cc:	50000100 	andpl	r0, r0, r0, lsl #2
      d0:	0000009b 	muleq	r0, fp, r0
      d4:	000001d0 	ldrdeq	r0, [r0], -r0	; <UNPREDICTABLE>
      d8:	01f30004 	mvnseq	r0, r4
      dc:	00009f50 	andeq	r9, r0, r0, asr pc
      e0:	00000000 	andeq	r0, r0, r0
      e4:	008c0000 	addeq	r0, ip, r0
      e8:	009b0000 	addseq	r0, fp, r0
      ec:	00010000 	andeq	r0, r1, r0
      f0:	00009b51 	andeq	r9, r0, r1, asr fp
      f4:	0001d000 	andeq	sp, r1, r0
      f8:	91000200 	mrsls	r0, R8_usr
      fc:	0000004c 	andeq	r0, r0, ip, asr #32
     100:	00000000 	andeq	r0, r0, r0
     104:	0000c400 	andeq	ip, r0, r0, lsl #8
     108:	0000d400 	andeq	sp, r0, r0, lsl #8
     10c:	50000600 	andpl	r0, r0, r0, lsl #12
     110:	93510493 	cmpls	r1, #-1828716544	; 0x93000000
     114:	0000d404 	andeq	sp, r0, r4, lsl #8
     118:	0001ac00 	andeq	sl, r1, r0, lsl #24
     11c:	7d000200 	sfmvc	f0, 4, [r0, #-0]
     120:	0001ac00 	andeq	sl, r1, r0, lsl #24
     124:	0001d000 	andeq	sp, r1, r0
     128:	91000200 	mrsls	r0, R8_usr
     12c:	00000040 	andeq	r0, r0, r0, asr #32
     130:	00000000 	andeq	r0, r0, r0
     134:	0000c400 	andeq	ip, r0, r0, lsl #8
     138:	0000d400 	andeq	sp, r0, r0, lsl #8
     13c:	30000200 	andcc	r0, r0, r0, lsl #4
     140:	0000d49f 	muleq	r0, pc, r4	; <UNPREDICTABLE>
     144:	0001b000 	andeq	fp, r1, r0
     148:	56000100 	strpl	r0, [r0], -r0, lsl #2
	...
     154:	000000dc 	ldrdeq	r0, [r0], -ip
     158:	000001a0 	andeq	r0, r0, r0, lsr #3
     15c:	00590001 	subseq	r0, r9, r1
	...
     168:	08000000 	stmdaeq	r0, {}	; <UNPREDICTABLE>
     16c:	02000000 	andeq	r0, r0, #0
     170:	089f3000 	ldmeq	pc, {ip, sp}	; <UNPREDICTABLE>
     174:	20000000 	andcs	r0, r0, r0
     178:	01000000 	mrseq	r0, (UNDEF: 0)
     17c:	00005300 	andeq	r5, r0, r0, lsl #6
     180:	00000000 	andeq	r0, r0, r0
     184:	00400000 	subeq	r0, r0, r0
     188:	00470000 	subeq	r0, r7, r0
     18c:	00010000 	andeq	r0, r1, r0
     190:	00004750 	andeq	r4, r0, r0, asr r7
     194:	00005000 	andeq	r5, r0, r0
     198:	f3000400 	vshl.u8	d0, d0, d0
     19c:	009f5001 	addseq	r5, pc, r1
     1a0:	00000000 	andeq	r0, r0, r0
     1a4:	9c000000 	stcls	0, cr0, [r0], {-0}
     1a8:	a7000000 	strge	r0, [r0, -r0]
     1ac:	06000000 	streq	r0, [r0], -r0
     1b0:	04935000 	ldreq	r5, [r3], #0
     1b4:	00049351 	andeq	r9, r4, r1, asr r3
     1b8:	00000000 	andeq	r0, r0, r0
     1bc:	b8000000 	stmdalt	r0, {}	; <UNPREDICTABLE>
     1c0:	e4000000 	str	r0, [r0], #-0
     1c4:	01000000 	mrseq	r0, (UNDEF: 0)
     1c8:	00e85000 	rsceq	r5, r8, r0
     1cc:	00ec0000 	rsceq	r0, ip, r0
     1d0:	00010000 	andeq	r0, r1, r0
     1d4:	0000f050 	andeq	pc, r0, r0, asr r0	; <UNPREDICTABLE>
     1d8:	0000f400 	andeq	pc, r0, r0, lsl #8
     1dc:	50000100 	andpl	r0, r0, r0, lsl #2
     1e0:	000000f8 	strdeq	r0, [r0], -r8
     1e4:	000000fc 	strdeq	r0, [r0], -ip
     1e8:	00500001 	subseq	r0, r0, r1
     1ec:	04000001 	streq	r0, [r0], #-1
     1f0:	01000001 	tsteq	r0, r1
     1f4:	01085000 	mrseq	r5, (UNDEF: 8)
     1f8:	010c0000 	mrseq	r0, (UNDEF: 12)
     1fc:	00010000 	andeq	r0, r1, r0
     200:	00000050 	andeq	r0, r0, r0, asr r0
     204:	00000000 	andeq	r0, r0, r0
     208:	00011c00 	andeq	r1, r1, r0, lsl #24
     20c:	00012300 	andeq	r2, r1, r0, lsl #6
     210:	50000100 	andpl	r0, r0, r0, lsl #2
     214:	00000123 	andeq	r0, r0, r3, lsr #2
     218:	00000158 	andeq	r0, r0, r8, asr r1
     21c:	01f30004 	mvnseq	r0, r4
     220:	00009f50 	andeq	r9, r0, r0, asr pc
     224:	00000000 	andeq	r0, r0, r0
     228:	01280000 	teqeq	r8, r0
     22c:	01330000 	teqeq	r3, r0
     230:	00060000 	andeq	r0, r6, r0
     234:	51049350 	tstpl	r4, r0, asr r3
     238:	00000493 	muleq	r0, r3, r4
     23c:	00000000 	andeq	r0, r0, r0
     240:	01440000 	mrseq	r0, (UNDEF: 68)
     244:	01480000 	mrseq	r0, (UNDEF: 72)
     248:	00030000 	andeq	r0, r3, r0
     24c:	489f0170 	ldmmi	pc, {r4, r5, r6, r8}	; <UNPREDICTABLE>
     250:	58000001 	stmdapl	r0, {r0}
     254:	01000001 	tsteq	r0, r1
     258:	00005000 	andeq	r5, r0, r0
     25c:	00000000 	andeq	r0, r0, r0
     260:	00180000 	andseq	r0, r8, r0
     264:	002c0000 	eoreq	r0, ip, r0
     268:	00010000 	andeq	r0, r1, r0
     26c:	00002c50 	andeq	r2, r0, r0, asr ip
     270:	00006c00 	andeq	r6, r0, r0, lsl #24
     274:	f3000400 	vshl.u8	d0, d0, d0
     278:	009f5001 	addseq	r5, pc, r1
	...
     284:	24000000 	strcs	r0, [r0], #-0
     288:	06000000 	streq	r0, [r0], -r0
     28c:	04935000 	ldreq	r5, [r3], #0
     290:	24049351 	strcs	r9, [r4], #-849	; 0x351
     294:	74000000 	strvc	r0, [r0], #-0
     298:	06000000 	streq	r0, [r0], -r0
     29c:	f503f300 			; <UNDEFINED> instruction: 0xf503f300
     2a0:	009f2500 	addseq	r2, pc, r0, lsl #10
	...
     2ac:	24000000 	strcs	r0, [r0], #-0
     2b0:	06000000 	streq	r0, [r0], -r0
     2b4:	04935200 	ldreq	r5, [r3], #512	; 0x200
     2b8:	24049353 	strcs	r9, [r4], #-851	; 0x353
     2bc:	74000000 	strvc	r0, [r0], #-0
     2c0:	06000000 	streq	r0, [r0], -r0
     2c4:	f503f300 			; <UNDEFINED> instruction: 0xf503f300
     2c8:	009f2502 	addseq	r2, pc, r2, lsl #10
     2cc:	00000000 	andeq	r0, r0, r0
     2d0:	14000000 	strne	r0, [r0], #-0
     2d4:	24000000 	strcs	r0, [r0], #-0
     2d8:	0a000000 	beq	2e0 <_start-0x7d20>
     2dc:	00089e00 	andeq	r9, r8, r0, lsl #28
     2e0:	00000000 	andeq	r0, r0, r0
     2e4:	243ff000 	ldrtcs	pc, [pc], #-0	; 2ec <_start-0x7d14>	; <UNPREDICTABLE>
     2e8:	3c000000 	stccc	0, cr0, [r0], {-0}
     2ec:	06000000 	streq	r0, [r0], -r0
     2f0:	04935400 	ldreq	r5, [r3], #1024	; 0x400
     2f4:	40049355 	andmi	r9, r4, r5, asr r3
     2f8:	6c000000 	stcvs	0, cr0, [r0], {-0}
     2fc:	06000000 	streq	r0, [r0], -r0
     300:	04935400 	ldreq	r5, [r3], #1024	; 0x400
     304:	00049355 	andeq	r9, r4, r5, asr r3
     308:	00000000 	andeq	r0, r0, r0
     30c:	14000000 	strne	r0, [r0], #-0
     310:	24000000 	strcs	r0, [r0], #-0
     314:	02000000 	andeq	r0, r0, #0
     318:	249f3000 	ldrcs	r3, [pc], #0	; 320 <_start-0x7ce0>
     31c:	6c000000 	stcvs	0, cr0, [r0], {-0}
     320:	01000000 	mrseq	r0, (UNDEF: 0)
     324:	00005a00 	andeq	r5, r0, r0, lsl #20
     328:	00000000 	andeq	r0, r0, r0
     32c:	00740000 	rsbseq	r0, r4, r0
     330:	008b0000 	addeq	r0, fp, r0
     334:	00060000 	andeq	r0, r6, r0
     338:	51049350 	tstpl	r4, r0, asr r3
     33c:	008b0493 	umulleq	r0, fp, r3, r4
     340:	01040000 	mrseq	r0, (UNDEF: 4)
     344:	00060000 	andeq	r0, r6, r0
     348:	00f503f3 	ldrshteq	r0, [r5], #51	; 0x33
     34c:	00009f25 	andeq	r9, r0, r5, lsr #30
     350:	00000000 	andeq	r0, r0, r0
     354:	00740000 	rsbseq	r0, r4, r0
     358:	008b0000 	addeq	r0, fp, r0
     35c:	00060000 	andeq	r0, r6, r0
     360:	53049352 	movwpl	r9, #17234	; 0x4352
     364:	008b0493 	umulleq	r0, fp, r3, r4
     368:	01040000 	mrseq	r0, (UNDEF: 4)
     36c:	00060000 	andeq	r0, r6, r0
     370:	02f503f3 	rscseq	r0, r5, #-872415229	; 0xcc000003
     374:	00009f25 	andeq	r9, r0, r5, lsr #30
     378:	00000000 	andeq	r0, r0, r0
     37c:	00900000 	addseq	r0, r0, r0
     380:	009b0000 	addseq	r0, fp, r0
     384:	00010000 	andeq	r0, r1, r0
     388:	0000c850 	andeq	ip, r0, r0, asr r8
     38c:	0000cb00 	andeq	ip, r0, r0, lsl #22
     390:	50000100 	andpl	r0, r0, r0, lsl #2
	...
     39c:	00000104 	andeq	r0, r0, r4, lsl #2
     3a0:	00000113 	andeq	r0, r0, r3, lsl r1
     3a4:	93500006 	cmpls	r0, #6
     3a8:	04935104 	ldreq	r5, [r3], #260	; 0x104
     3ac:	00000113 	andeq	r0, r0, r3, lsl r1
     3b0:	000002a0 	andeq	r0, r0, r0, lsr #5
     3b4:	03f30006 	mvnseq	r0, #6
     3b8:	9f2500f5 	svcls	0x002500f5
	...
     3c4:	0000011c 	andeq	r0, r0, ip, lsl r1
     3c8:	00000260 	andeq	r0, r0, r0, ror #4
     3cc:	93540006 	cmpls	r4, #6
     3d0:	04935504 	ldreq	r5, [r3], #1284	; 0x504
	...
     3dc:	0000011c 	andeq	r0, r0, ip, lsl r1
     3e0:	00000150 	andeq	r0, r0, r0, asr r1
     3e4:	93540006 	cmpls	r4, #6
     3e8:	04935504 	ldreq	r5, [r3], #1284	; 0x504
     3ec:	00000150 	andeq	r0, r0, r0, asr r1
     3f0:	00000180 	andeq	r0, r0, r0, lsl #3
     3f4:	93560006 	cmpls	r6, #6
     3f8:	04935704 	ldreq	r5, [r3], #1796	; 0x704
     3fc:	00000184 	andeq	r0, r0, r4, lsl #3
     400:	000001bc 			; <UNDEFINED> instruction: 0x000001bc
     404:	93560006 	cmpls	r6, #6
     408:	04935704 	ldreq	r5, [r3], #1796	; 0x704
     40c:	000001c0 	andeq	r0, r0, r0, asr #3
     410:	000001f0 	strdeq	r0, [r0], -r0	; <UNPREDICTABLE>
     414:	93560006 	cmpls	r6, #6
     418:	04935704 	ldreq	r5, [r3], #1796	; 0x704
     41c:	000001f4 	strdeq	r0, [r0], -r4
     420:	0000022c 	andeq	r0, r0, ip, lsr #4
     424:	93560006 	cmpls	r6, #6
     428:	04935704 	ldreq	r5, [r3], #1796	; 0x704
     42c:	00000230 	andeq	r0, r0, r0, lsr r2
     430:	0000025c 	andeq	r0, r0, ip, asr r2
     434:	93560006 	cmpls	r6, #6
     438:	04935704 	ldreq	r5, [r3], #1796	; 0x704
     43c:	0000025c 	andeq	r0, r0, ip, asr r2
     440:	000002a0 	andeq	r0, r0, r0, lsr #5
     444:	93500006 	cmpls	r0, #6
     448:	04935104 	ldreq	r5, [r3], #260	; 0x104
	...
     458:	00000008 	andeq	r0, r0, r8
     45c:	9f300002 	svcls	0x00300002
     460:	00000008 	andeq	r0, r0, r8
     464:	00000018 	andeq	r0, r0, r8, lsl r0
     468:	00530001 	subseq	r0, r3, r1
	...
     474:	0f000000 	svceq	0x00000000
     478:	06000000 	streq	r0, [r0], -r0
     47c:	04935000 	ldreq	r5, [r3], #0
     480:	0f049351 	svceq	0x00049351
     484:	68000000 	stmdavs	r0, {}	; <UNPREDICTABLE>
     488:	06000000 	streq	r0, [r0], -r0
     48c:	f503f300 			; <UNDEFINED> instruction: 0xf503f300
     490:	009f2500 	addseq	r2, pc, r0, lsl #10
	...
     49c:	1c000000 	stcne	0, cr0, [r0], {-0}
     4a0:	01000000 	mrseq	r0, (UNDEF: 0)
     4a4:	001c5000 	andseq	r5, ip, r0
     4a8:	04240000 	strteq	r0, [r4], #-0
     4ac:	00010000 	andeq	r0, r1, r0
     4b0:	0004245b 	andeq	r2, r4, fp, asr r4
     4b4:	00044400 	andeq	r4, r4, r0, lsl #8
     4b8:	f3000400 	vshl.u8	d0, d0, d0
     4bc:	009f5001 	addseq	r5, pc, r1
	...
     4c8:	44000000 	strmi	r0, [r0], #-0
     4cc:	01000000 	mrseq	r0, (UNDEF: 0)
     4d0:	00445100 	subeq	r5, r4, r0, lsl #2
     4d4:	04440000 	strbeq	r0, [r4], #-0
     4d8:	00020000 	andeq	r0, r2, r0
     4dc:	00004891 	muleq	r0, r1, r8
	...
     4e8:	004c0000 	subeq	r0, ip, r0
     4ec:	00010000 	andeq	r0, r1, r0
     4f0:	00004c52 	andeq	r4, r0, r2, asr ip
     4f4:	00044400 	andeq	r4, r4, r0, lsl #8
     4f8:	91000300 	mrsls	r0, LR_irq
     4fc:	00007fbc 			; <UNDEFINED> instruction: 0x00007fbc
	...
     508:	004c0000 	subeq	r0, ip, r0
     50c:	00010000 	andeq	r0, r1, r0
     510:	00004c53 	andeq	r4, r0, r3, asr ip
     514:	00044400 	andeq	r4, r4, r0, lsl #8
     518:	91000200 	mrsls	r0, R8_usr
     51c:	0000004c 	andeq	r0, r0, ip, asr #32
     520:	00000000 	andeq	r0, r0, r0
     524:	00001800 	andeq	r1, r0, r0, lsl #16
     528:	00004c00 	andeq	r4, r0, r0, lsl #24
     52c:	31000200 	mrscc	r0, R8_usr
     530:	00004c9f 	muleq	r0, pc, ip	; <UNPREDICTABLE>
     534:	00042400 	andeq	r2, r4, r0, lsl #8
     538:	58000100 	stmdapl	r0, {r8}
	...
     544:	00000018 	andeq	r0, r0, r8, lsl r0
     548:	0000004c 	andeq	r0, r0, ip, asr #32
     54c:	9f310002 	svcls	0x00310002
     550:	0000004c 	andeq	r0, r0, ip, asr #32
     554:	0000009c 	muleq	r0, ip, r0
     558:	007d0002 	rsbseq	r0, sp, r2
     55c:	0000009c 	muleq	r0, ip, r0
     560:	000000a7 	andeq	r0, r0, r7, lsr #1
     564:	a7520001 	ldrbge	r0, [r2, -r1]
     568:	20000000 	andcs	r0, r0, r0
     56c:	02000004 	andeq	r0, r0, #4
     570:	20007d00 	andcs	r7, r0, r0, lsl #26
     574:	44000004 	strmi	r0, [r0], #-4
     578:	03000004 	movweq	r0, #4
     57c:	7fb09100 	svcvc	0x00b09100
	...
     588:	00000018 	andeq	r0, r0, r8, lsl r0
     58c:	0000004c 	andeq	r0, r0, ip, asr #32
     590:	9f300002 	svcls	0x00300002
     594:	0000004c 	andeq	r0, r0, ip, asr #32
     598:	00000394 	muleq	r0, r4, r3
     59c:	94590001 	ldrbls	r0, [r9], #-1
     5a0:	98000003 	stmdals	r0, {r0, r1}
     5a4:	03000003 	movweq	r0, #3
     5a8:	9f017900 	svcls	0x00017900
     5ac:	00000398 	muleq	r0, r8, r3
     5b0:	0000039f 	muleq	r0, pc, r3	; <UNPREDICTABLE>
     5b4:	9f500001 	svcls	0x00500001
     5b8:	a4000003 	strge	r0, [r0], #-3
     5bc:	03000003 	movweq	r0, #3
     5c0:	9f017900 	svcls	0x00017900
     5c4:	000003a4 	andeq	r0, r0, r4, lsr #7
     5c8:	000003ac 	andeq	r0, r0, ip, lsr #7
     5cc:	ac510001 	mrrcge	0, 0, r0, r1, cr1
     5d0:	24000003 	strcs	r0, [r0], #-3
     5d4:	01000004 	tsteq	r0, r4
     5d8:	00005900 	andeq	r5, r0, r0, lsl #18
     5dc:	00000000 	andeq	r0, r0, r0
     5e0:	00180000 	andseq	r0, r8, r0
     5e4:	004c0000 	subeq	r0, ip, r0
     5e8:	00020000 	andeq	r0, r2, r0
     5ec:	004c9f30 	subeq	r9, ip, r0, lsr pc
     5f0:	03e80000 	mvneq	r0, #0
     5f4:	00010000 	andeq	r0, r1, r0
     5f8:	0003e85a 	andeq	lr, r3, sl, asr r8
     5fc:	0003ec00 	andeq	lr, r3, r0, lsl #24
     600:	7a000300 	bvc	1208 <_start-0x6df8>
     604:	03ec9f01 	mvneq	r9, #1, 30
     608:	03f30000 	mvnseq	r0, #0
     60c:	00010000 	andeq	r0, r1, r0
     610:	0003f350 	andeq	pc, r3, r0, asr r3	; <UNPREDICTABLE>
     614:	0003f800 	andeq	pc, r3, r0, lsl #16
     618:	7a000300 	bvc	1220 <_start-0x6de0>
     61c:	03f89f01 	mvnseq	r9, #1, 30
     620:	03fc0000 	mvnseq	r0, #0
     624:	00010000 	andeq	r0, r1, r0
     628:	0003fc51 	andeq	pc, r3, r1, asr ip	; <UNPREDICTABLE>
     62c:	00042400 	andeq	r2, r4, r0, lsl #8
     630:	5a000100 	bpl	a38 <_start-0x75c8>
	...
     63c:	00000018 	andeq	r0, r0, r8, lsl r0
     640:	0000004c 	andeq	r0, r0, ip, asr #32
     644:	9f300002 	svcls	0x00300002
     648:	0000004c 	andeq	r0, r0, ip, asr #32
     64c:	000003a4 	andeq	r0, r0, r4, lsr #7
     650:	a4560001 	ldrbge	r0, [r6], #-1
     654:	ac000003 	stcge	0, cr0, [r0], {3}
     658:	02000003 	andeq	r0, r0, #3
     65c:	ac9f3000 	ldcge	0, cr3, [pc], {0}
     660:	24000003 	strcs	r0, [r0], #-3
     664:	01000004 	tsteq	r0, r4
     668:	00005600 	andeq	r5, r0, r0, lsl #12
     66c:	00000000 	andeq	r0, r0, r0
     670:	00180000 	andseq	r0, r8, r0
     674:	004c0000 	subeq	r0, ip, r0
     678:	00020000 	andeq	r0, r2, r0
     67c:	004c9f30 	subeq	r9, ip, r0, lsr pc
     680:	03f80000 	mvnseq	r0, #0
     684:	00010000 	andeq	r0, r1, r0
     688:	0003f857 	andeq	pc, r3, r7, asr r8	; <UNPREDICTABLE>
     68c:	0003fc00 	andeq	pc, r3, r0, lsl #24
     690:	30000200 	andcc	r0, r0, r0, lsl #4
     694:	0003fc9f 	muleq	r3, pc, ip	; <UNPREDICTABLE>
     698:	00042400 	andeq	r2, r4, r0, lsl #8
     69c:	57000100 	strpl	r0, [r0, -r0, lsl #2]
	...
     6a8:	00000018 	andeq	r0, r0, r8, lsl r0
     6ac:	0000004c 	andeq	r0, r0, ip, asr #32
     6b0:	9f300002 	svcls	0x00300002
     6b4:	0000004c 	andeq	r0, r0, ip, asr #32
     6b8:	000000ac 	andeq	r0, r0, ip, lsr #1
     6bc:	b0550001 	subslt	r0, r5, r1
     6c0:	24000000 	strcs	r0, [r0], #-0
     6c4:	01000004 	tsteq	r0, r4
     6c8:	00005500 	andeq	r5, r0, r0, lsl #10
     6cc:	00000000 	andeq	r0, r0, r0
     6d0:	00180000 	andseq	r0, r8, r0
     6d4:	004c0000 	subeq	r0, ip, r0
     6d8:	00020000 	andeq	r0, r2, r0
     6dc:	004c9f30 	subeq	r9, ip, r0, lsr pc
     6e0:	011c0000 	tsteq	ip, r0
     6e4:	00030000 	andeq	r0, r3, r0
     6e8:	207fb891 			; <UNDEFINED> instruction: 0x207fb891
     6ec:	28000001 	stmdacs	r0, {r0}
     6f0:	03000001 	movweq	r0, #1
     6f4:	7fb89100 	svcvc	0x00b89100
     6f8:	0000012c 	andeq	r0, r0, ip, lsr #2
     6fc:	00000134 	andeq	r0, r0, r4, lsr r1
     700:	b8910003 	ldmlt	r1, {r0, r1}
     704:	0001387f 	andeq	r3, r1, pc, ror r8
     708:	00014000 	andeq	r4, r1, r0
     70c:	91000300 	mrsls	r0, LR_irq
     710:	01447fb8 	strheq	r7, [r4, #-248]	; 0xffffff08
     714:	014c0000 	mrseq	r0, (UNDEF: 76)
     718:	00030000 	andeq	r0, r3, r0
     71c:	507fb891 			; <UNDEFINED> instruction: 0x507fb891
     720:	44000001 	strmi	r0, [r0], #-1
     724:	03000004 	movweq	r0, #4
     728:	7fb89100 	svcvc	0x00b89100
	...
     734:	00000018 	andeq	r0, r0, r8, lsl r0
     738:	0000004c 	andeq	r0, r0, ip, asr #32
     73c:	9f300002 	svcls	0x00300002
     740:	0000004c 	andeq	r0, r0, ip, asr #32
     744:	00000184 	andeq	r0, r0, r4, lsl #3
     748:	b4910003 	ldrlt	r0, [r1], #3
     74c:	0001847f 	andeq	r8, r1, pc, ror r4
     750:	00018800 	andeq	r8, r1, r0, lsl #16
     754:	50000100 	andpl	r0, r0, r0, lsl #2
     758:	00000188 	andeq	r0, r0, r8, lsl #3
     75c:	00000190 	muleq	r0, r0, r1
     760:	b4910003 	ldrlt	r0, [r1], #3
     764:	0001947f 	andeq	r9, r1, pc, ror r4
     768:	00044400 	andeq	r4, r4, r0, lsl #8
     76c:	91000300 	mrsls	r0, LR_irq
     770:	00007fb4 			; <UNDEFINED> instruction: 0x00007fb4
     774:	00000000 	andeq	r0, r0, r0
     778:	00180000 	andseq	r0, r8, r0
     77c:	004c0000 	subeq	r0, ip, r0
     780:	00020000 	andeq	r0, r2, r0
     784:	004c9f30 	subeq	r9, ip, r0, lsr pc
     788:	02140000 	andseq	r0, r4, #0
     78c:	00020000 	andeq	r0, r2, r0
     790:	02184491 	andseq	r4, r8, #-1862270976	; 0x91000000
     794:	02200000 	eoreq	r0, r0, #0
     798:	00020000 	andeq	r0, r2, r0
     79c:	02244491 	eoreq	r4, r4, #-1862270976	; 0x91000000
     7a0:	022c0000 	eoreq	r0, ip, #0
     7a4:	00020000 	andeq	r0, r2, r0
     7a8:	02304491 	eorseq	r4, r0, #-1862270976	; 0x91000000
     7ac:	02380000 	eorseq	r0, r8, #0
     7b0:	00020000 	andeq	r0, r2, r0
     7b4:	023c4491 	eorseq	r4, ip, #-1862270976	; 0x91000000
     7b8:	02440000 	subeq	r0, r4, #0
     7bc:	00020000 	andeq	r0, r2, r0
     7c0:	02484491 	subeq	r4, r8, #-1862270976	; 0x91000000
     7c4:	02500000 	subseq	r0, r0, #0
     7c8:	00020000 	andeq	r0, r2, r0
     7cc:	02544491 	subseq	r4, r4, #-1862270976	; 0x91000000
     7d0:	025c0000 	subseq	r0, ip, #0
     7d4:	00020000 	andeq	r0, r2, r0
     7d8:	02604491 	rsbeq	r4, r0, #-1862270976	; 0x91000000
     7dc:	02680000 	rsbeq	r0, r8, #0
     7e0:	00020000 	andeq	r0, r2, r0
     7e4:	026c4491 	rsbeq	r4, ip, #-1862270976	; 0x91000000
     7e8:	02740000 	rsbseq	r0, r4, #0
     7ec:	00020000 	andeq	r0, r2, r0
     7f0:	02784491 	rsbseq	r4, r8, #-1862270976	; 0x91000000
     7f4:	04440000 	strbeq	r0, [r4], #-0
     7f8:	00020000 	andeq	r0, r2, r0
     7fc:	00004491 	muleq	r0, r1, r4
     800:	00000000 	andeq	r0, r0, r0
     804:	00180000 	andseq	r0, r8, r0
     808:	004c0000 	subeq	r0, ip, r0
     80c:	00020000 	andeq	r0, r2, r0
     810:	004c9f30 	subeq	r9, ip, r0, lsr pc
     814:	02f80000 	rscseq	r0, r8, #0
     818:	00020000 	andeq	r0, r2, r0
     81c:	02fc4091 	rscseq	r4, ip, #145	; 0x91
     820:	03040000 	movweq	r0, #16384	; 0x4000
     824:	00020000 	andeq	r0, r2, r0
     828:	03084091 	movweq	r4, #32913	; 0x8091
     82c:	03100000 	tsteq	r0, #0
     830:	00020000 	andeq	r0, r2, r0
     834:	03144091 	tsteq	r4, #145	; 0x91
     838:	031c0000 	tsteq	ip, #0
     83c:	00020000 	andeq	r0, r2, r0
     840:	03204091 	teqeq	r0, #145	; 0x91
     844:	03280000 	teqeq	r8, #0
     848:	00020000 	andeq	r0, r2, r0
     84c:	032c4091 	teqeq	ip, #145	; 0x91
     850:	03340000 	teqeq	r4, #0
     854:	00020000 	andeq	r0, r2, r0
     858:	03384091 	teqeq	r8, #145	; 0x91
     85c:	03400000 	movteq	r0, #0
     860:	00020000 	andeq	r0, r2, r0
     864:	03444091 	movteq	r4, #16529	; 0x4091
     868:	034c0000 	movteq	r0, #49152	; 0xc000
     86c:	00020000 	andeq	r0, r2, r0
     870:	03504091 	cmpeq	r0, #145	; 0x91
     874:	03580000 	cmpeq	r8, #0
     878:	00020000 	andeq	r0, r2, r0
     87c:	035c4091 	cmpeq	ip, #145	; 0x91
     880:	04440000 	strbeq	r0, [r4], #-0
     884:	00020000 	andeq	r0, r2, r0
     888:	00004091 	muleq	r0, r1, r0
     88c:	00000000 	andeq	r0, r0, r0
     890:	03680000 	cmneq	r8, #0
     894:	03800000 	orreq	r0, r0, #0
     898:	00020000 	andeq	r0, r2, r0
     89c:	03809f30 	orreq	r9, r0, #48, 30	; 0xc0
     8a0:	03ac0000 			; <UNDEFINED> instruction: 0x03ac0000
     8a4:	00010000 	andeq	r0, r1, r0
     8a8:	0003ac54 	andeq	sl, r3, r4, asr ip
     8ac:	0003b000 	andeq	fp, r3, r0
     8b0:	30000200 	andcc	r0, r0, r0, lsl #4
     8b4:	0003b09f 	muleq	r3, pc, r0	; <UNPREDICTABLE>
     8b8:	00041c00 	andeq	r1, r4, r0, lsl #24
     8bc:	54000100 	strpl	r0, [r0], #-256	; 0x100
	...
     8c8:	000000e4 	andeq	r0, r0, r4, ror #1
     8cc:	00000124 	andeq	r0, r0, r4, lsr #2
     8d0:	2c500001 	mrrccs	0, 0, r0, r0, cr1	; <UNPREDICTABLE>
     8d4:	54000001 	strpl	r0, [r0], #-1
     8d8:	01000001 	tsteq	r0, r1
     8dc:	00005000 	andeq	r5, r0, r0
     8e0:	00000000 	andeq	r0, r0, r0
     8e4:	01ac0000 			; <UNDEFINED> instruction: 0x01ac0000
     8e8:	021c0000 	andseq	r0, ip, #0
     8ec:	00010000 	andeq	r0, r1, r0
     8f0:	00022450 	andeq	r2, r2, r0, asr r4
     8f4:	00024c00 	andeq	r4, r2, r0, lsl #24
     8f8:	50000100 	andpl	r0, r0, r0, lsl #2
     8fc:	00000254 	andeq	r0, r0, r4, asr r2
     900:	0000027c 	andeq	r0, r0, ip, ror r2
     904:	00500001 	subseq	r0, r0, r1
     908:	00000000 	andeq	r0, r0, r0
     90c:	90000000 	andls	r0, r0, r0
     910:	00000002 	andeq	r0, r0, r2
     914:	01000003 	tsteq	r0, r3
     918:	03085000 	movweq	r5, #32768	; 0x8000
     91c:	03300000 	teqeq	r0, #0
     920:	00010000 	andeq	r0, r1, r0
     924:	00033850 	andeq	r3, r3, r0, asr r8
     928:	00036000 	andeq	r6, r3, r0
     92c:	50000100 	andpl	r0, r0, r0, lsl #2
	...
     938:	00008c74 	andeq	r8, r0, r4, ror ip
     93c:	00008cc8 	andeq	r8, r0, r8, asr #25
     940:	c8510001 	ldmdagt	r1, {r0}^
     944:	d800008c 	stmdale	r0, {r2, r3, r7}
     948:	0400008c 	streq	r0, [r0], #-140	; 0x8c
     94c:	5101f300 	mrspl	pc, SP_irq	; <UNPREDICTABLE>
     950:	0000009f 	muleq	r0, pc, r0	; <UNPREDICTABLE>
     954:	00000000 	andeq	r0, r0, r0
     958:	008cac00 	addeq	sl, ip, r0, lsl #24
     95c:	008cc400 	addeq	ip, ip, r0, lsl #8
     960:	54000100 	strpl	r0, [r0], #-256	; 0x100
     964:	00008cc4 	andeq	r8, r0, r4, asr #25
     968:	00008ccc 	andeq	r8, r0, ip, asr #25
     96c:	cc530001 	mrrcgt	0, 0, r0, r3, cr1
     970:	d800008c 	stmdale	r0, {r2, r3, r7}
     974:	0100008c 	smlabbeq	r0, ip, r0, r0
     978:	00005200 	andeq	r5, r0, r0, lsl #4
     97c:	00000000 	andeq	r0, r0, r0
     980:	8cbc0000 	ldchi	0, cr0, [ip]
     984:	8ccc0000 	stclhi	0, cr0, [ip], {0}
     988:	00010000 	andeq	r0, r1, r0
     98c:	008ccc52 	addeq	ip, ip, r2, asr ip
     990:	008cd800 	addeq	sp, ip, r0, lsl #16
     994:	70002500 	andvc	r2, r0, r0, lsl #10
     998:	f7007000 			; <UNDEFINED> instruction: 0xf7007000
     99c:	f423f72a 	vld1.8	{d15}, [r3 :128], sl
     9a0:	cccd0823 	stclgt	8, cr0, [sp], {35}	; 0x23
     9a4:	0000cccc 	andeq	ip, r0, ip, asr #25
     9a8:	081e0000 	ldmdaeq	lr, {}	; <UNPREDICTABLE>
     9ac:	2523f720 	strcs	pc, [r3, #-1824]!	; 0x720
     9b0:	25332af7 	ldrcs	r2, [r3, #-2807]!	; 0xaf7
     9b4:	24311e35 	ldrtcs	r1, [r1], #-3637	; 0xe35
     9b8:	9f1e331c 	svcls	0x001e331c
	...
     9c4:	00008cd8 	ldrdeq	r8, [r0], -r8	; <UNPREDICTABLE>
     9c8:	00008d1c 	andeq	r8, r0, ip, lsl sp
     9cc:	1c500001 	mrrcne	0, 0, r0, r0, cr1	; <UNPREDICTABLE>
     9d0:	2400008d 	strcs	r0, [r0], #-141	; 0x8d
     9d4:	0400008d 	streq	r0, [r0], #-141	; 0x8d
     9d8:	5001f300 	andpl	pc, r1, r0, lsl #6
     9dc:	008d249f 	umulleq	r2, sp, pc, r4	; <UNPREDICTABLE>
     9e0:	008d2800 	addeq	r2, sp, r0, lsl #16
     9e4:	50000100 	andpl	r0, r0, r0, lsl #2
     9e8:	00008d28 	andeq	r8, r0, r8, lsr #26
     9ec:	00008d30 	andeq	r8, r0, r0, lsr sp
     9f0:	01f30004 	mvnseq	r0, r4
     9f4:	00009f50 	andeq	r9, r0, r0, asr pc
     9f8:	00000000 	andeq	r0, r0, r0
     9fc:	8d040000 	stchi	0, cr0, [r4, #-0]
     a00:	8d140000 	ldchi	0, cr0, [r4, #-0]
     a04:	00010000 	andeq	r0, r1, r0
     a08:	008d1452 	addeq	r1, sp, r2, asr r4
     a0c:	008d1c00 	addeq	r1, sp, r0, lsl #24
     a10:	70002300 	andvc	r2, r0, r0, lsl #6
     a14:	f72af700 			; <UNDEFINED> instruction: 0xf72af700
     a18:	0823f423 	stmdaeq	r3!, {r0, r1, r5, sl, ip, sp, lr, pc}
     a1c:	cccccccd 	stclgt	12, cr12, [ip], {205}	; 0xcd
     a20:	00000000 	andeq	r0, r0, r0
     a24:	f720081e 			; <UNDEFINED> instruction: 0xf720081e
     a28:	2af72523 	bcs	ffdc9ebc <__bss_end__+0xffdbd7b4>
     a2c:	80232533 	eorhi	r2, r3, r3, lsr r5
     a30:	3240a080 	subcc	sl, r0, #128	; 0x80
     a34:	8d1c9f24 	ldchi	15, cr9, [ip, #-144]	; 0xffffff70
     a38:	8d240000 	stchi	0, cr0, [r4, #-0]
     a3c:	00240000 	eoreq	r0, r4, r0
     a40:	f75001f3 			; <UNDEFINED> instruction: 0xf75001f3
     a44:	f423f72a 	vld1.8	{d15}, [r3 :128], sl
     a48:	cccd0823 	stclgt	8, cr0, [sp], {35}	; 0x23
     a4c:	0000cccc 	andeq	ip, r0, ip, asr #25
     a50:	081e0000 	ldmdaeq	lr, {}	; <UNPREDICTABLE>
     a54:	2523f720 	strcs	pc, [r3, #-1824]!	; 0x720
     a58:	25332af7 	ldrcs	r2, [r3, #-2807]!	; 0xaf7
     a5c:	a0808023 	addge	r8, r0, r3, lsr #32
     a60:	9f243240 	svcls	0x00243240
	...
     a6c:	00008d08 	andeq	r8, r0, r8, lsl #26
     a70:	00008d24 	andeq	r8, r0, r4, lsr #26
     a74:	00510001 	subseq	r0, r1, r1
     a78:	00000000 	andeq	r0, r0, r0
     a7c:	18000000 	stmdane	r0, {}	; <UNPREDICTABLE>
     a80:	2400008d 	strcs	r0, [r0], #-141	; 0x8d
     a84:	0100008d 	smlabbeq	r0, sp, r0, r0
     a88:	00005200 	andeq	r5, r0, r0, lsl #4
     a8c:	00000000 	andeq	r0, r0, r0
     a90:	8d300000 	ldchi	0, cr0, [r0, #-0]
     a94:	8d430000 	stclhi	0, cr0, [r3, #-0]
     a98:	00010000 	andeq	r0, r1, r0
     a9c:	008d4350 	addeq	r4, sp, r0, asr r3
     aa0:	008d4800 	addeq	r4, sp, r0, lsl #16
     aa4:	f3000400 	vshl.u8	d0, d0, d0
     aa8:	009f5001 	addseq	r5, pc, r1
     aac:	00000000 	andeq	r0, r0, r0
     ab0:	48000000 	stmdami	r0, {}	; <UNPREDICTABLE>
     ab4:	5b00008d 	blpl	cf0 <_start-0x7310>
     ab8:	0100008d 	smlabbeq	r0, sp, r0, r0
     abc:	8d5b5000 	ldclhi	0, cr5, [fp, #-0]
     ac0:	8d600000 	stclhi	0, cr0, [r0, #-0]
     ac4:	00040000 	andeq	r0, r4, r0
     ac8:	9f5001f3 	svcls	0x005001f3
	...
     ad4:	00008d60 	andeq	r8, r0, r0, ror #26
     ad8:	00008d88 	andeq	r8, r0, r8, lsl #27
     adc:	88500001 	ldmdahi	r0, {r0}^
     ae0:	9c00008d 	stcls	0, cr0, [r0], {141}	; 0x8d
     ae4:	0400008d 	streq	r0, [r0], #-141	; 0x8d
     ae8:	5001f300 	andpl	pc, r1, r0, lsl #6
     aec:	008d9c9f 	umulleq	r9, sp, pc, ip	; <UNPREDICTABLE>
     af0:	008da400 	addeq	sl, sp, r0, lsl #8
     af4:	50000100 	andpl	r0, r0, r0, lsl #2
     af8:	00008da4 	andeq	r8, r0, r4, lsr #27
     afc:	00008dc0 	andeq	r8, r0, r0, asr #27
     b00:	01f30004 	mvnseq	r0, r4
     b04:	00009f50 	andeq	r9, r0, r0, asr pc
     b08:	00000000 	andeq	r0, r0, r0
     b0c:	8d780000 	ldclhi	0, cr0, [r8, #-0]
     b10:	8d940000 	ldchi	0, cr0, [r4]
     b14:	00010000 	andeq	r0, r1, r0
     b18:	008d9453 	addeq	r9, sp, r3, asr r4
     b1c:	008d9c00 	addeq	r9, sp, r0, lsl #24
     b20:	f3000600 	vmax.u8	d0, d0, d0
     b24:	1a4f5001 	bne	13d4b30 <__bss_end__+0x13c8428>
     b28:	008d9c9f 	umulleq	r9, sp, pc, ip	; <UNPREDICTABLE>
     b2c:	008db000 	addeq	fp, sp, r0
     b30:	53000100 	movwpl	r0, #256	; 0x100
     b34:	00008db0 			; <UNDEFINED> instruction: 0x00008db0
     b38:	00008dc0 	andeq	r8, r0, r0, asr #27
     b3c:	01f30006 	mvnseq	r0, r6
     b40:	9f1a4f50 	svcls	0x001a4f50
	...
     b4c:	00008d8c 	andeq	r8, r0, ip, lsl #27
     b50:	00008d9c 	muleq	r0, ip, sp
     b54:	00500001 	subseq	r0, r0, r1
     b58:	00000000 	andeq	r0, r0, r0
     b5c:	c0000000 	andgt	r0, r0, r0
     b60:	e800008d 	stmda	r0, {r0, r2, r3, r7}
     b64:	0100008d 	smlabbeq	r0, sp, r0, r0
     b68:	8de85000 	stclhi	0, cr5, [r8]
     b6c:	8dfc0000 	ldclhi	0, cr0, [ip]
     b70:	00040000 	andeq	r0, r4, r0
     b74:	9f5001f3 	svcls	0x005001f3
     b78:	00008dfc 	strdeq	r8, [r0], -ip
     b7c:	00008e00 	andeq	r8, r0, r0, lsl #28
     b80:	00500001 	subseq	r0, r0, r1
     b84:	0800008e 	stmdaeq	r0, {r1, r2, r3, r7}
     b88:	0400008e 	streq	r0, [r0], #-142	; 0x8e
     b8c:	5001f300 	andpl	pc, r1, r0, lsl #6
     b90:	0000009f 	muleq	r0, pc, r0	; <UNPREDICTABLE>
     b94:	00000000 	andeq	r0, r0, r0
     b98:	008de000 	addeq	lr, sp, r0
     b9c:	008de400 	addeq	lr, sp, r0, lsl #8
     ba0:	53000100 	movwpl	r0, #256	; 0x100
     ba4:	00008de4 	andeq	r8, r0, r4, ror #27
     ba8:	00008de8 	andeq	r8, r0, r8, ror #27
     bac:	0070000c 	rsbseq	r0, r0, ip
     bb0:	8d232535 	cfstr32hi	mvfx2, [r3, #-212]!	; 0xffffff2c
     bb4:	3240a080 	subcc	sl, r0, #128	; 0x80
     bb8:	8de89f24 	stclhi	15, cr9, [r8, #144]!	; 0x90
     bbc:	8dfc0000 	ldclhi	0, cr0, [ip]
     bc0:	000d0000 	andeq	r0, sp, r0
     bc4:	355001f3 	ldrbcc	r0, [r0, #-499]	; 0x1f3
     bc8:	808d2325 	addhi	r2, sp, r5, lsr #6
     bcc:	243240a0 	ldrtcs	r4, [r2], #-160	; 0xa0
     bd0:	0000009f 	muleq	r0, pc, r0	; <UNPREDICTABLE>
     bd4:	00000000 	andeq	r0, r0, r0
     bd8:	008de400 	addeq	lr, sp, r0, lsl #8
     bdc:	008dfc00 	addeq	pc, sp, r0, lsl #24
     be0:	53000100 	movwpl	r0, #256	; 0x100
	...
     bec:	00008de8 	andeq	r8, r0, r8, ror #27
     bf0:	00008df8 	strdeq	r8, [r0], -r8	; <UNPREDICTABLE>
     bf4:	f8500001 			; <UNDEFINED> instruction: 0xf8500001
     bf8:	fc00008d 	stc2	0, cr0, [r0], {141}	; 0x8d
     bfc:	0600008d 	streq	r0, [r0], -sp, lsl #1
     c00:	5001f300 	andpl	pc, r1, r0, lsl #6
     c04:	009f1a4f 	addseq	r1, pc, pc, asr #20
     c08:	00000000 	andeq	r0, r0, r0
     c0c:	1c000000 	stcne	0, cr0, [r0], {-0}
     c10:	3c00008e 	stccc	0, cr0, [r0], {142}	; 0x8e
     c14:	0100008e 	smlabbeq	r0, lr, r0, r0
     c18:	8e405000 	cdphi	0, 4, cr5, cr0, cr0, {0}
     c1c:	8e540000 	cdphi	0, 5, cr0, cr4, cr0, {0}
     c20:	00010000 	andeq	r0, r1, r0
     c24:	00000050 	andeq	r0, r0, r0, asr r0
     c28:	00000000 	andeq	r0, r0, r0
     c2c:	008e2800 	addeq	r2, lr, r0, lsl #16
     c30:	008e3400 	addeq	r3, lr, r0, lsl #8
     c34:	30000200 	andcc	r0, r0, r0, lsl #4
     c38:	008e349f 	umulleq	r3, lr, pc, r4	; <UNPREDICTABLE>
     c3c:	008e5400 	addeq	r5, lr, r0, lsl #8
     c40:	53000100 	movwpl	r0, #256	; 0x100
	...
     c4c:	00008e54 	andeq	r8, r0, r4, asr lr
     c50:	00008e98 	muleq	r0, r8, lr
     c54:	98500001 	ldmdals	r0, {r0}^
     c58:	1c00008e 	stcne	0, cr0, [r0], {142}	; 0x8e
     c5c:	0100008f 	smlabbeq	r0, pc, r0, r0	; <UNPREDICTABLE>
     c60:	00005500 	andeq	r5, r0, r0, lsl #10
     c64:	00000000 	andeq	r0, r0, r0
     c68:	8e540000 	cdphi	0, 5, cr0, cr4, cr0, {0}
     c6c:	8f100000 	svchi	0x00100000
     c70:	00010000 	andeq	r0, r1, r0
     c74:	008f1051 	addeq	r1, pc, r1, asr r0	; <UNPREDICTABLE>
     c78:	008f1c00 	addeq	r1, pc, r0, lsl #24
     c7c:	74000300 	strvc	r0, [r0], #-768	; 0x300
     c80:	00009f01 	andeq	r9, r0, r1, lsl #30
     c84:	00000000 	andeq	r0, r0, r0
     c88:	8e540000 	cdphi	0, 5, cr0, cr4, cr0, {0}
     c8c:	8e8c0000 	cdphi	0, 8, cr0, cr12, cr0, {0}
     c90:	00010000 	andeq	r0, r1, r0
     c94:	008e8c53 	addeq	r8, lr, r3, asr ip
     c98:	008f1c00 	addeq	r1, pc, r0, lsl #24
     c9c:	f3000400 	vshl.u8	d0, d0, d0
     ca0:	009f5301 	addseq	r5, pc, r1, lsl #6
     ca4:	00000000 	andeq	r0, r0, r0
     ca8:	64000000 	strvs	r0, [r0], #-0
     cac:	7000008e 	andvc	r0, r0, lr, lsl #1
     cb0:	0200008e 	andeq	r0, r0, #142	; 0x8e
     cb4:	709f3000 	addsvc	r3, pc, r0
     cb8:	1c00008e 	stcne	0, cr0, [r0], {142}	; 0x8e
     cbc:	0100008f 	smlabbeq	r0, pc, r0, r0	; <UNPREDICTABLE>
     cc0:	00005c00 	andeq	r5, r0, r0, lsl #24
     cc4:	00000000 	andeq	r0, r0, r0
     cc8:	8e880000 	cdphi	0, 8, cr0, cr8, cr0, {0}
     ccc:	8e8c0000 	cdphi	0, 8, cr0, cr12, cr0, {0}
     cd0:	00060000 	andeq	r0, r6, r0
     cd4:	007c0073 	rsbseq	r0, ip, r3, ror r0
     cd8:	8e8c9f1c 	mcrhi	15, 4, r9, cr12, cr12, {0}
     cdc:	8ec00000 	cdphi	0, 12, cr0, cr0, cr0, {0}
     ce0:	00010000 	andeq	r0, r1, r0
     ce4:	00000053 	andeq	r0, r0, r3, asr r0
     ce8:	00000000 	andeq	r0, r0, r0
     cec:	008e9000 	addeq	r9, lr, r0
     cf0:	008ea400 	addeq	sl, lr, r0, lsl #8
     cf4:	30000200 	andcc	r0, r0, r0, lsl #4
     cf8:	008ea49f 	umulleq	sl, lr, pc, r4	; <UNPREDICTABLE>
     cfc:	008f1c00 	addeq	r1, pc, r0, lsl #24
     d00:	50000100 	andpl	r0, r0, r0, lsl #2
	...
     d0c:	00008e64 	andeq	r8, r0, r4, ror #28
     d10:	00008e70 	andeq	r8, r0, r0, ror lr
     d14:	70520001 	subsvc	r0, r2, r1
     d18:	9400008e 	strls	r0, [r0], #-142	; 0x8e
     d1c:	0100008e 	smlabbeq	r0, lr, r0, r0
     d20:	00005400 	andeq	r5, r0, r0, lsl #8
     d24:	00000000 	andeq	r0, r0, r0
     d28:	8e900000 	cdphi	0, 9, cr0, cr0, cr0, {0}
     d2c:	8ea40000 	cdphi	0, 10, cr0, cr4, cr0, {0}
     d30:	00020000 	andeq	r0, r2, r0
     d34:	8ea49f30 	mcrhi	15, 5, r9, cr4, cr0, {1}
     d38:	8ec40000 	cdphi	0, 12, cr0, cr4, cr0, {0}
     d3c:	00010000 	andeq	r0, r1, r0
     d40:	00000054 	andeq	r0, r0, r4, asr r0
     d44:	00000000 	andeq	r0, r0, r0
     d48:	008ecc00 	addeq	ip, lr, r0, lsl #24
     d4c:	008f0400 	addeq	r0, pc, r0, lsl #8
     d50:	53000100 	movwpl	r0, #256	; 0x100
     d54:	00008f0c 	andeq	r8, r0, ip, lsl #30
     d58:	00008f14 	andeq	r8, r0, r4, lsl pc
     d5c:	00530001 	subseq	r0, r3, r1
     d60:	00000000 	andeq	r0, r0, r0
     d64:	1c000000 	stcne	0, cr0, [r0], {-0}
     d68:	6000008f 	andvs	r0, r0, pc, lsl #1
     d6c:	0100008f 	smlabbeq	r0, pc, r0, r0	; <UNPREDICTABLE>
     d70:	8f605000 	svchi	0x00605000
     d74:	8ff40000 	svchi	0x00f40000
     d78:	00010000 	andeq	r0, r1, r0
     d7c:	00000055 	andeq	r0, r0, r5, asr r0
     d80:	00000000 	andeq	r0, r0, r0
     d84:	008f1c00 	addeq	r1, pc, r0, lsl #24
     d88:	008fe800 	addeq	lr, pc, r0, lsl #16
     d8c:	51000100 	mrspl	r0, (UNDEF: 16)
     d90:	00008fe8 	andeq	r8, r0, r8, ror #31
     d94:	00008ff4 	strdeq	r8, [r0], -r4
     d98:	01760003 	cmneq	r6, r3
     d9c:	0000009f 	muleq	r0, pc, r0	; <UNPREDICTABLE>
     da0:	00000000 	andeq	r0, r0, r0
     da4:	008f1c00 	addeq	r1, pc, r0, lsl #24
     da8:	008f5400 	addeq	r5, pc, r0, lsl #8
     dac:	53000100 	movwpl	r0, #256	; 0x100
     db0:	00008f54 	andeq	r8, r0, r4, asr pc
     db4:	00008ff4 	strdeq	r8, [r0], -r4
     db8:	01f30004 	mvnseq	r0, r4
     dbc:	00009f53 	andeq	r9, r0, r3, asr pc
     dc0:	00000000 	andeq	r0, r0, r0
     dc4:	8f2c0000 	svchi	0x002c0000
     dc8:	8f380000 	svchi	0x00380000
     dcc:	00020000 	andeq	r0, r2, r0
     dd0:	8f389f30 	svchi	0x00389f30
     dd4:	8ff40000 	svchi	0x00f40000
     dd8:	00010000 	andeq	r0, r1, r0
     ddc:	0000005c 	andeq	r0, r0, ip, asr r0
     de0:	00000000 	andeq	r0, r0, r0
     de4:	008f5000 	addeq	r5, pc, r0
     de8:	008f5400 	addeq	r5, pc, r0, lsl #8
     dec:	73000600 	movwvc	r0, #1536	; 0x600
     df0:	1c007c00 	stcne	12, cr7, [r0], {-0}
     df4:	008f549f 	umulleq	r5, pc, pc, r4	; <UNPREDICTABLE>
     df8:	008f8800 	addeq	r8, pc, r0, lsl #16
     dfc:	53000100 	movwpl	r0, #256	; 0x100
	...
     e08:	00008f58 	andeq	r8, r0, r8, asr pc
     e0c:	00008f6c 	andeq	r8, r0, ip, ror #30
     e10:	9f300002 	svcls	0x00300002
     e14:	00008f6c 	andeq	r8, r0, ip, ror #30
     e18:	00008ff4 	strdeq	r8, [r0], -r4
     e1c:	00500001 	subseq	r0, r0, r1
     e20:	00000000 	andeq	r0, r0, r0
     e24:	2c000000 	stccs	0, cr0, [r0], {-0}
     e28:	3800008f 	stmdacc	r0, {r0, r1, r2, r3, r7}
     e2c:	0100008f 	smlabbeq	r0, pc, r0, r0	; <UNPREDICTABLE>
     e30:	8f385200 	svchi	0x00385200
     e34:	8f5c0000 	svchi	0x005c0000
     e38:	00010000 	andeq	r0, r1, r0
     e3c:	00000054 	andeq	r0, r0, r4, asr r0
     e40:	00000000 	andeq	r0, r0, r0
     e44:	008f5800 	addeq	r5, pc, r0, lsl #16
     e48:	008f6c00 	addeq	r6, pc, r0, lsl #24
     e4c:	30000200 	andcc	r0, r0, r0, lsl #4
     e50:	008f6c9f 	umulleq	r6, pc, pc, ip	; <UNPREDICTABLE>
     e54:	008f9400 	addeq	r9, pc, r0, lsl #8
     e58:	54000100 	strpl	r0, [r0], #-256	; 0x100
	...
     e64:	00008f94 	muleq	r0, r4, pc	; <UNPREDICTABLE>
     e68:	00008fdc 	ldrdeq	r8, [r0], -ip
     e6c:	e4530001 	ldrb	r0, [r3], #-1
     e70:	ec00008f 	stc	0, cr0, [r0], {143}	; 0x8f
     e74:	0100008f 	smlabbeq	r0, pc, r0, r0	; <UNPREDICTABLE>
     e78:	00005300 	andeq	r5, r0, r0, lsl #6
     e7c:	00000000 	andeq	r0, r0, r0
     e80:	8fac0000 	svchi	0x00ac0000
     e84:	8fb40000 	svchi	0x00b40000
     e88:	00010000 	andeq	r0, r1, r0
     e8c:	008fb454 	addeq	fp, pc, r4, asr r4	; <UNPREDICTABLE>
     e90:	008fb800 	addeq	fp, pc, r0, lsl #16
     e94:	74000300 	strvc	r0, [r0], #-768	; 0x300
     e98:	8fb89f50 	svchi	0x00b89f50
     e9c:	8fbc0000 	svchi	0x00bc0000
     ea0:	00010000 	andeq	r0, r1, r0
     ea4:	008fbc54 	addeq	fp, pc, r4, asr ip	; <UNPREDICTABLE>
     ea8:	008fc000 	addeq	ip, pc, r0
     eac:	74000400 	strvc	r0, [r0], #-1024	; 0x400
     eb0:	009f7fa9 	addseq	r7, pc, r9, lsr #31
     eb4:	00000000 	andeq	r0, r0, r0
     eb8:	f4000000 	vst4.8	{d0-d3}, [r0], r0
     ebc:	2800008f 	stmdacs	r0, {r0, r1, r2, r3, r7}
     ec0:	01000090 	swpeq	r0, r0, [r0]	; <UNPREDICTABLE>
     ec4:	90285000 	eorls	r5, r8, r0
     ec8:	913c0000 	teqls	ip, r0
     ecc:	00010000 	andeq	r0, r1, r0
     ed0:	00913c57 	addseq	r3, r1, r7, asr ip
     ed4:	00914000 	addseq	r4, r1, r0
     ed8:	f3000400 	vshl.u8	d0, d0, d0
     edc:	009f5001 	addseq	r5, pc, r1
     ee0:	00000000 	andeq	r0, r0, r0
     ee4:	f4000000 	vst4.8	{d0-d3}, [r0], r0
     ee8:	2000008f 	andcs	r0, r0, pc, lsl #1
     eec:	01000090 	swpeq	r0, r0, [r0]	; <UNPREDICTABLE>
     ef0:	90205100 	eorls	r5, r0, r0, lsl #2
     ef4:	913c0000 	teqls	ip, r0
     ef8:	00020000 	andeq	r0, r2, r0
     efc:	913c507b 	teqls	ip, fp, ror r0
     f00:	91400000 	mrsls	r0, (UNDEF: 64)
     f04:	00020000 	andeq	r0, r2, r0
     f08:	00004c91 	muleq	r0, r1, ip
     f0c:	00000000 	andeq	r0, r0, r0
     f10:	8ff40000 	svchi	0x00f40000
     f14:	90180000 	andsls	r0, r8, r0
     f18:	00010000 	andeq	r0, r1, r0
     f1c:	00901852 	addseq	r1, r0, r2, asr r8
     f20:	00913c00 	addseq	r3, r1, r0, lsl #24
     f24:	59000100 	stmdbpl	r0, {r8}
	...
     f30:	00008ff4 	strdeq	r8, [r0], -r4
     f34:	0000904c 	andeq	r9, r0, ip, asr #32
     f38:	4c530001 	mrrcmi	0, 0, r0, r3, cr1
     f3c:	40000090 	mulmi	r0, r0, r0
     f40:	04000091 	streq	r0, [r0], #-145	; 0x91
     f44:	5301f300 	movwpl	pc, #4864	; 0x1300	; <UNPREDICTABLE>
     f48:	0000009f 	muleq	r0, pc, r0	; <UNPREDICTABLE>
     f4c:	00000000 	andeq	r0, r0, r0
     f50:	00901000 	addseq	r1, r0, r0
     f54:	00901c00 	addseq	r1, r0, r0, lsl #24
     f58:	72000500 	andvc	r0, r0, #0, 10
     f5c:	9f254f00 	svcls	0x00254f00
     f60:	0000901c 	andeq	r9, r0, ip, lsl r0
     f64:	00009140 	andeq	r9, r0, r0, asr #2
     f68:	01f30006 	mvnseq	r0, r6
     f6c:	9f254f52 	svcls	0x00254f52
	...
     f78:	00009018 	andeq	r9, r0, r8, lsl r0
     f7c:	00009028 	andeq	r9, r0, r8, lsr #32
     f80:	28560001 	ldmdacs	r6, {r0}^
     f84:	b4000090 	strlt	r0, [r0], #-144	; 0x90
     f88:	01000090 	swpeq	r0, r0, [r0]	; <UNPREDICTABLE>
     f8c:	90b45100 	adcsls	r5, r4, r0, lsl #2
     f90:	913c0000 	teqls	ip, r0
     f94:	00010000 	andeq	r0, r1, r0
     f98:	00000056 	andeq	r0, r0, r6, asr r0
     f9c:	00000000 	andeq	r0, r0, r0
     fa0:	00904800 	addseq	r4, r0, r0, lsl #16
     fa4:	00904c00 	addseq	r4, r0, r0, lsl #24
     fa8:	73000600 	movwvc	r0, #1536	; 0x600
     fac:	1c007100 	stfnes	f7, [r0], {-0}
     fb0:	00904c9f 	umullseq	r4, r0, pc, ip	; <UNPREDICTABLE>
     fb4:	0090c800 	addseq	ip, r0, r0, lsl #16
     fb8:	53000100 	movwpl	r0, #256	; 0x100
	...
     fc4:	00009050 	andeq	r9, r0, r0, asr r0
     fc8:	00009098 	muleq	r0, r8, r0
     fcc:	9f300002 	svcls	0x00300002
     fd0:	00009098 	muleq	r0, r8, r0
     fd4:	0000913c 	andeq	r9, r0, ip, lsr r1
     fd8:	3c540001 	mrrccc	0, 0, r0, r4, cr1
     fdc:	40000091 	mulmi	r0, r1, r0
     fe0:	01000091 	swpeq	r0, r1, [r0]	; <UNPREDICTABLE>
     fe4:	00005000 	andeq	r5, r0, r0
     fe8:	00000000 	andeq	r0, r0, r0
     fec:	90180000 	andsls	r0, r8, r0
     ff0:	90280000 	eorls	r0, r8, r0
     ff4:	00010000 	andeq	r0, r1, r0
     ff8:	00902859 	addseq	r2, r0, r9, asr r8
     ffc:	00903400 	addseq	r3, r0, r0, lsl #8
    1000:	52000100 	andpl	r0, r0, #0, 2
    1004:	00009038 	andeq	r9, r0, r8, lsr r0
    1008:	00009060 	andeq	r9, r0, r0, rrx
    100c:	78520001 	ldmdavc	r2, {r0}^
    1010:	80000090 	mulhi	r0, r0, r0
    1014:	01000090 	swpeq	r0, r0, [r0]	; <UNPREDICTABLE>
    1018:	00005200 	andeq	r5, r0, r0, lsl #4
    101c:	00000000 	andeq	r0, r0, r0
    1020:	90980000 	addsls	r0, r8, r0
    1024:	90c80000 	sbcls	r0, r8, r0
    1028:	00010000 	andeq	r0, r1, r0
    102c:	00000052 	andeq	r0, r0, r2, asr r0
    1030:	00000000 	andeq	r0, r0, r0
    1034:	0090b400 	addseq	fp, r0, r0, lsl #8
    1038:	0090c800 	addseq	ip, r0, r0, lsl #16
    103c:	30000200 	andcc	r0, r0, r0, lsl #4
    1040:	0090c89f 	umullseq	ip, r0, pc, r8	; <UNPREDICTABLE>
    1044:	00913c00 	addseq	r3, r1, r0, lsl #24
    1048:	55000100 	strpl	r0, [r0, #-256]	; 0x100
	...
    1054:	00009140 	andeq	r9, r0, r0, asr #2
    1058:	0000916c 	andeq	r9, r0, ip, ror #2
    105c:	6c500001 	mrrcvs	0, 0, r0, r0, cr1	; <UNPREDICTABLE>
    1060:	74000091 	strvc	r0, [r0], #-145	; 0x91
    1064:	01000091 	swpeq	r0, r1, [r0]	; <UNPREDICTABLE>
    1068:	91745700 	cmnls	r4, r0, lsl #14
    106c:	91900000 	orrsls	r0, r0, r0
    1070:	00010000 	andeq	r0, r1, r0
    1074:	00919050 	addseq	r9, r1, r0, asr r0
    1078:	00931800 	addseq	r1, r3, r0, lsl #16
    107c:	57000100 	strpl	r0, [r0, -r0, lsl #2]
    1080:	00009318 	andeq	r9, r0, r8, lsl r3
    1084:	0000931c 	andeq	r9, r0, ip, lsl r3
    1088:	1c500001 	mrrcne	0, 0, r0, r0, cr1	; <UNPREDICTABLE>
    108c:	20000093 	mulcs	r0, r3, r0
    1090:	01000093 	swpeq	r0, r3, [r0]	; <UNPREDICTABLE>
    1094:	00005700 	andeq	r5, r0, r0, lsl #14
    1098:	00000000 	andeq	r0, r0, r0
    109c:	91400000 	mrsls	r0, (UNDEF: 64)
    10a0:	91900000 	orrsls	r0, r0, r0
    10a4:	00010000 	andeq	r0, r1, r0
    10a8:	00919051 	addseq	r9, r1, r1, asr r0
    10ac:	00931800 	addseq	r1, r3, r0, lsl #16
    10b0:	58000100 	stmdapl	r0, {r8}
    10b4:	00009318 	andeq	r9, r0, r8, lsl r3
    10b8:	00009320 	andeq	r9, r0, r0, lsr #6
    10bc:	00510001 	subseq	r0, r1, r1
    10c0:	00000000 	andeq	r0, r0, r0
    10c4:	40000000 	andmi	r0, r0, r0
    10c8:	90000091 	mulls	r0, r1, r0
    10cc:	01000091 	swpeq	r0, r1, [r0]	; <UNPREDICTABLE>
    10d0:	91905200 	orrsls	r5, r0, r0, lsl #4
    10d4:	93180000 	tstls	r8, #0
    10d8:	00040000 	andeq	r0, r4, r0
    10dc:	9f5201f3 	svcls	0x005201f3
    10e0:	00009318 	andeq	r9, r0, r8, lsl r3
    10e4:	00009320 	andeq	r9, r0, r0, lsr #6
    10e8:	00520001 	subseq	r0, r2, r1
    10ec:	00000000 	andeq	r0, r0, r0
    10f0:	40000000 	andmi	r0, r0, r0
    10f4:	7c000091 	stcvc	0, cr0, [r0], {145}	; 0x91
    10f8:	01000091 	swpeq	r0, r1, [r0]	; <UNPREDICTABLE>
    10fc:	91805300 	orrls	r5, r0, r0, lsl #6
    1100:	91900000 	orrsls	r0, r0, r0
    1104:	00010000 	andeq	r0, r1, r0
    1108:	00930053 	addseq	r0, r3, r3, asr r0
    110c:	00930800 	addseq	r0, r3, r0, lsl #16
    1110:	53000100 	movwpl	r0, #256	; 0x100
    1114:	00009318 	andeq	r9, r0, r8, lsl r3
    1118:	00009320 	andeq	r9, r0, r0, lsr #6
    111c:	00530001 	subseq	r0, r3, r1
    1120:	00000000 	andeq	r0, r0, r0
    1124:	58000000 	stmdapl	r0, {}	; <UNPREDICTABLE>
    1128:	90000091 	mulls	r0, r1, r0
    112c:	02000091 	andeq	r0, r0, #145	; 0x91
    1130:	909f3000 	addsls	r3, pc, r0
    1134:	18000091 	stmdane	r0, {r0, r4, r7}
    1138:	01000093 	swpeq	r0, r3, [r0]	; <UNPREDICTABLE>
    113c:	93185400 	tstls	r8, #0, 8
    1140:	93200000 	teqls	r0, #0
    1144:	00020000 	andeq	r0, r2, r0
    1148:	00009f30 	andeq	r9, r0, r0, lsr pc
    114c:	00000000 	andeq	r0, r0, r0
    1150:	91580000 	cmpls	r8, r0
    1154:	91900000 	orrsls	r0, r0, r0
    1158:	00010000 	andeq	r0, r1, r0
    115c:	00919052 	addseq	r9, r1, r2, asr r0
    1160:	0091b800 	addseq	fp, r1, r0, lsl #16
    1164:	51000100 	mrspl	r0, (UNDEF: 16)
    1168:	000091b8 			; <UNDEFINED> instruction: 0x000091b8
    116c:	000091f0 	strdeq	r9, [r0], -r0
    1170:	f0550001 			; <UNDEFINED> instruction: 0xf0550001
    1174:	1c000091 	stcne	0, cr0, [r0], {145}	; 0x91
    1178:	01000092 	swpeq	r0, r2, [r0]	; <UNPREDICTABLE>
    117c:	921c5200 	andsls	r5, ip, #0, 4
    1180:	92240000 	eorls	r0, r4, #0
    1184:	00010000 	andeq	r0, r1, r0
    1188:	00922455 	addseq	r2, r2, r5, asr r4
    118c:	00922800 	addseq	r2, r2, r0, lsl #16
    1190:	52000100 	andpl	r0, r0, #0, 2
    1194:	00009228 	andeq	r9, r0, r8, lsr #4
    1198:	00009300 	andeq	r9, r0, r0, lsl #6
    119c:	00550001 	subseq	r0, r5, r1
    11a0:	04000093 	streq	r0, [r0], #-147	; 0x93
    11a4:	01000093 	swpeq	r0, r3, [r0]	; <UNPREDICTABLE>
    11a8:	93045200 	movwls	r5, #16896	; 0x4200
    11ac:	93180000 	tstls	r8, #0
    11b0:	00010000 	andeq	r0, r1, r0
    11b4:	00931851 	addseq	r1, r3, r1, asr r8
    11b8:	00932000 	addseq	r2, r3, r0
    11bc:	52000100 	andpl	r0, r0, #0, 2
	...
    11c8:	00009190 	muleq	r0, r0, r1
    11cc:	000091a0 	andeq	r9, r0, r0, lsr #3
    11d0:	00720002 	rsbseq	r0, r2, r2
    11d4:	000091a0 	andeq	r9, r0, r0, lsr #3
    11d8:	000091b4 			; <UNDEFINED> instruction: 0x000091b4
    11dc:	b4530001 	ldrblt	r0, [r3], #-1
    11e0:	bc000091 	stclt	0, cr0, [r0], {145}	; 0x91
    11e4:	02000091 	andeq	r0, r0, #145	; 0x91
    11e8:	bc007200 	sfmlt	f7, 4, [r0], {-0}
    11ec:	cc000091 	stcgt	0, cr0, [r0], {145}	; 0x91
    11f0:	02000091 	andeq	r0, r0, #145	; 0x91
    11f4:	cc017200 	sfmgt	f7, 4, [r1], {-0}
    11f8:	e0000091 	mul	r0, r1, r0
    11fc:	01000091 	swpeq	r0, r1, [r0]	; <UNPREDICTABLE>
    1200:	91e05100 	mvnls	r5, r0, lsl #2
    1204:	91ec0000 	mvnls	r0, r0
    1208:	00020000 	andeq	r0, r2, r0
    120c:	91f40172 	mvnsls	r0, r2, ror r1
    1210:	92180000 	andsls	r0, r8, #0
    1214:	00020000 	andeq	r0, r2, r0
    1218:	92180075 	andsls	r0, r8, #117	; 0x75
    121c:	921c0000 	andsls	r0, ip, #0
    1220:	00020000 	andeq	r0, r2, r0
    1224:	921c7f72 	andsls	r7, ip, #456	; 0x1c8
    1228:	92240000 	eorls	r0, r4, #0
    122c:	00020000 	andeq	r0, r2, r0
    1230:	92240172 	eorls	r0, r4, #-2147483620	; 0x8000001c
    1234:	92280000 	eorls	r0, r8, #0
    1238:	00020000 	andeq	r0, r2, r0
    123c:	92280075 	eorls	r0, r8, #117	; 0x75
    1240:	92ac0000 	adcls	r0, ip, #0
    1244:	00010000 	andeq	r0, r1, r0
    1248:	0092bc51 	addseq	fp, r2, r1, asr ip
    124c:	0092cc00 	addseq	ip, r2, r0, lsl #24
    1250:	51000100 	mrspl	r0, (UNDEF: 16)
    1254:	000092dc 	ldrdeq	r9, [r0], -ip
    1258:	000092ec 	andeq	r9, r0, ip, ror #5
    125c:	fc510001 	mrrc2	0, 0, r0, r1, cr1
    1260:	00000092 	muleq	r0, r2, r0
    1264:	01000093 	swpeq	r0, r3, [r0]	; <UNPREDICTABLE>
    1268:	93085100 	movwls	r5, #33024	; 0x8100
    126c:	93180000 	tstls	r8, #0
    1270:	00020000 	andeq	r0, r2, r0
    1274:	00000072 	andeq	r0, r0, r2, ror r0
    1278:	00000000 	andeq	r0, r0, r0
    127c:	92380000 	eorsls	r0, r8, #0
    1280:	92700000 	rsbsls	r0, r0, #0
    1284:	00010000 	andeq	r0, r1, r0
    1288:	00000053 	andeq	r0, r0, r3, asr r0
    128c:	00000000 	andeq	r0, r0, r0
    1290:	0091e000 	addseq	lr, r1, r0
    1294:	0091ec00 	addseq	lr, r1, r0, lsl #24
    1298:	30000200 	andcc	r0, r0, r0, lsl #4
    129c:	0091ec9f 	umullseq	lr, r1, pc, ip	; <UNPREDICTABLE>
    12a0:	00920c00 	addseq	r0, r2, r0, lsl #24
    12a4:	53000100 	movwpl	r0, #256	; 0x100
    12a8:	00009210 	andeq	r9, r0, r0, lsl r2
    12ac:	0000921c 	andeq	r9, r0, ip, lsl r2
    12b0:	1c530001 	mrrcne	0, 0, r0, r3, cr1
    12b4:	24000092 	strcs	r0, [r0], #-146	; 0x92
    12b8:	02000092 	andeq	r0, r0, #146	; 0x92
    12bc:	249f3000 	ldrcs	r3, [pc], #0	; 12c4 <_start-0x6d3c>
    12c0:	34000092 	strcc	r0, [r0], #-146	; 0x92
    12c4:	01000092 	swpeq	r0, r2, [r0]	; <UNPREDICTABLE>
    12c8:	92705300 	rsbsls	r5, r0, #0, 6
    12cc:	92af0000 	adcls	r0, pc, #0
    12d0:	00010000 	andeq	r0, r1, r0
    12d4:	0092bc53 	addseq	fp, r2, r3, asr ip
    12d8:	0092cf00 	addseq	ip, r2, r0, lsl #30
    12dc:	53000100 	movwpl	r0, #256	; 0x100
    12e0:	000092dc 	ldrdeq	r9, [r0], -ip
    12e4:	000092ef 	andeq	r9, r0, pc, ror #5
    12e8:	fc530001 	mrrc2	0, 0, r0, r3, cr1
    12ec:	00000092 	muleq	r0, r2, r0
    12f0:	01000093 	swpeq	r0, r3, [r0]	; <UNPREDICTABLE>
    12f4:	00005300 	andeq	r5, r0, r0, lsl #6
    12f8:	00000000 	andeq	r0, r0, r0
    12fc:	92080000 	andls	r0, r8, #0
    1300:	921c0000 	andsls	r0, ip, #0
    1304:	00010000 	andeq	r0, r1, r0
    1308:	00000051 	andeq	r0, r0, r1, asr r0
    130c:	00000000 	andeq	r0, r0, r0
    1310:	00927800 	addseq	r7, r2, r0, lsl #16
    1314:	00929800 	addseq	r9, r2, r0, lsl #16
    1318:	52000100 	andpl	r0, r0, #0, 2
    131c:	0000929c 	muleq	r0, ip, r2
    1320:	000092af 	andeq	r9, r0, pc, lsr #5
    1324:	bc520001 	mrrclt	0, 0, r0, r2, cr1
    1328:	cf000092 	svcgt	0x00000092
    132c:	01000092 	swpeq	r0, r2, [r0]	; <UNPREDICTABLE>
    1330:	92dc5200 	sbcsls	r5, ip, #0, 4
    1334:	92ef0000 	rscls	r0, pc, #0
    1338:	00010000 	andeq	r0, r1, r0
    133c:	0092fc52 	addseq	pc, r2, r2, asr ip	; <UNPREDICTABLE>
    1340:	00930000 	addseq	r0, r3, r0
    1344:	52000100 	andpl	r0, r0, #0, 2
	...
    1350:	00009320 	andeq	r9, r0, r0, lsr #6
    1354:	00009343 	andeq	r9, r0, r3, asr #6
    1358:	43500001 	cmpmi	r0, #1
    135c:	4c000093 	stcmi	0, cr0, [r0], {147}	; 0x93
    1360:	04000093 	streq	r0, [r0], #-147	; 0x93
    1364:	5001f300 	andpl	pc, r1, r0, lsl #6
    1368:	0000009f 	muleq	r0, pc, r0	; <UNPREDICTABLE>
    136c:	00000000 	andeq	r0, r0, r0
    1370:	00932000 	addseq	r2, r3, r0
    1374:	00934300 	addseq	r4, r3, r0, lsl #6
    1378:	51000100 	mrspl	r0, (UNDEF: 16)
    137c:	00009343 	andeq	r9, r0, r3, asr #6
    1380:	0000934c 	andeq	r9, r0, ip, asr #6
    1384:	01f30004 	mvnseq	r0, r4
    1388:	00009f51 	andeq	r9, r0, r1, asr pc
    138c:	00000000 	andeq	r0, r0, r0
    1390:	93900000 	orrsls	r0, r0, #0
    1394:	93930000 	orrsls	r0, r3, #0
    1398:	00020000 	andeq	r0, r2, r0
    139c:	93a00073 	movls	r0, #115	; 0x73
    13a0:	93b40000 			; <UNDEFINED> instruction: 0x93b40000
    13a4:	00020000 	andeq	r0, r2, r0
    13a8:	00000073 	andeq	r0, r0, r3, ror r0
    13ac:	00000000 	andeq	r0, r0, r0
    13b0:	93640000 	cmnls	r4, #0
    13b4:	93900000 	orrsls	r0, r0, #0
    13b8:	00040000 	andeq	r0, r4, r0
    13bc:	9f77d891 	svcls	0x0077d891
    13c0:	00009390 	muleq	r0, r0, r3
    13c4:	00009398 	muleq	r0, r8, r3
    13c8:	98540001 	ldmdals	r4, {r0}^
    13cc:	9c000093 	stcls	0, cr0, [r0], {147}	; 0x93
    13d0:	01000093 	swpeq	r0, r3, [r0]	; <UNPREDICTABLE>
    13d4:	939c5300 	orrsls	r5, ip, #0, 6
    13d8:	93b40000 			; <UNDEFINED> instruction: 0x93b40000
    13dc:	00010000 	andeq	r0, r1, r0
    13e0:	00000054 	andeq	r0, r0, r4, asr r0
    13e4:	00000000 	andeq	r0, r0, r0
    13e8:	00938400 	addseq	r8, r3, r0, lsl #8
    13ec:	00939000 	addseq	r9, r3, r0
    13f0:	50000100 	andpl	r0, r0, r0, lsl #2
    13f4:	00009390 	muleq	r0, r0, r3
    13f8:	000093b4 			; <UNDEFINED> instruction: 0x000093b4
    13fc:	00550001 	subseq	r0, r5, r1
    1400:	00000000 	andeq	r0, r0, r0
    1404:	e0000000 	and	r0, r0, r0
    1408:	f3000093 	vqadd.u8	d0, d16, d3
    140c:	01000093 	swpeq	r0, r3, [r0]	; <UNPREDICTABLE>
    1410:	93f35000 	mvnsls	r5, #0
    1414:	940c0000 	strls	r0, [ip], #-0
    1418:	00010000 	andeq	r0, r1, r0
    141c:	00000055 	andeq	r0, r0, r5, asr r0
    1420:	00000000 	andeq	r0, r0, r0
    1424:	0093fc00 	addseq	pc, r3, r0, lsl #24
    1428:	00940000 	addseq	r0, r4, r0
    142c:	50000100 	andpl	r0, r0, r0, lsl #2
	...
    1438:	0000940c 	andeq	r9, r0, ip, lsl #8
    143c:	00009428 	andeq	r9, r0, r8, lsr #8
    1440:	28500001 	ldmdacs	r0, {r0}^
    1444:	40000094 	mulmi	r0, r4, r0
    1448:	01000094 	swpeq	r0, r4, [r0]	; <UNPREDICTABLE>
    144c:	00005500 	andeq	r5, r0, r0, lsl #10
    1450:	00000000 	andeq	r0, r0, r0
    1454:	941c0000 	ldrls	r0, [ip], #-0
    1458:	94280000 	strtls	r0, [r8], #-0
    145c:	00020000 	andeq	r0, r2, r0
    1460:	94289f30 	strtls	r9, [r8], #-3888	; 0xf30
    1464:	94400000 	strbls	r0, [r0], #-0
    1468:	00010000 	andeq	r0, r1, r0
    146c:	00000054 	andeq	r0, r0, r4, asr r0
    1470:	00000000 	andeq	r0, r0, r0
    1474:	00944000 	addseq	r4, r4, r0
    1478:	00945c00 	addseq	r5, r4, r0, lsl #24
    147c:	50000100 	andpl	r0, r0, r0, lsl #2
    1480:	0000945c 	andeq	r9, r0, ip, asr r4
    1484:	00009474 	andeq	r9, r0, r4, ror r4
    1488:	00550001 	subseq	r0, r5, r1
    148c:	00000000 	andeq	r0, r0, r0
    1490:	50000000 	andpl	r0, r0, r0
    1494:	5c000094 	stcpl	0, cr0, [r0], {148}	; 0x94
    1498:	02000094 	andeq	r0, r0, #148	; 0x94
    149c:	5c9f3000 	ldcpl	0, cr3, [pc], {0}
    14a0:	74000094 	strvc	r0, [r0], #-148	; 0x94
    14a4:	01000094 	swpeq	r0, r4, [r0]	; <UNPREDICTABLE>
    14a8:	00005400 	andeq	r5, r0, r0, lsl #8
    14ac:	00000000 	andeq	r0, r0, r0
    14b0:	94740000 	ldrbtls	r0, [r4], #-0
    14b4:	94840000 	strls	r0, [r4], #0
    14b8:	00010000 	andeq	r0, r1, r0
    14bc:	00948450 	addseq	r8, r4, r0, asr r4
    14c0:	00949400 	addseq	r9, r4, r0, lsl #8
    14c4:	54000100 	strpl	r0, [r0], #-256	; 0x100
	...
    14d0:	0000952c 	andeq	r9, r0, ip, lsr #10
    14d4:	00009548 	andeq	r9, r0, r8, asr #10
    14d8:	48500001 	ldmdami	r0, {r0}^
    14dc:	6c000095 	stcvs	0, cr0, [r0], {149}	; 0x95
    14e0:	01000095 	swpeq	r0, r5, [r0]	; <UNPREDICTABLE>
    14e4:	00005400 	andeq	r5, r0, r0, lsl #8
    14e8:	00000000 	andeq	r0, r0, r0
    14ec:	95900000 	ldrls	r0, [r0]
    14f0:	95b80000 	ldrls	r0, [r8, #0]!
    14f4:	00010000 	andeq	r0, r1, r0
    14f8:	0095b850 	addseq	fp, r5, r0, asr r8
    14fc:	0095c000 	addseq	ip, r5, r0
    1500:	54000100 	strpl	r0, [r0], #-256	; 0x100
    1504:	000095c0 	andeq	r9, r0, r0, asr #11
    1508:	000095f8 	strdeq	r9, [r0], -r8
    150c:	01f30004 	mvnseq	r0, r4
    1510:	00009f50 	andeq	r9, r0, r0, asr pc
    1514:	00000000 	andeq	r0, r0, r0
    1518:	95900000 	ldrls	r0, [r0]
    151c:	95ac0000 	strls	r0, [ip, #0]!
    1520:	00010000 	andeq	r0, r1, r0
    1524:	0095ac51 	addseq	sl, r5, r1, asr ip
    1528:	0095f800 	addseq	pc, r5, r0, lsl #16
    152c:	f3000400 	vshl.u8	d0, d0, d0
    1530:	009f5101 	addseq	r5, pc, r1, lsl #2
    1534:	00000000 	andeq	r0, r0, r0
    1538:	f8000000 			; <UNDEFINED> instruction: 0xf8000000
    153c:	13000095 	movwne	r0, #149	; 0x95
    1540:	01000096 	swpeq	r0, r6, [r0]	; <UNPREDICTABLE>
    1544:	96135000 	ldrls	r5, [r3], -r0
    1548:	96180000 	ldrls	r0, [r8], -r0
    154c:	00040000 	andeq	r0, r4, r0
    1550:	9f5001f3 	svcls	0x005001f3
	...
    155c:	00009618 	andeq	r9, r0, r8, lsl r6
    1560:	0000962b 	andeq	r9, r0, fp, lsr #12
    1564:	2b500001 	blcs	1401570 <__bss_end__+0x13f4e68>
    1568:	30000096 	mulcc	r0, r6, r0
    156c:	04000096 	streq	r0, [r0], #-150	; 0x96
    1570:	5001f300 	andpl	pc, r1, r0, lsl #6
    1574:	0000009f 	muleq	r0, pc, r0	; <UNPREDICTABLE>
    1578:	00000000 	andeq	r0, r0, r0
    157c:	00963000 	addseq	r3, r6, r0
    1580:	00964800 	addseq	r4, r6, r0, lsl #16
    1584:	50000100 	andpl	r0, r0, r0, lsl #2
    1588:	00009648 	andeq	r9, r0, r8, asr #12
    158c:	000096ec 	andeq	r9, r0, ip, ror #13
    1590:	00540001 	subseq	r0, r4, r1
    1594:	00000000 	andeq	r0, r0, r0
    1598:	30000000 	andcc	r0, r0, r0
    159c:	4c000096 	stcmi	0, cr0, [r0], {150}	; 0x96
    15a0:	01000096 	swpeq	r0, r6, [r0]	; <UNPREDICTABLE>
    15a4:	964c5100 	strbls	r5, [ip], -r0, lsl #2
    15a8:	96ec0000 	strbtls	r0, [ip], r0
    15ac:	00010000 	andeq	r0, r1, r0
    15b0:	00000055 	andeq	r0, r0, r5, asr r0
    15b4:	00000000 	andeq	r0, r0, r0
    15b8:	0096ec00 	addseq	lr, r6, r0, lsl #24
    15bc:	00976c00 	addseq	r6, r7, r0, lsl #24
    15c0:	52000100 	andpl	r0, r0, #0, 2
    15c4:	0000976c 	andeq	r9, r0, ip, ror #14
    15c8:	0000977c 	andeq	r9, r0, ip, ror r7
    15cc:	01f30004 	mvnseq	r0, r4
    15d0:	00009f52 	andeq	r9, r0, r2, asr pc
    15d4:	00000000 	andeq	r0, r0, r0
    15d8:	970c0000 	strls	r0, [ip, -r0]
    15dc:	97180000 	ldrls	r0, [r8, -r0]
    15e0:	00020000 	andeq	r0, r2, r0
    15e4:	97189f30 			; <UNDEFINED> instruction: 0x97189f30
    15e8:	977c0000 	ldrbls	r0, [ip, -r0]!
    15ec:	00010000 	andeq	r0, r1, r0
    15f0:	00000055 	andeq	r0, r0, r5, asr r0
    15f4:	00000000 	andeq	r0, r0, r0
	...

Disassembly of section .debug_ranges:

00000000 <.debug_ranges>:
   0:	000000c8 	andeq	r0, r0, r8, asr #1
   4:	000000d0 	ldrdeq	r0, [r0], -r0	; <UNPREDICTABLE>
   8:	000000d4 	ldrdeq	r0, [r0], -r4
   c:	000001a0 	andeq	r0, r0, r0, lsr #3
	...
  18:	00000014 	andeq	r0, r0, r4, lsl r0
  1c:	00000018 	andeq	r0, r0, r8, lsl r0
  20:	00000020 	andeq	r0, r0, r0, lsr #32
  24:	00000060 	andeq	r0, r0, r0, rrx
	...
  30:	00008c64 	andeq	r8, r0, r4, ror #24
  34:	00008c74 	andeq	r8, r0, r4, ror ip
  38:	00008c74 	andeq	r8, r0, r4, ror ip
  3c:	00008cd8 	ldrdeq	r8, [r0], -r8	; <UNPREDICTABLE>
  40:	00008cd8 	ldrdeq	r8, [r0], -r8	; <UNPREDICTABLE>
  44:	00008d30 	andeq	r8, r0, r0, lsr sp
  48:	00008d30 	andeq	r8, r0, r0, lsr sp
  4c:	00008d48 	andeq	r8, r0, r8, asr #26
  50:	00008d48 	andeq	r8, r0, r8, asr #26
  54:	00008d60 	andeq	r8, r0, r0, ror #26
  58:	00008d60 	andeq	r8, r0, r0, ror #26
  5c:	00008dc0 	andeq	r8, r0, r0, asr #27
  60:	00008dc0 	andeq	r8, r0, r0, asr #27
  64:	00008e08 	andeq	r8, r0, r8, lsl #28
	...
  70:	00008e64 	andeq	r8, r0, r4, ror #28
  74:	00008e68 	andeq	r8, r0, r8, ror #28
  78:	00008e6c 	andeq	r8, r0, ip, ror #28
  7c:	00008e80 	andeq	r8, r0, r0, lsl #29
	...
  88:	00008e90 	muleq	r0, r0, lr
  8c:	00008e94 	muleq	r0, r4, lr
  90:	00008e98 	muleq	r0, r8, lr
  94:	00008ec0 	andeq	r8, r0, r0, asr #29
	...
  a0:	00008f2c 	andeq	r8, r0, ip, lsr #30
  a4:	00008f30 	andeq	r8, r0, r0, lsr pc
  a8:	00008f34 	andeq	r8, r0, r4, lsr pc
  ac:	00008f48 	andeq	r8, r0, r8, asr #30
	...
  b8:	00008f58 	andeq	r8, r0, r8, asr pc
  bc:	00008f5c 	andeq	r8, r0, ip, asr pc
  c0:	00008f60 	andeq	r8, r0, r0, ror #30
  c4:	00008f88 	andeq	r8, r0, r8, lsl #31
	...
  d0:	00008f8c 	andeq	r8, r0, ip, lsl #31
  d4:	00008f94 	muleq	r0, r4, pc	; <UNPREDICTABLE>
  d8:	00008f9c 	muleq	r0, ip, pc	; <UNPREDICTABLE>
  dc:	00008fc0 	andeq	r8, r0, r0, asr #31
	...
  e8:	00009018 	andeq	r9, r0, r8, lsl r0
  ec:	0000901c 	andeq	r9, r0, ip, lsl r0
  f0:	00009020 	andeq	r9, r0, r0, lsr #32
  f4:	00009040 	andeq	r9, r0, r0, asr #32
	...
 100:	00008e08 	andeq	r8, r0, r8, lsl #28
 104:	00008e1c 	andeq	r8, r0, ip, lsl lr
 108:	00008e1c 	andeq	r8, r0, ip, lsl lr
 10c:	00008e54 	andeq	r8, r0, r4, asr lr
 110:	00008e54 	andeq	r8, r0, r4, asr lr
 114:	00008f1c 	andeq	r8, r0, ip, lsl pc
 118:	00008f1c 	andeq	r8, r0, ip, lsl pc
 11c:	00008ff4 	strdeq	r8, [r0], -r4
 120:	00008ff4 	strdeq	r8, [r0], -r4
 124:	00009140 	andeq	r9, r0, r0, asr #2
 128:	00009140 	andeq	r9, r0, r0, asr #2
 12c:	00009320 	andeq	r9, r0, r0, lsr #6
 130:	00009320 	andeq	r9, r0, r0, lsr #6
 134:	0000934c 	andeq	r9, r0, ip, asr #6
 138:	0000934c 	andeq	r9, r0, ip, asr #6
 13c:	000093b4 			; <UNDEFINED> instruction: 0x000093b4
	...
 148:	000093b4 			; <UNDEFINED> instruction: 0x000093b4
 14c:	000093c4 	andeq	r9, r0, r4, asr #7
 150:	000093c4 	andeq	r9, r0, r4, asr #7
 154:	000093e0 	andeq	r9, r0, r0, ror #7
 158:	000093e0 	andeq	r9, r0, r0, ror #7
 15c:	0000940c 	andeq	r9, r0, ip, lsl #8
 160:	0000940c 	andeq	r9, r0, ip, lsl #8
 164:	00009440 	andeq	r9, r0, r0, asr #8
 168:	00009440 	andeq	r9, r0, r0, asr #8
 16c:	00009474 	andeq	r9, r0, r4, ror r4
 170:	00009474 	andeq	r9, r0, r4, ror r4
 174:	00009494 	muleq	r0, r4, r4
	...
 180:	00009494 	muleq	r0, r4, r4
 184:	000094fc 	strdeq	r9, [r0], -ip
 188:	000094fc 	strdeq	r9, [r0], -ip
 18c:	0000952c 	andeq	r9, r0, ip, lsr #10
 190:	0000952c 	andeq	r9, r0, ip, lsr #10
 194:	0000956c 	andeq	r9, r0, ip, ror #10
 198:	0000956c 	andeq	r9, r0, ip, ror #10
 19c:	00009590 	muleq	r0, r0, r5
	...
 1a8:	00009590 	muleq	r0, r0, r5
 1ac:	000095f8 	strdeq	r9, [r0], -r8
 1b0:	000095f8 	strdeq	r9, [r0], -r8
 1b4:	00009618 	andeq	r9, r0, r8, lsl r6
 1b8:	00009618 	andeq	r9, r0, r8, lsl r6
 1bc:	00009630 	andeq	r9, r0, r0, lsr r6
	...
 1c8:	00009630 	andeq	r9, r0, r0, lsr r6
 1cc:	000096ec 	andeq	r9, r0, ip, ror #13
 1d0:	000096ec 	andeq	r9, r0, ip, ror #13
 1d4:	0000977c 	andeq	r9, r0, ip, ror r7
	...
